# 2006 September 9
#
# The author disclaims copyright to this source code.  In place of
# a legal notice, here is a blessing:
#
#    May you do good and not evil.
#    May you find forgiveness for yourself and forgive others.
#    May you share freely, never taking more than you give.
#
#*************************************************************************
# This file implements regression tests for SQLite library.  The
# focus of this script is testing the FTS3 module.
#
# $Id: fts3aa.test,v 1.1 2007/08/20 17:38:42 shess Exp $
#

set testdir [file dirname $argv0]
source $testdir/tester.tcl
source $testdir/fts3_common.tcl
set testprefix fts3corrupt4

# If SQLITE_ENABLE_FTS3 is defined, omit this file.
ifcapable !fts3 {
  finish_test
  return
}

sqlite3_fts3_may_be_corrupt 1
database_may_be_corrupt
extra_schema_checks 0

do_execsql_test 1.0 {
  BEGIN;
    CREATE VIRTUAL TABLE ft USING fts3;
    INSERT INTO ft VALUES('aback');
    INSERT INTO ft VALUES('abaft');
    INSERT INTO ft VALUES('abandon');
  COMMIT;
}

proc blob {a} { binary decode hex $a }
db func blob blob

do_execsql_test 1.1 {
  SELECT quote(root) FROM ft_segdir;
} {X'0005616261636B03010200030266740302020003046E646F6E03030200'}

sqlite3_db_config db DEFENSIVE 0
do_execsql_test 1.2 {
  UPDATE ft_segdir SET root = blob(
    '0005616261636B03010200 FFFFFFFF0702 66740302020003046E646F6E03030200'
  );
}

do_catchsql_test 1.3 {
  SELECT * FROM ft WHERE ft MATCH 'abandon';
} {1 {database disk image is malformed}}

#-------------------------------------------------------------------------
reset_db
do_execsql_test 2.0.0 {
  CREATE VIRTUAL TABLE ft USING fts3;
  INSERT INTO ft(ft) VALUES('nodesize=32');
}
do_test 2.0.1 {
  for {set i 0} {$i < 12} {incr i} {
    execsql {
      BEGIN;
        INSERT INTO ft VALUES('abc' || $i);
        INSERT INTO ft VALUES('abc' || $i || 'x' );
        INSERT INTO ft VALUES('abc' || $i || 'xx' );
      COMMIT
    }
  }
  execsql {
    SELECT count(*) FROM ft_segdir;
    SELECT count(*) FROM ft_segments;
  }
} {12 0}

do_execsql_test 2.1 {
  INSERT INTO ft(ft) VALUES('merge=1,4');
  SELECT count(*) FROM ft_segdir;
  SELECT count(*) FROM ft_segments;
} {12 3}

do_execsql_test 2.2 {
  SELECT quote(block) FROM ft_segments WHERE blockid=2
} {X'00056162633130031F0200'}

db func blob blob
sqlite3_db_config db DEFENSIVE 0
do_execsql_test 2.3.1 {
  UPDATE ft_segments SET block = 
    blob('00056162633130031F0200 FFFFFFFF07FF55 66740302020003046E646F6E03030200')
    WHERE blockid=2;
} {}
do_catchsql_test 2.3.2 {
  INSERT INTO ft(ft) VALUES('merge=1,4');
} {1 {database disk image is malformed}}

do_execsql_test 2.4.1 {
  UPDATE ft_segments SET block = 
    blob('00056162633130031F0200 02FFFFFFFF07 66740302020003046E646F6E03030200')
    WHERE blockid=2;
} {}
do_catchsql_test 2.4.2 {
  INSERT INTO ft(ft) VALUES('merge=1,4');
} {1 {database disk image is malformed}}

do_execsql_test 2.5.1 {
  UPDATE ft_segments SET block = 
    blob('00056162633130031F0200 0202 6674 FFFFFF070302020003046E646F6E030200')
    WHERE blockid=2;
} {}
do_catchsql_test 2.5.2 {
  INSERT INTO ft(ft) VALUES('merge=1,4');
} {1 {database disk image is malformed}}

#-------------------------------------------------------------------------
reset_db
do_execsql_test 3.0.0 {
  CREATE VIRTUAL TABLE ft USING fts3;
  INSERT INTO ft(ft) VALUES('nodesize=32');
}
do_test 3.0.1 {
  execsql BEGIN
  for {set i 0} {$i < 20} {incr i} {
    execsql { INSERT INTO ft VALUES('abc' || $i) }
  }
  execsql {
    COMMIT;
    SELECT count(*) FROM ft_segdir;
    SELECT count(*) FROM ft_segments;
  }
} {1 5}

do_execsql_test 3.1 {
  SELECT quote(root) FROM ft_segdir
} {X'0101056162633132040136030132030136'}

db func blob blob
sqlite3_db_config db DEFENSIVE 0
do_execsql_test 3.2 {
  UPDATE ft_segdir 
  SET root = blob('0101056162633132FFFFFFFF070236030132030136');
}

do_catchsql_test 3.1 {
  SELECT * FROM ft WHERE ft MATCH 'abc20'
} {1 {database disk image is malformed}}

#-------------------------------------------------------------------------
reset_db
do_execsql_test 4.0 {
  CREATE VIRTUAL TABLE t1 USING fts3();
  INSERT INTO t1 VALUES('one two three');
  UPDATE t1_segdir SET start_block = 1;
}

do_catchsql_test 4.1 { 
  SELECT * FROM t1 WHERE t1 MATCH 'one'; 
} {1 {database disk image is malformed}}
do_catchsql_test 4.2 { 
  SELECT * FROM t1 WHERE t1 MATCH 'two'; 
} {1 {database disk image is malformed}}
do_catchsql_test 4.3 { 
  SELECT * FROM t1 WHERE t1 MATCH 'three'; 
} {1 {database disk image is malformed}}
do_execsql_test 4.4 {
  INSERT INTO t1(t1) VALUES('optimize');
}

#-------------------------------------------------------------------------
reset_db
do_test 5.0 {
  sqlite3 db {}
  db deserialize [decode_hexdb {
| size 24576 pagesize 4096 filename c15.db
| page 1 offset 0
|      0: 53 51 4c 69 74 65 20 66 6f 72 6d 61 74 20 33 00   SQLite format 3.
|     16: 10 00 01 01 00 40 20 20 00 00 00 00 00 00 00 04   .....@  ........
|     32: 00 00 00 00 00 00 00 00 00 00 00 04 00 00 00 04   ................
|     48: 00 00 00 00 00 00 00 00 00 00 00 01 00 00 00 00   ................
|     96: 00 00 00 00 0d 0e f9 00 06 0d ec 00 0f cd 0f 69   ...............i
|    112: 0f 01 0e 10 0e c6 0d ec 00 00 00 00 00 00 00 00   ................
|   3552: 00 00 00 00 00 00 00 00 00 00 00 00 22 06 06 17   ................
|   3568: 11 11 01 31 74 61 62 6c 65 74 32 74 32 06 43 52   ...1tablet2t2.CR
|   3584: 45 41 54 45 20 54 41 42 4c 45 20 74 32 28 78 29   EATE TABLE t2(x)
|   3600: 81 33 04 07 17 1f 1f 01 82 35 74 61 62 6c 65 74   .3.......5tablet
|   3616: 31 5f 73 65 67 64 69 72 74 31 5f 73 65 67 64 69   1_segdirt1_segdi
|   3632: 72 04 43 52 45 41 54 45 20 54 41 42 4c 45 20 27   r.CREATE TABLE '
|   3648: 74 31 5f 73 65 67 64 69 72 27 28 6c 65 76 65 6c   t1_segdir'(level
|   3664: 20 49 4e 54 45 47 45 52 2c 69 64 78 20 49 4e 54    INTEGER,idx INT
|   3680: 45 47 45 52 2c 73 74 61 72 74 5f 62 6c 6f 63 6b   EGER,start_block
|   3696: 20 49 4e 54 45 47 45 52 2c 6c 65 61 76 65 73 5f    INTEGER,leaves_
|   3712: 65 6e 64 5f 62 6c 6f 63 6b 20 49 4e 54 45 47 45   end_block INTEGE
|   3728: 52 2c 65 6e 64 5f 62 6c 6f 63 6b 20 49 4e 54 45   R,end_block INTE
|   3744: 47 45 52 2c 72 6f 6f 74 20 42 4c 4f 42 2c 50 52   GER,root BLOB,PR
|   3760: 49 4d 41 52 59 20 4b 45 59 28 6c 65 76 65 6c 2c   IMARY KEY(level,
|   3776: 20 69 64 78 29 29 31 05 06 17 45 1f 01 00 69 6e    idx))1...E...in
|   3792: 64 65 78 73 71 6c 69 74 65 5f 61 75 74 6f 69 6e   dexsqlite_autoin
|   3808: 64 65 79 5f 74 31 5f 73 65 67 64 69 72 5f 31 74   dey_t1_segdir_1t
|   3824: 31 5f 73 65 67 64 69 72 05 00 00 00 08 00 00 00   1_segdir........
|   3840: 00 66 03 07 17 23 23 01 81 13 74 61 62 6c 65 74   .f...##...tablet
|   3856: 31 5f 73 65 67 6d 65 6e 74 73 74 31 5f 73 65 67   1_segmentst1_seg
|   3872: 6d 65 6e 74 73 03 43 52 45 41 54 45 20 54 41 42   ments.CREATE TAB
|   3888: 4c 45 20 27 74 31 5f 73 65 67 6d 65 6e 74 73 27   LE 't1_segments'
|   3904: 28 62 6c 6f 63 6b 69 64 20 49 4e 54 45 47 45 52   (blockid INTEGER
|   3920: 20 50 52 49 4d 41 52 59 20 4b 45 59 2c 20 62 6c    PRIMARY KEY, bl
|   3936: 6f 63 6b 20 42 4c 4f 42 29 62 02 07 17 21 21 01   ock BLOB)b...!!.
|   3952: 81 0f 74 61 62 6c 65 74 31 5f 63 6f 6e 74 65 6e   ..tablet1_conten
|   3968: 74 74 31 5f 63 6f 6e 74 65 6e 74 02 43 52 45 41   tt1_content.CREA
|   3984: 54 45 20 54 41 42 4c 45 20 27 74 31 5f 63 6f 6e   TE TABLE 't1_con
|   4000: 74 65 6e 74 27 28 64 6f 63 69 64 20 49 4e 54 45   tent'(docid INTE
|   4016: 47 45 52 20 50 52 49 4d 41 52 59 20 4b 45 59 2c   GER PRIMARY KEY,
|   4032: 20 27 63 30 63 6f 6e 74 65 6e 74 27 29 31 01 06    'c0content')1..
|   4048: 17 11 11 08 51 74 61 62 6c 65 74 31 74 31 43 52   ....Qtablet1t1CR
|   4064: 45 41 54 45 20 56 49 52 54 55 41 4c 20 54 41 42   EATE VIRTUAL TAB
|   4080: 4c 45 20 74 31 20 55 53 49 4e 47 20 66 74 73 33   LE t1 USING fts3
| page 2 offset 4096
|      0: 0d 00 00 00 03 0f e0 00 0f f6 0f ec 0f e0 00 00   ................
|   4064: 0a 03 03 00 1b 61 62 61 6e 64 6f 6e 08 02 03 00   .....abandon....
|   4080: 17 61 62 61 66 74 08 01 03 00 17 61 62 61 63 6b   .abaft.....aback
| page 3 offset 8192
|      0: 0d 00 00 00 00 10 00 00 00 00 00 00 00 00 00 00   ................
| page 4 offset 12288
|      0: 0d 00 00 00 01 0f d6 00 0f d6 00 00 00 00 00 00   ................
|   4048: 00 00 00 00 00 00 28 01 07 08 08 08 08 15 46 30   ......(.......F0
|   4064: 20 32 39 00 05 61 62 61 63 6b 03 01 02 00 03 02    29..aback......
|   4080: 66 74 03 02 02 00 03 04 6e 64 6f 60 30 30 20 00   ft......ndo`00 .
| page 5 offset 16384
|      0: a0 00 00 00 10 ff b0 00 ff fb 00 00 00 00 00 00   ................
|   4080: 00 00 00 00 00 00 00 00 00 00 00 04 04 08 08 09   ................
| page 6 offset 20480
|      0: 0d 00 00 00 05 0f b8 00 0f f4 0f e9 0f d6 0f c7   ................
|     16: 0f b8 27 74 31 5f 63 6f 6e 74 65 6e 74 27 28 64   ..'t1_content'(d
|     32: 6f 63 69 64 20 49 4e 54 45 47 45 52 20 50 52 49   ocid INTEGER PRI
|     48: 4d 41 52 59 20 4b 45 59 2c 20 27 63 30 63 6f 6e   MARY KEY, 'c0con
|     64: 74 65 6e 74 27 29 31 01 06 17 11 11 08 51 74 61   tent')1......Qta
|     80: 62 6c 65 74 31 74 31 43 52 45 41 54 45 20 56 49   blet1t1CREATE VI
|     96: 52 54 55 41 4c 20 54 41 42 4c 45 20 74 31 20 55   RTUAL TABLE t1 U
|    112: 53 49 4e 47 20 66 74 73 33 0d 00 00 00 03 0f e0   SING fts3.......
|    128: 00 0f f6 0f ec 0f e0 00 00 00 00 00 00 00 00 00   ................
|   4016: 00 00 00 00 00 00 00 00 0d 05 02 23 61 75 74 6f   ...........#auto
|   4032: 6d 65 72 67 65 3d 35 0d 04 02 23 6d 65 72 67 65   merge=5...#merge
|   4048: 3d 31 30 30 2c 38 11 03 02 2b 69 6e 74 65 67 72   =100,8...+integr
|   4064: 69 74 79 2d 63 68 65 63 6b 09 02 02 1b 72 65 62   ity-check....reb
|   4080: 75 69 6c 64 0a 01 02 1d 6f 70 74 69 6d 69 7a 65   uild....optimize
| end c15.db
}]} {}

do_catchsql_test 5.1 {
  SELECT * FROM t1 WHERE t1 MATCH 'abandon';
} {1 {malformed database schema (sqlite_autoindey_t1_segdir_1) - orphan index}}


#-------------------------------------------------------------------------
reset_db
database_may_be_corrupt
do_execsql_test 6.0 {
  CREATE VIRTUAL TABLE Table0 USING fts3();
  INSERT INTO Table0_segdir VALUES(1,NULL,1,NULL,NULL,NULL);
}

do_catchsql_test 6.1 {
  SELECT * FROM Table0 WHERE Table0 MATCH 'a';
} {0 {}}

do_catchsql_test 6.2 {
  INSERT INTO Table0(Table0) VALUES('optimize');
} {0 {}}

#-------------------------------------------------------------------------
reset_db
do_test 7.0 {
  sqlite3 db {}
  db deserialize [decode_hexdb {
| size 32768 pagesize 4096 filename crash-04bb6e7c811ce9.db
| page 1 offset 0
|      0: 53 51 4c 69 74 65 20 66 6f 72 6d 61 74 20 33 00   SQLite format 3.
|     16: 10 00 01 01 00 40 20 20 00 00 00 00 00 00 00 07   .....@  ........
|     32: 00 00 00 00 00 00 00 00 00 00 00 06 00 00 00 04   ................
|     48: 00 00 00 00 00 00 00 00 00 00 00 01 00 00 00 00   ................
|     96: 00 00 00 00 0d 0e ef 00 07 0d 4d 00 0f bd 0f 5f   ..........M...._
|    112: 0e f7 0e 06 0e bc 0d a4 0d 4d 00 00 00 00 00 00   .........M......
|   3392: 00 00 00 00 00 00 00 00 00 00 00 00 00 55 07 07   .............U..
|   3408: 17 1b 1b 01 81 01 74 61 62 6c 65 74 31 5f 73 74   ......tablet1_st
|   3424: 61 74 74 31 5f 73 74 61 74 07 43 52 45 41 54 45   att1_stat.CREATE
|   3440: 20 54 41 42 4c 45 20 27 74 31 5f 73 74 61 74 27    TABLE 't1_stat'
|   3456: 28 69 64 20 49 4e 54 45 47 45 52 20 50 52 49 4d   (id INTEGER PRIM
|   3472: 41 52 59 20 4b 45 59 2c 20 76 61 6c 75 65 20 42   ARY KEY, value B
|   3488: 4c 4f 42 29 60 06 07 17 21 21 01 81 0b 74 61 62   LOB)`...!!...tab
|   3504: 6c 65 74 31 5f 64 6f 63 73 69 7a 65 74 31 5f 64   let1_docsizet1_d
|   3520: 6f 63 73 69 7a 65 06 43 52 45 41 54 45 20 54 41   ocsize.CREATE TA
|   3536: 42 4c 45 20 27 74 31 5f 64 6f 63 73 69 7a 65 27   BLE 't1_docsize'
|   3552: 28 64 6f 63 69 64 20 49 4e 54 45 47 45 52 20 50   (docid INTEGER P
|   3568: 52 49 4d 41 52 59 20 4b 45 59 2c 20 73 69 7a 65   RIMARY KEY, size
|   3584: 20 42 4c 4f 42 29 81 33 04 07 17 1f 1f 01 82 35    BLOB).3.......5
|   3600: 74 61 62 6c 65 74 31 5f 73 65 67 64 69 72 74 31   tablet1_segdirt1
|   3616: 5f 73 65 67 64 69 72 04 43 52 45 41 54 45 20 54   _segdir.CREATE T
|   3632: 41 42 4c 45 20 27 74 31 5f 73 65 67 64 69 72 27   ABLE 't1_segdir'
|   3648: 28 6c 65 76 65 6c 20 49 4e 54 45 47 45 52 2c 69   (level INTEGER,i
|   3664: 64 78 20 49 4e 54 45 47 45 52 2c 73 74 61 72 74   dx INTEGER,start
|   3680: 5f 62 6c 6f 63 6b 20 49 4e 54 45 47 45 52 2c 6c   _block INTEGER,l
|   3696: 65 61 76 65 73 5f 65 6e 64 5f 62 6c 6f 63 6b 20   eaves_end_block 
|   3712: 49 4e 54 45 47 45 52 2c 65 6e 64 5f 62 6c 6f 63   INTEGER,end_bloc
|   3728: 6b 20 49 4e 54 45 47 45 52 2c 72 6f 6f 74 20 42   k INTEGER,root B
|   3744: 4c 4f 42 2c 50 52 49 4d 41 52 59 20 4b 45 59 28   LOB,PRIMARY KEY(
|   3760: 6c 65 76 65 6c 2c 20 69 64 78 29 29 31 05 06 17   level, idx))1...
|   3776: 45 1f 01 00 69 6e 64 65 78 73 71 6c 69 74 65 5f   E...indexsqlite_
|   3792: 61 75 74 6f 69 6e 64 65 78 5f 74 31 5f 73 65 67   autoindex_t1_seg
|   3808: 64 69 72 5f 31 74 31 5f 73 65 67 64 69 72 05 00   dir_1t1_segdir..
|   3824: 00 00 08 00 00 00 00 66 03 07 17 23 23 01 81 13   .......f...##...
|   3840: 74 61 62 6c 65 74 31 5f 73 65 67 6d 65 6e 74 73   tablet1_segments
|   3856: 74 31 5f 73 65 67 6d 65 6e 74 73 03 43 52 45 41   t1_segments.CREA
|   3872: 54 45 20 54 41 42 4c 45 20 27 74 31 5f 73 65 67   TE TABLE 't1_seg
|   3888: 6d 65 6e 74 73 27 28 62 6c 6f 63 6b 69 64 20 49   ments'(blockid I
|   3904: 4e 54 45 47 45 52 20 50 52 49 4d 41 52 59 20 4b   NTEGER PRIMARY K
|   3920: 45 59 2c 20 62 6c 6f 63 6b 20 42 4c 4f 42 29 5c   EY, block BLOB).
|   3936: 02 07 17 21 21 01 81 03 74 61 62 6c 65 74 31 5f   ...!!...tablet1_
|   3952: 63 6f 6e 74 65 6e 74 74 31 5f 63 6f 6e 74 65 6e   contentt1_conten
|   3968: 74 02 43 52 45 41 54 45 20 54 41 42 4c 45 20 27   t.CREATE TABLE '
|   3984: 74 31 5f 63 6f 6e 74 65 6e 74 27 28 64 6f 63 69   t1_content'(doci
|   4000: 64 20 49 4e 54 45 47 45 52 20 50 52 49 4d 41 52   d INTEGER PRIMAR
|   4016: 59 20 4b 45 59 2c 20 27 63 30 61 27 29 41 01 06   Y KEY, 'c0a')A..
|   4032: 17 11 11 08 71 74 61 62 6c 65 74 31 74 31 43 52   ....qtablet1t1CR
|   4048: 45 41 54 45 20 56 49 52 54 55 41 4c 20 54 41 42   EATE VIRTUAL TAB
|   4064: 4c 45 20 74 31 20 55 53 49 4e 47 20 66 74 73 34   LE t1 USING fts4
|   4080: 28 61 2c 70 72 65 66 69 78 3d 27 31 2c 32 27 29   (a,prefix='1,2')
| page 2 offset 4096
|      0: 0d 00 00 00 08 0e 1f 00 0f c4 0f 7c 0f 34 0f 07   ...........|.4..
|     16: 0e c3 0e 97 0e 63 0e 1f 00 00 00 00 00 00 00 00   .....c..........
|   3600: 00 00 00 00 00 00 00 00 00 00 00 00 00 00 00 42   ...............B
|   3616: 08 04 00 81 09 73 75 6e 74 20 69 6e 20 63 75 6c   .....sunt in cul
|   3632: 70 61 20 71 75 69 20 6f 66 66 69 63 69 61 20 64   pa qui officia d
|   3648: 65 73 65 72 75 6e 74 20 6d 6f 6c 6c 69 74 20 61   eserunt mollit a
|   3664: 6e 69 6d 20 69 64 20 65 73 74 20 6c 61 62 6f 72   nim id est labor
|   3680: 75 6d 2e 32 07 03 00 6b 45 78 63 65 70 74 65 75   um.2...kExcepteu
|   3696: 72 20 73 69 6e 74 20 6f 63 63 61 65 63 67 42 06   r sint occaecgB.
|   3712: 37 57 06 96 46 17 46 17 42 06 e6 f6 e2 07 07 26   7W..F.F.B......&
|   3728: f6 96 46 56 e7 42 c2 a0 60 30 05 b6 36 96 c6 c7   ..FV.B..`0..6...
|   3744: 56 d2 06 46 f6 c6 f7 26 52 06 57 52 06 67 56 7c   V..F...&R.WR.gV|
|   3760: 65 3f 04 20 6e 75 6c 6c 61 20 70 61 72 69 61 74   e?. nulla pariat
|   3776: 75 72 2e 42 05 04 00 81 09 44 75 69 73 20 61 75   ur.B.....Duis au
|   3792: 74 65 20 69 72 75 72 65 20 64 6f 6c 6f 72 20 69   te irure dolor i
|   3808: 6e 20 72 65 70 72 65 68 65 6e 64 65 72 69 74 20   n reprehenderit 
|   3824: 69 6e 20 76 6f 6c 75 70 74 61 74 65 20 76 65 6c   in voluptate vel
|   3840: 69 74 20 65 73 73 65 2b 04 03 00 5d 6e 69 73 69   it esse+...]nisi
|   3856: 20 75 74 20 61 6c 69 71 75 69 70 20 65 78 20 65    ut aliquip ex e
|   3872: 61 20 63 6f 6d 6d 6f 64 6f 20 63 6f 6e 73 65 71   a commodo conseq
|   3888: 75 61 74 2e 46 03 04 00 81 11 55 74 20 65 6e 69   uat.F.....Ut eni
|   3904: 6d 20 61 64 20 6d 69 6e 69 6d 20 76 65 6e 69 61   m ad minim venia
|   3920: 6d 2c 20 71 75 69 73 20 6e 6f 73 74 72 75 64 20   m, quis nostrud 
|   3936: 65 78 65 72 63 69 74 61 74 69 6f 6e 20 75 6c 6c   exercitation ull
|   3952: 61 6d 63 6f 20 6c 61 62 6f 72 69 73 46 02 04 00   amco laborisF...
|   3968: 81 11 73 65 64 20 64 6f 20 65 69 75 73 6d 6f 64   ..sed do eiusmod
|   3984: 20 74 65 6d 70 6f 72 20 69 6e 63 69 64 69 64 75    tempor incididu
|   4000: 6e 74 20 75 74 20 6c 61 62 6f 72 65 20 65 74 20   nt ut labore et 
|   4016: 64 6f 6c 6f 72 65 20 6d 61 67 6e 61 20 61 6c 69   dolore magna ali
|   4032: 71 75 61 2e 3a 01 03 00 7b 4c 6f 72 65 6d 20 69   qua.:....Lorem i
|   4048: 70 73 75 6d 20 64 6f 6c 6f 72 20 73 69 72 12 29   psum dolor sir.)
|   4064: 0d 65 74 2c 20 63 6f 6e 73 65 63 74 65 74 75 72   .et, consectetur
|   4080: 20 61 64 69 70 69 73 63 69 6e 67 20 65 6c 69 74    adipiscing elit
| page 3 offset 8192
|      0: 0d 00 00 00 00 10 30 00 10 17 50 30 80 20 00 00   ......0...P0. ..
|     16: 27 46 50 30 20 50 00 00 27 56 c0 30 30 a0 00 10   'FP0 P..'V.00...
|     32: 17 40 90 20 70 00 10 20 00 10 30 00 00 27 66 50   .@. p.. ..0..'fP
|     48: 60 30 60 00 20 a0 00 10 16 f0 30 50 90 08 20 a0   `0`. .....0P.. .
|     64: 20 80 20 80 80 81 78 40 20 40 03 02 03 23 53 10    . ...x@ @...#S.
|     80: 00 16 11 30 10 60 40 00 10 c0 00 10 40 00 00 00   ...0.`@.....@...
|     96: 00 00 00 00 00 00 00 00 00 00 00 00 00 00 78 24   ..............x$
|    112: 41 71 83 37 10 27 97 60 10 40 00 00 16 41 10 10   Aq.7.'.`.@...A..
|    128: 40 00 10 30 90 00 30 20 50 00 10 30 00 20 70 00   @..0..0 P..0. p.
|    144: 00 16 51 b0 10 90 00 10 40 70 00 10 30 80 00 10   ..Q.....@p..0...
|    160: 50 30 00 10 b0 00 10 40 00 10 20 00 10 b0 00 00   P0.....@.. .....
|    176: 16 60 30 60 50 00 00 16 90 f0 10 30 00 10 60 00   .`0`P......0..`.
|    192: 30 40 40 40 00 30 30 90 00 00 16 c0 c0 10 20 00   0@@@.00....... .
|    208: 10 80 00 10 b0 00 50 c0 00 00 16 d0 90 20 b0 00   ......P...... ..
|    224: 10 50 00 50 80 00 00 16 e0 c0 30 80 00 10 20 00   .P.P......0... .
|    240: 20 60 00 10 60 00 00 16 f0 60 70 40 00 10 60 00    `..`....`p@..`.
|    256: 00 17 00 60 60 70 00 10 70 00 00 17 10 60 30 70   ...``p..p....`0p
|    272: 00 50 50 00 00 17 20 30 50 70 00 00 17 30 c0 10   .PP... 0Pp...0..
|    288: 50 00 10 20 00 50 30 00 10 20 00 00 17 40 30 20   P.. .P0.. ...@0 
|    304: 50 00 00 17 50 a0 20 70 00 10 20 a0 00 10 30 00   P...P. p.. ...0.
|    320: 00 17 60 70 30 60 00 20 90 30 08 52 60 10 80 80   ..`p0`. .0.R`...
|    336: 80 80 81 78 a3 e3 02 03 63 63 50 00 26 16 40 30   ...x....ccP.&.@0
|    352: 30 40 00 20 86 97 06 97 36 36 96 e6 70 30 10 80   0@. ....66..p0..
|    368: 00 10 56 c6 97 17 56 10 30 20 c0 00 50 26 97 00   ..V...V.0 ..P&..
|    384: 30 40 40 00 10 36 d6 57 40 30 10 60 00 10 36 e6   0@@..6.W@0.`..6.
|    400: 96 d0 30 80 90 00 10 37 57 46 50 30 50 30 00 00   ..0....7WFP0P0..
|    416: 66 36 96 c6 c7 56 d0 30 60 20 00 10 66 f6 d6 d6   f6...V.0` ..f...
|    432: f6 46 f0 30 40 70 00 20 96 e7 36 56 37 46 57 47   .F.0@p. ..6V7FWG
|    448: 57 20 30 10 70 00 50 47 17 56 17 40 30 40 80 00   W 0.p.PG.V.@0@..
|    464: 10 47 56 c7 06 10 30 80 40 00 20 77 06 96 46 17   .GV...0.@. w..F.
|    480: 46 17 40 30 70 50 00 00 86 46 57 36 57 27 56 e7   F.@0pP...FW6W'V.
|    496: 40 30 80 70 00 10 16 f0 30 20 30 00 20 36 c6 f7   @0.p....0 0. 6..
|    512: 20 60 10 40 00 40 50 00 50 16 50 60 20 a0 00 40    `.@.@P.P.P` ..@
|    528: 30 00 10 37 56 97 30 30 50 20 00 00 26 56 10 30   0..7V.00P ..&V.0
|    544: 40 60 00 10 66 97 57 36 d6 f6 40 30 20 40 00 10   @`..f.W6..@0 @..
|    560: 36 c6 97 40 30 10 90 00 15 35 14 c6 97 46 52 06   6..@0....5...FR.
|    576: 66 f7 26 d6 17 42 03 30 01 00 00 10 10 04 02 02   f.&..B.0........
|    592: 00 00 00 00 00 00 00 00 70 00 00 00 00 00 00 00   ........p.......
|    608: 00 00 00 00 60 00 00 00 40 00 00 00 00 00 00 00   ....`...@.......
| page 4 offset 12288
|      0: 0d 00 00 00 03 0a a6 00 0d 57 0c 4a 0a a6 00 00   .........W.J....
|   2720: 00 00 00 00 00 00 83 21 03 08 02 08 08 08 17 86   .......!........
|   2736: 30 08 00 30 20 34 30 32 00 02 61 64 06 01 08 00   0..0 402..ad....
|   2752: 02 04 00 01 01 6c 06 02 0c 00 02 04 00 01 01 6d   .....l.........m
|   2768: 03 01 06 00 01 01 6e 03 08 00 00 91 01 75 03 05   ......n......u..
|   2784: 03 00 00 02 63 69 03 06 02 00 01 01 6f 07 01 07   ....ci......o...
|   2800: 00 03 07 03 00 01 01 75 06 07 05 00 01 04 00 00   .......u........
|   2816: 02 64 65 03 08 07 00 01 01 6f 0d 01 04 00 01 03   .de......o......
|   2832: 09 00 03 05 00 01 03 00 01 01 75 03 05 02 00 00   ..........u.....
|   2848: 02 65 61 03 04 06 00 01 01 69 03 02 04 00 01 01   .ea......i......
|   2864: 6c 03 01 09 00 01 01 6e 30 03 03 00 01 01 73 06   l......n0.....s.
|   2880: 05 0b 00 03 0b 00 01 01 74 03 02 09 00 01 01 75   ........t......u
|   2896: 03 06 04 00 01 01 78 09 03 09 00 01 05 00 03 02   ......x.........
|   2912: 00 00 02 66 75 03 06 05 00 00 02 69 64 03 08 0a   ...fu......id...
|   2928: 00 01 01 6e 0a 02 06 00 03 06 04 00 03 03 00 01   ...n............
|   2944: 01 70 03 01 03 00 01 01 72 03 05 04 00 00 02 6c   .p......r......l
|   2960: 61 09 02 08 00 01 0b 00 05 0c 00 01 01 6f 03 01   a............o..
|   2976: 02 00 00 02 6d 61 03 02 0b 00 01 01 69 03 03 05   ....ma......i...
|   2992: 00 01 01 6f 03 08 08 00 00 02 6e 69 03 04 02 00   ...o......ni....
|   3008: 01 01 6f 06 03 08 00 04 06 00 01 01 75 03 06 06   ..o.........u...
|   3024: 00 00 02 6f 63 03 07 04 00 01 01 66 03 08 06 00   ...oc......f....
|   3040: 00 02 70 61 03 06 07 00 01 01 72 03 07 07 00 00   ..pa......r.....
|   3056: 02 71 75 06 03 07 00 05 05 00 00 02 72 65 03 05   .qu.........re..
|   3072: 07 00 00 02 73 65 03 02 02 00 01 01 69 06 01 05   ....se......i...
|   3088: 00 06 03 00 01 01 75 03 08 02 00 00 02 74 65 03   ......u......te.
|   3104: 02 05 00 00 02 75 6c 03 03 0a 00 01 01 74 09 02   .....ul......t..
|   3120: 07 00 01 02 00 01 03 00 00 02 76 65 06 03 06 00   ..........ve....
|   3136: 02 0a 00 01 01 6f 03 05 09 00 82 0a 02 08 02 08   .....o..........
|   3152: 08 08 17 84 02 04 00 30 20 32 35 31 00 01 61 13   .......0 251..a.
|   3168: 01 06 04 00 01 0c 00 01 04 00 01 04 00 01 03 00   ................
|   3184: 03 09 00 00 01 63 10 01 07 00 03 07 03 00 02 02   .....c..........
|   3200: 00 01 05 00 01 04 00 00 01 64 11 01 04 00 01 03   .........d......
|   3216: 09 00 03 02 05 00 01 03 00 02 07 00 00 01 65 1b   ..............e.
|   3232: 01 09 00 01 04 01 70 00 03 01 80 00 05 03 00 01   ......p.........
|   3248: 0b 00 01 04 00 01 02 00 01 0b 00 00 01 66 03 06   .............f..
|   3264: 05 00 00 01 69 0f 01 03 00 01 06 00 03 04 04 04   ....i...........
|   3280: 00 03 03 09 00 00 01 6c 0c 01 02 00 01 08 00 01   .......l........
|   3296: 0b 00 05 0c 00 00 01 6d 09 02 0b 00 01 05 00 05   .......m........
|   3312: 08 00 00 01 6e 0c 03 08 00 01 02 00 02 06 00 01   ....n...........
|   3328: 06 00 00 01 6f 06 07 04 00 01 06 00 00 01 70 06   ....o.........p.
|   3344: 06 07 00 01 07 00 00 01 71 06 03 07 00 05 05 00   ........q.......
|   3360: 00 01 72 03 05 07 00 00 01 73 0c 01 05 00 01 02   ..r......s......
|   3376: 00 05 03 00 01 02 00 00 01 74 03 02 05 00 00 01   .........t......
|   3392: 75 0a 02 07 00 01 02 0a 00 01 03 00 00 01 76 07   u.............v.
|   3408: 03 06 00 02 09 03 00 85 26 01 08 08 08 08 08 17   ........&.......
|   3424: 8a 3e 30 20 36 36 35 00 02 61 64 03 03 04 00 02   .>0 665..ad.....
|   3440: 08 69 70 69 73 63 69 6e 67 03 01 08 00 01 05 6c   .ipiscing......l
|   3456: 69 71 75 61 03 02 0c 00 05 02 69 70 03 04 04 00   iqua......ip....
|   3472: 01 03 6d 65 74 03 01 06 00 01 03 6e 69 6d 03 08   ..met......nim..
|   3488: 09 00 01 03 75 74 65 03 05 03 00 00 06 63 69 6c   ....ute......cil
|   3504: 6c 75 6d 03 06 02 00 01 06 6f 6d 6d 6f 64 6f 03   lum......ommodo.
|   3520: 04 07 00 02 09 6e 73 65 63 74 65 74 75 72 03 01   .....nsectetur..
|   3536: 07 00 05 04 71 75 61 74 03 04 08 00 01 04 75 6c   ....quat......ul
|   3552: 70 61 03 08 04 00 02 07 70 69 64 61 74 61 74 03   pa......pidatat.
|   3568: 07 05 00 00 08 64 65 73 65 72 75 6e 74 03 08 07   .....deserunt...
|   3584: 00 01 01 6f 03 02 03 00 02 03 6c 6f 72 06 01 04   ...o......lor...
|   3600: 00 04 05 00 05 01 65 06 02 0a 00 04 03 00 01 03   ......e.........
|   3616: 75 69 73 03 05 02 00 00 02 65 61 03 04 06 00 01   uis......ea.....
|   3632: 06 69 75 73 6d 6f 64 03 02 04 00 01 03 6c 69 74   .iusmod......lit
|   3648: 03 01 09 00 01 03 6e 69 6d 03 03 03 00 01 03 73   ......nim......s
|   3664: 73 65 03 05 0b 00 02 01 74 03 08 0b 00 01 01 74   se......t......t
|   3680: 03 02 09 00 01 01 75 03 06 04 00 01 01 78 03 04   ......u......x..
|   3696: 05 00 02 07 63 65 70 74 65 75 72 03 07 02 00 02   ....cepteur.....
|   3712: 0a 65 72 63 69 74 61 74 69 6f 6e 03 03 09 00 00   .ercitation.....
|   3728: 06 66 75 67 69 61 74 03 06 05 00 00 02 69 64 03   .fugiat......id.
|   3744: 08 0a 00 01 01 6e 07 05 06 04 00 03 03 00 02 08   .....n..........
|   3760: 63 69 64 69 64 75 6e 74 03 02 06 00 01 04 70 73   cididunt......ps
|   3776: 75 6d 03 01 03 00 01 04 72 75 72 65 03 05 04 00   um......rure....
|   3792: 00 06 6c 61 62 6f 72 65 03 02 08 00 05 02 69 73   ..labore......is
|   3808: 03 03 0b 00 05 02 75 6d 03 08 0c 00 01 04 6f 72   ......um......or
|   3824: 65 6d 03 01 02 00 00 05 6d 61 67 6e 61 03 02 0b   em......magna...
|   3840: 00 01 04 69 6e 69 6d 03 03 05 00 01 05 6f 6c 6c   ...inim......oll
|   3856: 69 74 03 08 08 00 00 04 6e 69 73 69 03 04 02 00   it......nisi....
|   3872: 01 02 6f 6e 03 07 06 00 02 05 73 74 72 75 64 03   ..on......strud.
|   3888: 03 08 00 01 04 75 6c 6c 61 03 06 06 00 00 08 6f   .....ulla......o
|   3904: 63 63 61 65 63 61 74 03 07 04 00 01 06 66 66 69   ccaecat......ffi
|   3920: 63 69 61 03 08 06 00 00 08 70 61 72 69 61 74 75   cia......pariatu
|   3936: 72 03 06 07 00 01 07 72 6f 69 64 65 6e 74 03 07   r......roident..
|   3952: 07 00 00 03 71 75 69 03 08 05 00 03 01 73 03 03   ....qui......s..
|   3968: 07 00 00 0d 72 65 70 72 65 68 65 6e 64 65 72 69   ....reprehenderi
|   3984: 74 03 05 07 00 00 03 73 65 64 03 02 02 00 01 03   t......sed......
|   4000: 69 6e 74 03 07 03 00 02 01 74 03 01 05 00 01 03   int......t......
|   4016: 75 6e 74 03 08 02 00 00 06 74 65 6d 70 6f 72 03   unt......tempor.
|   4032: 02 05 00 00 07 75 6c 6c 61 6d 63 6f 03 03 0a 00   .....ullamco....
|   4048: 01 01 74 09 02 07 00 01 02 00 01 03 00 00 05 76   ..t............v
|   4064: 65 6c 69 74 03 05 0a 00 02 04 6e 69 61 6d 03 03   elit......niam..
|   4080: 06 00 01 08 6f 6c 75 70 74 61 74 65 03 05 09 00   ....oluptate....
| page 5 offset 16384
|      0: 0a 00 00 00 03 0f eb 00 0f fb 0f f3 0f eb 00 00   ................
|   4064: 00 00 00 00 00 00 00 00 00 00 00 07 04 02 08 01   ................
|   4080: 08 00 03 07 04 02 08 01 04 00 02 04 04 08 08 09   ................
| page 6 offset 20480
|      0: 0d 00 00 00 08 0f d0 00 0f fa 0f f4 0f ee 0f e8   ................
|     16: 0f e2 0f dc 0f d6 0f d0 00 00 00 00 00 00 00 00   ................
|   4048: 04 08 03 00 0e 0b 04 07 03 00 0e 06 04 06 03 00   ................
|   4064: 0e 06 04 05 03 00 0e 0a 04 04 03 00 0e 07 04 03   ................
|   4080: 03 00 0e 0a 04 02 03 00 0e 0b 04 01 03 00 0e 08   ................
| page 7 offset 24576
|      0: 0d 00 00 00 01 0f f7 00 0f f7 00 00 00 00 00 00   ................
|   4080: 00 00 00 00 00 00 00 07 00 03 00 14 08 45 b5 03   .............E..
| page 8 offset 28672
|      0: 6f ee cd e1 f1 ee 1a ca be ed ee ec de ac f1 cb   o...............
|     16: f1 ee 1a ce de ee f1 ee 0a cc de ed ae 90 87 88   ................
|     32: ec 5e dc ec fc 11 72 32 75 0a da be ec ed eb de   .^....r2u.......
|     48: ce c1 aa e0 ae ec 1f c1 ee 99 c2 aa e0 a9 ad 15   ................
|     64: 0e ec ab ef 1e e0 48 ad 15 04 24 80 00 00 00 00   ......H...$.....
|     80: 00 00 00 00 e0 00 00 00 04 2c 80 00 10 42 4e c1   .........,...BN.
|     96: 20 4b 45 59 2c 6e 6f 64 65 6e 6f 2c 61 30 29 46    KEY,nodeno,a0)F
|    112: 02 06 17 11 11 08 7b 74 61 62 6c 65 74 31 74 31   .......tablet1t1
|    128: 43 52 45 41 54 e1 ec eb ea eb eb ac ee ce be de   CREAT...........
|    144: ee f1 ee 1a ca ba de 47 80 30 00 14 90 47 70 30   .......G.0...Gp0
|    160: 00 11 60 47 60 30 00 15 f0 47 50 30 00 10 f0 47   ..`G`0...GP0...G
|    176: 40 30 00 11 f0 47 45 20 30 00 11 d0 45 10 30 00   @0...GE 0...E.0.
|    192: 12 10 45 00 30 00 14 e0 44 f0 30 00 11 e0 44 e0   ..E.0...D.0...D.
|    208: 30 00 12 a0 44 d0 30 00 15 e0 44 c0 30 00 10 40   0...D.0...D.0..@
|    224: 44 b0 30 00 15 10 44 a0 30 00 14 c0 44 90 30 00   D.0...D.0...D.0.
|    240: 16 20 44 80 30 00 52 45 41 54 45 20 54 41 42 4c   . D.0.REATE TABL
|    256: 45 20 27 74 31 5f 63 6f 6e 74 65 6e 74 27 28 69   E 't1_content'(i
|    272: 64 20 49 4e 54 45 47 45 52 20 50 52 49 4d 41 52   d INTEGER PRIMAR
|    288: 59 20 4b 45 59 2c 20 63 30 29 69 03 07 17 19 19   Y KEY, c0)i.....
|    304: 01 81 2d 74 61 62 6c 65 74 31 5f 69 64 78 74 31   ..-tablet1_idxt1
|    320: 5f 69 64 78 03 43 52 45 41 54 45 20 54 41 42 4c   _idx.CREATE TABL
|    336: 45 20 27 70 31 5f 69 64 78 03 6e 69 6d 03 03 03   E 'p1_idx.nim...
|    352: 00 01 03 73 73 65 03 05 0b 00 02 01 74 03 08 0b   ...sse......t...
|    368: 00 01 01 74 03 02 09 00 01 01 75 03 06 04 00 01   ...t......u.....
|    384: 01 78 03 04 05 00 02 07 63 65 70 74 65 75 72 03   .x......cepteur.
|    400: 07 02 00 02 0a 65 72 63 69 74 61 74 69 6f 6e 03   .....ercitation.
|    416: 03 09 00 00 06 66 75 67 69 61 74 03 06 05 00 00   .....fugiat.....
|    432: 02 69 64 03 08 0a 00 01 01 6e 07 05 06 04 00 03   .id......n......
|    448: 03 00 02 08 63 69 64 69 64 75 6e 74 03 02 06 00   ....cididunt....
|    464: 01 04 70 73 75 6d 03 01 03 00 01 04 72 75 72 65   ..psum......rure
|    480: 03 05 04 00 00 06 6c 61 62 6f 72 65 03 02 08 00   ......labore....
|    496: 05 02 69 73 03 03 0b 00 05 02 75 6d 03 08 0c 00   ..is......um....
|    512: 01 04 6f 72 65 6d 03 01 02 00 00 05 6d 61 67 6e   ..orem......magn
|    528: 61 03 02 0b 00 01 04 69 6e 69 6d 03 03 05 00 01   a......inim.....
|    544: 05 6f 6c 6c 69 74 03 08 08 00 00 04 6e 69 73 69   .ollit......nisi
|    560: 03 04 02 00 01 02 6f 6e 03 07 06 00 02 05 73 74   ......on......st
|    576: 72 75 64 03 03 08 00 01 04 75 6c 6c 61 03 06 06   rud......ulla...
|    592: 00 00 08 6f 63 63 61 65 63 61 74 03 07 04 00 01   ...occaecat.....
|    608: 06 66 66 69 63 69 61 03 08 06 00 00 08 70 61 72   .fficia......par
|    624: 69 61 74 75 72 03 06 07 00 01 07 72 6f ed ce de   iatur......ro...
|    640: 69 64 65 6e 74 03 07 07 00 00 03 71 75 69 03 08   ident......qui..
|    656: 05 00 03 01 73 03 03 07 00 00 0d 72 65 70 72 65   ....s......repre
|    672: 68 65 6e 64 65 72 69 74 03 05 07 00 00 03 73 65   henderit......se
|    688: 64 03 02 02 00 01 03 69 6e 74 03 07 03 00 02 01   d......int......
|    704: 74 03 01 05 00 01 03 75 6e 74 03 08 02 00 00 06   t......unt......
|    720: 74 65 6d 70 6f 72 03 02 05 00 00 07 75 6c 6c 61   tempor......ulla
|    736: 6d 63 6f 03 03 0a 00 01 01 74 09 02 07 00 01 02   mco......t......
|    752: 00 01 03 00 00 05 76 65 6c 69 74 03 05 0a 00 02   ......velit.....
|    768: 04 6e 69 61 6d 03 03 06 00 01 08 6f 6c 75 70 74   .niam......olupt
|    784: 61 74 65 03 05 09 00 0a 00 00 00 03 0f eb 00 0f   ate.............
|    800: fb 0f f3 0f eb 00 00 00 00 00 00 00 00 00 00 00   ................
| end crash-04bb6e7c811ce9.db
}]} {}

do_catchsql_test 7.1 {
  SELECT matchinfo(t1,'y') FROM t1 WHERE t1 MATCH 'e*';
} {1 {database disk image is malformed}}

#-------------------------------------------------------------------------
reset_db
do_test 8.0 {
  sqlite3 db {}
  db deserialize [decode_hexdb {
| size 28672 pagesize 4096 filename crash-7948058d822acb.db
| page 1 offset 0
|      0: 53 51 4c 69 74 65 20 66 6f 72 6d 61 74 20 33 00   SQLite format 3.
|     16: 10 00 01 01 00 40 20 20 00 00 00 00 00 00 00 07   .....@  ........
|     32: 00 00 00 00 00 00 00 00 00 00 00 06 00 00 00 04   ................
|     48: 00 00 00 00 00 00 00 00 00 00 00 01 00 00 00 00   ................
|     96: 00 00 00 00 0d 0e ef 00 07 0d 4d 00 0f bd 0f 5f   ..........M...._
|    112: 0e f7 0e 06 0e bc 0d a4 0d 4d 00 00 00 00 00 00   .........M......
|   3392: 00 00 00 00 00 00 00 00 00 00 00 00 00 55 07 07   .............U..
|   3408: 17 1b 1b 01 81 01 74 61 62 6c 65 74 31 5f 73 74   ......tablet1_st
|   3424: 61 74 74 31 5f 73 74 61 74 07 43 52 45 41 54 45   att1_stat.CREATE
|   3440: 20 54 41 42 4c 45 20 27 74 31 5f 73 74 61 74 27    TABLE 't1_stat'
|   3456: 28 69 64 20 49 4e 54 45 47 45 52 20 50 52 49 4d   (id INTEGER PRIM
|   3472: 41 52 59 20 4b 45 59 2c 20 76 61 6c 75 65 20 42   ARY KEY, value B
|   3488: 4c 4f 42 29 60 06 07 17 21 21 01 81 0b 74 61 62   LOB)`...!!...tab
|   3504: 6c 65 74 31 5f 64 6f 63 73 69 7a 65 74 31 5f 64   let1_docsizet1_d
|   3520: 6f 63 73 69 7a 65 06 43 52 45 41 54 45 20 54 41   ocsize.CREATE TA
|   3536: 42 4c 45 20 27 74 31 5f 64 6f 63 73 69 7a 65 27   BLE 't1_docsize'
|   3552: 28 64 6f 63 69 64 20 49 4e 54 45 47 45 52 20 50   (docid INTEGER P
|   3568: 52 49 4d 41 52 59 20 4b 45 59 2c 20 73 69 7a 65   RIMARY KEY, size
|   3584: 20 42 4c 4f 42 29 81 33 04 07 17 1f 1f 01 82 35    BLOB).3.......5
|   3600: 74 61 62 6c 65 74 31 5f 73 65 67 64 69 72 74 31   tablet1_segdirt1
|   3616: 5f 73 65 67 64 69 72 04 43 52 45 41 54 45 20 54   _segdir.CREATE T
|   3632: 41 42 4c 45 20 27 74 31 5f 73 65 67 64 69 72 27   ABLE 't1_segdir'
|   3648: 28 6c 65 76 65 6c 20 49 4e 54 45 47 45 52 2c 69   (level INTEGER,i
|   3664: 64 78 20 49 4e 54 45 47 45 52 2c 73 74 61 72 74   dx INTEGER,start
|   3680: 5f 62 6c 6f 63 6b 20 49 4e 54 45 47 45 52 2c 6c   _block INTEGER,l
|   3696: 65 61 76 65 73 5f 65 6e 64 5f 62 6c 6f 63 6b 20   eaves_end_block 
|   3712: 49 4e 54 45 47 45 52 2c 65 6e 64 5f 62 6c 6f 63   INTEGER,end_bloc
|   3728: 6b 20 49 4e 54 45 47 45 52 2c 72 6f 6f 74 20 42   k INTEGER,root B
|   3744: 4c 4f 42 2c 50 52 49 4d 41 52 59 20 4b 45 59 28   LOB,PRIMARY KEY(
|   3760: 6c 65 76 65 6c 2c 20 69 64 78 29 29 31 05 06 17   level, idx))1...
|   3776: 45 1f 01 00 69 6e 64 65 78 73 71 6c 69 74 65 5f   E...indexsqlite_
|   3792: 61 75 74 6f 69 6e 64 65 78 5f 74 31 5f 73 65 67   autoindex_t1_seg
|   3808: 64 69 72 5f 31 74 31 5f 73 65 67 64 69 72 05 00   dir_1t1_segdir..
|   3824: 00 00 08 00 00 00 00 66 03 07 17 23 23 01 81 13   .......f...##...
|   3840: 74 61 62 6c 65 74 31 5f 73 65 67 6d 65 6e 74 73   tablet1_segments
|   3856: 74 31 5f 73 65 67 6d 65 6e 74 73 03 43 52 45 41   t1_segments.CREA
|   3872: 54 45 20 54 41 42 4c 45 20 27 74 31 5f 73 65 67   TE TABLE 't1_seg
|   3888: 6d 65 6e 74 73 27 28 62 6c 6f 63 6b 69 64 20 49   ments'(blockid I
|   3904: 4e 54 45 47 45 52 20 50 52 49 4d 41 52 59 20 4b   NTEGER PRIMARY K
|   3920: 45 59 2c 20 62 6c 6f 63 6b 20 42 4c 4f 42 29 5c   EY, block BLOB).
|   3936: 02 07 17 21 21 01 81 03 74 61 62 6c 65 74 31 5f   ...!!...tablet1_
|   3952: 63 6f 6e 74 65 6e 74 74 31 5f 63 6f 6e 74 65 6e   contentt1_conten
|   3968: 74 02 43 52 45 41 54 45 20 54 41 42 4c 45 20 27   t.CREATE TABLE '
|   3984: 74 31 5f 63 6f 6e 74 65 6e 74 27 28 64 6f 63 69   t1_content'(doci
|   4000: 64 20 49 4e 54 45 47 45 52 20 50 52 49 4d 41 52   d INTEGER PRIMAR
|   4016: 59 20 4b 45 59 2c 20 27 63 30 61 27 29 41 01 06   Y KEY, 'c0a')A..
|   4032: 17 11 11 08 71 74 61 62 6c 65 74 31 74 31 43 52   ....qtablet1t1CR
|   4048: 45 41 54 45 20 56 49 52 54 55 41 4c 20 54 41 42   EATE VIRTUAL TAB
|   4064: 4c 45 20 74 31 20 55 53 49 4e 47 20 66 74 73 34   LE t1 USING fts4
|   4080: 28 61 2c 70 72 65 66 69 78 3d 27 31 2c 32 27 29   (a,prefix='1,2')
| page 2 offset 4096
|      0: 0d 00 00 00 08 0e 1f 00 0f c4 0f 7c 0f 34 0f 07   ...........|.4..
|     16: 0e c3 0e 97 0e 63 0e 1f 00 00 00 00 00 00 00 00   .....c..........
|   3600: 00 00 00 00 00 00 00 00 00 00 00 00 00 00 00 42   ...............B
|   3616: 08 04 00 81 09 73 75 6e 74 20 69 6e 20 63 75 6c   .....sunt in cul
|   3632: 70 61 20 71 75 69 20 6f 66 66 69 63 69 61 20 64   pa qui officia d
|   3648: 65 73 65 72 75 6e 74 20 6d 6f 6c 6c 69 74 20 61   eserunt mollit a
|   3664: 6e 69 6d 20 69 64 20 65 73 74 20 6c 61 62 6f 72   nim id est labor
|   3680: 75 6d 2e 32 07 03 00 6b 45 78 63 65 70 74 65 75   um.2...kExcepteu
|   3696: 72 20 73 69 6e 74 20 6f 63 63 61 65 63 67 42 06   r sint occaecgB.
|   3712: 37 57 06 96 46 17 46 17 42 06 e6 f6 e2 07 07 26   7W..F.F.B......&
|   3728: f6 96 46 56 e7 42 c2 a0 60 30 05 b6 36 96 c6 c7   ..FV.B..`0..6...
|   3744: 56 d2 06 46 f6 c6 f7 26 52 06 57 52 06 67 56 7c   V..F...&R.WR.gV|
|   3760: 65 3f 04 20 6e 75 6c 6c 61 20 70 61 72 69 61 74   e?. nulla pariat
|   3776: 75 72 2e 42 05 04 00 81 09 44 75 69 73 20 61 75   ur.B.....Duis au
|   3792: 74 65 20 69 72 75 72 65 20 64 6f 6c 6f 72 20 69   te irure dolor i
|   3808: 6e 20 72 65 70 72 65 68 65 6e 64 65 72 69 74 20   n reprehenderit 
|   3824: 69 6e 20 76 6f 6c 75 70 74 61 74 65 20 76 65 6c   in voluptate vel
|   3840: 69 74 20 65 73 73 65 2b 04 03 00 5d 6e 69 73 69   it esse+...]nisi
|   3856: 20 75 74 20 61 7c 69 71 75 69 70 20 65 78 20 65    ut a|iquip ex e
|   3872: 61 20 63 6f 6d 6d 6f 64 6f 20 63 6f 6e 73 65 71   a commodo conseq
|   3888: 75 61 74 2e 46 03 04 00 81 11 55 74 20 65 6e 69   uat.F.....Ut eni
|   3904: 6d 20 61 64 20 6d 69 6e 69 6d 20 76 65 6e 69 61   m ad minim venia
|   3920: 6d 2c 20 71 75 69 73 20 6e 6f 73 74 72 75 64 20   m, quis nostrud 
|   3936: 65 78 65 72 63 69 74 61 74 69 6f 6e 20 75 6c 6c   exercitation ull
|   3952: 61 6d 63 6f 20 6c 61 62 6f 72 69 73 46 02 04 00   amco laborisF...
|   3968: 81 11 73 65 64 20 64 6f 20 65 69 75 73 6d 6f 64   ..sed do eiusmod
|   3984: 20 74 65 6d 70 6f 72 20 69 6e 63 69 64 69 64 75    tempor incididu
|   4000: 6e 74 20 75 74 20 6c 61 62 6f 72 65 20 65 74 20   nt ut labore et 
|   4016: 64 6f 6c 6f 72 65 20 6d 61 67 6e 61 20 61 6c 69   dolore magna ali
|   4032: 71 75 61 2e 3a 01 03 00 7b 4c 6f 72 65 6d 20 69   qua.:....Lorem i
|   4048: 70 73 75 6d 20 64 6f 6c 6f 72 20 73 69 74 20 61   psum dolor sit a
|   4064: 6d 65 74 2c 20 63 6f 6e 73 65 63 74 65 74 75 72   met, consectetur
|   4080: 20 61 64 69 70 69 73 63 69 6e 67 20 65 6c 69 74    adipiscing elit
| page 3 offset 8192
|      0: 0d 00 00 00 00 10 00 00 00 00 00 00 00 00 00 00   ................
| page 4 offset 12288
|      0: 0d 00 00 00 03 0a a6 00 0d 57 0c 4a 0a a6 00 00   .........W.J....
|   2720: 00 00 00 00 00 00 83 21 03 08 02 08 08 08 17 86   .......!........
|   2736: 30 08 00 30 20 34 30 32 00 02 61 64 06 01 08 00   0..0 402..ad....
|   2752: 02 04 00 01 01 6c 06 02 0c 00 02 04 00 01 01 6d   .....l.........m
|   2768: 03 01 06 00 01 01 6e 03 08 00 00 91 01 75 03 05   ......n......u..
|   2784: 03 00 00 02 63 69 03 06 02 00 01 01 6f 07 01 07   ....ci......o...
|   2800: 00 03 07 03 00 01 01 75 06 07 05 00 01 04 00 00   .......u........
|   2816: 02 64 65 03 08 07 00 01 01 6f 0d 01 04 00 01 03   .de......o......
|   2832: 09 00 03 05 00 01 03 00 01 01 75 03 05 02 00 00   ..........u.....
|   2848: 02 65 61 03 04 06 00 01 01 69 03 02 04 00 01 01   .ea......i......
|   2864: 6c 03 01 09 00 01 01 6e 30 03 03 00 01 01 73 06   l......n0.....s.
|   2880: 05 0b 00 03 0b 00 01 01 74 03 02 09 00 01 01 75   ........t......u
|   2896: 03 06 04 00 01 01 78 09 03 09 00 01 05 00 03 02   ......x.........
|   2912: 00 00 02 66 75 03 06 05 00 00 02 69 64 03 08 0a   ...fu......id...
|   2928: 00 01 01 6e 0a 02 06 00 03 06 04 00 03 03 00 01   ...n............
|   2944: 01 70 03 01 03 00 01 01 72 03 05 04 00 00 02 6c   .p......r......l
|   2960: 61 09 02 08 00 01 0b 00 05 0c 00 01 01 6f 03 01   a............o..
|   2976: 02 00 00 02 6d 61 03 02 0b 00 01 01 69 03 03 05   ....ma......i...
|   2992: 00 01 01 6f 03 08 08 00 00 02 6e 69 03 04 02 00   ...o......ni....
|   3008: 01 01 6f 06 03 08 00 04 06 00 01 01 75 03 06 06   ..o.........u...
|   3024: 00 00 02 6f 63 03 07 04 00 01 01 66 03 08 06 00   ...oc......f....
|   3040: 00 02 70 61 03 06 07 00 01 01 72 03 07 07 00 00   ..pa......r.....
|   3056: 02 71 75 06 03 07 00 05 05 00 00 02 72 65 03 05   .qu.........re..
|   3072: 07 00 00 02 73 65 03 02 02 00 01 01 69 06 01 05   ....se......i...
|   3088: 00 06 03 00 01 01 75 03 08 02 00 00 02 74 65 03   ......u......te.
|   3104: 02 05 00 00 02 75 6c 03 03 0a 00 01 01 74 09 02   .....ul......t..
|   3120: 07 00 01 02 00 01 03 00 00 02 76 65 06 03 06 00   ..........ve....
|   3136: 02 0a 00 01 01 6f 03 05 09 00 82 0a 02 08 02 08   .....o..........
|   3152: 08 08 17 84 02 04 00 30 20 32 35 31 00 01 61 13   .......0 251..a.
|   3168: 01 06 04 00 01 0c 00 01 04 00 01 04 00 01 03 00   ................
|   3184: 03 09 00 00 01 63 10 01 07 00 03 07 03 00 02 02   .....c..........
|   3200: 00 01 05 00 01 04 00 00 01 64 11 01 04 00 01 03   .........d......
|   3216: 09 00 03 02 05 00 01 03 00 02 07 00 00 01 65 1b   ..............e.
|   3232: 01 09 00 01 04 07 00 01 03 00 80 00 15 03 00 01   ................
|   3248: 0b 00 01 04 00 01 02 00 01 0b 00 00 01 66 03 06   .............f..
|   3264: 05 00 00 01 69 0f 01 03 00 01 06 00 03 04 04 04   ....i...........
|   3280: 00 03 03 09 00 00 01 6c 0c 01 02 00 01 08 00 01   .......l........
|   3296: 0b 00 05 0c 00 00 01 6d 09 02 0b 00 01 05 00 05   .......m........
|   3312: 08 00 00 01 6e 0c 03 08 00 01 02 00 02 06 00 01   ....n...........
|   3328: 06 00 00 01 6f 06 07 04 00 01 06 00 00 01 70 06   ....o.........p.
|   3344: 06 07 00 01 07 00 00 01 71 06 03 07 00 05 05 00   ........q.......
|   3360: 00 01 72 03 05 07 00 00 01 73 0c 01 05 00 01 02   ..r......s......
|   3376: 00 05 03 00 01 02 00 00 01 74 03 02 05 00 00 01   .........t......
|   3392: 75 0a 02 07 00 01 02 0a 00 01 03 00 00 01 76 07   u.............v.
|   3408: 03 06 00 02 09 03 00 85 26 01 08 08 08 08 08 17   ........&.......
|   3424: 8a 3e 30 20 36 36 35 00 02 61 64 03 03 04 00 02   .>0 665..ad.....
|   3440: 08 69 70 69 73 63 69 6e 67 03 01 08 00 01 05 6c   .ipiscing......l
|   3456: 69 71 75 61 03 02 0c 00 05 02 69 70 03 04 04 00   iqua......ip....
|   3472: 01 03 6d 65 74 03 01 06 00 01 03 6e 69 6d 03 08   ..met......nim..
|   3488: 09 00 01 03 75 74 65 03 05 03 00 00 06 63 69 6c   ....ute......cil
|   3504: 6c 75 6d 03 06 02 00 01 06 6f 6d 6d 6f 64 6f 03   lum......ommodo.
|   3520: 04 07 00 02 09 6e 73 65 63 74 65 74 75 72 03 01   .....nsectetur..
|   3536: 07 00 05 04 71 75 61 74 03 04 08 00 01 04 75 6c   ....quat......ul
|   3552: 70 61 03 08 04 00 02 07 70 69 64 61 74 61 74 03   pa......pidatat.
|   3568: 07 05 00 00 08 64 65 73 65 72 75 6e 74 03 08 07   .....deserunt...
|   3584: 00 01 01 6f 03 02 03 00 02 03 6c 6f 72 06 01 04   ...o......lor...
|   3600: 00 40 05 00 05 01 65 06 02 0a 00 04 03 00 01 03   .@....e.........
|   3616: 75 69 73 03 05 02 00 00 02 65 61 03 04 06 00 01   uis......ea.....
|   3632: 06 69 75 73 6d 6f 64 03 02 04 00 01 03 6c 69 74   .iusmod......lit
|   3648: 03 01 09 00 01 03 6e 69 6d 03 03 03 00 01 03 73   ......nim......s
|   3664: 73 65 03 05 0b 00 02 01 74 03 08 0b 00 01 01 74   se......t......t
|   3680: 03 02 09 00 01 01 75 03 06 04 00 01 01 78 03 04   ......u......x..
|   3696: 05 00 02 07 63 65 70 74 65 75 72 03 07 02 00 02   ....cepteur.....
|   3712: 0a 65 72 63 69 74 61 74 69 6f 6e 03 03 09 00 00   .ercitation.....
|   3728: 06 66 75 67 69 61 74 03 06 05 00 00 02 69 64 03   .fugiat......id.
|   3744: 08 0a 00 01 01 6e 07 05 06 04 00 03 03 00 02 08   .....n..........
|   3760: 63 69 64 69 64 75 6e 74 03 02 06 00 01 04 70 73   cididunt......ps
|   3776: 75 6d 03 01 03 00 01 04 72 75 72 65 03 05 04 00   um......rure....
|   3792: 00 06 6c 61 62 6f 72 65 03 02 08 00 05 02 69 73   ..labore......is
|   3808: 03 03 0b 00 05 02 75 6d 03 08 0c 00 01 04 6f 72   ......um......or
|   3824: 65 6d 03 01 02 00 00 05 6d 61 67 6e 61 03 02 0b   em......magna...
|   3840: 00 01 04 69 6e 69 6d 03 03 05 00 01 05 6f 6c 6c   ...inim......oll
|   3856: 69 74 03 08 08 00 00 04 6e 69 73 69 03 04 02 00   it......nisi....
|   3872: 01 02 6f 6e 03 07 06 00 02 05 73 74 72 75 64 03   ..on......strud.
|   3888: 03 08 00 01 04 75 6c 6c 61 03 06 06 00 00 08 6f   .....ulla......o
|   3904: 63 63 61 65 63 61 74 03 07 04 00 01 06 66 66 69   ccaecat......ffi
|   3920: 63 69 61 03 08 06 00 00 08 70 61 72 69 61 74 75   cia......pariatu
|   3936: 72 03 06 07 00 01 07 72 6f 69 64 65 6e 74 03 07   r......roident..
|   3952: 07 00 00 03 71 75 69 03 08 05 00 03 01 73 03 03   ....qui......s..
|   3968: 07 00 00 0d 72 65 70 72 65 68 65 6e 64 65 72 69   ....reprehenderi
|   3984: 74 03 05 07 00 00 03 73 65 64 03 02 02 00 01 03   t......sed......
|   4000: 69 6e 74 03 07 03 00 02 01 74 03 01 05 00 01 03   int......t......
|   4016: 75 6e 74 03 08 02 00 00 06 74 65 6d 70 6f 72 03   unt......tempor.
|   4032: 02 05 00 00 07 75 6c 6c 61 6d 63 6f 03 03 0a 00   .....ullamco....
|   4048: 01 01 74 09 02 07 00 01 02 00 01 03 00 00 05 76   ..t............v
|   4064: 65 6c 69 74 03 05 0a 00 02 04 6e 69 61 6d 03 03   elit......niam..
|   4080: 06 00 01 08 6f 6c 75 70 74 61 74 65 03 05 09 00   ....oluptate....
| page 5 offset 16384
|      0: 0a 00 00 00 03 0f eb 00 0f fb 0f f3 0f eb 00 00   ................
|   4064: 00 00 00 00 00 00 00 00 00 00 00 07 04 02 08 01   ................
|   4080: 08 00 03 07 04 02 08 01 04 00 02 04 04 08 08 09   ................
| page 6 offset 20480
|      0: 0d 00 00 00 08 0f d0 00 0f fa 0f f4 0f ee 0f e8   ................
|     16: 0f e2 0f dc 0f d6 0f d0 00 00 00 00 00 00 00 00   ................
|   4048: 04 08 03 00 0e 0b 04 07 03 00 0e 06 04 06 03 00   ................
|   4064: 0e 06 04 05 03 00 0e 0a 04 04 03 00 0e 07 04 03   ................
|   4080: 03 00 0e 0a 04 02 03 00 0e 0b 04 01 03 00 0e 08   ................
| page 7 offset 24576
|      0: 0d 00 00 00 01 0f f7 00 0f f7 00 00 00 00 00 00   ................
|   4080: 00 00 00 00 00 00 00 07 00 03 00 14 08 45 b5 03   .............E..
| end crash-7948058d822acb.db
}]} {}

do_catchsql_test 8.1 {
  SELECT matchinfo(t1,'x') FROM t1 WHERE t1 MATCH 'e*';
} {1 {database disk image is malformed}}

#-------------------------------------------------------------------------
reset_db
do_test 9.0 {
  sqlite3 db {}
  db deserialize [decode_hexdb {
| size 28672 pagesize 4096 filename crash-e1c6cbfdf643e9.db
| page 1 offset 0
|      0: 53 51 4c 69 74 65 20 66 6f 72 6d 61 74 20 33 00   SQLite format 3.
|     16: 10 00 01 01 00 40 20 20 00 00 00 00 00 00 00 07   .....@  ........
|     32: 00 00 00 02 00 00 00 01 00 00 00 07 00 00 00 04   ................
|     48: 00 00 00 00 00 00 00 00 00 00 00 01 00 00 00 00   ................
|     96: 00 00 00 00 0d 0e b1 00 06 0d a4 00 0f 8d 0f 21   ...............!
|    112: 0e b9 0d c8 0e 7e 0d a4 0d a4 00 00 00 00 00 00   .....~..........
|   3488: 00 00 00 00 22 07 06 17 11 11 01 31 74 61 62 6c   ...........1tabl
|   3504: 65 74 32 74 32 07 43 52 45 41 54 45 20 54 41 42   et2t2.CREATE TAB
|   3520: 4c 45 20 74 32 28 78 29 81 33 05 07 17 1f 1f 01   LE t2(x).3......
|   3536: 82 35 74 61 62 6c 65 74 31 5f 73 65 67 64 69 72   .5tablet1_segdir
|   3552: 74 31 5f 73 65 67 64 69 72 05 43 52 45 41 54 45   t1_segdir.CREATE
|   3568: 20 54 41 42 4c 45 20 27 74 31 5f 73 65 67 64 69    TABLE 't1_segdi
|   3584: 72 27 28 6c 65 76 65 6c 20 49 4e 54 45 47 45 52   r'(level INTEGER
|   3600: 2c 69 64 78 20 49 4e 54 45 47 45 52 2c 73 74 61   ,idx INTEGER,sta
|   3616: 72 74 5f 62 6c 6f 63 6b 20 49 4e 54 45 47 45 52   rt_block INTEGER
|   3632: 2c 6c 65 61 76 65 73 5f 65 6e 64 5f 62 6c 6f 63   ,leaves_end_bloc
|   3648: 6b 20 49 4e 54 45 47 45 52 2c 65 6e 64 5f 62 6c   k INTEGER,end_bl
|   3664: 6f 63 6b 20 49 4e 54 45 47 45 52 2c 72 6f 6f 74   ock INTEGER,root
|   3680: 20 42 4c 4f 42 2c 50 52 49 4d 41 52 59 20 4b 45    BLOB,PRIMARY KE
|   3696: 59 28 6c 65 76 65 6c 2c 20 69 64 78 29 29 31 06   Y(level, idx))1.
|   3712: 06 17 45 1f 01 00 69 6e 64 65 78 73 71 6c 69 74   ..E...indexsqlit
|   3728: 65 5f 61 75 74 6f 69 6e 64 65 78 5f 74 31 5f 73   e_autoindex_t1_s
|   3744: 65 67 64 69 72 5f 31 74 31 5f 73 65 67 64 69 72   egdir_1t1_segdir
|   3760: 06 0f c7 00 08 00 00 00 00 66 04 07 17 23 23 01   .........f...##.
|   3776: 81 13 74 61 62 6c 65 74 31 5f 73 65 67 6d 65 6e   ..tablet1_segmen
|   3792: 74 73 74 31 5f 73 65 67 6d 65 6e 74 73 04 43 52   tst1_segments.CR
|   3808: 45 41 54 45 20 54 41 42 4c 45 20 27 74 31 5f 73   EATE TABLE 't1_s
|   3824: 65 67 6d 65 6e 74 73 27 28 62 6c 6f 63 6b 69 64   egments'(blockid
|   3840: 20 49 4e 54 45 47 45 52 20 50 52 49 4d 41 52 59    INTEGER PRIMARY
|   3856: 20 4b 45 59 2c 20 62 6c 6f 63 6b 20 42 4c 4f 42    KEY, block BLOB
|   3872: 29 6a 03 07 17 21 21 01 81 1f 74 61 62 6c 65 74   )j...!!...tablet
|   3888: 31 5f 63 6f 6e 74 65 6e 74 74 31 5f 63 6f 6e 74   1_contentt1_cont
|   3904: 65 6e 74 03 43 52 45 41 54 45 20 54 41 42 4c 45   ent.CREATE TABLE
|   3920: 20 27 74 31 5f 63 6f 6e 74 65 6e 74 27 28 64 6f    't1_content'(do
|   3936: 63 69 64 20 49 4e 54 45 47 45 52 20 50 52 49 4d   cid INTEGER PRIM
|   3952: 41 52 59 20 4b 45 59 2c 20 27 63 30 61 27 2c 20   ARY KEY, 'c0a', 
|   3968: 27 63 31 62 27 2c 20 27 63 32 63 27 29 38 02 06   'c1b', 'c2c')8..
|   3984: 17 11 11 08 5f 74 61 62 6c 65 74 31 74 31 43 52   ...._tablet1t1CR
|   4000: 45 41 54 45 20 56 49 52 54 55 41 4c 20 54 41 42   EATE VIRTUAL TAB
|   4016: 4c 45 20 74 31 20 55 53 49 4e 47 20 66 74 73 33   LE t1 USING fts3
|   4032: 28 61 2c 62 2c 63 29 00 00 00 39 00 00 00 00 00   (a,b,c)...9.....
| page 3 offset 8192
|      0: 0d 00 00 00 25 0b 48 00 0f d8 0f af 0f 86 0f 74   ....%.H........t
|     16: 0f 61 0f 4e 0f 2f 0f 0f 0e ef 0e d7 0e be 0e a5   .a.N./..........
|     32: 0e 8d 0e 74 0e 5b 0e 40 0e 24 0e 08 0d ef 0d d5   ...t.[.@.$......
|     48: 0d bb 0d a0 0d 84 0d 68 0d 4f 0d 35 0d 1b 0c fb   .......h.O.5....
|     64: 0c da 0c b9 0c 99 0c 78 0c 57 0c 3e 0c 24 0c 0a   .......x.W.>.$..
|     80: 0b 48 00 00 00 00 00 00 00 00 00 00 00 00 00 00   .H..............
|   2880: 00 00 00 00 00 00 00 00 81 3f 25 06 00 82 7f 00   .........?%.....
|   2896: 00 43 4f 4d 50 49 4c 45 52 3d 67 63 63 2d 35 2e   .COMPILER=gcc-5.
|   2912: 34 2e 30 20 32 30 31 36 30 36 30 39 20 44 45 42   4.0 20160609 DEB
|   2928: 55 47 20 45 4e 41 42 4c 45 20 44 42 53 54 41 54   UG ENABLE DBSTAT
|   2944: 20 56 54 41 42 20 45 4e 41 42 4c 45 20 46 54 53    VTAB ENABLE FTS
|   2960: 34 20 45 4e 41 42 4c 45 20 46 54 53 35 20 45 4e   4 ENABLE FTS5 EN
|   2976: 41 42 4c 45 20 47 45 4f 50 4f 4c 59 20 45 4e 41   ABLE GEOPOLY ENA
|   2992: 42 4c 45 20 4a 53 4f 4e 31 20 45 4e 41 42 4c 45   BLE JSON1 ENABLE
|   3008: 20 4d 45 4d 53 59 53 35 20 45 4e 41 42 4c 45 20    MEMSYS5 ENABLE 
|   3024: 52 54 52 45 45 20 4d 41 58 20 4d 45 4d 4f 52 59   RTREE MAX MEMORY
|   3040: 3d 35 30 30 30 30 30 30 30 20 4f 4d 49 54 20 4c   =50000000 OMIT L
|   3056: 4f 41 44 20 45 58 54 45 4e 53 49 4f 4e 20 54 48   OAD EXTENSION TH
|   3072: 52 45 41 44 53 41 46 45 3d 30 18 24 05 00 25 0f   READSAFE=0.$..%.
|   3088: 19 54 48 52 45 41 44 53 41 46 45 3d 30 58 42 49   .THREADSAFE=0XBI
|   3104: 4e 41 52 59 18 23 05 00 25 0f 19 54 48 52 45 41   NARY.#..%..THREA
|   3120: 44 53 41 46 45 3d 30 58 4e 4f 43 41 53 45 17 22   DSAFE=0XNOCASE..
|   3136: 05 00 25 0f 17 54 48 52 45 41 44 53 41 46 45 3d   ..%..THREADSAFE=
|   3152: 30 58 52 54 52 49 4d 1f 21 05 00 33 0f 19 4f 4d   0XRTRIM.!..3..OM
|   3168: 49 54 20 4c 4f 41 44 20 35 58 54 45 4e 53 49 4f   IT LOAD 5XTENSIO
|   3184: 4e 58 42 49 4e 41 52 59 1f 20 05 00 33 0f 19 4f   NXBINARY. ..3..O
|   3200: 4d 49 54 20 4c 4f 41 44 20 45 58 54 45 4e 53 49   MIT LOAD EXTENSI
|   3216: 4f 4e 58 4e 4f 43 41 53 45 1e 1f 05 00 33 0f 17   ONXNOCASE....3..
|   3232: 4f 4d 49 54 20 4c 4f 41 44 20 45 58 54 45 4e 53   OMIT LOAD EXTENS
|   3248: 49 4f 4e 58 52 54 52 49 4d 1f 1e 05 00 33 0f 19   IONXRTRIM....3..
|   3264: 4d 41 58 20 4d 45 4d 4f 52 59 3d 35 30 30 30 30   MAX MEMORY=50000
|   3280: 30 30 30 58 42 49 4e 41 52 59 1f 1d 05 00 33 0f   000XBINARY....3.
|   3296: 19 4d 41 58 20 4d 45 4d 4f 52 59 3d 35 30 30 30   .MAX MEMORY=5000
|   3312: 30 30 30 30 58 4e 4f 43 41 53 45 1e 1c 05 00 33   0000XNOCASE....3
|   3328: 0f 17 4d 41 58 20 4d 45 4d 4f 52 59 3d 35 30 30   ..MAX MEMORY=500
|   3344: 30 30 30 30 30 58 52 54 52 49 4d 18 1b 05 00 25   00000XRTRIM....%
|   3360: 0f 19 45 4e 41 42 4c 45 20 52 54 52 45 45 58 42   ..ENABLE RTREEXB
|   3376: 49 4e 41 52 59 18 1a 05 00 25 0f 19 45 4e 41 42   INARY....%..ENAB
|   3392: 4c 45 20 52 54 52 45 45 58 4e 4f 43 41 53 45 17   LE RTREEXNOCASE.
|   3408: 19 05 00 25 0f 17 45 4e 41 42 4c 45 20 52 54 52   ...%..ENABLE RTR
|   3424: 45 45 58 52 54 52 49 4d 1a 18 05 00 29 0f 19 45   EEXRTRIM....)..E
|   3440: 4e 41 42 4c 45 20 4d 45 4d 53 59 53 35 58 42 49   NABLE MEMSYS5XBI
|   3456: 4e 41 52 59 1a 17 05 00 29 0f 19 45 4e 41 42 4c   NARY....)..ENABL
|   3472: 45 20 4d 45 4d 53 59 53 35 58 4e 4f 43 41 53 45   E MEMSYS5XNOCASE
|   3488: 19 16 05 00 29 0f 17 45 4e 41 42 4c 45 20 4d 45   ....)..ENABLE ME
|   3504: 4d 53 59 53 35 58 52 54 52 49 4d 18 15 05 00 25   MSYS5XRTRIM....%
|   3520: 0f 19 45 4e 41 42 4c 45 20 4a 53 4f 4e 31 58 42   ..ENABLE JSON1XB
|   3536: 49 4e 41 52 59 18 14 05 00 25 0f 19 45 4e 41 42   INARY....%..ENAB
|   3552: 4c 45 20 4a 53 4f 4e 31 58 4e 4f 43 41 53 45 17   LE JSON1XNOCASE.
|   3568: 13 05 00 25 1f 17 45 4e 41 42 4c 45 20 4a 53 4f   ...%..ENABLE JSO
|   3584: 4e 31 58 52 54 52 49 4d 1a 12 05 00 29 0f 19 45   N1XRTRIM....)..E
|   3600: 4e 41 42 4c 45 20 47 45 4f 50 4f 4c 59 58 42 49   NABLE GEOPOLYXBI
|   3616: 4e 41 52 59 1a 11 05 00 29 0f 19 45 4e 41 42 4c   NARY....)..ENABL
|   3632: 45 20 47 45 4f 50 4f 4c 59 58 4e 4f 43 41 53 45   E GEOPOLYXNOCASE
|   3648: 19 10 05 00 29 0f 17 45 4e 41 42 4c 45 20 47 45   ....)..ENABLE GE
|   3664: 4f 50 4f 4c 59 58 52 54 52 49 4d 17 0f 05 00 23   OPOLYXRTRIM....#
|   3680: 0f 19 45 4e 41 42 4c 45 20 46 54 53 35 58 42 49   ..ENABLE FTS5XBI
|   3696: 4e 41 52 59 17 0e 05 00 23 0f 19 45 4e 41 42 4c   NARY....#..ENABL
|   3712: 45 20 46 54 53 35 58 4e 4f 43 41 53 45 16 0d 05   E FTS5XNOCASE...
|   3728: 00 23 0f 17 44 4e 41 42 4c 45 20 46 54 53 35 58   .#..DNABLE FTS5X
|   3744: 52 54 52 49 4d 17 0c 05 00 23 0f 19 45 4e 41 42   RTRIM....#..ENAB
|   3760: 4c 45 20 46 54 53 34 58 42 49 4e 41 52 59 17 0b   LE FTS4XBINARY..
|   3776: 05 00 23 0f 19 45 4e 41 42 4c 45 20 46 54 53 34   ..#..ENABLE FTS4
|   3792: 58 4e 4f 43 41 53 45 16 0a 05 00 23 0f 17 45 4e   XNOCASE....#..EN
|   3808: 41 42 4c 45 20 46 54 53 34 58 52 54 52 49 4d 1e   ABLE FTS4XRTRIM.
|   3824: 09 05 00 31 0f 19 45 4e 41 42 4c 45 20 44 42 53   ...1..ENABLE DBS
|   3840: 54 41 54 20 56 54 41 42 58 42 49 4e 41 52 59 1e   TAT VTABXBINARY.
|   3856: 08 05 00 31 0f 19 45 4e 41 42 4c 45 20 44 42 53   ...1..ENABLE DBS
|   3872: 54 41 54 20 56 54 41 42 58 4e 4f 43 41 53 45 1d   TAT VTABXNOCASE.
|   3888: 07 05 00 31 0f 17 45 4e 41 42 4c 45 20 44 42 53   ...1..ENABLE DBS
|   3904: 54 41 54 20 56 54 41 42 58 52 54 52 49 4d 11 06   TAT VTABXRTRIM..
|   3920: 05 00 17 0f 19 44 45 42 55 47 58 42 49 4e 41 52   .....DEBUGXBINAR
|   3936: 59 11 05 05 00 17 0f 19 44 45 42 55 47 58 4e 4f   Y.......DEBUGXNO
|   3952: 43 41 53 45 10 04 05 00 17 0f 17 44 45 42 55 47   CASE.......DEBUG
|   3968: 58 52 54 52 49 4d 27 03 05 00 43 0f 19 43 4f 4d   XRTRIM'...C..COM
|   3984: 50 49 4c 45 52 3d 67 63 63 2d 35 2e 34 2e 30 20   PILER=gcc-5.4.0 
|   4000: 32 30 31 36 30 36 30 39 58 42 49 4e 41 52 59 27   20160609XBINARY'
|   4016: 02 05 00 43 0f 19 43 4f 4d 50 49 4c 45 52 3d 67   ...C..COMPILER=g
|   4032: 63 63 2d 35 2e 34 2e 30 20 32 30 31 36 30 36 30   cc-5.4.0 2016060
|   4048: 39 58 4e 4f 43 41 53 45 26 01 05 00 43 0f 17 43   9XNOCASE&...C..C
|   4064: 4f 4d 50 49 4c 45 52 3d 67 63 63 2d 35 2e 34 2e   OMPILER=gcc-5.4.
|   4080: 30 20 32 30 31 36 30 36 30 39 58 52 54 52 49 4d   0 20160609XRTRIM
| page 4 offset 12288
|      0: 0d 00 00 00 00 10 00 00 00 00 00 00 00 00 00 00   ................
| page 5 offset 16384
|      0: 0d 00 00 00 02 0b a0 00 0c ad 0b a0 00 00 00 00   ................
|   2976: 82 0a 02 08 08 09 08 08 17 84 06 30 20 32 35 33   ...........0 253
|   2992: 00 01 30 04 25 06 1b 00 00 08 32 30 31 36 30 36   ..0.%.....201606
|   3008: 30 39 03 25 07 00 00 01 34 03 25 05 00 00 01 35   09.%....4.%....5
|   3024: 03 25 04 00 01 07 30 30 30 30 30 30 30 03 25 1a   .%....0000000.%.
|   3040: 00 00 08 63 6f 6d 70 69 6c 65 72 03 25 02 00 00   ...compiler.%...
|   3056: 06 64 62 73 74 61 74 03 25 0a 00 01 04 65 62 75   .dbstat.%....ebu
|   3072: 67 03 25 08 00 00 06 65 6e 61 62 6c 65 09 25 09   g.%....enable.%.
|   3088: 05 04 04 04 04 04 00 01 08 78 74 65 6e 73 69 6f   .........xtensio
|   3104: 6e 03 25 1d 00 00 04 66 74 73 34 03 25 0d 00 03   n.%....fts4.%...
|   3120: 01 35 03 25 0f 00 00 03 67 63 63 03 25 03 00 01   .5.%....gcc.%...
|   3136: 06 65 6f 70 6f 6c 79 03 25 11 00 00 05 6a 73 6f   .eopoly.%....jso
|   3152: 6e 31 03 25 13 00 00 04 6c 6f 61 64 03 25 1c 00   n1.%....load.%..
|   3168: 00 03 6d 61 78 03 25 18 00 01 05 65 6d 6f 72 79   ..max.%....emory
|   3184: 03 25 19 00 03 04 73 79 73 35 03 25 15 00 00 04   .%....sys5.%....
|   3200: 6f 6d 69 74 03 25 1b 00 00 05 72 74 72 65 65 03   omit.%....rtree.
|   3216: 25 17 00 00 0a 74 68 72 65 61 64 73 61 66 65 03   %....threadsafe.
|   3232: 25 1e 00 00 04 76 74 61 62 03 25 0b 00 86 50 01   %....vtab.%...P.
|   3248: 08 08 08 08 08 17 8d 12 30 20 38 33 35 00 01 30   ........0 835..0
|   3264: 12 01 06 00 01 06 00 01 06 00 1f 03 00 01 03 00   ................
|   3280: 01 03 00 00 08 32 30 31 36 30 36 30 39 09 01 07   .....20160609...
|   3296: 00 01 07 00 01 07 00 00 01 34 09 01 05 00 01 05   .........4......
|   3312: 00 01 05 00 00 01 35 09 01 04 00 01 04 00 01 04   ......5.........
|   3328: 00 01 07 30 30 30 30 30 30 30 09 1c 04 00 01 04   ...0000000......
|   3344: 00 01 04 00 00 06 62 69 6e 61 72 79 3c 03 01 02   ......binary<...
|   3360: 02 00 03 01 02 02 00 03 01 02 02 00 03 01 02 02   ................
|   3376: 00 03 01 02 02 00 03 01 02 02 00 03 01 02 02 00   ................
|   3392: 03 01 02 02 00 03 01 02 02 00 03 01 02 02 00 03   ................
|   3408: 01 02 02 00 03 01 02 02 00 00 08 63 6f 6d 70 69   ...........compi
|   3424: 6c 65 72 09 01 02 00 01 02 00 01 02 00 00 06 64   ler............d
|   3440: 62 73 74 61 74 09 07 03 00 01 03 00 01 03 00 01   bstat...........
|   3456: 04 65 62 75 67 09 04 02 00 01 02 00 01 02 00 00   .ebug...........
|   3472: 06 65 6e 61 62 6c 65 3f 07 02 00 01 02 00 01 02   .enable?........
|   3488: 00 01 02 00 01 02 00 01 02 00 01 02 00 01 02 00   ................
|   3504: 01 02 00 01 02 00 01 02 00 01 02 00 01 01 00 01   ................
|   3520: 02 00 01 02 00 01 02 00 01 02 00 01 02 00 01 02   ................
|   3536: 00 01 02 00 01 02 00 01 08 78 74 65 6e 73 69 6f   .........xtensio
|   3552: 6e 09 1f 04 00 01 04 00 01 04 00 00 04 66 74 73   n............fts
|   3568: 34 09 0a 03 00 01 03 00 01 03 00 03 01 35 09 0d   4............5..
|   3584: 03 00 01 03 00 01 03 00 00 03 67 63 63 09 01 03   ..........gcc...
|   3600: 00 01 03 00 01 03 00 01 06 65 6f 70 6f 6c 79 09   .........eopoly.
|   3616: 10 03 00 01 03 00 01 03 00 00 05 6a 73 6f 6e 31   ...........json1
|   3632: 09 13 03 00 01 03 00 01 03 00 00 04 6c 6f 61 64   ............load
|   3648: 09 1f 03 00 01 03 00 01 03 00 00 03 6d 61 78 09   ............max.
|   3664: 1c 02 00 01 02 00 01 02 00 01 05 65 6d 6f 72 79   ...........emory
|   3680: 09 1c 03 00 01 03 00 01 03 00 03 04 73 79 73 35   ............sys5
|   3696: 09 16 03 00 01 03 00 01 03 00 00 06 6e 6f 63 61   ............noca
|   3712: 73 65 3c 02 01 02 02 00 03 01 02 02 00 03 01 02   se<.............
|   3728: 02 00 03 01 02 02 00 03 01 02 02 00 03 01 02 02   ................
|   3744: 00 03 01 02 02 00 03 01 02 02 00 03 01 02 02 00   ................
|   3760: 03 01 02 02 00 03 01 02 02 00 03 01 02 02 00 00   ................
|   3776: 04 6f 6d 69 74 09 1f 02 00 01 02 00 01 02 00 00   .omit...........
|   3792: 05 72 74 72 65 65 09 19 03 00 01 03 00 01 03 00   .rtree..........
|   3808: 03 02 69 6d 3c 01 01 02 02 00 03 01 02 02 00 03   ..im<...........
|   3824: 01 02 02 00 03 01 02 02 00 03 01 02 02 00 03 01   ................
|   3840: 02 02 00 03 01 02 02 00 03 01 02 02 00 03 01 02   ................
|   3856: 02 00 03 01 02 02 00 03 01 02 02 00 03 01 02 02   ................
|   3872: 00 00 0a 74 68 72 65 61 64 73 61 66 65 09 22 02   ...threadsafe...
|   3888: 00 01 02 00 0a 12 00 00 04 76 74 61 62 09 07 04   .........vtab...
|   3904: 00 01 04 00 01 04 00 00 01 78 b4 01 01 01 01 02   .........x......
|   3920: 00 01 01 01 02 00 01 01 01 02 00 01 01 01 02 00   ................
|   3936: 01 01 01 02 00 01 01 01 02 00 01 01 01 02 00 01   ................
|   3952: 01 01 02 00 01 01 01 02 00 01 01 01 02 00 01 01   ................
|   3968: 01 02 00 01 01 01 02 00 01 01 01 02 00 01 01 01   ................
|   3984: 02 00 01 01 01 02 00 01 01 01 02 00 01 01 01 02   ................
|   4000: 00 01 01 01 02 00 01 01 01 02 00 01 01 01 02 00   ................
|   4016: 01 01 01 02 00 01 01 01 02 00 01 01 01 02 00 01   ................
|   4032: 01 01 02 00 01 01 01 02 00 01 01 01 02 00 01 01   ................
|   4048: 01 02 00 01 01 01 02 00 01 01 01 02 00 01 01 01   ................
|   4064: 02 00 01 01 01 02 00 01 01 01 02 00 01 01 01 02   ................
|   4080: 00 01 01 01 02 00 01 01 01 02 00 01 01 01 02 00   ................
| page 6 offset 20480
|      0: 0a 00 00 00 02 0f f5 00 0f fb 0f f5 00 00 00 00   ................
|   4080: 00 00 00 00 00 05 04 08 09 01 02 04 04 08 08 09   ................
| page 7 offset 24576
|      0: 0d 00 00 00 05 0f b8 00 0f f4 0f e9 0f d6 0f c7   ................
|     16: 0f b8 00 00 00 00 00 00 00 00 00 00 00 00 00 00   ................
|   4016: 00 00 00 00 00 00 00 00 0d 05 02 23 61 75 74 6f   ...........#auto
|   4032: 6d 65 72 67 65 3d 35 0d 04 02 23 6d 65 72 67 65   merge=5...#merge
|   4048: 3d 31 30 30 2c 38 11 03 02 2b 69 6e 74 65 67 72   =100,8...+integr
|   4064: 69 74 79 2d 63 68 65 63 6b 09 02 02 1b 72 65 62   ity-check....reb
|   4080: 75 69 6c 64 0a 01 02 1d 6f 70 74 69 6d 69 7a 65   uild....optimize
| end crash-e1c6cbfdf643e9.db
}]} {}

do_execsql_test 9.1 {
  SELECT count(*) FROM t1 WHERE t1 MATCH '"json1 enable"';
} {1}

#-------------------------------------------------------------------------
reset_db
do_test 10.0 {
  sqlite3 db {}
  db deserialize [decode_hexdb {
| size 28672 pagesize 4096 filename crash-c3a971f0061039.db
| page 1 offset 0
|      0: 53 51 4c 69 74 65 20 66 6f 72 6d 61 74 20 33 00   SQLite format 3.
|     16: 10 00 01 01 00 40 20 20 00 00 00 00 00 00 00 07   .....@  ........
|     32: 00 00 00 02 00 00 00 01 00 00 00 07 00 00 00 04   ................
|     48: 00 00 00 00 00 00 00 00 00 00 00 01 00 00 00 00   ................
|     96: 00 00 00 00 0d 0e b1 00 06 0d a4 00 0f 8d 0f 21   ...............!
|    112: 0e b9 0d c8 0e 7e 0d a4 0d a4 00 00 00 00 00 00   .....~..........
|   3488: 00 00 00 00 22 07 06 17 11 11 01 31 74 61 62 6c   ...........1tabl
|   3504: 65 74 32 74 32 07 43 52 45 41 54 45 20 54 41 42   et2t2.CREATE TAB
|   3520: 4c 45 20 74 32 28 78 29 81 33 05 07 17 1f 1f 01   LE t2(x).3......
|   3536: 82 35 74 61 62 6c 65 74 31 5f 73 65 67 64 69 72   .5tablet1_segdir
|   3552: 74 31 5f 73 65 67 64 69 72 05 43 52 45 41 54 45   t1_segdir.CREATE
|   3568: 20 54 41 42 4c 45 20 27 74 31 5f 73 65 67 64 69    TABLE 't1_segdi
|   3584: 72 27 28 6c 65 76 65 6c 20 49 4e 54 45 47 45 52   r'(level INTEGER
|   3600: 2c 69 64 78 20 49 4e 54 45 47 45 52 2c 73 74 61   ,idx INTEGER,sta
|   3616: 72 74 5f 62 6c 6f 63 6b 20 49 4e 54 45 47 45 52   rt_block INTEGER
|   3632: 2c 6c 65 61 76 65 73 5f 65 6e 64 5f 62 6c 6f 63   ,leaves_end_bloc
|   3648: 6b 20 49 4e 54 45 47 45 52 2c 65 6e 64 5f 62 6c   k INTEGER,end_bl
|   3664: 6f 63 6b 20 49 4e 54 45 47 45 52 2c 72 6f 6f 74   ock INTEGER,root
|   3680: 20 42 4c 4f 42 2c 50 52 49 4d 41 52 59 20 4b 45    BLOB,PRIMARY KE
|   3696: 59 28 6c 65 76 65 6c 2c 20 69 64 78 29 29 31 06   Y(level, idx))1.
|   3712: 06 17 45 1f 01 00 69 6e 64 65 78 73 71 6c 69 74   ..E...indexsqlit
|   3728: 65 5f 61 75 74 6f 69 6e 64 65 78 5f 74 31 5f 73   e_autoindex_t1_s
|   3744: 65 67 64 69 72 5f 31 74 31 5f 73 65 67 64 69 72   egdir_1t1_segdir
|   3760: 06 0f c7 00 08 00 00 00 00 66 04 07 17 23 23 01   .........f...##.
|   3776: 81 13 74 61 62 6c 65 74 31 5f 73 65 67 6d 65 6e   ..tablet1_segmen
|   3792: 74 73 74 31 5f 73 65 67 6d 65 6e 74 73 04 43 52   tst1_segments.CR
|   3808: 45 41 54 45 20 54 41 42 4c 45 20 27 74 31 5f 73   EATE TABLE 't1_s
|   3824: 65 67 6d 65 6e 74 73 27 28 62 6c 6f 63 6b 69 64   egments'(blockid
|   3840: 20 49 4e 54 45 47 45 52 20 50 52 49 4d 41 52 59    INTEGER PRIMARY
|   3856: 20 4b 45 59 2c 20 62 6c 6f 63 6b 20 42 4c 4f 42    KEY, block BLOB
|   3872: 29 6a 03 07 17 21 21 01 81 1f 74 61 62 6c 65 74   )j...!!...tablet
|   3888: 31 5f 63 6f 6e 74 65 6e 74 74 31 5f 63 6f 6e 74   1_contentt1_cont
|   3904: 65 6e 74 03 43 52 45 41 54 45 20 54 41 42 4c 45   ent.CREATE TABLE
|   3920: 20 27 74 31 5f 63 6f 6e 74 65 6e 74 27 28 64 6f    't1_content'(do
|   3936: 63 69 64 20 49 4e 54 45 47 45 52 20 50 52 49 4d   cid INTEGER PRIM
|   3952: 41 52 59 30 4b 45 59 2c 20 27 63 30 61 27 2c 20   ARY0KEY, 'c0a', 
|   3968: 27 63 31 62 27 2c 20 27 63 32 63 27 29 38 02 06   'c1b', 'c2c')8..
|   3984: 17 11 11 08 5f 74 61 62 6c 65 74 31 74 31 43 52   ...._tablet1t1CR
|   4000: 45 41 54 45 20 56 49 52 54 55 41 4c 20 54 41 42   EATE VIRTUAL TAB
|   4016: 4c 45 20 74 31 20 55 53 49 4e 47 20 66 74 73 33   LE t1 USING fts3
|   4032: 28 61 2c 62 2c 63 29 00 00 00 39 00 00 00 00 00   (a,b,c)...9.....
| page 3 offset 8192
|      0: 0d 00 00 00 25 0b 48 00 0f d8 0f af 0f 86 0f 74   ....%.H........t
|     16: 0f 61 0f 4e 0f 2f 0f 0f 0e ef 0e d7 0e be 0e a5   .a.N./..........
|     32: 0e 8d 0e 74 0e 5b 0e 40 0e 24 0e 08 0d ef 0d d5   ...t.[.@.$......
|     48: 0d bb 0d a0 0d 84 0d 68 0d 4f 0d 35 0d 1b 0c fb   .......h.O.5....
|     64: 0c da 0c b9 0c 99 0c 78 0c 57 0c 3e 0c 24 0c 0a   .......x.W.>.$..
|     80: 0b 48 00 00 00 00 00 00 00 00 00 00 00 00 00 00   .H..............
|   2880: 00 00 00 00 00 00 00 00 81 3f 25 06 00 82 7f 00   .........?%.....
|   2896: 00 43 4f 4d 50 49 4c 45 52 3d 67 63 63 2d 35 2e   .COMPILER=gcc-5.
|   2912: 34 2e 30 20 32 30 31 36 30 36 30 39 20 44 45 42   4.0 20160609 DEB
|   2928: 55 47 20 45 4e 41 42 4c 45 20 44 42 53 54 41 54   UG ENABLE DBSTAT
|   2944: 20 56 54 41 42 20 45 4e 41 42 4c 45 20 46 54 53    VTAB ENABLE FTS
|   2960: 34 20 45 4e 41 42 4c 45 20 46 54 53 35 20 45 4e   4 ENABLE FTS5 EN
|   2976: 41 42 4c 45 20 47 45 4f 50 4f 4c 59 20 45 4e 41   ABLE GEOPOLY ENA
|   2992: 42 4c 45 20 4a 53 4f 4e 31 20 45 4e 41 42 4c 45   BLE JSON1 ENABLE
|   3008: 20 4d 45 4d 53 59 53 35 20 45 4e 41 42 4c 45 1f    MEMSYS5 ENABLE.
|   3024: 52 54 52 45 45 20 4d 41 58 20 4d 45 4d 4f 52 59   RTREE MAX MEMORY
|   3040: 3d 35 30 30 30 30 30 30 30 20 4f 4d 49 54 20 4c   =50000000 OMIT L
|   3056: 4f 41 44 20 45 58 54 45 4e 53 49 4f 4e 20 54 48   OAD EXTENSION TH
|   3072: 52 45 41 44 53 41 46 45 3d 30 18 24 05 00 25 0f   READSAFE=0.$..%.
|   3088: 19 54 48 52 45 41 44 53 41 46 45 3d 30 58 42 49   .THREADSAFE=0XBI
|   3104: 4e 41 52 59 18 23 05 00 25 0f 19 54 48 52 45 41   NARY.#..%..THREA
|   3120: 44 53 41 46 45 3d 30 58 4e 4f 43 41 53 45 17 22   DSAFE=0XNOCASE..
|   3136: 05 00 25 0f 17 54 48 52 45 41 44 53 41 46 45 3d   ..%..THREADSAFE=
|   3152: 30 58 52 54 52 49 4d 1f 21 05 00 33 0f 19 4f 4d   0XRTRIM.!..3..OM
|   3168: 49 54 20 4c 4f 41 44 20 45 58 54 45 4e 53 49 4f   IT LOAD EXTENSIO
|   3184: 4e 58 43 49 4e 41 52 59 1f 20 05 00 33 0f 19 4f   NXCINARY. ..3..O
|   3200: 4d 49 54 20 4c 4f 41 44 20 45 58 54 45 4e 53 49   MIT LOAD EXTENSI
|   3216: 4f 4e 58 4e 4f 43 41 53 45 1e 1f 05 00 33 0f 17   ONXNOCASE....3..
|   3232: 4f 4d 49 54 20 4c 4f 41 44 20 45 58 54 45 4e 53   OMIT LOAD EXTENS
|   3248: 49 4f 4e 58 52 54 52 49 4d 1f 1e 05 00 33 0f 19   IONXRTRIM....3..
|   3264: 4d 41 58 20 4d 45 4d 4f 52 59 3d 35 30 30 30 30   MAX MEMORY=50000
|   3280: 30 30 30 58 42 49 4e 41 52 59 1f 1d 05 00 33 0f   000XBINARY....3.
|   3296: 19 4d 41 58 20 4d 45 4d 4f 52 59 3d 35 30 30 30   .MAX MEMORY=5000
|   3312: 30 30 30 30 58 4e 4f 43 41 53 45 1e 1c 05 00 33   0000XNOCASE....3
|   3328: 0f 17 4d 41 58 20 4d 45 4d 4f 52 59 3d 35 30 30   ..MAX MEMORY=500
|   3344: 30 30 30 30 30 58 52 54 52 49 4d 18 1b 05 00 25   00000XRTRIM....%
|   3360: 0f 19 45 4e 41 42 4c 45 20 52 54 52 45 45 58 42   ..ENABLE RTREEXB
|   3376: 49 4e 41 52 59 18 1a 05 00 25 0f 19 45 4e 41 42   INARY....%..ENAB
|   3392: 4c 45 20 52 54 52 45 45 58 4e 4f 43 41 53 45 17   LE RTREEXNOCASE.
|   3408: 19 05 00 25 0f 17 45 4e 41 42 4c 45 20 52 54 52   ...%..ENABLE RTR
|   3424: 45 45 58 52 54 52 49 4d 1a 18 05 00 29 0f 19 45   EEXRTRIM....)..E
|   3440: 4e 41 42 4c 45 20 4d 45 4d 53 59 53 35 58 42 49   NABLE MEMSYS5XBI
|   3456: 4e 41 52 59 1a 17 05 00 29 0f 19 45 4e 41 42 4c   NARY....)..ENABL
|   3472: 45 20 4d 45 4d 53 59 53 35 58 4e 4f 43 41 53 45   E MEMSYS5XNOCASE
|   3488: 19 16 05 00 29 0f 17 45 4e 41 42 4c 45 20 4d 45   ....)..ENABLE ME
|   3504: 4d 53 59 53 35 58 52 54 52 49 4d 18 15 09 00 25   MSYS5XRTRIM....%
|   3520: 0f 19 45 4e 41 42 4c 45 20 4a 53 4f 4e 31 58 42   ..ENABLE JSON1XB
|   3536: 49 4e 41 52 59 18 14 05 00 25 0f 19 45 4e 41 42   INARY....%..ENAB
|   3552: 4c 45 20 4a 53 4f 4e 31 58 4e 4f 43 41 53 45 17   LE JSON1XNOCASE.
|   3568: 13 05 00 25 0f 17 45 4e 41 42 4c 45 20 4a 53 4f   ...%..ENABLE JSO
|   3584: 4e 31 58 52 54 52 49 4d 1a 12 05 00 29 0f 19 45   N1XRTRIM....)..E
|   3600: 4e 41 42 4c 45 20 47 45 4f 50 4f 4c 59 58 42 49   NABLE GEOPOLYXBI
|   3616: 4e 41 52 59 1a 11 05 00 29 0f 19 45 4e 41 42 4c   NARY....)..ENABL
|   3632: 45 20 47 45 4f 50 4f 4c 59 58 4e 4f 43 41 53 45   E GEOPOLYXNOCASE
|   3648: 19 10 05 00 29 0f 17 45 4e 41 42 4c 46 20 47 45   ....)..ENABLF GE
|   3664: 4f 50 4f 4c 59 58 52 54 52 49 4d 17 0f 05 00 23   OPOLYXRTRIM....#
|   3680: 0f 19 45 4e 41 42 4c 45 20 46 54 53 35 58 42 49   ..ENABLE FTS5XBI
|   3696: 4e 41 52 59 17 0e 05 00 23 0f 19 45 4e 41 42 4c   NARY....#..ENABL
|   3712: 45 20 46 54 53 35 58 4e 4f 43 41 53 45 16 0d 05   E FTS5XNOCASE...
|   3728: 00 23 0f 17 45 4e 41 42 4c 45 20 46 54 53 35 58   .#..ENABLE FTS5X
|   3744: 52 54 52 49 4d 17 0c 05 00 23 0f 19 45 4e 41 42   RTRIM....#..ENAB
|   3760: 4c 45 20 46 54 53 34 58 42 49 4e 41 52 59 17 0b   LE FTS4XBINARY..
|   3776: 05 00 23 0f 19 45 4e 41 42 4c 45 20 46 54 53 34   ..#..ENABLE FTS4
|   3792: 58 4e 4f 43 41 53 45 16 0a 05 00 23 0f 17 45 4e   XNOCASE....#..EN
|   3808: 41 42 4c 45 20 46 54 53 34 58 52 54 52 49 4d 1e   ABLE FTS4XRTRIM.
|   3824: 09 05 00 31 0f 19 45 4e 41 42 4c 45 20 44 42 53   ...1..ENABLE DBS
|   3840: 54 41 54 20 56 54 41 42 58 42 49 4e 41 52 59 1e   TAT VTABXBINARY.
|   3856: 08 05 00 31 0f 19 45 4e 41 42 4c 45 20 44 42 53   ...1..ENABLE DBS
|   3872: 54 41 54 20 56 54 41 42 58 4e 4f 43 41 53 45 1d   TAT VTABXNOCASE.
|   3888: 07 05 00 31 0f 17 45 4e 41 42 4c 45 20 44 42 53   ...1..ENABLE DBS
|   3904: 54 41 54 20 56 54 41 42 58 52 54 52 49 4d 11 06   TAT VTABXRTRIM..
|   3920: 05 00 17 0f 19 44 45 42 55 47 58 42 49 4e 41 52   .....DEBUGXBINAR
|   3936: 59 11 05 05 00 17 0f 19 44 45 42 55 47 58 4e 4f   Y.......DEBUGXNO
|   3952: 43 41 53 45 10 04 05 00 17 0f 17 44 45 42 55 47   CASE.......DEBUG
|   3968: 58 52 54 52 49 4d 27 03 05 00 43 0f 19 43 4f 4d   XRTRIM'...C..COM
|   3984: 50 49 4c 45 52 3d 67 63 63 2d 35 2e 34 2e 30 20   PILER=gcc-5.4.0 
|   4000: 32 30 31 36 30 36 30 39 58 42 49 4e 41 52 59 27   20160609XBINARY'
|   4016: 02 05 00 43 0f 19 43 4f 4d 50 49 4c 45 52 3d 67   ...C..COMPILER=g
|   4032: 63 63 2d 35 2e 34 2e 30 20 32 30 31 36 30 36 30   cc-5.4.0 2016060
|   4048: 39 58 4e 4f 43 41 53 45 26 01 05 00 43 0f 17 43   9XNOCASE&...C..C
|   4064: 4f 4d 50 49 4c 45 52 3d 67 63 63 2d 35 2e 34 2e   OMPILER=gcc-5.4.
|   4080: 30 20 32 30 31 36 30 36 30 39 58 52 54 52 49 4d   0 20160609XRTRIM
| page 4 offset 12288
|      0: 0d 00 00 00 00 10 00 00 00 00 00 00 00 00 00 00   ................
| page 5 offset 16384
|      0: 0d 00 00 00 02 0b a0 00 0c ad 0b a0 00 00 00 00   ................
|   2976: 82 0a 02 08 08 09 08 08 17 84 06 30 20 32 35 33   ...........0 253
|   2992: 00 01 30 04 25 06 1b 00 00 08 32 30 31 36 30 36   ..0.%.....201606
|   3008: 30 39 03 25 07 00 00 01 34 03 25 05 00 00 01 35   09.%....4.%....5
|   3024: 03 25 04 00 01 07 30 30 30 30 30 30 30 03 25 1a   .%....0000000.%.
|   3040: 00 00 08 63 6f 6d 70 69 6c 65 72 03 25 02 00 00   ...compiler.%...
|   3056: 06 64 62 73 74 61 74 03 25 0a 00 01 04 65 62 75   .dbstat.%....ebu
|   3072: 67 03 25 08 00 00 06 65 6e 61 62 6c 65 09 25 09   g.%....enable.%.
|   3088: 05 04 04 04 04 04 00 01 08 78 74 65 6e 73 69 6f   .........xtensio
|   3104: 6e 03 25 1d 00 00 04 66 74 73 34 03 25 0d 00 03   n.%....fts4.%...
|   3120: 01 35 03 25 0f 00 00 03 67 63 63 03 25 03 00 01   .5.%....gcc.%...
|   3136: 06 65 6f 70 6f 6c 79 03 25 11 00 00 05 6a 73 6f   .eopoly.%....jso
|   3152: 6e 31 03 25 13 00 00 04 6c 6f 61 64 03 25 1c 00   n1.%....load.%..
|   3168: 00 03 6d 61 78 03 25 18 00 01 05 65 6d 6f 72 79   ..max.%....emory
|   3184: 03 25 19 00 03 04 73 79 73 35 03 25 15 00 00 04   .%....sys5.%....
|   3200: 6f 6d 69 74 03 25 1b 00 00 05 72 74 72 65 65 03   omit.%....rtree.
|   3216: 25 17 00 00 0a 74 68 72 65 61 64 73 61 66 65 03   %....threadsafe.
|   3232: 25 1e 00 00 04 76 74 61 62 03 25 0b 00 86 50 01   %....vtab.%...P.
|   3248: 08 08 08 08 09 17 8d 12 30 20 38 33 35 00 01 30   ........0 835..0
|   3264: 12 01 06 00 01 06 00 01 06 00 1f 03 00 01 03 00   ................
|   3280: 01 03 00 00 08 32 30 31 36 30 36 30 39 09 01 07   .....20160609...
|   3296: 00 01 07 00 01 07 00 00 01 34 09 01 05 00 01 05   .........4......
|   3312: 00 01 05 00 00 01 35 09 01 04 00 01 04 00 01 04   ......5.........
|   3328: 00 01 07 30 30 30 30 30 30 30 09 1c 04 00 01 04   ...0000000......
|   3344: 00 01 04 00 00 06 62 69 6e 61 72 79 3c 03 01 02   ......binary<...
|   3360: 02 00 03 01 02 02 00 03 01 02 02 00 03 01 02 02   ................
|   3376: 00 03 01 02 02 00 03 01 02 02 00 03 01 02 02 00   ................
|   3392: 03 01 02 02 00 03 01 02 02 00 03 01 02 02 00 03   ................
|   3408: 01 02 02 00 03 01 02 02 00 00 08 63 6f 6d 70 69   ...........compi
|   3424: 6c 65 72 09 01 02 00 01 02 00 01 02 00 00 06 64   ler............d
|   3440: 62 73 74 61 74 09 07 03 00 01 03 00 01 03 00 01   bstat...........
|   3456: 04 65 62 75 67 09 04 02 00 01 02 00 01 02 00 00   .ebug...........
|   3472: 06 65 6e 61 62 6c 65 3f 07 02 00 01 02 00 01 02   .enable?........
|   3488: 00 01 02 00 01 02 00 01 02 00 01 02 00 01 02 00   ................
|   3504: 01 02 00 01 02 00 01 02 00 01 02 00 01 02 00 01   ................
|   3520: 02 00 01 02 00 01 02 00 01 02 00 01 02 00 01 02   ................
|   3536: 00 01 02 00 01 02 00 01 08 78 74 65 6e 73 69 6f   .........xtensio
|   3552: 6e 09 1f 04 00 01 04 00 01 04 00 00 04 66 74 73   n............fts
|   3568: 34 09 0a 03 00 01 03 00 01 03 00 03 01 35 09 0d   4............5..
|   3584: 03 00 01 03 00 01 03 00 00 03 67 63 63 09 01 03   ..........gcc...
|   3600: 00 01 03 00 01 03 00 01 06 65 6f 70 6f 6c 79 09   .........eopoly.
|   3616: 10 03 00 01 03 00 01 03 00 00 05 6a 73 6f 6e 31   ...........json1
|   3632: 09 13 03 00 01 03 00 01 03 00 00 04 6c 6f 61 64   ............load
|   3648: 09 1f 03 00 01 03 00 01 03 00 00 03 6d 61 78 09   ............max.
|   3664: 1c 02 00 01 02 00 01 02 00 01 05 65 6d 6f 72 79   ...........emory
|   3680: 09 1c 03 00 01 03 00 01 03 00 03 04 73 79 73 35   ............sys5
|   3696: 09 16 03 00 01 03 00 01 03 00 00 06 6e 6f 63 61   ............noca
|   3712: 73 65 3c 02 01 02 02 00 03 01 02 02 00 03 01 02   se<.............
|   3728: 02 00 03 01 02 02 00 03 01 02 02 00 03 01 02 02   ................
|   3744: 00 03 01 02 02 00 03 01 02 02 00 03 01 02 02 00   ................
|   3760: 03 01 02 02 00 03 01 02 02 00 03 01 02 02 00 00   ................
|   3776: 04 6f 6d 69 74 09 1f 02 00 01 02 00 01 02 00 00   .omit...........
|   3792: 05 72 74 72 65 65 09 19 03 00 01 03 00 01 03 00   .rtree..........
|   3808: 03 02 69 6d 3c 01 01 02 02 00 03 01 02 02 00 03   ..im<...........
|   3824: 01 02 02 00 03 01 02 02 00 03 01 02 02 00 03 01   ................
|   3840: 02 02 00 03 01 02 02 00 03 01 02 02 00 03 01 02   ................
|   3856: 02 00 03 01 02 02 00 03 01 02 02 00 03 01 02 02   ................
|   3872: 00 00 0a 74 68 72 65 61 64 73 61 66 65 09 22 02   ...threadsafe...
|   3888: 00 01 02 00 02 02 00 00 04 76 74 61 62 09 07 04   .........vtab...
|   3904: 00 01 04 00 01 04 00 00 01 78 b4 01 01 01 01 02   .........x......
|   3920: 00 01 01 01 02 00 01 01 01 02 00 01 01 01 02 00   ................
|   3936: 01 01 01 02 00 01 01 01 02 00 01 01 01 02 00 01   ................
|   3952: 01 01 02 00 01 01 01 02 00 01 01 01 02 00 01 01   ................
|   3968: 01 02 00 01 01 01 02 00 01 01 01 02 00 01 01 01   ................
|   3984: 02 00 01 01 01 02 00 01 01 01 02 00 01 01 01 02   ................
|   4000: 10 01 01 01 02 00 01 01 01 02 00 01 01 01 02 00   ................
|   4016: 01 01 01 02 00 01 01 01 02 00 01 01 01 02 00 01   ................
|   4032: 01 01 02 00 01 01 01 02 00 01 01 01 02 00 01 01   ................
|   4048: 01 02 00 01 01 01 02 00 01 01 01 02 00 01 01 01   ................
|   4064: 02 00 01 01 02 02 00 01 01 01 02 00 01 01 01 02   ................
|   4080: 00 01 01 01 02 00 01 01 01 02 00 01 01 01 02 00   ................
| page 6 offset 20480
|      0: 0a 00 00 00 02 0f f5 00 0f fb 0f f5 00 00 00 00   ................
|   4080: 00 00 00 00 00 05 04 08 09 01 02 04 04 08 08 09   ................
| page 7 offset 24576
|      0: 0d 00 00 00 05 0f b8 00 0f f4 0f e9 0f d6 0f c7   ................
|     16: 0f b8 00 00 00 00 00 00 00 00 00 00 00 00 00 00   ................
|   4016: 00 00 00 00 00 00 00 00 0d 05 02 23 61 75 74 6f   ...........#auto
|   4032: 6d 65 72 67 65 3d 35 0d 04 02 23 6d 65 72 67 65   merge=5...#merge
|   4048: 3d 31 30 30 2c 38 11 03 02 2b 69 6e 74 65 67 72   =100,8...+integr
|   4064: 69 74 79 2d 63 68 65 63 6b 09 02 02 1b 72 65 62   ity-check....reb
|   4080: 75 69 6c 64 0a 01 02 1d 6f 70 74 69 6d 69 7a 65   uild....optimize
| end crash-c3a971f0061039.db
}]} {}

do_catchsql_test 10.1 {
  WITH RECURSIVE c(x) AS (VALUES(1) UNION ALL SELECT x+1 FROM c WHERE x<100)
    INSERT OR IGNORE INTO t1(a,c) SELECT x,null FROM c
    UNION ALL SELECT 180-x,printf('[%,d]',x*-5844627) FROM c;
} {0 {}}

do_catchsql_test 10.3 {
  INSERT INTO t1(t1) VALUES('optimize');
} {1 {database disk image is malformed}}

#-------------------------------------------------------------------------
reset_db
do_test 11.0 {
  sqlite3 db {}
  db deserialize [decode_hexdb {
| size 28672 pagesize 4096 filename crash-843cb8447eaf14.db
| page 1 offset 0
|      0: 53 51 4c 69 74 65 20 66 6f 72 6d 61 74 20 33 00   SQLite format 3.
|     16: 10 00 01 01 00 40 20 20 00 00 00 00 00 00 00 07   .....@  ........
|     32: 00 00 00 02 00 00 00 01 00 00 00 07 00 00 00 04   ................
|     48: 00 00 00 00 00 00 00 00 00 00 00 01 00 00 00 00   ................
|     96: 00 00 00 00 0d 0e b1 00 06 0d a4 00 0f 8d 0f 21   ...............!
|    112: 0e b9 0d c8 0e 7e 0d a4 0d a4 00 00 00 00 00 00   .....~..........
|   3488: 00 00 00 00 22 07 06 17 11 11 01 31 74 61 62 6c   ...........1tabl
|   3504: 65 74 32 74 32 07 43 52 45 41 54 45 20 54 41 42   et2t2.CREATE TAB
|   3520: 4c 45 20 74 32 28 78 29 81 33 05 07 17 1f 1f 01   LE t2(x).3......
|   3536: 82 35 74 61 62 6c 65 74 31 5f 73 65 67 64 69 72   .5tablet1_segdir
|   3552: 74 31 5f 73 65 67 64 69 72 05 43 52 45 41 54 45   t1_segdir.CREATE
|   3568: 20 54 41 42 4c 45 20 27 74 31 5f 73 65 67 64 69    TABLE 't1_segdi
|   3584: 72 27 28 6c 65 76 65 6c 20 49 4e 54 45 47 45 52   r'(level INTEGER
|   3600: 2c 69 64 78 20 49 4e 54 45 47 45 52 2c 73 74 61   ,idx INTEGER,sta
|   3616: 72 74 5f 62 6c 6f 63 6b 20 49 4e 54 45 47 45 52   rt_block INTEGER
|   3632: 2c 6c 65 61 76 65 73 5f 65 6e 64 5f 62 6c 6f 63   ,leaves_end_bloc
|   3648: 6b 20 49 4e 54 45 47 45 52 2c 65 6e 64 5f 62 6c   k INTEGER,end_bl
|   3664: 6f 63 6b 20 49 4e 54 45 47 45 52 2c 72 6f 6f 74   ock INTEGER,root
|   3680: 20 42 4c 4f 42 2c 50 52 49 4d 41 52 59 20 4b 45    BLOB,PRIMARY KE
|   3696: 59 28 6c 65 76 65 6c 2c 20 69 64 78 29 29 31 06   Y(level, idx))1.
|   3712: 06 17 45 1f 01 00 69 6e 64 65 78 73 71 6c 69 74   ..E...indexsqlit
|   3728: 65 5f 61 75 74 6f 69 6e 64 65 78 5f 74 31 5f 73   e_autoindex_t1_s
|   3744: 65 67 64 69 72 5f 31 74 31 5f 73 65 67 64 69 72   egdir_1t1_segdir
|   3760: 06 0f c7 00 08 00 00 00 00 66 04 07 17 23 23 01   .........f...##.
|   3776: 81 13 74 61 62 6c 65 74 31 5f 73 65 67 6d 65 6e   ..tablet1_segmen
|   3792: 74 73 74 31 5f 73 65 67 6d 65 6e 74 73 04 43 52   tst1_segments.CR
|   3808: 45 41 54 45 20 54 41 42 4c 45 20 27 74 31 5f 73   EATE TABLE 't1_s
|   3824: 65 67 6d 65 6e 74 73 27 28 62 6c 6f 63 6b 69 64   egments'(blockid
|   3840: 20 49 4e 54 45 47 45 52 20 50 52 49 4d 41 52 59    INTEGER PRIMARY
|   3856: 20 4b 45 59 2c 20 62 6c 6f 63 6b 20 42 4c 4f 42    KEY, block BLOB
|   3872: 29 6a 03 07 17 21 21 01 81 1f 74 61 62 6c 65 74   )j...!!...tablet
|   3888: 31 5f 63 6f 6e 74 65 6e 74 74 31 5f 63 6f 6e 74   1_contentt1_cont
|   3904: 65 6e 74 03 43 52 45 41 54 45 20 54 41 42 4c 45   ent.CREATE TABLE
|   3920: 20 27 74 31 5f 63 6f 6e 74 65 6e 74 27 28 64 6f    't1_content'(do
|   3936: 63 69 64 20 49 4e 54 45 47 45 52 20 50 52 49 4d   cid INTEGER PRIM
|   3952: 41 52 59 20 4b 45 59 2c 20 27 63 30 61 27 2c 20   ARY KEY, 'c0a', 
|   3968: 27 63 31 62 27 2c 20 27 63 32 63 27 29 38 02 06   'c1b', 'c2c')8..
|   3984: 17 11 11 08 5f 74 61 62 6c 65 74 31 74 31 43 52   ...._tablet1t1CR
|   4000: 45 41 54 45 20 56 49 52 54 55 41 4c 20 54 41 42   EATE VIRTUAL TAB
|   4016: 4c 45 20 74 31 20 55 53 49 4e 47 20 66 74 73 33   LE t1 USING fts3
|   4032: 28 61 2c 62 2c 63 29 00 00 00 39 00 00 00 00 00   (a,b,c)...9.....
| page 3 offset 8192
|      0: 0d 00 00 00 25 0b 48 00 0f d8 0f af 0f 86 0f 74   ....%.H........t
|     16: 0f 61 0f 4e 0f 2f 0f 0f 0e ef 0e d7 0e be 0e a5   .a.N./..........
|     32: 0e 8d 0e 74 0e 5b 0e 40 0e 24 0e 08 0d ef 0d d4   ...t.[.@.$......
|     48: dd bb 0d a0 0d 84 0d 68 0d 4f 0d 35 0d 1b 0c fb   .......h.O.5....
|     64: 0c da 0c b9 35 99 0c 78 0c 57 0c 3e 0c 24 0c 0a   ....5..x.W.>.$..
|     80: 0b 48 00 00 00 00 00 00 00 00 00 00 00 00 00 00   .H..............
|   2880: 00 00 00 00 00 00 00 00 81 3f 25 06 00 82 7f 00   .........?%.....
|   2896: 00 43 4f 4d 50 49 4c 45 52 3d 67 63 63 2d 35 2e   .COMPILER=gcc-5.
|   2912: 34 2e 30 20 32 30 31 36 30 36 30 39 20 44 45 42   4.0 20160609 DEB
|   2928: 55 47 20 45 4e 41 42 4c 45 20 44 42 53 54 41 54   UG ENABLE DBSTAT
|   2944: 20 56 54 41 42 20 45 4e 41 42 4c 45 20 46 54 53    VTAB ENABLE FTS
|   2960: 34 20 45 4e 41 42 4c 45 20 46 54 53 35 20 45 4e   4 ENABLE FTS5 EN
|   2976: 41 42 4c 45 20 47 45 4f 50 4f 4c 59 20 45 4e 41   ABLE GEOPOLY ENA
|   2992: 42 4c 45 20 4a 53 4f 4e 31 20 45 4e 41 42 4c 45   BLE JSON1 ENABLE
|   3008: 20 4d 45 4d 53 59 53 35 20 45 4e 41 42 4c 45 20    MEMSYS5 ENABLE 
|   3024: 52 54 52 45 45 20 4d 41 58 20 4d 45 4d 4f 52 59   RTREE MAX MEMORY
|   3040: 3d 35 30 30 30 30 30 30 30 20 4f 4d 49 54 20 4c   =50000000 OMIT L
|   3056: 4f 41 44 20 45 58 54 45 4e 53 49 4f 4e 20 54 48   OAD EXTENSION TH
|   3072: 52 45 41 44 53 41 46 45 3d 30 18 24 05 00 25 0f   READSAFE=0.$..%.
|   3088: 19 54 48 52 45 41 44 53 41 46 45 3d 30 58 42 49   .THREADSAFE=0XBI
|   3104: 4e 41 52 59 18 23 05 00 25 0f 19 54 48 52 45 41   NARY.#..%..THREA
|   3120: 44 53 41 46 45 3d 30 58 4e 4f 43 41 53 45 17 22   DSAFE=0XNOCASE..
|   3136: 05 00 25 0f 17 54 48 52 45 41 44 53 41 46 45 3d   ..%..THREADSAFE=
|   3152: 30 58 52 54 52 49 4d 1f 21 05 00 33 0f 19 4f 4d   0XRTRIM.!..3..OM
|   3168: 49 54 20 4c 4f 41 44 20 45 58 54 45 4e 53 49 4f   IT LOAD EXTENSIO
|   3184: 4e 58 42 49 4e 41 52 59 1f 20 05 00 33 0f 19 4f   NXBINARY. ..3..O
|   3200: 4d 49 54 20 4c 4f 41 44 20 45 58 54 45 4e 53 49   MIT LOAD EXTENSI
|   3216: 4f 4e 58 4e 4f 43 41 53 45 1e 1f 05 00 33 0f 17   ONXNOCASE....3..
|   3232: 4f 4d 49 54 20 4c 4f 41 44 20 45 58 54 45 4e 53   OMIT LOAD EXTENS
|   3248: 49 4f 4e 58 52 54 52 49 4d 1f 1e 05 00 33 0f 19   IONXRTRIM....3..
|   3264: 4d 41 58 20 4d 45 4d 4f 52 59 3d 35 30 30 30 30   MAX MEMORY=50000
|   3280: 30 30 30 58 42 49 4e 41 52 59 1f 1d 05 00 33 0f   000XBINARY....3.
|   3296: 19 4d 41 58 20 4d 45 4d 4f 52 59 3d 35 30 30 30   .MAX MEMORY=5000
|   3312: 30 30 30 30 58 4e 4f 43 41 53 45 1e 1c 05 00 33   0000XNOCASE....3
|   3328: 0f 17 4d 41 58 20 4d 45 4d 4f 52 59 3d 35 30 30   ..MAX MEMORY=500
|   3344: 30 30 30 30 30 58 52 54 52 49 4d 18 1b 05 00 25   00000XRTRIM....%
|   3360: 0f 19 45 4e 41 42 4c 45 20 52 54 52 45 45 58 42   ..ENABLE RTREEXB
|   3376: 49 4e 41 52 59 18 1a 05 00 25 0f 19 45 4e 41 42   INARY....%..ENAB
|   3392: 4c 45 20 52 54 52 45 45 58 4e 4f 43 41 53 45 17   LE RTREEXNOCASE.
|   3408: 19 05 00 25 0f 17 45 4e 41 42 4c 45 20 52 54 52   ...%..ENABLE RTR
|   3424: 45 45 58 52 54 52 49 4d 1a 18 05 00 29 0f 19 45   EEXRTRIM....)..E
|   3440: 4e 41 42 4c 45 20 4d 45 4d 53 59 53 35 58 42 49   NABLE MEMSYS5XBI
|   3456: 4e 41 52 59 1a 17 05 00 29 0f 19 45 4e 41 42 4c   NARY....)..ENABL
|   3472: 45 20 4d 45 4d 53 59 53 35 58 4e 4f 43 41 53 45   E MEMSYS5XNOCASE
|   3488: 19 16 05 00 29 0f 17 45 4e 41 42 4c 45 20 4d 45   ....)..ENABLE ME
|   3504: 4d 53 59 53 35 58 52 54 52 49 4d 18 15 05 00 25   MSYS5XRTRIM....%
|   3520: 0f 19 45 4e 41 42 4c 45 20 4a 53 4f 4e 31 58 42   ..ENABLE JSON1XB
|   3536: 49 4e 41 52 59 18 14 05 00 25 0f 19 45 4e 41 42   INARY....%..ENAB
|   3552: 4c 45 20 4a 53 4f 4e 31 58 4e 4f 43 41 53 45 17   LE JSON1XNOCASE.
|   3568: 13 05 00 25 0f 17 45 4e 41 42 4c 45 20 4a 53 4f   ...%..ENABLE JSO
|   3584: 4e 31 58 52 54 52 49 4d 1a 12 05 00 29 0f 19 45   N1XRTRIM....)..E
|   3600: 4e 41 42 4c 45 20 47 45 4f 50 4f 4c 59 58 42 49   NABLE GEOPOLYXBI
|   3616: 4e 41 52 59 1a 11 05 00 29 0f 19 45 4e 41 42 4c   NARY....)..ENABL
|   3632: 45 20 47 45 4f 50 4f 4c 59 58 4e 4f 43 41 53 45   E GEOPOLYXNOCASE
|   3648: 19 10 05 00 29 0f 17 45 4e 41 42 4c 45 20 47 45   ....)..ENABLE GE
|   3664: 4f 50 4f 4c 59 58 52 54 52 49 4d 17 0f 05 00 23   OPOLYXRTRIM....#
|   3680: 0f 19 45 4e 41 42 4c 45 20 46 54 53 35 58 42 49   ..ENABLE FTS5XBI
|   3696: 4e 41 52 59 17 0e 05 00 23 0f 19 45 4e 41 42 4c   NARY....#..ENABL
|   3712: 45 20 46 54 53 35 58 4e 4f 43 41 53 45 16 0d 05   E FTS5XNOCASE...
|   3728: 00 23 0f 17 45 4e 41 42 4c 45 20 46 54 53 35 58   .#..ENABLE FTS5X
|   3744: 52 54 52 49 4d 17 0c 05 00 23 0f 19 45 4e 41 42   RTRIM....#..ENAB
|   3760: 4c 45 20 46 54 53 34 58 42 49 4e 41 52 59 17 0b   LE FTS4XBINARY..
|   3776: 05 00 23 0f 19 45 4e 41 42 4c 45 20 46 54 53 34   ..#..ENABLE FTS4
|   3792: 58 4e 4f 43 41 53 45 16 0a 05 00 23 0f 17 45 4e   XNOCASE....#..EN
|   3808: 41 42 4c 45 20 46 54 53 34 58 52 54 52 49 4d 1e   ABLE FTS4XRTRIM.
|   3824: 09 05 00 31 0f 19 45 4e 41 42 4c 45 20 44 42 53   ...1..ENABLE DBS
|   3840: 54 41 54 20 56 54 41 42 58 42 49 4e 41 52 59 1e   TAT VTABXBINARY.
|   3856: 08 05 00 31 0f 19 45 4e 41 42 4c 45 20 44 42 53   ...1..ENABLE DBS
|   3872: 54 41 54 20 56 54 41 42 58 4e 4f 43 41 53 45 1d   TAT VTABXNOCASE.
|   3888: 07 05 00 31 0f 17 45 4e 41 42 4c 45 20 44 42 53   ...1..ENABLE DBS
|   3904: 54 41 54 20 56 54 41 42 58 52 54 52 49 4d 11 06   TAT VTABXRTRIM..
|   3920: 05 00 17 0f 19 44 45 42 55 47 58 42 49 4e 41 52   .....DEBUGXBINAR
|   3936: 59 11 05 05 00 17 0f 19 44 45 42 55 47 58 4e 4f   Y.......DEBUGXNO
|   3952: 43 41 53 45 10 04 05 00 17 0f 17 44 45 42 55 47   CASE.......DEBUG
|   3968: 58 52 54 52 49 4d 27 03 05 00 43 0f 19 43 4f 4d   XRTRIM'...C..COM
|   3984: 50 49 4c 45 52 3d 67 63 63 2d 35 2e 34 2e 30 20   PILER=gcc-5.4.0 
|   4000: 32 30 31 36 30 36 30 39 58 42 49 4e 41 52 59 27   20160609XBINARY'
|   4016: 02 05 00 43 0f 19 43 4f 4d 50 49 4c 45 52 3d 67   ...C..COMPILER=g
|   4032: 63 63 2d 35 2e 34 2e 30 20 32 30 31 36 30 36 30   cc-5.4.0 2016060
|   4048: 39 58 4e 4f 43 41 53 45 26 01 05 00 43 0f 17 43   9XNOCASE&...C..C
|   4064: 4f 4d 50 49 4c 45 52 3d 67 63 63 2d 35 2e 34 2e   OMPILER=gcc-5.4.
|   4080: 30 20 32 30 31 36 30 36 30 39 58 52 54 52 49 4d   0 20160609XRTRIM
| page 4 offset 12288
|      0: 0d 00 00 00 00 10 00 00 00 00 00 00 00 00 00 00   ................
| page 5 offset 16384
|      0: 0d 00 00 00 02 0b a0 00 0c ad 0b a0 00 00 00 00   ................
|   2976: 82 0a 02 08 08 09 08 08 17 84 06 30 20 32 35 33   ...........0 253
|   2992: 00 01 30 04 25 06 1b 00 00 08 32 30 31 36 30 36   ..0.%.....201606
|   3008: 30 39 03 25 07 00 00 01 34 03 25 05 00 00 01 35   09.%....4.%....5
|   3024: 03 25 04 00 01 07 30 30 30 30 30 30 30 03 25 1a   .%....0000000.%.
|   3040: 00 00 08 63 6f 6d 70 69 6c 65 72 03 25 02 00 00   ...compiler.%...
|   3056: 06 64 62 73 74 61 74 03 25 0a 00 01 04 65 62 75   .dbstat.%....ebu
|   3072: 67 03 25 08 00 00 06 65 6e 61 62 6c 65 09 25 09   g.%....enable.%.
|   3088: 05 04 04 04 04 04 00 01 08 78 74 65 6e 73 69 6f   .........xtensio
|   3104: 6e 03 25 1d 00 00 04 66 74 73 34 03 25 0d 00 03   n.%....fts4.%...
|   3120: 01 35 03 25 0f 00 00 03 67 63 63 03 25 03 00 01   .5.%....gcc.%...
|   3136: 06 65 6f 70 6f 6c 79 03 25 11 00 00 05 6a 73 6f   .eopoly.%....jso
|   3152: 6e 31 03 25 13 00 00 04 6c 6f 61 64 03 25 1c 00   n1.%....load.%..
|   3168: 00 03 6d 61 78 03 25 18 00 01 05 65 6d 6f 72 79   ..max.%....emory
|   3184: 03 25 19 00 03 04 73 79 73 35 03 25 15 00 00 04   .%....sys5.%....
|   3200: 6f 6d 69 74 03 25 1b 00 00 05 72 74 72 65 65 03   omit.%....rtree.
|   3216: 25 17 00 00 0a 74 68 72 65 61 64 73 61 66 65 03   %....threadsafe.
|   3232: 25 1e 00 00 04 76 74 61 62 03 25 0b 00 86 50 01   %....vtab.%...P.
|   3248: 08 08 08 08 08 17 8d 12 30 20 38 33 35 00 01 30   ........0 835..0
|   3264: 12 01 06 00 01 06 00 01 06 00 1f 03 00 01 03 00   ................
|   3280: 01 03 00 00 08 32 30 31 36 30 36 30 39 09 01 07   .....20160609...
|   3296: 00 01 07 00 01 07 00 00 01 34 09 01 05 00 01 05   .........4......
|   3312: 00 01 05 00 00 01 35 09 01 04 00 01 04 00 01 04   ......5.........
|   3328: 00 01 07 30 30 30 30 30 30 30 09 1c 04 00 01 04   ...0000000......
|   3344: 00 01 04 00 00 06 62 69 6e 61 72 79 3c 03 01 02   ......binary<...
|   3360: 02 00 03 01 02 02 00 03 01 02 02 00 03 01 02 02   ................
|   3376: 00 03 01 02 02 00 03 01 02 02 00 03 01 02 02 00   ................
|   3392: 03 01 02 02 00 03 01 02 02 00 03 01 02 02 00 03   ................
|   3408: 01 02 02 00 03 01 02 02 00 00 08 63 6f 6d 70 69   ...........compi
|   3424: 6c 65 72 09 01 02 00 01 02 00 01 02 00 00 06 64   ler............d
|   3440: 62 73 74 61 74 09 07 03 00 01 03 00 01 03 00 01   bstat...........
|   3456: 04 65 62 75 67 09 04 02 00 01 02 00 01 02 00 00   .ebug...........
|   3472: 06 65 6e 61 62 6c 65 3f 07 02 00 01 02 00 01 02   .enable?........
|   3488: 00 01 02 00 01 02 00 01 02 00 01 02 00 01 02 00   ................
|   3504: 01 02 00 01 02 00 01 02 00 01 02 00 01 01 00 01   ................
|   3520: 02 00 01 02 00 01 02 00 01 02 00 01 02 00 01 02   ................
|   3536: 00 01 02 00 01 02 00 01 08 78 74 65 6e 73 69 6f   .........xtensio
|   3552: 6e 09 1f 04 00 01 04 00 01 04 00 00 04 66 74 73   n............fts
|   3568: 34 09 0a 03 00 01 03 00 01 03 00 03 01 35 09 0d   4............5..
|   3584: 03 00 01 03 00 01 03 00 00 03 67 63 63 09 01 03   ..........gcc...
|   3600: 00 01 03 00 01 03 00 01 06 65 6f 70 6f 6c 79 09   .........eopoly.
|   3616: 10 03 00 01 03 00 01 03 00 00 05 6a 73 6f 6e 31   ...........json1
|   3632: 09 13 03 00 01 03 00 01 03 00 00 04 6c 6f 61 64   ............load
|   3648: 09 1f 03 00 01 03 00 01 03 00 00 03 6d 61 78 09   ............max.
|   3664: 1c 02 00 01 02 00 01 02 00 01 05 65 6d 6f 72 79   ...........emory
|   3680: 09 1c 03 00 01 03 00 01 03 00 03 04 73 79 73 35   ............sys5
|   3696: 09 16 03 00 01 03 00 01 03 00 00 06 6e 6f 63 61   ............noca
|   3712: 73 65 3c 02 01 02 02 00 03 01 02 02 00 03 01 02   se<.............
|   3728: 02 00 03 01 02 02 00 03 01 02 02 00 03 01 02 02   ................
|   3744: 00 03 01 02 02 00 03 01 02 02 00 03 01 02 02 00   ................
|   3760: 03 01 02 02 00 03 01 02 02 00 03 01 02 02 00 00   ................
|   3776: 04 6f 6d 69 74 09 1f 02 00 01 02 00 01 02 00 00   .omit...........
|   3792: 05 72 74 72 65 65 09 19 03 00 01 03 00 01 03 00   .rtree..........
|   3808: 03 02 69 6d 3c 01 01 02 02 00 03 01 02 02 00 03   ..im<...........
|   3824: 01 02 02 00 03 01 02 02 00 03 01 02 02 00 03 01   ................
|   3840: 02 02 00 03 01 02 02 00 03 01 a2 02 00 03 01 02   ................
|   3856: 02 00 03 01 02 02 00 03 01 02 02 00 03 01 02 02   ................
|   3872: 00 00 0a 74 68 72 65 61 64 73 61 66 65 09 22 02   ...threadsafe...
|   3888: 00 01 02 00 01 02 00 00 04 76 74 61 62 09 07 04   .........vtab...
|   3904: 00 01 04 00 01 04 00 00 01 78 b4 01 01 01 01 02   .........x......
|   3920: 00 01 01 01 02 00 01 01 01 02 00 01 01 01 02 00   ................
|   3936: 01 01 01 02 00 01 01 01 02 00 01 01 01 02 00 01   ................
|   3952: 01 01 02 00 01 01 01 02 00 01 01 01 02 00 01 01   ................
|   3968: 01 02 00 01 01 01 02 00 01 01 01 02 00 01 01 01   ................
|   3984: 02 00 01 01 01 02 00 01 01 01 02 00 01 01 01 02   ................
|   4000: 00 01 01 01 02 00 01 01 01 02 00 01 01 01 02 00   ................
|   4016: 01 01 01 02 00 01 01 01 02 00 01 01 01 02 00 01   ................
|   4032: 01 01 02 00 01 01 01 02 00 01 01 01 02 00 01 01   ................
|   4048: 01 02 00 01 01 01 02 00 01 01 01 02 00 01 01 01   ................
|   4064: 02 00 01 01 01 02 00 01 01 01 02 00 01 01 01 02   ................
|   4080: 00 01 01 01 02 00 01 01 01 02 00 01 01 01 02 00   ................
| page 6 offset 20480
|      0: 0a 00 00 00 02 0f f5 00 0f fb 0f f5 00 00 00 00   ................
|   4080: 00 00 00 00 00 05 04 08 09 01 02 04 04 08 08 09   ................
| page 7 offset 24576
|      0: 0d 00 00 00 05 0f b8 00 0f f4 0f e9 0f d6 0f c7   ................
|     16: 0f b8 00 00 00 00 00 00 00 00 00 00 00 00 00 00   ................
|   4016: 00 00 00 00 00 00 00 00 0d 05 02 23 61 75 74 6f   ...........#auto
|   4032: 6d 65 72 67 65 3d 35 0d 04 02 23 6d 65 72 67 65   merge=5...#merge
|   4048: 3d 31 30 30 2c 38 11 03 02 2b 69 6e 74 65 67 72   =100,8...+integr
|   4064: 69 74 79 2d 63 68 65 63 6b 09 02 02 1b 72 65 62   ity-check....reb
|   4080: 75 69 6c 64 0a 01 02 1d 6f 70 74 69 6d 69 7a 65   uild....optimize
| end crash-843cb8447eaf14.db
}]} {}

do_catchsql_test 11.1 {
  SELECT rowid, quote(matchinfo(t1,'pcxybs')) FROM t1 WHERE t1 MATCH 'e*'
} {1 {database disk image is malformed}}

#-------------------------------------------------------------------------
reset_db
do_test 12.0 {
  sqlite3 db {}
  db deserialize [decode_hexdb {
| size 28672 pagesize 4096 filename c81b.db
| page 1 offset 0
|      0: 53 51 4c 69 74 65 20 66 6f 72 6d 61 74 20 33 00   SQLite format 3.
|     16: 10 00 01 01 00 40 20 20 00 00 00 01 00 00 00 07   .....@  ........
|     32: 00 00 00 02 00 00 00 01 00 00 00 01 00 00 00 04   ................
|     48: 00 00 00 00 00 00 00 00 00 00 00 01 00 00 00 00   ................
|     80: 00 00 00 00 00 00 00 00 00 00 00 00 00 00 00 01   ................
|     96: 00 2e 30 38 0d 0e b1 00 06 0d a4 00 0f 8d 0f 21   ..08...........!
|    112: 0e b9 0d c8 0e 7e 0d a4 0d a4 00 00 00 00 00 00   .....~..........
|   3488: 00 00 00 00 22 07 06 17 11 11 01 31 74 61 62 6c   ...........1tabl
|   3504: 65 74 32 74 32 07 43 52 45 41 54 45 20 54 41 42   et2t2.CREATE TAB
|   3520: 4c 45 20 74 32 28 78 29 81 33 05 07 17 1f 1f 01   LE t2(x).3......
|   3536: 82 35 74 61 62 6c 65 74 31 5f 73 65 67 64 69 72   .5tablet1_segdir
|   3552: 74 31 5f 73 65 67 64 69 72 05 43 52 45 41 54 45   t1_segdir.CREATE
|   3568: 20 54 41 42 4c 45 20 27 74 31 5f 73 65 67 64 69    TABLE 't1_segdi
|   3584: 72 27 28 6c 65 76 65 6c 20 49 4e 54 45 47 45 52   r'(level INTEGER
|   3600: 2c 69 64 78 20 49 4e 54 45 47 45 52 2c 73 74 61   ,idx INTEGER,sta
|   3616: 72 74 5f 62 6c 6f 63 6b 20 49 4e 54 45 47 45 52   rt_block INTEGER
|   3632: 2c 6c 65 61 76 65 73 5f 65 6e 64 5f 62 6c 6f 63   ,leaves_end_bloc
|   3648: 6b 20 49 4e 54 45 47 45 52 2c 65 6e 64 5f 62 6c   k INTEGER,end_bl
|   3664: 6f 63 6b 20 49 4e 54 45 47 45 62 2c 72 6f 6f 74   ock INTEGEb,root
|   3680: 20 42 4c 4f 42 2c 50 52 49 4d 41 52 59 20 4b 45    BLOB,PRIMARY KE
|   3696: 59 28 6c 65 76 65 6c 2c 20 69 64 78 29 29 31 06   Y(level, idx))1.
|   3712: 06 17 45 1f 01 00 69 6e 64 65 78 73 71 6c 69 74   ..E...indexsqlit
|   3728: 65 5f 61 75 74 6f 69 6e 64 65 78 5f 74 31 5f 73   e_autoindex_t1_s
|   3744: 65 67 64 69 72 5f 31 74 31 5f 73 65 67 64 69 72   egdir_1t1_segdir
|   3760: 06 0f c7 00 08 00 00 00 00 66 04 07 17 23 23 01   .........f...##.
|   3776: 81 13 74 61 62 6c 65 74 31 5f 73 65 67 6d 65 6e   ..tablet1_segmen
|   3792: 74 73 74 31 5f 73 65 67 6d 65 6e 74 73 04 43 52   tst1_segments.CR
|   3808: 45 41 54 45 20 54 41 42 4c 45 20 27 74 31 5f 73   EATE TABLE 't1_s
|   3824: 65 67 6d 65 6e 74 73 27 28 62 6c 6f 63 6b 69 64   egments'(blockid
|   3840: 20 49 4e 54 45 47 45 52 20 50 52 49 4d 41 52 59    INTEGER PRIMARY
|   3856: 20 4b 45 59 2c 20 62 6c 6f 63 6b 20 42 4c 4f 42    KEY, block BLOB
|   3872: 29 6a 03 07 17 21 21 01 81 1f 74 61 62 6c 65 74   )j...!!...tablet
|   3888: 31 5f 63 6f 6e 74 65 6e 74 74 31 5f 63 6f 6e 74   1_contentt1_cont
|   3904: 65 6e 74 03 43 52 45 41 54 45 20 54 41 42 4c 45   ent.CREATE TABLE
|   3920: 20 27 74 31 5f 63 6f 6e 74 65 6e 74 27 28 64 6f    't1_content'(do
|   3936: 63 69 64 20 49 4e 54 45 47 45 52 20 50 52 49 4d   cid INTEGER PRIM
|   3952: 41 52 59 20 4b 45 59 2c 20 27 63 30 61 27 2c 20   ARY KEY, 'c0a', 
|   3968: 27 63 31 62 27 2c 20 27 63 32 63 27 29 38 02 06   'c1b', 'c2c')8..
|   3984: 17 11 11 08 5f 74 61 62 6c 65 74 31 74 31 43 52   ...._tablet1t1CR
|   4000: 45 41 54 45 20 56 49 52 54 55 41 4c 20 54 41 42   EATE VIRTUAL TAB
|   4016: 4c 45 20 74 31 20 55 53 49 4e 47 20 66 74 73 33   LE t1 USING fts3
|   4032: 28 61 2c 62 2c 63 29 00 00 00 39 00 00 00 00 00   (a,b,c)...9.....
| page 3 offset 8192
|      0: 0d 00 00 00 25 0b 48 00 0f d8 0f af 0f 86 0f 74   ....%.H........t
|     16: 0f 61 0f 4e 0f 2f 0f 0f 0e ef 0e d7 0e be 0e a5   .a.N./..........
|     32: 0e 8d 0e 74 0e 5b 0e 40 0e 24 0e 08 0d ef 0d d5   ...t.[.@.$......
|     48: 0d bb 0d a0 0d 84 0d 68 0d 4f 0d 35 0d 1b 0c fb   .......h.O.5....
|     64: 0c da 0c b9 0c 99 0c 78 0c 57 0c 3e 0c 24 0c 0a   .......x.W.>.$..
|     80: 0b 48 00 00 00 00 00 00 00 00 00 00 00 00 00 00   .H..............
|   2880: 00 00 00 00 00 00 00 00 81 3f 25 06 00 82 7f 00   .........?%.....
|   2896: 00 43 4f 4d 50 49 4c 45 52 3d 67 63 63 2d 35 2e   .COMPILER=gcc-5.
|   2912: 34 2e 30 20 32 30 31 36 30 36 30 39 20 44 45 42   4.0 20160609 DEB
|   2928: 55 47 20 45 4e 41 42 4c 45 20 44 42 53 54 41 54   UG ENABLE DBSTAT
|   2944: 20 56 54 41 42 20 45 4e 41 42 4c 45 20 46 54 53    VTAB ENABLE FTS
|   2960: 34 20 45 4e 41 42 4c 45 20 46 54 53 35 20 45 4e   4 ENABLE FTS5 EN
|   2976: 41 42 4c 45 20 47 45 4f 50 4f 4c 59 20 46 4e 41   ABLE GEOPOLY FNA
|   2992: 42 4c 45 20 4a 53 4f 4e 31 20 45 4e 41 42 4c 45   BLE JSON1 ENABLE
|   3008: 20 4d 45 4d 53 59 53 35 20 45 4e 41 42 4c 45 20    MEMSYS5 ENABLE 
|   3024: 52 54 52 45 45 20 4d 41 58 20 4d 45 4d 4f 52 59   RTREE MAX MEMORY
|   3040: 3d 35 30 30 30 30 30 30 30 20 4f 4d 49 54 20 4c   =50000000 OMIT L
|   3056: 4f 41 44 20 45 58 54 45 4e 53 49 4f 4e 20 54 48   OAD EXTENSION TH
|   3072: 52 45 41 44 53 41 46 45 3d 30 18 24 05 00 0f 25   READSAFE=0.$...%
|   3088: 19 58 54 48 52 45 41 44 53 41 46 45 3d 30 42 49   .XTHREADSAFE=0BI
|   3104: 4e 41 52 59 18 23 05 00 0f 25 19 58 54 48 52 45   NARY.#...%.XTHRE
|   3120: 41 44 53 41 46 45 3d 30 4e 4f 43 41 53 45 17 22   ADSAFE=0NOCASE..
|   3136: 05 00 0f 25 17 58 54 48 52 45 41 44 53 41 46 45   ...%.XTHREADSAFE
|   3152: 3d 30 52 54 52 49 4d 1f 21 05 00 0f 33 19 58 4f   =0RTRIM.!...3.XO
|   3168: 4d 49 54 20 4c 4f 41 44 20 45 58 54 45 4e 53 49   MIT LOAD EXTENSI
|   3184: 4f 4e 42 49 4e 41 52 59 1f 20 05 00 0f 33 19 58   ONBINARY. ...3.X
|   3200: 4f 4d 49 54 20 4c 4f 41 44 20 45 58 54 45 4e 53   OMIT LOAD EXTENS
|   3216: 49 4f 4e 4e 4f 43 41 53 45 1e 1f 05 00 0f 33 17   IONNOCASE.....3.
|   3232: 58 4f 4d 49 54 20 4c 4f 41 44 20 45 58 54 45 4e   XOMIT LOAD EXTEN
|   3248: 53 49 4f 4e 52 54 52 49 4d 1f 1e 05 00 0f 33 19   SIONRTRIM.....3.
|   3264: 58 4d 41 58 20 4d 45 4d 4f 52 59 3d 35 30 30 30   XMAX MEMORY=5000
|   3280: 30 30 30 30 42 49 4e 41 52 59 1f 1d 05 00 0f 33   0000BINARY.....3
|   3296: 19 58 4d 41 58 20 4d 45 4d 4f 52 59 3d 35 30 30   .XMAX MEMORY=500
|   3312: 30 30 30 30 30 4e 4f 43 41 53 45 1e 1c 05 00 0f   00000NOCASE.....
|   3328: 33 17 58 4d 41 58 20 4d 45 4d 4f 52 59 3d 35 30   3.XMAX MEMORY=50
|   3344: 30 30 30 30 30 30 52 54 52 49 4d 18 1b 05 00 0f   000000RTRIM.....
|   3360: 25 19 58 45 4e 41 42 4c 45 20 52 54 52 45 45 42   %.XENABLE RTREEB
|   3376: 49 4e 41 52 59 18 1a 05 00 0f 25 19 58 45 4e 41   INARY.....%.XENA
|   3392: 42 4c 45 20 52 54 52 45 45 4e 4f 43 41 53 45 17   BLE RTREENOCASE.
|   3408: 19 05 00 0f 25 17 58 45 4e 41 42 4c 45 20 52 54   ....%.XENABLE RT
|   3424: 52 45 45 52 54 52 49 4d 1a 18 05 00 0f 29 19 58   REERTRIM.....).X
|   3440: 45 4e 41 42 4c 45 20 4d 45 4d 53 59 53 35 42 49   ENABLE MEMSYS5BI
|   3456: 4e 41 52 59 1a 17 05 00 0f 29 19 58 45 4e 41 42   NARY.....).XENAB
|   3472: 4c 45 20 4d 45 4d 53 59 53 35 4e 4f 43 41 53 45   LE MEMSYS5NOCASE
|   3488: 19 16 05 00 0f 29 17 58 45 4e 41 42 4c 45 20 4d   .....).XENABLE M
|   3504: 45 4d 53 59 53 35 52 54 52 49 4d 18 15 05 00 0f   EMSYS5RTRIM.....
|   3520: 25 19 58 45 4e 41 42 4c 45 20 4a 53 4f 4e 31 42   %.XENABLE JSON1B
|   3536: 49 4e 41 52 59 18 14 05 00 0f 25 19 58 45 4e 41   INARY.....%.XENA
|   3552: 42 4c 45 20 4a 53 4f 4e 31 4e 4f 43 41 53 45 17   BLE JSON1NOCASE.
|   3568: 13 05 00 0f 25 17 58 45 4e 41 42 4c 45 20 4a 53   ....%.XENABLE JS
|   3584: 4f 4e 31 52 54 52 49 4d 1a 12 05 00 0f 29 19 58   ON1RTRIM.....).X
|   3600: 45 4e 41 42 4c 45 20 47 45 4f 50 4f 4c 59 42 49   ENABLE GEOPOLYBI
|   3616: 4e 41 52 59 1a 11 05 00 0f 29 19 58 45 4e 41 1e   NARY.....).XENA.
|   3632: 4c 45 20 47 45 4f 50 4f 4c 59 4e 4f 43 41 53 45   LE GEOPOLYNOCASE
|   3648: 19 10 05 00 0f 29 17 58 45 4e 41 42 4c 45 20 47   .....).XENABLE G
|   3664: 45 4f 50 4f 4c 59 52 54 52 49 4d 17 0f 05 00 0f   EOPOLYRTRIM.....
|   3680: 23 19 58 45 4e 41 42 4c 45 20 46 54 53 35 42 49   #.XENABLE FTS5BI
|   3696: 4e 41 52 59 17 0e 05 00 0f 23 19 58 55 4e 41 42   NARY.....#.XUNAB
|   3712: 4c 45 20 46 54 53 35 4e 4f 43 41 53 45 16 0d 05   LE FTS5NOCASE...
|   3728: 00 0f 23 17 58 45 4e 41 42 4c 45 20 46 54 53 35   ..#.XENABLE FTS5
|   3744: 52 54 52 49 4d 17 0c 05 00 0f 23 19 58 45 4e 41   RTRIM.....#.XENA
|   3760: 42 4c 45 20 46 54 53 34 42 49 4e 41 52 59 17 0b   BLE FTS4BINARY..
|   3776: 05 00 0f 23 19 58 45 4e 41 42 4c 45 20 46 54 53   ...#.XENABLE FTS
|   3792: 35 4e 4f 43 40 53 45 16 0a 05 00 0f 23 17 58 45   5NOC@SE.....#.XE
|   3808: 4e 41 42 4c 45 20 46 54 53 34 52 54 52 49 4d 1e   NABLE FTS4RTRIM.
|   3824: 09 05 00 0f 31 19 58 45 4e 41 42 4c 35 20 44 42   ....1.XENABL5 DB
|   3840: 53 54 41 54 20 56 54 41 42 42 49 4e 41 52 59 1e   STAT VTABBINARY.
|   3856: 08 05 00 0f 31 19 58 45 4e 41 42 4c 45 20 44 42   ....1.XENABLE DB
|   3872: 53 54 41 54 20 56 54 41 42 4e 4f 43 41 53 45 1d   STAT VTABNOCASE.
|   3888: 07 05 00 0f 31 17 58 45 4e 41 42 4c 45 20 44 42   ....1.XENABLE DB
|   3904: 53 54 41 54 20 56 54 41 42 52 54 52 49 4d 11 06   STAT VTABRTRIM..
|   3920: 05 00 0f 17 19 58 44 45 42 55 47 42 49 4e 41 52   .....XDEBUGBINAR
|   3936: 59 11 05 05 00 0f 17 19 58 44 45 42 55 47 4e 4f   Y.......XDEBUGNO
|   3952: 43 41 53 45 10 04 05 00 0f 17 17 58 44 45 42 55   CASE.......XDEBU
|   3968: 47 52 54 52 49 4d 27 03 05 00 0f 43 19 58 43 4f   GRTRIM'....C.XCO
|   3984: 4d 50 49 4c 45 52 3d 67 63 63 2d 35 2e 34 2e 30   MPILER=gcc-5.4.0
|   4000: 20 32 30 31 36 30 36 30 39 42 49 4e 41 52 59 27    20160609BINARY'
|   4016: 02 05 00 0f 43 19 58 43 4f 4d 50 49 4c 45 52 3d   ....C.XCOMPILER=
|   4032: 67 63 63 2d 35 2e 34 2e 30 20 32 30 31 36 30 36   gcc-5.4.0 201606
|   4048: 30 39 4e 4f 43 41 53 45 26 01 05 00 0f 43 17 58   09NOCASE&....C.X
|   4064: 43 4f 4d 50 49 4c 45 52 3d 67 63 63 2d 35 2e 34   COMPILER=gcc-5.4
|   4080: 2e 30 20 32 30 31 36 30 36 30 39 52 54 52 49 4d   .0 20160609RTRIM
| page 4 offset 12288
|      0: 0d 00 00 00 00 10 00 00 00 00 00 00 00 00 00 00   ................
| page 5 offset 16384
|      0: 0d 00 00 00 03 07 bb 00 0c ad 0b a0 07 bb 00 00   ................
|   1968: 00 00 00 00 00 00 00 00 00 00 00 87 62 03 08 08   ............b...
|   1984: 01 08 08 17 8f 34 02 30 20 39 38 30 00 01 30 1e   .....4.0 980..0.
|   2000: 01 01 01 06 00 01 01 01 06 00 01 01 01 06 00 1f   ................
|   2016: 01 01 03 00 01 01 01 03 00 01 01 01 03 00 00 08   ................
|   2032: 32 30 31 36 30 36 30 39 0f 01 01 01 07 00 01 01   20160609........
|   2048: 01 07 00 01 01 01 07 00 00 01 34 0f 01 01 01 05   ..........4.....
|   2064: 00 01 01 01 05 00 01 01 01 05 00 00 01 35 0f 01   .............5..
|   2080: 01 01 04 00 01 01 01 04 00 01 01 01 04 00 01 07   ................
|   2096: 30 30 30 30 30 30 30 0f 1c 01 01 04 00 01 01 01   0000000.........
|   2112: 04 00 01 01 01 04 00 00 06 62 69 6e 61 72 79 3c   .........binary<
|   2128: 03 01 02 02 00 03 01 02 02 00 03 01 02 02 00 03   ................
|   2144: 01 02 02 00 03 01 02 02 00 03 01 02 02 00 03 01   ................
|   2160: 02 02 00 03 01 02 02 00 03 01 02 02 00 03 01 02   ................
|   2176: 02 00 03 01 02 02 00 03 01 02 02 00 00 08 63 6f   ..............co
|   2192: 6d 70 69 6c 65 72 0f 01 01 01 02 00 01 01 01 02   mpiler..........
|   2208: 00 01 01 01 02 00 00 06 64 62 73 74 61 74 0f 07   ........dbstat..
|   2224: 01 01 03 00 01 01 01 03 00 01 01 01 03 00 01 04   ................
|   2240: 65 62 75 67 0f 04 01 01 02 00 01 01 01 02 00 01   ebug............
|   2256: 01 01 02 00 00 03 65 6e 61 05 11 01 01 02 00 03   ......ena.......
|   2272: 03 62 6c 35 05 09 01 01 02 00 05 01 65 5a 07 01   .bl5........eZ..
|   2288: 01 02 00 01 01 01 02 00 02 01 01 02 00 01 01 01   ................
|   2304: 02 00 01 01 01 02 00 01 01 01 02 00 02 01 01 02   ................
|   2320: 00 01 01 01 02 00 02 01 01 02 00 01 01 01 02 00   ................
|   2336: 01 01 01 02 00 01 01 01 02 00 01 01 01 02 00 01   ................
|   2352: 01 01 02 00 01 01 01 02 00 01 01 01 02 00 01 01   ................
|   2368: 01 02 00 01 01 01 02 00 01 08 78 74 65 6e 73 69   ..........xtensi
|   2384: 6f 6e 0f 1f 01 01 04 00 01 01 01 04 00 01 01 01   on..............
|   2400: 04 00 00 04 66 74 73 34 0a 0a 01 01 03 00 02 01   ....fts4........
|   2416: 01 03 00 03 01 35 14 0b 01 01 03 00 02 01 01 03   .....5..........
|   2432: 00 01 01 01 03 00 01 01 01 03 00 00 03 67 63 63   .............gcc
|   2448: 0f 01 01 01 03 00 01 01 01 03 00 01 01 01 03 00   ................
|   2464: 01 06 65 6f 70 6f 6c 79 0f 10 01 01 03 00 01 01   ..eopoly........
|   2480: 01 04 00 01 01 01 03 00 00 05 6a 73 6f 6e 31 0f   ..........json1.
|   2496: 13 01 01 03 00 01 01 01 03 00 01 01 01 03 00 00   ................
|   2512: 02 6c 65 05 11 01 01 03 00 01 03 6f 61 64 0f 1f   .le........oad..
|   2528: 01 01 03 00 01 01 01 03 00 01 01 01 03 00 00 03   ................
|   2544: 6d 61 78 0f 1c 01 01 02 00 01 01 01 02 00 01 01   max.............
|   2560: 01 02 00 01 05 65 6d 6f 72 79 0f 1c 01 01 03 00   .....emory......
|   2576: 01 01 01 03 00 01 01 01 03 00 03 04 73 79 73 35   ............sys5
|   2592: 0f 16 01 01 03 00 01 01 01 03 00 01 01 01 03 00   ................
|   2608: 00 03 6e 6f 63 05 0b 01 02 02 00 03 03 61 73 65   ..noc........ase
|   2624: 37 02 01 02 02 00 03 01 02 02 00 03 01 02 02 00   7...............
|   2640: 06 01 02 02 00 03 01 02 02 00 03 01 02 02 00 03   ................
|   2656: 01 02 02 00 03 01 02 02 00 03 01 02 02 00 03 01   ................
|   2672: 02 02 00 03 01 02 02 00 00 04 6f 6d 69 74 0f 1f   ..........omit..
|   2688: 01 01 02 00 01 01 01 02 00 01 01 01 02 00 00 05   ................
|   2704: 72 74 72 65 65 0f 19 01 01 03 00 01 01 01 03 00   rtree...........
|   2720: 01 01 01 03 00 03 02 69 6d 3c 01 01 02 02 00 03   .......im<......
|   2736: 01 02 02 00 03 01 02 02 00 03 01 02 02 00 03 01   ................
|   2752: 02 02 00 03 01 02 02 00 03 01 02 02 00 03 01 02   ................
|   2768: 02 00 03 01 02 02 00 03 01 02 02 00 03 01 02 02   ................
|   2784: 00 03 01 02 02 00 00 02 73 65 05 0b 01 02 03 00   ........se......
|   2800: 00 0a 74 68 72 65 61 64 73 61 66 65 0f 22 01 01   ..threadsafe....
|   2816: 02 00 01 01 01 02 00 01 01 01 02 00 00 06 75 6e   ..............un
|   2832: 61 62 6c 65 05 0e 01 01 02 00 00 04 76 74 61 62   able........vtab
|   2848: 0f 07 01 01 04 00 01 01 01 04 00 01 01 01 04 00   ................
|   2864: 00 01 78 6c 01 02 00 01 02 00 01 02 00 01 02 00   ..xl............
|   2880: 01 02 00 01 02 00 01 02 00 01 02 00 01 02 00 01   ................
|   2896: 02 00 01 02 00 01 02 00 01 02 00 01 02 00 01 02   ................
|   2912: 00 01 02 00 01 02 00 01 02 00 01 02 00 01 02 00   ................
|   2928: 01 02 00 01 02 00 01 02 00 01 02 00 01 02 00 01   ................
|   2944: 02 00 01 02 00 01 02 00 01 02 00 01 02 00 01 02   ................
|   2960: 00 01 02 00 01 02 00 01 02 00 01 02 00 01 02 00   ................
|   2976: 82 0a 02 08 08 09 08 08 17 84 06 30 20 32 35 33   ...........0 253
|   2992: 00 01 30 04 25 06 1b 00 00 08 32 30 31 36 30 36   ..0.%.....201606
|   3008: 30 39 03 25 07 00 00 01 34 03 25 05 00 00 01 35   09.%....4.%....5
|   3024: 03 25 04 00 01 07 30 30 30 30 30 30 30 03 25 1a   .%....0000000.%.
|   3040: 00 00 08 63 6f 6d 70 69 6c 65 72 03 25 02 00 00   ...compiler.%...
|   3056: 06 64 62 73 74 61 74 03 25 0a 00 01 04 65 62 75   .dbstat.%....ebu
|   3072: 67 03 25 08 00 00 06 65 6e 61 62 6c 65 09 25 09   g.%....enable.%.
|   3088: 05 04 04 04 04 04 00 01 08 78 74 65 6e 73 69 6f   .........xtensio
|   3104: 6e 03 25 1d 00 00 04 66 74 73 34 03 25 0d 00 03   n.%....fts4.%...
|   3120: 11 35 03 25 0f 00 00 03 67 63 63 03 25 03 00 01   .5.%....gcc.%...
|   3136: 06 65 6f 70 6f 6c 79 03 25 11 00 00 05 6a 73 6f   .eopoly.%....jso
|   3152: 6e 31 03 25 13 00 00 04 6c 6f 61 64 03 25 1c 00   n1.%....load.%..
|   3168: 00 03 6d 61 78 03 25 18 00 01 05 65 6d 6f 72 79   ..max.%....emory
|   3184: 03 25 19 00 03 04 73 79 73 35 03 25 15 00 00 04   .%....sys5.%....
|   3200: 6f 6d 69 74 03 25 1b 00 00 05 72 74 72 65 65 03   omit.%....rtree.
|   3216: 25 17 00 00 0a 74 68 72 65 61 64 73 61 66 65 03   %....threadsafe.
|   3232: 25 1e 00 00 04 76 74 61 62 03 25 0b 00 86 50 01   %....vtab.%...P.
|   3248: 08 08 08 08 08 17 8d 12 30 20 38 33 35 00 01 30   ........0 835..0
|   3264: 12 00 f6 00 01 06 00 01 06 00 1f 03 00 01 03 00   ................
|   3280: 01 03 00 00 08 32 30 31 36 30 36 30 39 09 01 07   .....20160609...
|   3296: 00 01 07 00 01 07 00 00 01 34 09 01 05 00 01 05   .........4......
|   3312: 00 01 05 00 00 01 35 09 01 04 00 01 04 00 01 04   ......5.........
|   3328: 00 01 07 30 30 30 30 30 30 30 09 1c 04 00 01 04   ...0000000......
|   3344: 00 01 04 00 00 06 62 69 6e 61 72 79 3c 03 01 02   ......binary<...
|   3360: 02 00 03 01 02 02 00 03 01 02 02 00 03 01 02 02   ................
|   3376: 00 03 01 02 02 00 03 01 02 02 00 03 01 02 02 00   ................
|   3392: 03 01 02 02 00 03 01 02 02 00 03 01 02 02 00 03   ................
|   3408: 01 02 02 00 03 01 02 02 00 00 08 63 6f 6d 70 69   ...........compi
|   3424: 6c 65 72 09 01 02 00 01 02 00 01 02 00 00 06 64   ler............d
|   3440: 62 73 74 61 74 09 07 03 00 01 03 00 01 03 00 01   bstat...........
|   3456: 04 65 62 75 67 09 04 02 00 01 02 00 01 02 00 00   .ebug...........
|   3472: 06 65 6e 61 62 6c 65 3f 07 02 00 01 02 00 01 01   .enable?........
|   3488: 00 01 02 00 01 02 00 01 02 00 01 02 00 01 02 00   ................
|   3504: 01 02 00 01 02 00 01 02 00 01 02 00 01 02 10 01   ................
|   3520: 02 00 01 02 00 01 02 00 01 02 00 01 02 00 01 02   ................
|   3536: 00 01 02 00 01 02 00 01 08 78 74 65 6e 73 69 6f   .........xtensio
|   3552: 6e 09 1f 04 00 01 04 00 01 04 00 00 04 66 74 73   n............fts
|   3568: 34 09 0a 03 00 01 03 00 01 03 00 03 01 35 09 0d   4............5..
|   3584: 03 00 01 03 00 01 03 00 00 03 67 63 63 09 01 03   ..........gcc...
|   3600: 00 01 03 00 01 03 00 01 06 65 6f 70 6f 6c 79 09   .........eopoly.
|   3616: 10 03 00 01 03 00 01 03 00 00 05 6a 73 6f 6e 31   ...........json1
|   3632: 09 13 03 00 01 03 00 01 03 00 00 04 6c 6f 61 64   ............load
|   3648: 09 1f 03 00 01 03 00 01 03 00 00 03 6d 61 78 09   ............max.
|   3664: 1c 02 00 01 02 00 01 02 00 01 05 65 6d 6f 72 79   ...........emory
|   3680: 09 1c 03 00 01 03 00 01 03 00 03 04 73 79 73 35   ............sys5
|   3696: 09 16 03 00 01 03 00 01 03 00 00 06 6e 6f 63 61   ............noca
|   3712: 73 65 3c 02 01 02 02 00 03 01 02 02 00 03 01 02   se<.............
|   3728: 02 00 03 01 02 02 00 03 01 02 02 00 03 01 02 02   ................
|   3744: 00 03 01 02 02 00 03 01 02 02 00 03 01 02 02 00   ................
|   3760: 03 01 02 02 00 03 01 02 02 00 03 01 02 02 00 00   ................
|   3776: 04 6f 6d 69 74 09 1f 02 00 01 02 00 01 02 00 00   .omit...........
|   3792: 05 72 74 72 65 65 09 19 03 00 01 03 00 01 03 00   .rtree..........
|   3808: 03 02 69 6d 3c 01 01 02 02 00 03 01 02 02 00 03   ..im<...........
|   3824: 01 02 02 00 03 01 02 02 00 03 01 02 02 00 03 01   ................
|   3840: 02 02 00 03 01 02 02 00 03 01 02 02 00 03 01 02   ................
|   3856: 02 00 03 01 02 02 00 03 01 02 02 00 03 01 02 02   ................
|   3872: 00 00 0a 74 68 72 65 61 64 73 61 66 65 09 22 02   ...threadsafe...
|   3888: 00 01 02 00 02 02 00 00 04 76 74 61 62 09 07 04   .........vtab...
|   3904: 00 01 04 00 01 04 00 00 01 78 b4 01 01 01 01 02   .........x......
|   3920: 00 01 01 01 02 00 01 01 01 02 00 01 01 01 02 00   ................
|   3936: 01 01 01 02 00 01 01 01 02 00 01 01 01 02 00 01   ................
|   3952: 01 01 02 00 01 01 01 02 00 01 01 01 02 00 01 01   ................
|   3968: 01 02 00 01 01 01 02 00 01 01 01 02 00 01 01 01   ................
|   3984: 02 00 01 01 01 02 00 01 01 01 02 00 01 01 01 02   ................
|   4000: 00 01 01 01 02 00 01 01 01 02 00 01 01 01 02 00   ................
|   4016: 01 01 01 02 00 01 01 01 02 00 01 01 01 02 00 01   ................
|   4032: 01 01 02 00 01 01 01 02 00 01 01 01 02 00 01 01   ................
|   4048: 01 02 00 01 01 01 02 00 01 01 01 02 00 01 01 01   ................
|   4064: 02 00 01 01 01 02 00 01 01 01 02 00 01 01 01 02   ................
|   4080: 00 01 01 01 02 00 01 01 01 02 00 01 01 01 02 00   ................
| page 6 offset 20480
|      0: 0a 00 00 00 03 0f ee 00 0f fb 0f f5 0f ee 00 00   ................
|   4064: 00 00 00 00 00 00 00 00 00 00 00 00 00 00 06 04   ................
|   4080: 08 01 01 02 03 05 04 08 09 01 02 04 04 08 08 09   ................
| page 7 offset 24576
|      0: 0d 00 00 00 05 0f b8 00 0f f4 0f e9 0f d6 0f c7   ................
|     16: 0f b8 00 00 00 00 00 00 00 00 00 00 00 00 00 00   ................
|   4016: 00 00 00 00 00 00 00 00 0d 05 02 23 61 75 74 6f   ...........#auto
|   4032: 6d 65 72 67 65 3d 35 0c f4 02 23 6d 65 72 67 65   merge=5...#merge
|   4048: 3d 31 30 30 2c 38 11 03 02 2b 69 6e 74 65 67 72   =100,8...+integr
|   4064: 69 74 79 2d 63 68 65 63 6b 09 02 02 1b 72 65 62   ity-check....reb
|   4080: 75 69 6c 64 0a 01 02 1d 6f 70 74 69 6d 69 7a 65   uild....optimize
| end c81b.db
}]} {}

do_catchsql_test 12.1 {
  SELECT rowid, quote(matchinfo(t1,'pcxybspcxybs')) 
  FROM t1 WHERE t1 MATCH 'e*e*'
} {1 {database disk image is malformed}}

#-------------------------------------------------------------------------
reset_db
do_test 13.0 {
  sqlite3 db {}
  db deserialize [decode_hexdb {
| size 28672 pagesize 4096 filename crash-c666cfde112dee.db
| page 1 offset 0
|      0: 53 51 4c 69 74 65 20 66 6f 72 6d 61 74 20 33 00   SQLite format 3.
|     16: 10 00 01 01 00 40 20 20 00 00 00 00 00 00 00 07   .....@  ........
|     32: 00 00 00 02 00 00 00 01 00 00 00 07 00 00 00 04   ................
|     48: 00 00 00 00 00 00 00 07 00 00 00 01 00 00 00 00   ................
|     96: 00 00 00 00 0d 0e b1 00 06 0d a4 00 0f 8d 0f 21   ...............!
|    112: 0e b9 0d c8 0e 7e 0d a4 0d a4 00 00 00 00 00 00   .....~..........
|   3488: 00 00 00 00 22 07 06 17 11 11 01 31 74 61 62 6c   ...........1tabl
|   3504: 65 74 32 74 32 07 43 52 45 41 54 45 20 54 41 42   et2t2.CREATE TAB
|   3520: 4c 45 20 74 32 28 78 29 81 33 05 07 17 1f 1f 01   LE t2(x).3......
|   3536: 82 35 74 61 62 6c 65 74 31 5f 73 65 67 64 69 72   .5tablet1_segdir
|   3552: 74 31 5f 73 65 67 64 69 72 05 43 52 45 41 54 45   t1_segdir.CREATE
|   3568: 20 54 41 42 4c 45 20 27 74 31 5f 73 65 67 64 69    TABLE 't1_segdi
|   3584: 72 27 28 6c 65 76 65 6c 20 49 4e 54 45 47 45 52   r'(level INTEGER
|   3600: 2c 69 64 78 20 49 4e 54 45 47 45 52 2c 73 74 61   ,idx INTEGER,sta
|   3616: 72 74 5f 62 6c 6f 63 6b 20 49 4e 54 45 47 45 52   rt_block INTEGER
|   3632: 2c 6c 65 61 76 65 73 5f 65 6e 64 5f 62 6c 6f 63   ,leaves_end_bloc
|   3648: 6b 20 49 4e 54 45 47 45 52 2c 65 6e 64 5f 62 6c   k INTEGER,end_bl
|   3664: 6f 63 6b 20 49 4e 54 45 47 45 62 2c 72 6f 6f 74   ock INTEGEb,root
|   3680: 20 42 4c 4f 42 2c 50 52 49 4d 41 52 59 20 4b 45    BLOB,PRIMARY KE
|   3696: 59 28 6c 65 76 65 6c 2c 20 69 64 78 29 29 31 06   Y(level, idx))1.
|   3712: 06 17 45 1f 01 00 69 6e 64 65 78 73 71 6c 69 74   ..E...indexsqlit
|   3728: 65 5f 61 75 74 6f 69 6e 64 65 78 5f 74 31 5f 73   e_autoindex_t1_s
|   3744: 65 67 64 69 72 5f 31 74 31 5f 73 65 67 64 69 72   egdir_1t1_segdir
|   3760: 06 0f c7 00 08 00 00 00 00 66 04 07 17 23 23 01   .........f...##.
|   3776: 81 13 74 61 62 6c 65 74 31 5f 73 65 67 6d 65 6e   ..tablet1_segmen
|   3792: 74 73 74 31 5f 73 65 67 6d 65 6e 74 73 04 43 52   tst1_segments.CR
|   3808: 45 41 54 45 20 54 41 42 4c 45 20 27 74 31 5f 73   EATE TABLE 't1_s
|   3824: 65 67 6d 65 6e 74 73 27 28 62 6c 6f 63 6b 69 64   egments'(blockid
|   3840: 20 49 4e 54 45 47 45 52 20 50 52 49 4d 41 52 59    INTEGER PRIMARY
|   3856: 20 4b 45 59 2c 20 62 6c 6f 63 6b 20 42 4c 4f 42    KEY, block BLOB
|   3872: 29 6a 03 07 17 21 21 01 81 1f 74 61 62 6c 65 74   )j...!!...tablet
|   3888: 31 5f 63 6f 6e 74 65 6e 74 74 31 5f 63 6f 6e 74   1_contentt1_cont
|   3904: 65 6e 74 03 43 52 45 41 54 45 20 54 41 42 4c 45   ent.CREATE TABLE
|   3920: 20 27 74 31 5f 63 6f 6e 74 65 6e 74 27 28 64 6f    't1_content'(do
|   3936: 63 69 64 20 49 4e 54 45 47 45 52 20 50 52 49 4d   cid INTEGER PRIM
|   3952: 41 52 59 20 4b 45 59 2c 20 27 63 30 61 27 2c 20   ARY KEY, 'c0a', 
|   3968: 27 63 31 62 27 2c 20 27 63 32 63 27 29 38 02 06   'c1b', 'c2c')8..
|   3984: 17 11 11 08 5f 74 61 62 6c 65 74 31 74 31 43 52   ...._tablet1t1CR
|   4000: 45 41 54 45 20 56 49 52 54 55 41 4c 20 54 41 42   EATE VIRTUAL TAB
|   4016: 4c 45 20 74 31 20 55 53 49 4e 47 20 66 74 73 33   LE t1 USING fts3
|   4032: 28 61 2c 62 2c 63 29 00 00 00 39 00 00 00 00 00   (a,b,c)...9.....
| page 3 offset 8192
|      0: 0d 00 00 00 25 0b 48 00 0f d8 0f af 0f 86 0f 74   ....%.H........t
|     16: 0f 61 0f 4e 0f 2f 0f 0f 0e ef 0e d7 0e be 0e a5   .a.N./..........
|     32: 0e 8d 0e 74 0e 5b 0e 40 0e 24 0e 08 0d ef 0d d5   ...t.[.@.$......
|     48: 0d bb 0d a0 0d 84 0d 68 0d 4f 0d 35 0d 1b 0c fb   .......h.O.5....
|     64: 0c da 0c b9 0c 99 0c 78 0c 57 0c 3e 0c 24 0c 0a   .......x.W.>.$..
|     80: 0b 48 00 00 00 00 00 00 00 00 00 00 00 00 00 00   .H..............
|   2880: 00 00 00 00 00 00 00 00 81 3f 25 06 00 82 7f 00   .........?%.....
|   2896: 00 43 4f 4d 50 49 4c 45 52 3d 67 63 63 2d 35 2e   .COMPILER=gcc-5.
|   2912: 34 23 00 20 32 30 31 36 30 36 30 39 20 44 45 42   4#. 20160609 DEB
|   2928: 55 47 20 45 4e 41 42 4c 45 20 44 42 53 54 41 54   UG ENABLE DBSTAT
|   2944: 20 56 54 41 42 20 45 4e 41 42 4c 45 20 46 54 53    VTAB ENABLE FTS
|   2960: 34 20 45 4e 41 42 4c 45 20 46 54 53 35 20 45 4e   4 ENABLE FTS5 EN
|   2976: 41 42 4c 45 20 47 45 4f 50 4f 4c 59 20 45 4e 41   ABLE GEOPOLY ENA
|   2992: 42 4c 45 20 4a 53 4f 4e 31 20 45 4e 41 42 4c 45   BLE JSON1 ENABLE
|   3008: 20 4d 45 4d 53 59 53 35 20 45 4e 41 42 4c 45 20    MEMSYS5 ENABLE 
|   3024: 52 54 52 45 45 20 4d 41 58 20 4d 45 4d 4f 52 59   RTREE MAX MEMORY
|   3040: 3d 35 30 30 30 30 30 30 30 20 4f 4d 49 54 20 4c   =50000000 OMIT L
|   3056: 4f 41 44 20 45 58 54 45 4e 53 49 4f 4e 20 54 48   OAD EXTENSION TH
|   3072: 52 45 41 44 53 41 46 45 3d 30 18 24 05 00 25 0f   READSAFE=0.$..%.
|   3088: 19 54 48 52 45 41 44 53 41 46 45 3d 30 58 42 49   .THREADSAFE=0XBI
|   3104: 4e 41 52 59 18 23 05 00 25 0f 19 54 48 52 45 41   NARY.#..%..THREA
|   3120: 44 53 41 46 45 3d 30 58 4e 4f 43 41 53 45 17 22   DSAFE=0XNOCASE..
|   3136: 05 00 25 0f 17 54 48 52 45 41 44 53 41 46 45 3d   ..%..THREADSAFE=
|   3152: 30 58 52 54 52 49 4d 1f 21 05 00 33 0f 19 4f 4d   0XRTRIM.!..3..OM
|   3168: 49 54 20 4c 4f 41 44 20 45 58 54 45 4e 53 49 4f   IT LOAD EXTENSIO
|   3184: 4e 58 42 49 4e 41 52 59 1f 20 05 00 33 0f 19 4f   NXBINARY. ..3..O
|   3200: 4d 49 54 20 4c 4f 41 44 20 45 58 54 45 4e 53 49   MIT LOAD EXTENSI
|   3216: 4f 4e 58 4e 4f 43 41 53 45 1e 1f 05 00 33 0f 17   ONXNOCASE....3..
|   3232: 4f 4d 49 54 20 4c 4f 41 44 20 45 58 54 45 4e 53   OMIT LOAD EXTENS
|   3248: 49 4f 4e 58 52 54 52 49 4d 1f 1e 05 00 33 0f 19   IONXRTRIM....3..
|   3264: 4d 41 58 20 4d 45 4d 4f 52 59 3d 35 30 30 30 30   MAX MEMORY=50000
|   3280: 30 30 30 58 42 49 4e 41 52 59 1f 1d 05 00 33 0f   000XBINARY....3.
|   3296: 19 4d 41 58 20 4d 45 4d 4f 52 59 3d 35 30 30 30   .MAX MEMORY=5000
|   3312: 30 30 30 30 58 4e 4f 43 41 53 45 1e 1c 05 00 33   0000XNOCASE....3
|   3328: 0f 17 4d 41 58 20 4d 45 4d 4f 52 59 3d 35 30 30   ..MAX MEMORY=500
|   3344: 30 30 30 30 30 58 52 54 53 49 4d 18 1b 05 00 25   00000XRTSIM....%
|   3360: 0f 19 45 4e 41 42 4c 45 20 52 54 52 45 45 58 42   ..ENABLE RTREEXB
|   3376: 49 4e 41 52 59 18 1a 05 00 25 0f 19 45 4e 41 42   INARY....%..ENAB
|   3392: 4c 45 20 52 54 52 45 45 58 4e 4f 43 41 53 45 17   LE RTREEXNOCASE.
|   3408: 19 05 00 25 0f 17 45 4e 41 42 4c 45 20 52 54 52   ...%..ENABLE RTR
|   3424: 45 45 58 52 54 52 49 4d 1a 18 05 00 29 0f 19 45   EEXRTRIM....)..E
|   3440: 4e 41 42 4c 45 20 4d 45 4d 53 59 53 35 58 42 49   NABLE MEMSYS5XBI
|   3456: 4e 41 52 59 1a 17 05 00 29 0f 19 45 4e 41 42 4c   NARY....)..ENABL
|   3472: 45 20 4d 45 4d 53 59 53 35 58 4e 4f 43 41 53 45   E MEMSYS5XNOCASE
|   3488: 19 16 05 00 29 0f 17 45 4e 41 42 4c 45 20 4d 45   ....)..ENABLE ME
|   3504: 4d 53 59 53 35 58 52 54 52 49 4d 18 15 05 00 25   MSYS5XRTRIM....%
|   3520: 0f 19 45 4e 41 42 4c 45 20 4a 53 4f 4e 31 58 42   ..ENABLE JSON1XB
|   3536: 49 4e 41 52 59 18 14 05 00 25 0f 19 45 4e 41 42   INARY....%..ENAB
|   3552: 4c 45 20 4a 53 4f 4e 31 58 4e 4f 43 41 53 45 17   LE JSON1XNOCASE.
|   3568: 13 05 00 25 0f 17 45 4e 41 52 4c 45 20 4a 53 4f   ...%..ENARLE JSO
|   3584: 4e 31 58 52 54 52 49 4d 1a 12 05 00 29 0f 19 45   N1XRTRIM....)..E
|   3600: 4e 41 42 4c 45 20 47 45 4f 50 4f 4c 59 58 42 49   NABLE GEOPOLYXBI
|   3616: 4e 41 52 59 1a 11 05 00 29 0f 19 45 4e 41 1e 4c   NARY....)..ENA.L
|   3632: 45 20 47 45 4f 50 4f 4c 59 58 4e 4f 43 41 53 45   E GEOPOLYXNOCASE
|   3648: 19 10 05 00 29 0f 17 45 4e 41 42 4c 45 20 47 45   ....)..ENABLE GE
|   3664: 4f 50 4f 4c 59 58 52 54 52 49 4d 17 0f 05 00 23   OPOLYXRTRIM....#
|   3680: 0f 19 45 4e 41 42 4c 45 20 46 54 53 35 58 42 49   ..ENABLE FTS5XBI
|   3696: 4e 41 52 59 17 0e 05 00 23 0f 19 45 4e 41 42 4c   NARY....#..ENABL
|   3712: 45 20 46 54 53 35 58 4e 4f 43 41 53 45 16 0d 05   E FTS5XNOCASE...
|   3728: 00 23 0f 17 45 4e 41 42 4c 45 20 46 54 59 e5 58   .#..ENABLE FTY.X
|   3744: 52 54 52 49 4d 17 0c 05 00 23 0f 19 45 4e 41 42   RTRIM....#..ENAB
|   3760: 4c 45 20 46 54 53 34 58 42 49 4e 41 52 59 17 0b   LE FTS4XBINARY..
|   3776: 05 00 23 0f 19 45 4e 41 42 4c 45 20 46 54 53 35   ..#..ENABLE FTS5
|   3792: 58 4e 4f 43 40 53 45 16 0a 05 00 23 0f 17 45 4e   XNOC@SE....#..EN
|   3808: 41 42 4c 45 20 46 54 53 34 58 52 54 52 49 4d 1e   ABLE FTS4XRTRIM.
|   3824: 09 05 00 31 0f 19 45 4e 41 42 4c 45 20 44 42 53   ...1..ENABLE DBS
|   3840: 54 41 54 20 56 54 41 42 58 42 49 4e 41 52 59 1e   TAT VTABXBINARY.
|   3856: 08 05 00 31 0f 19 45 4e 41 42 4c 45 20 44 42 53   ...1..ENABLE DBS
|   3872: 54 41 54 20 56 54 41 42 58 4e 4f 43 41 53 45 1d   TAT VTABXNOCASE.
|   3888: 07 05 00 31 0f 17 45 4e 41 42 4c 45 20 44 42 53   ...1..ENABLE DBS
|   3904: 54 41 54 20 56 54 41 42 58 52 54 52 49 4d 11 06   TAT VTABXRTRIM..
|   3920: 05 00 17 0f 19 44 45 42 55 47 58 42 49 4e 41 52   .....DEBUGXBINAR
|   3936: 59 11 05 05 00 17 0f 19 44 45 42 55 47 58 4e 4f   Y.......DEBUGXNO
|   3952: 43 41 53 45 10 04 05 00 17 0f 17 44 45 42 55 47   CASE.......DEBUG
|   3968: 58 52 54 52 49 4d 27 03 05 00 43 0f 19 43 4f 4d   XRTRIM'...C..COM
|   3984: 50 49 4c 45 52 3d 67 63 63 2d 35 2e 34 2e 30 20   PILER=gcc-5.4.0 
|   4000: 32 30 31 36 30 36 30 39 58 42 49 4e 41 52 59 27   20160609XBINARY'
|   4016: 02 05 00 43 0f 19 43 4f 4d 50 49 4c 45 52 3d 67   ...C..COMPILER=g
|   4032: 63 63 2d 35 2e 34 2f 30 20 32 30 31 36 30 36 30   cc-5.4/0 2016060
|   4048: 39 58 4e 4f 43 41 53 45 26 01 05 00 43 0f 17 43   9XNOCASE&...C..C
|   4064: 4f 4d 50 49 4c 45 52 3d 67 63 63 2d 35 2e 34 2e   OMPILER=gcc-5.4.
|   4080: 30 20 32 30 31 36 30 36 30 39 58 52 54 52 49 4d   0 20160609XRTRIM
| page 4 offset 12288
|      0: 0d 00 00 00 00 10 00 00 00 00 00 00 00 00 00 00   ................
| page 5 offset 16384
|      0: 0d 00 00 00 02 0b a0 00 0c ad 0b a0 00 00 00 00   ................
|   2976: 82 0a 02 08 08 09 08 08 17 84 06 30 20 32 35 33   ...........0 253
|   2992: 00 01 30 04 25 06 1b 00 00 08 32 30 31 36 30 36   ..0.%.....201606
|   3008: 30 39 03 25 07 00 00 01 34 03 25 05 00 00 01 35   09.%....4.%....5
|   3024: 03 25 04 00 01 07 30 30 30 30 30 30 30 03 25 1a   .%....0000000.%.
|   3040: 00 00 08 63 6f 6d 70 69 6c 65 72 03 25 02 00 00   ...compiler.%...
|   3056: 06 64 62 73 74 61 74 03 25 0a 00 01 04 65 62 75   .dbstat.%....ebu
|   3072: 67 03 25 08 00 00 06 65 6e 61 62 6c 65 09 25 09   g.%....enable.%.
|   3088: 05 04 04 04 04 04 00 01 08 78 74 65 6e 73 69 6f   .........xtensio
|   3104: 6e 03 25 1d 00 00 04 66 74 73 34 03 25 0d 00 03   n.%....fts4.%...
|   3120: 01 35 03 25 0f 00 00 03 67 63 63 03 25 03 00 01   .5.%....gcc.%...
|   3136: 06 65 6f 70 6f 6c 79 03 25 11 00 00 05 6a 73 6f   .eopoly.%....jso
|   3152: 6e 31 03 25 13 41 00 04 6c 6f 61 64 03 25 1c 00   n1.%.A..load.%..
|   3168: 00 03 6d 61 78 03 25 18 00 01 05 65 6d 6f 72 79   ..max.%....emory
|   3184: 03 25 19 00 03 04 73 79 73 35 03 25 15 00 00 04   .%....sys5.%....
|   3200: 6f 6d 69 74 03 25 1b 00 00 05 72 74 72 65 65 03   omit.%....rtree.
|   3216: 25 17 00 00 0a 74 68 72 65 61 64 73 61 66 65 03   %....threadsafe.
|   3232: 25 1e 00 00 04 76 74 61 62 03 25 0b 00 86 50 01   %....vtab.%...P.
|   3248: 08 08 08 08 08 17 8d 12 30 20 38 33 35 00 01 30   ........0 835..0
|   3264: 12 01 06 00 01 06 00 01 06 00 1f 03 00 01 03 00   ................
|   3280: 01 03 00 00 08 32 30 31 36 30 36 30 39 09 01 07   .....20160609...
|   3296: 00 01 07 00 01 07 00 00 01 34 09 01 05 00 01 05   .........4......
|   3312: 00 01 05 00 00 01 35 09 01 04 00 01 04 00 01 04   ......5.........
|   3328: 00 01 07 30 30 30 30 30 30 30 09 1c 04 00 01 04   ...0000000......
|   3344: 00 01 04 00 00 06 62 69 6e 61 72 79 3c 03 02 02   ......binary<...
|   3360: 02 00 03 01 02 02 00 03 01 02 02 00 03 01 02 02   ................
|   3376: 00 03 01 02 02 00 03 01 02 02 00 03 01 02 02 00   ................
|   3392: 03 01 02 02 00 03 01 02 02 00 03 01 02 02 00 03   ................
|   3408: 01 02 02 00 03 01 02 02 00 00 08 63 6f 6d 70 69   ...........compi
|   3424: 6c 65 72 09 01 02 00 01 02 00 01 02 00 00 06 64   ler............d
|   3440: 62 73 74 61 74 09 f2 03 00 01 03 00 01 03 00 01   bstat...........
|   3456: 04 65 62 75 67 09 04 02 00 01 02 00 01 02 00 00   .ebug...........
|   3472: 06 65 6e 61 62 6c 65 3f 07 02 00 01 02 00 01 02   .enable?........
|   3488: 00 01 02 00 01 02 00 01 02 00 01 02 00 57 02 00   .............W..
|   3504: 01 02 00 01 01 00 01 02 00 01 02 00 01 02 10 01   ................
|   3520: 02 00 01 02 00 01 02 00 01 02 00 01 02 00 01 02   ................
|   3536: 00 01 02 00 01 02 00 01 08 78 74 64 6e 73 69 6f   .........xtdnsio
|   3552: 6e 09 1f 04 00 01 04 00 01 03 00 00 04 66 74 73   n............fts
|   3568: 34 09 0a 03 00 01 03 00 01 03 00 03 01 35 09 0d   4............5..
|   3584: 03 00 01 03 00 01 03 00 00 03 57 63 63 09 01 03   ..........Wcc...
|   3600: 00 01 03 00 01 03 00 01 06 65 6f 70 6f 6c 79 09   .........eopoly.
|   3616: 10 03 00 01 03 00 01 03 00 00 05 6a 73 6f 6e 31   ...........json1
|   3632: 09 13 03 00 01 03 00 01 03 00 00 04 6c 6f 61 64   ............load
|   3648: 09 1f 03 00 01 03 00 01 03 00 00 03 6d 61 78 09   ............max.
|   3664: 1c 02 00 01 02 00 01 02 00 01 05 65 6d 6f 72 79   ...........emory
|   3680: 09 1c 03 00 01 03 00 01 03 00 03 04 73 79 73 35   ............sys5
|   3696: 09 16 03 00 01 03 00 01 03 00 00 06 6e 6f 63 61   ............noca
|   3712: 73 65 3c 02 01 02 02 00 03 01 02 02 00 03 01 02   se<.............
|   3728: 02 00 03 01 02 02 00 03 01 02 02 00 03 01 02 02   ................
|   3744: 00 03 01 02 02 00 03 01 02 02 00 03 01 02 02 00   ................
|   3760: 03 01 02 02 00 03 01 02 02 00 03 01 02 02 00 00   ................
|   3776: 04 6f 6d 69 74 09 1f 02 00 01 02 00 01 02 00 00   .omit...........
|   3792: 05 72 74 72 65 65 09 19 03 00 01 03 00 01 03 00   .rtree..........
|   3808: 03 02 69 6d 3c 01 01 02 02 00 03 01 02 02 00 03   ..im<...........
|   3824: 01 02 02 00 03 01 02 02 00 03 01 02 02 00 03 01   ................
|   3840: 02 02 00 03 01 02 02 00 03 01 02 02 00 03 01 02   ................
|   3856: 02 00 03 01 02 02 00 03 01 02 02 00 03 01 02 02   ................
|   3872: 00 00 0a 74 68 72 65 61 64 73 61 66 65 09 22 02   ...threadsafe...
|   3888: 00 01 02 00 02 02 00 00 04 76 74 61 62 09 07 04   .........vtab...
|   3904: 00 01 04 00 01 04 00 00 01 78 b4 01 01 01 01 02   .........x......
|   3920: 00 01 01 01 02 00 01 01 01 02 00 01 01 01 02 00   ................
|   3936: 01 01 01 02 00 01 01 01 02 00 01 01 01 02 00 01   ................
|   3952: 01 01 02 00 01 01 01 02 00 01 01 01 02 00 01 01   ................
|   3968: 01 02 00 01 01 01 02 00 01 01 01 02 00 01 01 01   ................
|   3984: 02 00 01 01 01 02 00 01 01 01 02 00 01 01 01 02   ................
|   4000: 00 01 01 01 02 00 01 01 01 02 00 01 01 01 02 00   ................
|   4016: 01 01 01 02 00 01 01 01 02 00 01 01 01 02 00 01   ................
|   4032: 01 01 02 00 01 01 01 02 00 01 01 01 02 00 01 01   ................
|   4048: 01 02 00 01 01 01 02 00 01 01 01 02 00 01 01 01   ................
|   4064: 02 00 01 01 01 02 00 01 01 01 02 00 01 01 01 02   ................
|   4080: 00 01 01 01 02 00 01 01 01 02 00 01 01 01 02 00   ................
| page 6 offset 20480
|      0: 0a 00 00 00 02 0f f5 00 0f fb 0f f5 00 00 00 00   ................
|   4080: 00 00 00 00 00 05 04 08 09 01 02 04 04 08 08 09   ................
| page 7 offset 24576
|      0: 0d 00 00 00 05 0f b8 00 0f f4 0f e9 0f d6 0f c7   ................
|     16: 0f b8 00 00 00 00 00 00 00 00 00 00 00 00 00 00   ................
|   4016: 00 00 00 00 00 00 00 00 0d 05 02 23 61 75 74 6f   ...........#auto
|   4032: 6d 65 72 67 65 3d 35 0d 04 02 23 6d 65 72 67 65   merge=5...#merge
|   4048: 3d 31 30 30 2c 38 11 03 02 2b 69 6e 74 65 67 72   =100,8...+integr
|   4064: 69 74 79 2d 63 68 65 63 6b 09 02 02 1b 72 65 62   ity-check....reb
|   4080: 75 69 6c 64 0a 01 02 1d 6f 70 74 69 6d 69 7a 65   uild....optimize
| end crash-c666cfde112dee.db
}]} {}

do_catchsql_test 13.1 {
  SELECT quote(matchinfo(t1,'pcxybs'))==0 FROM t1 WHERE b MATCH 'e*';
} {0 {}}

#-------------------------------------------------------------------------
reset_db
do_test 14.0 {
  sqlite3 db {}
  db deserialize [decode_hexdb {
| size 28672 pagesize 4096 filename crash-f7b636a855e1d2.db
| page 1 offset 0
|      0: 53 51 4c 69 74 65 20 66 6f 72 6d 61 74 20 33 00   SQLite format 3.
|     16: 10 00 01 01 00 40 20 20 00 00 00 00 00 00 00 07   .....@  ........
|     32: 00 00 00 00 00 00 00 00 00 00 00 06 00 00 00 04   ................
|     48: 00 00 00 00 00 00 00 00 00 00 00 01 00 00 00 00   ................
|     96: 00 00 00 00 0d 0e ef 00 07 0d 4d 00 0f bd 0f 5f   ..........M...._
|    112: 0e f7 0e 06 0e bc 0d a4 0d 4d 00 00 00 00 00 00   .........M......
|   3392: 00 00 00 00 00 00 00 00 00 00 00 00 00 55 07 07   .............U..
|   3408: 17 1b 1b 01 81 01 74 61 62 6c 65 74 31 5f 73 74   ......tablet1_st
|   3424: 61 74 74 31 5f 73 74 61 74 07 43 52 45 41 54 45   att1_stat.CREATE
|   3440: 20 54 41 42 4c 45 20 27 74 31 5f 73 74 61 74 27    TABLE 't1_stat'
|   3456: 28 69 64 20 49 4e 54 45 47 45 52 20 50 52 49 4d   (id INTEGER PRIM
|   3472: 41 52 59 20 4b 45 59 2c 20 76 61 6c 75 65 20 42   ARY KEY, value B
|   3488: 4c 4f 42 29 60 06 07 17 21 21 01 81 0b 74 61 62   LOB)`...!!...tab
|   3504: 6c 65 74 31 5f 64 6f 63 73 69 7a 65 74 31 5f 64   let1_docsizet1_d
|   3520: 6f 63 73 69 7a 65 06 43 52 45 41 54 45 20 54 41   ocsize.CREATE TA
|   3536: 42 4c 45 20 27 74 31 5f 64 6f 63 73 69 7a 65 27   BLE 't1_docsize'
|   3552: 28 64 6f 63 69 64 20 49 4e 54 45 47 45 52 20 50   (docid INTEGER P
|   3568: 52 49 4d 41 52 59 20 4b 45 59 2c 20 73 69 7a 65   RIMARY KEY, size
|   3584: 20 42 4c 4f 42 29 81 33 04 07 17 1f 1f 01 82 35    BLOB).3.......5
|   3600: 74 61 62 6c 65 74 31 5f 73 65 67 64 69 72 74 31   tablet1_segdirt1
|   3616: 5f 73 65 67 64 69 25 04 43 52 45 41 54 45 20 54   _segdi%.CREATE T
|   3632: 41 42 4c 45 20 27 74 31 5f 73 65 67 64 69 72 27   ABLE 't1_segdir'
|   3648: 28 6c 65 76 65 6c 20 49 4e 54 45 47 45 52 2c 69   (level INTEGER,i
|   3664: 64 78 20 49 4e 54 45 47 45 52 2c 73 74 61 72 74   dx INTEGER,start
|   3680: 5f 62 6c 6f 63 6b 20 49 4e 54 45 47 45 52 2c 6c   _block INTEGER,l
|   3696: 65 61 76 65 73 5f 65 6e 64 5f 62 6c 6f 63 6b 20   eaves_end_block 
|   3712: 49 4e 54 45 47 45 52 2c 65 6e 64 5f 62 6c 6f 63   INTEGER,end_bloc
|   3728: 6b 20 49 4e 54 45 47 45 52 2c 72 6f 6f 74 20 42   k INTEGER,root B
|   3744: 4c 4f 42 2c 50 52 49 4d 41 52 59 20 4b 45 59 28   LOB,PRIMARY KEY(
|   3760: 6c 65 76 65 6c 2c 20 69 64 78 29 29 31 05 06 17   level, idx))1...
|   3776: 45 1f 01 00 69 6e 64 65 78 73 71 6c 69 74 65 5f   E...indexsqlite_
|   3792: 61 75 74 6f 69 6e 64 65 78 5f 74 31 5f 73 65 67   autoindex_t1_seg
|   3808: 64 69 72 5f 31 74 31 5f 73 65 67 64 69 72 05 00   dir_1t1_segdir..
|   3824: 00 00 08 00 00 00 00 66 03 07 17 23 23 01 81 13   .......f...##...
|   3840: 74 61 62 6c 65 74 31 5f 73 65 67 6d 65 6e 74 73   tablet1_segments
|   3856: 74 31 5f 73 65 67 6d 65 6e 74 73 03 43 52 45 41   t1_segments.CREA
|   3872: 54 45 20 54 41 42 4c 45 20 27 74 31 5f 73 65 67   TE TABLE 't1_seg
|   3888: 6d 65 6e 74 73 27 28 62 6c 6f 63 6b 69 64 20 49   ments'(blockid I
|   3904: 4e 54 45 47 45 52 20 50 52 49 4d 41 52 59 20 4b   NTEGER PRIMARY K
|   3920: 45 59 2c 20 62 6c 6f 63 6b 20 42 4c 4f 42 29 5c   EY, block BLOB).
|   3936: 02 07 17 21 21 01 81 03 74 61 62 6c 65 74 31 5f   ...!!...tablet1_
|   3952: 63 6f 6e 74 65 6e 74 74 31 5f 63 6f 6e 74 65 6e   contentt1_conten
|   3968: 74 02 43 52 45 41 54 45 20 54 41 42 4c 45 20 27   t.CREATE TABLE '
|   3984: 74 31 5f 63 6f 6e 74 65 6e 74 27 28 64 6f 63 69   t1_content'(doci
|   4000: 64 20 49 4e 54 45 47 45 52 20 50 52 49 4d 41 52   d INTEGER PRIMAR
|   4016: 59 20 4b 45 59 2c 20 27 63 30 61 27 29 41 01 06   Y KEY, 'c0a')A..
|   4032: 17 11 11 08 71 74 61 62 6c 65 74 31 74 31 43 52   ....qtablet1t1CR
|   4048: 45 41 54 45 20 56 49 52 54 55 41 4c 20 54 41 42   EATE VIRTUAL TAB
|   4064: 4c 45 20 74 31 20 55 53 49 4e 47 20 66 74 73 34   LE t1 USING fts4
|   4080: 28 61 2c 70 72 65 66 69 78 3d 27 31 2c 32 27 29   (a,prefix='1,2')
| page 2 offset 4096
|      0: 0d 00 00 00 08 0e 1f 00 0f c4 0f 7c 0f 34 0f 07   ...........|.4..
|     16: 0e c3 0e 97 0e 63 0e 1f 00 00 00 00 00 00 00 00   .....c..........
|   3600: 00 00 00 00 00 00 00 00 00 00 00 00 00 00 00 42   ...............B
|   3616: 08 04 00 81 09 73 75 6e 74 20 69 6e 20 63 75 6c   .....sunt in cul
|   3632: 70 61 20 71 75 69 20 6f 66 66 69 63 69 61 20 64   pa qui officia d
|   3648: 65 73 65 72 75 6e 74 20 6d 6f 6c 6c 69 74 20 61   eserunt mollit a
|   3664: 6e 69 6d 20 69 64 20 65 73 74 20 6c 61 62 6f 72   nim id est labor
|   3680: 75 6d 2e 32 07 03 01 6b 45 78 63 65 70 74 65 75   um.2...kExcepteu
|   3696: 72 20 73 69 6e 74 20 6f 63 63 61 65 63 61 74 20   r sint occaecat 
|   3712: 63 75 70 69 64 61 74 61 74 20 6e 6f 6e 20 70 72   cupidatat non pr
|   3728: 6f 69 64 65 6e 74 2c 2a 06 03 00 5b 63 69 6c 6c   oident,*...[cill
|   3744: 75 6d 20 64 6f 6c 6f 72 65 20 65 75 20 66 75 67   um dolore eu fug
|   3760: 69 61 74 20 6e 75 6c 6c 61 20 70 61 72 69 61 74   iat nulla pariat
|   3776: 75 72 2e 43 05 04 00 81 09 44 75 69 73 20 61 75   ur.C.....Duis au
|   3792: 74 65 20 69 72 75 72 65 20 64 6f 6c 6f 72 20 69   te irure dolor i
|   3808: 6e 20 72 65 70 72 65 68 65 6e 64 65 72 69 74 20   n reprehenderit 
|   3824: 69 6e 20 76 6f 6c 75 70 74 61 74 65 20 76 65 6c   in voluptate vel
|   3840: 69 74 20 65 73 73 65 2b 14 03 00 5d 6e 69 73 69   it esse+...]nisi
|   3856: 20 75 74 20 61 6c 69 71 75 69 70 20 65 78 20 65    ut aliquip ex e
|   3872: 61 20 63 6f 6d 6d 6f 64 6f 20 63 6f 6e 73 65 71   a commodo conseq
|   3888: 75 61 74 2e 46 03 04 00 81 11 55 74 20 65 6e 69   uat.F.....Ut eni
|   3904: 6d 20 61 64 20 6d 69 6e 69 6d 20 76 65 6e 69 61   m ad minim venia
|   3920: 6d 2c 20 71 75 69 73 20 6e 6f 73 74 72 75 64 20   m, quis nostrud 
|   3936: 65 78 65 72 63 69 74 61 74 69 6f 6e 20 75 6c 6c   exercitation ull
|   3952: 61 6d 63 6f 20 6c 61 62 6f 72 69 73 46 02 04 00   amco laborisF...
|   3968: 81 11 73 65 64 20 64 6f 20 65 69 75 73 6d 6f 64   ..sed do eiusmod
|   3984: 20 74 65 6d 70 6f 72 20 69 6e 63 69 64 69 64 75    tempor incididu
|   4000: 6e 74 20 75 74 20 6c 61 62 6f 72 65 20 65 74 20   nt ut labore et 
|   4016: 64 6f 6c 6f 72 65 20 6d 61 67 6e 61 20 61 6c 69   dolore magna ali
|   4032: 71 75 61 2e 3a 01 03 00 7b 4c 6f 72 65 6d 20 69   qua.:....Lorem i
|   4048: 70 73 75 6d 20 64 6f 6c 6f 72 20 73 69 74 20 61   psum dolor sit a
|   4064: 6d 65 74 2c 20 63 6f 6e 73 65 63 74 65 74 75 72   met, consectetur
|   4080: 20 61 64 69 70 69 73 63 69 6e 67 20 65 6c 69 74    adipiscing elit
| page 3 offset 8192
|      0: 0d 00 00 00 00 10 00 00 00 00 00 00 00 00 00 00   ................
| page 4 offset 12288
|      0: 0d 00 00 00 03 0a a6 00 0d 57 0c 4a 0a a6 00 00   .........W.J....
|   2720: 00 00 00 00 00 00 83 21 03 08 02 08 08 08 17 86   .......!........
|   2736: 30 08 00 30 20 34 30 32 00 02 61 64 06 01 08 00   0..0 402..ad....
|   2752: 02 04 00 01 01 6c 06 02 0c 00 02 04 00 01 01 6d   .....l.........m
|   2768: 03 01 06 00 01 01 6e 03 08 09 00 01 01 75 03 05   ......n......u..
|   2784: 03 00 00 02 63 69 03 06 01 00 01 01 6f 07 01 07   ....ci......o...
|   2800: 00 03 07 03 00 01 01 75 06 07 05 00 01 04 00 00   .......u........
|   2816: 02 64 65 03 08 07 00 01 01 6f 0d 01 04 00 01 03   .de......o......
|   2832: 09 00 03 05 00 01 03 00 01 01 75 03 05 02 00 00   ..........u.....
|   2848: 02 65 61 03 04 06 00 01 01 69 03 02 04 00 01 01   .ea......i......
|   2864: 6c 03 01 09 00 01 01 6e 03 03 03 00 01 01 73 06   l......n......s.
|   2880: 05 0b 00 03 0b 00 01 01 74 03 02 09 00 01 01 75   ........t......u
|   2896: 03 06 04 00 01 01 78 09 03 09 00 01 05 00 03 02   ......x.........
|   2912: 00 00 02 66 75 03 06 05 00 00 02 69 64 03 08 0a   ...fu......id...
|   2928: 00 01 01 6e 0a 02 06 00 03 06 04 00 03 03 00 01   ...n............
|   2944: 01 70 03 01 13 00 01 01 72 03 05 04 00 00 02 6c   .p......r......l
|   2960: 61 09 02 08 00 01 0b 00 05 0c 00 01 01 6f 03 01   a............o..
|   2976: 02 00 00 02 6d 61 03 02 0b 00 01 01 69 03 04 05   ....ma......i...
|   2992: 00 01 01 6f 03 08 08 00 00 02 6e 69 03 04 02 00   ...o......ni....
|   3008: 01 01 6f 06 03 08 00 04 06 00 01 01 75 03 06 06   ..o.........u...
|   3024: 00 00 02 6f 63 03 07 04 00 01 01 66 03 08 06 00   ...oc......f....
|   3040: 00 02 70 61 03 06 07 00 01 01 72 03 07 07 00 00   ..pa......r.....
|   3056: 02 71 75 06 03 07 00 05 05 00 00 02 72 65 03 05   .qu.........re..
|   3072: 07 00 00 02 73 65 03 02 02 00 01 01 69 06 01 05   ....se......i...
|   3088: 00 06 03 00 01 01 75 03 08 02 00 00 02 74 65 03   ......u......te.
|   3104: 03 05 00 00 02 75 6c 03 03 0a 00 01 01 74 09 02   .....ul......t..
|   3120: 07 00 01 02 00 01 03 00 00 02 76 65 06 03 06 00   ..........ve....
|   3136: 02 0a 00 01 01 6f 03 05 09 00 82 0a 02 08 02 08   .....o..........
|   3152: 08 08 17 84 02 04 00 30 20 32 35 31 00 01 61 13   .......0 251..a.
|   3168: 01 06 04 00 01 0c 00 01 04 00 01 04 00 01 03 00   ................
|   3184: 03 09 00 00 01 63 10 01 07 00 03 07 03 00 02 02   .....c..........
|   3200: 00 01 05 00 01 04 00 00 01 64 11 01 04 00 01 03   .........d......
|   3216: 09 00 03 02 05 00 01 03 00 02 07 00 00 01 65 1b   ..............e.
|   3232: 01 09 00 01 04 07 00 01 03 08 00 01 05 03 00 01   ................
|   3248: 0b 00 01 04 00 01 02 00 01 0b 00 00 01 66 03 06   .............f..
|   3264: 05 00 00 01 69 0f 01 03 00 01 06 00 03 04 04 04   ....i...........
|   3280: 00 03 03 09 00 00 01 6c 0c 01 02 00 01 08 00 01   .......l........
|   3296: 0b 00 05 0c 00 00 01 6d 09 02 0b 00 01 05 00 05   .......m........
|   3312: 08 00 00 01 6e 0c 03 08 00 01 02 00 02 06 00 01   ....n...........
|   3328: 06 00 00 01 6f 06 07 04 00 01 06 00 00 01 70 06   ....o.........p.
|   3344: 06 07 00 01 07 00 00 01 71 06 03 07 00 05 05 00   ........q.......
|   3360: 00 01 72 03 05 08 00 00 01 73 0c 01 05 00 01 02   ..r......s......
|   3376: 00 05 03 00 01 02 00 00 01 74 03 02 05 00 00 01   .........t......
|   3392: 75 0a 02 07 00 01 02 0a 00 01 03 00 00 01 76 07   u.............v.
|   3408: 03 06 00 02 09 03 00 85 26 01 08 08 08 08 08 17   ........&.......
|   3424: 8a 3e 30 20 36 36 35 00 02 61 64 03 03 04 00 02   .>0 665..ad.....
|   3440: 08 69 70 69 73 63 69 6e 67 03 01 08 00 01 05 6c   .ipiscing......l
|   3456: 69 71 75 61 03 02 0c 00 05 02 69 70 03 04 04 00   iqua......ip....
|   3472: 01 03 6d 65 74 03 01 06 00 01 03 6e 69 6d 03 08   ..met......nim..
|   3488: 09 00 01 03 75 74 65 03 05 03 00 00 06 63 69 6c   ....ute......cil
|   3504: 6c 75 6d 03 06 02 00 01 06 6f 6d 6d 6f 64 6f 03   lum......ommodo.
|   3520: 04 07 00 02 09 6e 73 65 63 74 65 74 75 72 03 01   .....nsectetur..
|   3536: 07 00 05 04 71 75 61 74 03 04 08 00 01 04 75 6c   ....quat......ul
|   3552: 70 61 03 08 04 00 02 07 70 69 64 61 74 61 74 03   pa......pidatat.
|   3568: 07 05 00 00 08 64 65 73 65 72 75 6e 74 03 08 07   .....deserunt...
|   3584: 00 01 01 6f 03 02 03 00 02 03 6c 6f 72 06 01 04   ...o......lor...
|   3600: 00 04 05 00 05 01 65 06 02 0a 00 04 03 00 01 03   ......e.........
|   3616: 75 69 73 03 05 02 00 00 02 65 61 03 04 06 00 01   uis......ea.....
|   3632: 06 69 75 73 6d 6f 64 03 02 04 00 01 03 6c 69 74   .iusmod......lit
|   3648: 03 01 09 00 01 03 6e 69 6d 03 03 03 00 01 03 73   ......nim......s
|   3664: 73 65 03 05 0b 00 02 01 73 03 08 0b 00 01 01 74   se......s......t
|   3680: 03 02 09 00 01 01 75 03 06 04 00 01 01 78 03 04   ......u......x..
|   3696: 05 00 02 07 63 65 70 74 65 75 72 03 07 02 00 02   ....cepteur.....
|   3712: 0a 65 72 63 69 74 61 74 69 6f 6e 03 03 09 00 00   .ercitation.....
|   3728: 06 66 75 67 69 61 74 03 06 05 00 00 02 69 64 03   .fugiat......id.
|   3744: 08 0a 00 01 01 6e 07 05 06 04 00 03 03 00 02 08   .....n..........
|   3760: 63 69 64 69 64 75 6e 74 03 02 06 00 01 04 70 73   cididunt......ps
|   3776: 75 6d 03 01 03 00 01 04 72 75 72 65 03 05 04 00   um......rure....
|   3792: 00 06 6c 61 62 6f 72 65 03 02 08 00 05 02 69 73   ..labore......is
|   3808: 03 03 0b 00 05 02 75 6d 03 08 0c 00 01 04 6f 72   ......um......or
|   3824: 65 6d 03 01 02 00 00 05 6d 61 67 6e 61 03 02 0b   em......magna...
|   3840: 00 01 04 69 6e 69 6d 03 03 05 00 01 05 6f 6c 6c   ...inim......oll
|   3856: 69 74 03 08 08 00 00 04 6e 69 73 69 03 04 02 00   it......nisi....
|   3872: 01 02 6f 6e 03 07 06 00 02 05 73 74 72 75 64 03   ..on......strud.
|   3888: 03 08 00 01 04 75 6c 6c 61 03 06 06 00 00 08 6f   .....ulla......o
|   3904: 63 63 61 65 63 61 74 03 07 04 00 01 06 66 66 69   ccaecat......ffi
|   3920: 63 69 61 03 08 06 00 00 08 70 61 72 69 61 74 75   cia......pariatu
|   3936: 72 03 06 07 00 01 07 72 6f 69 64 65 6e 74 03 07   r......roident..
|   3952: 07 00 00 03 71 75 69 03 08 05 00 03 01 73 03 03   ....qui......s..
|   3968: 07 00 00 0d 72 65 70 72 65 68 65 6e 64 65 72 69   ....reprehenderi
|   3984: 74 03 05 07 00 00 03 73 65 64 03 02 02 00 01 03   t......sed......
|   4000: 69 6e 74 03 07 03 00 02 01 74 03 01 05 00 01 03   int......t......
|   4016: 75 6e 74 03 08 02 00 00 06 74 65 6d 70 6f 72 03   unt......tempor.
|   4032: 02 05 00 00 07 75 6c 6c 61 6d 63 6f 03 03 0a 00   .....ullamco....
|   4048: 01 01 74 09 02 07 00 01 02 00 01 03 00 00 05 76   ..t............v
|   4064: 65 6c 69 74 03 05 0a 00 02 04 6e 69 61 6d 03 03   elit......niam..
|   4080: 06 00 01 08 6f 6c 75 70 74 61 74 65 03 05 09 00   ....oluptate....
| page 5 offset 16384
|      0: 0a 00 00 00 03 0f eb 00 0f fb 0f f3 0f eb 00 00   ................
|   4064: 00 00 00 00 00 00 00 00 00 00 00 07 04 02 08 01   ................
|   4080: 08 00 03 07 04 02 08 01 04 00 02 04 04 08 08 09   ................
| page 6 offset 20480
|      0: 0d 00 00 00 08 0f d0 00 0f fa 0f f4 0f ee 0f e8   ................
|     16: 0f e2 0f dc 0f d6 0f d0 00 00 00 00 00 00 00 00   ................
|   4048: 04 08 03 00 0e 0b 04 07 03 00 0e 06 04 06 03 00   ................
|   4064: 0e 06 04 05 03 00 0e 0a 04 04 03 00 0e 07 04 03   ................
|   4080: 03 00 0e 0a 04 02 03 00 0e 0b 04 01 03 00 0e 08   ................
| page 7 offset 24576
|      0: 0d 00 00 00 01 0f f7 00 0f f7 00 00 00 00 00 00   ................
|   4080: 00 00 00 00 00 00 00 07 00 03 00 14 08 45 b5 03   .............E..
| end crash-f7b636a855e1d2.db
}]} {}

do_execsql_test 14.1 {
  PRAGMA writable_schema = 1;
  WITH RECURSIVE c(x) AS (VALUES(1) UNION ALL SELECT x+1 FROM c WHERE x<10)
    INSERT INTO t1(a) SELECT randomblob(3000) FROM c;
}

do_catchsql_test 14.2 {
  INSERT INTO t1(t1) VALUES('optimize');
} {1 {database disk image is malformed}}

#-------------------------------------------------------------------------
reset_db
do_execsql_test 15.0 {
  CREATE VIRTUAL TABLE t1 USING fts3(a, content="");
  INSERT INTO t1_segdir VALUES(0,0,0,0,'0 665',X'000261640303040002086970697363696e670301080001056c6971756103020c00050269700304040001036d65740301060001036e6a6d03080900010375746503050300000663696c6c756d0306020001066f6d6d6f646f0304070002096e736563746574757203010700050471756174030408000104756c7061030804000207706964617461740307050000086465736572756e740308070001016f0302030002036c6f720601040004050005016506020a00040300010375697303050200000265610304060001066975736d6f640302040001036c69740301090001036e696d13030300010373736503050b0002017403080b0001017403020900010175030604000101780304050002076365707465757203070100020a65726369746174696f6e030309000006667567696174030605000002696403080a0001016e070506040003030002086369646964756e740302060001047073756d030103000104727572650305040000066c61626f7265030208000502697303030b000502756d03080c0001046f72656d0301020000056d61676e6103020b000104696e696d0303050001056f6c6c69740308080000046e6973690304020001026f6e0307060002057374727564030308000104756c6c610306060000086f636361656361740307040001066666696369610308060000087061726961747572030607000107726f6964656e740307070000037175690308050003017303030700000d726570726568656e6465726974030507000003736564030202000103696e7403070300020174030105000103756e7403080200000674656d706f72030205000007756c6c616d636f03030a0001017409020700010200010300000576656c697403050a0002046e69616d0303060001086f6c75707461746503050900');
}

do_execsql_test 15.1 {
  SELECT quote(matchinfo(t1, t1 ))==0 FROM t1 WHERE t1 MATCH 'e*';
} {0 0 0 0 0 0}

#-------------------------------------------------------------------------
reset_db
do_test 16.0 {
  sqlite3 db {}
  db deserialize [decode_hexdb {
| size 28672 pagesize 4096 filename crash-de7e8cb026385a.db
| page 1 offset 0
|      0: 53 51 4c 69 74 65 20 66 6f 72 6d 61 74 20 33 00   SQLite format 3.
|     16: 10 00 01 01 00 40 20 20 00 00 00 00 00 00 00 07   .....@  ........
|     32: 00 00 00 00 00 00 00 00 00 00 00 06 00 00 00 04   ................
|     48: 00 00 00 00 00 00 00 00 00 00 00 01 00 00 00 00   ................
|     96: 00 00 00 00 0d 0e ef 00 07 0d 4d 00 0f bd 0f 5f   ..........M...._
|    112: 0e f7 0e 06 0e bc 0d a4 0d 4d 00 00 00 00 00 00   .........M......
|   3392: 00 00 00 00 00 00 00 00 00 00 00 00 00 55 07 07   .............U..
|   3408: 17 1b 1b 01 81 01 74 61 62 6c 65 74 31 5f 73 74   ......tablet1_st
|   3424: 61 74 74 31 5f 73 74 61 74 07 43 52 45 41 54 45   att1_stat.CREATE
|   3440: 20 54 41 42 4c 45 20 27 74 31 5f 73 74 61 74 27    TABLE 't1_stat'
|   3456: 28 69 64 20 49 af 54 45 47 45 52 20 50 52 49 4d   (id I.TEGER PRIM
|   3472: 41 52 59 20 4b 45 59 2c 20 76 61 6c 75 65 20 42   ARY KEY, value B
|   3488: 4c 4f 42 29 60 06 07 17 21 21 01 81 0b 74 61 62   LOB)`...!!...tab
|   3504: 6c 65 74 31 5f 64 6f 63 73 69 7a 65 74 31 5f 64   let1_docsizet1_d
|   3520: 6f 63 73 69 7a 65 06 43 52 45 41 54 45 20 54 41   ocsize.CREATE TA
|   3536: 42 4c 45 20 27 74 31 5f 64 6f 63 73 69 7a 65 27   BLE 't1_docsize'
|   3552: 28 64 6f 63 69 64 20 49 4e 54 45 47 45 52 20 50   (docid INTEGER P
|   3568: 52 49 4d 41 52 59 20 4b 45 59 2c 20 73 69 7a 65   RIMARY KEY, size
|   3584: 20 42 4c 4f 42 29 81 33 04 07 17 1f 1f 01 82 35    BLOB).3.......5
|   3600: 74 61 62 6c 65 74 31 5f 73 65 67 64 69 72 74 31   tablet1_segdirt1
|   3616: 5f 73 65 67 64 69 72 04 43 52 45 41 54 45 20 54   _segdir.CREATE T
|   3632: 41 42 4c 45 20 27 74 31 5f 73 65 67 64 69 72 27   ABLE 't1_segdir'
|   3648: 28 6c 65 76 65 6c 20 49 4e 54 45 47 45 52 2c 69   (level INTEGER,i
|   3664: 64 78 20 49 4e 54 45 47 45 52 2c 73 74 61 72 74   dx INTEGER,start
|   3680: 5f 62 6c 6f 63 6b 20 49 4e 54 45 47 45 52 2c 6c   _block INTEGER,l
|   3696: 65 61 76 65 73 5f 65 6e 64 5f 62 6c 6f 63 6b 20   eaves_end_block 
|   3712: 49 4e 54 45 47 45 52 2c 65 6e 64 5f 62 6c 6f 63   INTEGER,end_bloc
|   3728: 6b 20 49 4e 54 45 47 45 52 2c 72 6f 6f 74 20 42   k INTEGER,root B
|   3744: 4c 4f 42 2c 50 52 49 4d 41 52 59 20 4b 45 59 28   LOB,PRIMARY KEY(
|   3760: 6c 65 76 65 6c 2c 20 69 64 78 29 29 31 05 06 17   level, idx))1...
|   3776: 45 1f 01 00 69 6e 64 65 78 73 71 6c 69 74 65 5f   E...indexsqlite_
|   3792: 61 75 74 6f 69 6e 64 65 78 5f 74 31 5f 73 65 67   autoindex_t1_seg
|   3808: 64 69 72 5f 31 74 31 5f 73 65 67 64 69 72 05 00   dir_1t1_segdir..
|   3824: 00 00 08 00 00 00 00 66 03 07 17 23 23 01 81 13   .......f...##...
|   3840: 74 61 62 6c 65 74 31 5f 73 65 67 6d 65 6e 74 73   tablet1_segments
|   3856: 74 31 5f 73 65 67 6d 65 6e 74 73 03 43 52 45 41   t1_segments.CREA
|   3872: 54 45 20 54 41 42 4c 45 20 27 74 31 5f 73 65 67   TE TABLE 't1_seg
|   3888: 6d 65 6e 74 73 27 28 62 6c 6f 63 6b 69 64 20 49   ments'(blockid I
|   3904: 4e 54 45 47 45 52 20 50 52 49 4d 41 52 59 20 4b   NTEGER PRIMARY K
|   3920: 45 59 2c 20 62 6c 6f 63 6b 20 42 4c 4f 42 29 5c   EY, block BLOB).
|   3936: 02 07 17 21 21 01 81 03 74 61 62 6c 65 74 31 5f   ...!!...tablet1_
|   3952: 63 6f 6e 74 65 6e 74 74 31 5f 63 6f 6e 74 65 6e   contentt1_conten
|   3968: 74 02 43 52 45 41 54 45 20 54 41 42 4c 45 20 27   t.CREATE TABLE '
|   3984: 74 31 5f 63 6f 6e 74 65 6e 74 27 28 64 6f 63 69   t1_content'(doci
|   4000: 64 20 49 4e 54 45 47 45 52 20 50 52 49 4d 41 52   d INTEGER PRIMAR
|   4016: 59 20 4b 45 59 2c 20 27 63 30 61 27 29 41 01 06   Y KEY, 'c0a')A..
|   4032: 17 11 11 08 71 74 61 62 6c 65 74 31 74 31 43 52   ....qtablet1t1CR
|   4048: 45 41 54 45 20 56 49 52 54 55 41 4c 20 54 41 42   EATE VIRTUAL TAB
|   4064: 4c 45 20 74 31 20 55 53 49 4e 47 20 66 74 73 34   LE t1 USING fts4
|   4080: 28 61 2c 70 72 65 66 69 78 3d 27 31 2c 32 27 29   (a,prefix='1,2')
| page 2 offset 4096
|      0: 0d 00 00 00 08 0e 1f 00 0f c4 0f 7c 0f 34 0f 07   ...........|.4..
|     16: 0e c3 0e 97 0e 63 0e 1f 00 00 00 00 00 00 00 00   .....c..........
|   3600: 00 00 00 00 00 00 00 00 00 00 00 00 00 00 00 42   ...............B
|   3616: 08 04 00 81 09 73 75 6e 74 20 69 6e 20 63 75 6c   .....sunt in cul
|   3632: 70 61 20 71 75 69 20 6f 66 66 69 63 69 61 20 64   pa qui officia d
|   3648: 65 73 65 72 75 6e 74 20 6d 6f 6c 6c 69 74 20 61   eserunt mollit a
|   3664: 6e 69 6d 20 69 64 20 65 73 74 20 6c 61 62 6f 72   nim id est labor
|   3680: 75 6d 2e 32 07 03 00 6b 45 78 63 65 70 74 65 75   um.2...kExcepteu
|   3696: 72 20 73 69 6e 74 20 6f 63 63 61 65 63 61 74 20   r sint occaecat 
|   3712: 63 75 70 69 64 61 74 61 74 20 6e 6f 6e 20 70 72   cupidatat non pr
|   3728: 6f 69 64 65 6e 74 2c 2a 06 03 00 5b 63 69 6c 6c   oident,*...[cill
|   3744: 75 6d 20 64 6f 6c 6f 72 65 20 65 75 20 66 75 67   um dolore eu fug
|   3760: 69 61 74 20 6e 75 6c 6c 61 20 70 61 72 69 61 74   iat nulla pariat
|   3776: 75 72 2e 42 05 04 00 81 09 44 75 69 73 20 61 75   ur.B.....Duis au
|   3792: 74 65 20 69 72 75 72 65 21 64 6f 6c 6f 72 20 69   te irure!dolor i
|   3808: 6e 20 72 65 70 72 65 68 65 6e 64 65 72 69 74 20   n reprehenderit 
|   3824: 69 6e 20 76 6f 6c 75 70 74 61 74 65 20 76 65 6c   in voluptate vel
|   3840: 69 74 20 65 73 74 65 2b 04 03 00 5d 6e 69 73 69   it este+...]nisi
|   3856: 20 75 74 20 61 6c 69 71 75 69 70 20 65 78 20 65    ut aliquip ex e
|   3872: 61 20 63 6f 6d 6d 6f 64 6f 20 63 6f 6e 73 65 71   a commodo conseq
|   3888: 75 61 74 2e 46 03 04 00 81 11 55 74 20 65 6e 69   uat.F.....Ut eni
|   3904: 6d 20 61 64 20 6d 69 6e 69 6d 20 76 65 6e 69 61   m ad minim venia
|   3920: 6d 2c 20 71 75 69 73 20 6e 6f 73 74 72 75 64 20   m, quis nostrud 
|   3936: 65 78 65 72 63 69 74 61 74 69 6f 6e 20 75 6c 6c   exercitation ull
|   3952: 61 6d 63 6f 20 6c 61 62 6f 72 69 73 46 02 04 00   amco laborisF...
|   3968: 81 11 73 65 64 20 64 6f 20 65 69 75 73 6d 6f 64   ..sed do eiusmod
|   3984: 20 74 65 6d 70 6f 72 20 69 6e 63 69 64 69 64 75    tempor incididu
|   4000: 6e 74 20 75 74 20 6c 61 62 6f 72 65 20 65 74 20   nt ut labore et 
|   4016: 64 6f 6c 6f 72 65 20 6d 61 67 6e 61 20 51 6c 69   dolore magna Qli
|   4032: 71 75 61 2e 3a 01 03 00 7b 4c 6f 72 65 6d 20 69   qua.:....Lorem i
|   4048: 70 73 75 6d 20 64 6f 6c 6f 72 20 73 69 74 e5 61   psum dolor sit.a
|   4064: 6d 65 74 2c 20 63 6f 6e 73 65 63 74 65 74 75 72   met, consectetur
|   4080: 20 61 64 69 70 69 73 63 69 6e 67 20 65 6c 69 74    adipiscing elit
| page 3 offset 8192
|      0: 0d 00 00 00 00 10 00 00 00 00 00 00 00 00 00 00   ................
| page 4 offset 12288
|      0: 0d 00 00 00 03 0a a6 00 0d 57 0c 4a 0a a6 00 00   .........W.J....
|   2720: 00 00 00 00 00 00 83 21 03 08 02 08 08 08 17 86   .......!........
|   2736: 30 08 00 30 20 34 30 32 00 02 61 64 06 01 08 00   0..0 402..ad....
|   2752: 02 04 00 01 01 6c 06 02 0c 00 02 04 00 01 01 6d   .....l.........m
|   2768: 03 01 06 00 01 01 6e 03 08 09 00 01 01 75 03 05   ......n......u..
|   2784: 03 00 00 02 63 69 03 06 02 00 01 01 6f 07 01 07   ....ci......o...
|   2800: 00 03 07 03 00 01 01 75 06 07 05 00 01 04 00 00   .......u........
|   2816: 02 64 65 03 08 07 00 01 01 6f 0d 01 04 00 01 03   .de......o......
|   2832: 09 00 03 05 00 01 03 00 01 01 75 03 05 02 00 00   ..........u.....
|   2848: 02 65 61 03 04 06 00 01 01 69 03 02 04 00 01 01   .ea......i......
|   2864: 6c 03 01 09 00 01 01 6e 03 03 03 00 01 01 73 06   l......n......s.
|   2880: 05 0b 00 03 0b 00 01 01 74 03 02 09 00 01 01 75   ........t......u
|   2896: 03 06 04 00 01 01 78 09 03 09 00 01 05 00 03 02   ......x.........
|   2912: 00 00 02 66 75 03 06 05 00 00 02 69 64 03 08 0a   ...fu......id...
|   2928: 00 01 01 6e 0a 02 06 00 03 06 04 00 03 03 00 01   ...n............
|   2944: 01 70 03 01 03 00 01 01 72 03 05 04 00 00 02 6c   .p......r......l
|   2960: 61 09 02 08 00 01 0b 00 05 0c 00 01 01 6f 03 01   a............o..
|   2976: 02 00 00 02 6d 61 03 02 0b 00 01 01 69 03 03 05   ....ma......i...
|   2992: 00 01 01 6f 03 08 08 00 00 02 6e 69 03 04 02 00   ...o......ni....
|   3008: 01 01 6f 06 03 08 00 04 06 00 01 01 75 03 06 06   ..o.........u...
|   3024: 00 00 02 6f 63 03 07 04 00 01 01 66 03 08 06 00   ...oc......f....
|   3040: 00 02 70 61 03 06 07 00 01 01 72 03 07 07 00 00   ..pa......r.....
|   3056: 02 71 75 06 03 07 00 05 05 00 00 02 72 65 03 05   .qu.........re..
|   3072: 07 00 00 02 73 65 03 02 02 00 01 01 69 06 01 05   ....se......i...
|   3088: 00 06 03 00 01 01 75 03 08 02 00 00 02 74 65 03   ......u......te.
|   3104: 02 05 00 00 02 75 6c 03 03 0a 00 01 01 74 09 02   .....ul......t..
|   3120: 07 00 01 02 00 01 03 00 00 02 76 65 06 03 06 00   ..........ve....
|   3136: 02 0a 00 01 01 6f 03 05 09 00 82 0a 02 08 12 08   .....o..........
|   3152: 08 08 17 84 02 04 00 30 20 32 35 31 00 01 61 23   .......0 251..a#
|   3168: 01 06 04 00 01 0c 00 01 04 00 01 04 00 01 03 00   ................
|   3184: 03 09 00 00 01 63 10 01 07 00 03 07 03 00 02 02   .....c..........
|   3200: 00 01 05 00 01 04 00 00 01 64 11 01 04 00 01 03   .........d......
|   3216: 09 00 03 02 05 00 01 13 00 02 07 00 00 01 65 1b   ..............e.
|   3232: 01 09 00 01 04 07 00 01 03 08 00 01 05 03 00 01   ................
|   3248: 0b 00 01 04 00 01 02 00 01 0b 00 00 01 66 03 06   .............f..
|   3264: 05 00 00 01 69 0f 01 03 00 01 06 00 03 04 04 04   ....i...........
|   3280: 00 03 03 09 00 00 01 6c 0c 01 02 00 01 08 00 01   .......l........
|   3296: 0b 00 05 0c 00 10 01 6d 09 02 0b 00 01 05 00 05   .......m........
|   3312: 08 00 00 01 6e 0c 03 08 00 01 02 00 02 06 00 01   ....n...........
|   3328: 06 00 00 01 6f 06 07 04 00 01 06 00 00 01 70 06   ....o.........p.
|   3344: 06 07 00 01 07 00 00 01 71 06 03 07 00 05 05 00   ........q.......
|   3360: 00 01 72 03 05 07 00 00 01 73 0c 01 05 00 01 02   ..r......s......
|   3376: 00 05 03 00 01 02 00 00 01 74 03 02 05 00 00 01   .........t......
|   3392: 75 0a 02 07 00 01 02 0a 00 01 03 00 00 01 76 07   u.............v.
|   3408: 03 06 00 02 09 03 00 85 26 01 08 08 08 08 08 17   ........&.......
|   3424: 8a 3e 30 20 36 36 35 00 02 61 64 03 03 04 00 02   .>0 665..ad.....
|   3440: 08 69 70 69 73 63 69 6e 67 03 01 08 00 01 05 6c   .ipiscing......l
|   3456: 69 71 75 61 03 02 0c 00 05 02 69 70 03 04 04 00   iqua......ip....
|   3472: 01 03 6d 65 74 03 01 06 00 01 03 6e 69 6d 03 08   ..met......nim..
|   3488: 09 00 01 03 75 74 65 03 05 03 00 00 06 63 69 6c   ....ute......cil
|   3504: 6c 75 6d 03 06 02 00 01 06 6f 6d 6d 6f 64 6f 03   lum......ommodo.
|   3520: 04 07 00 02 09 6e 73 65 63 74 65 74 75 72 03 01   .....nsectetur..
|   3536: 07 00 05 04 71 75 61 74 03 04 08 00 01 04 75 6c   ....quat......ul
|   3552: 70 61 03 08 04 00 02 07 70 69 64 61 74 61 74 03   pa......pidatat.
|   3568: 07 05 00 00 08 64 65 73 65 72 75 6e 74 03 08 07   .....deserunt...
|   3584: 00 01 01 6f 03 02 03 00 02 03 6c 6f 72 06 01 04   ...o......lor...
|   3600: 00 04 05 00 05 01 65 06 02 0a 00 04 03 00 01 03   ......e.........
|   3616: 75 69 73 03 05 02 00 00 02 65 61 03 04 06 00 01   uis......ea.....
|   3632: 06 69 75 73 6d 6f 64 03 02 04 00 01 03 6c 69 74   .iusmod......lit
|   3648: 03 01 09 00 01 03 6e 69 6d 03 03 03 00 01 03 73   ......nim......s
|   3664: 73 65 03 05 0b 00 02 01 74 03 08 0b 00 01 01 74   se......t......t
|   3680: 03 02 09 00 01 01 75 03 06 04 00 01 01 78 03 04   ......u......x..
|   3696: 05 00 02 07 63 65 70 74 65 75 72 03 07 02 00 02   ....cepteur.....
|   3712: 0a 65 72 63 69 74 61 74 69 6f 6e 03 03 09 00 00   .ercitation.....
|   3728: 06 66 75 67 69 61 74 03 06 05 00 00 02 69 64 03   .fugiat......id.
|   3744: 08 0a 00 01 01 6e 07 05 06 04 00 03 03 00 02 08   .....n..........
|   3760: 63 69 64 69 64 75 7e 74 03 02 06 00 01 04 70 73   cididu~t......ps
|   3776: 75 6d 03 01 03 00 01 03 72 75 72 65 03 05 04 00   um......rure....
|   3792: 00 06 6c 61 62 6f 72 65 03 02 08 00 05 02 69 73   ..labore......is
|   3808: 03 03 0b 00 05 02 75 6d 03 08 0c 00 01 04 6f 72   ......um......or
|   3824: 65 6d 03 01 02 00 00 05 6d 61 67 6e 61 03 02 0b   em......magna...
|   3840: 00 01 04 69 6e 69 6d 03 03 05 00 01 05 6f 6c 6c   ...inim......oll
|   3856: 69 74 03 08 08 00 00 04 6e 69 73 69 03 04 02 00   it......nisi....
|   3872: 01 02 6f 6e 03 07 06 00 02 05 73 74 72 75 64 03   ..on......strud.
|   3888: 03 08 00 01 04 75 6c 6c 61 03 06 06 00 00 08 6f   .....ulla......o
|   3904: 63 63 61 65 63 61 74 03 07 04 00 01 06 66 66 69   ccaecat......ffi
|   3920: 63 69 61 03 08 06 00 00 08 70 61 72 69 61 74 75   cia......pariatu
|   3936: 72 03 06 07 00 01 07 72 6f 69 64 65 6e 74 03 07   r......roident..
|   3952: 07 00 00 03 71 75 69 03 08 05 00 03 01 73 03 03   ....qui......s..
|   3968: 07 00 00 0d 72 65 70 72 65 68 65 6e 64 65 72 69   ....reprehenderi
|   3984: 74 03 05 07 00 00 03 73 65 64 03 02 02 00 01 03   t......sed......
|   4000: 69 6e 74 03 07 03 00 02 01 74 03 01 05 00 01 03   int......t......
|   4016: 75 6e 74 03 08 02 00 00 06 74 65 6d 70 6f 72 03   unt......tempor.
|   4032: 02 05 00 00 07 75 6c 6c 61 6d 63 6f 03 03 0a 00   .....ullamco....
|   4048: 01 01 74 09 02 07 00 01 02 00 01 03 00 00 05 76   ..t............v
|   4064: 65 6c 69 74 03 05 0a 00 02 04 6e 69 61 6d 03 03   elit......niam..
|   4080: 06 00 01 08 6f 6c 75 70 74 61 74 65 03 05 09 00   ....oluptate....
| page 5 offset 16384
|      0: 0a 00 00 00 03 0f eb 00 0f fb 0f f3 0f eb 00 00   ................
|   4064: 00 00 00 00 00 00 00 00 00 00 00 07 04 02 08 01   ................
|   4080: 08 00 03 07 04 02 08 03 a4 00 02 04 04 08 08 09   ................
| page 6 offset 20480
|      0: 0d 00 00 00 08 0f d0 00 0f fa 0f f4 0f ee 0f e8   ................
|     16: 0f e2 0f dc 0f d6 0f d0 00 00 00 00 00 00 00 00   ................
|   4048: 04 08 03 00 0e 0b 04 07 03 00 0e 06 04 06 03 00   ................
|   4064: 0e 06 04 05 03 00 0e 0a 04 04 03 00 0e 07 04 03   ................
|   4080: 03 00 0e 0a 04 02 03 00 0e 0b 04 01 03 00 0e 08   ................
| page 7 offset 24576
|      0: 0d 00 00 00 01 0f f7 00 0f f7 00 00 00 00 00 00   ................
|   4080: 00 00 00 00 00 00 00 07 00 03 00 14 08 45 b5 03   .............E..
| end crash-de7e8cb026385a.db
}]} {}

do_catchsql_test 16.1 {
  INSERT INTO t1(t1) VALUES('optimize');
} {0 {}}

#-------------------------------------------------------------------------
reset_db
do_test 17.0 {
  sqlite3 db {}
  db deserialize [decode_hexdb {
.open --hexdb
| size 28672 pagesize 4096 filename crash-f15972acf5bc1c.db
| page 1 offset 0
|      0: 53 51 4c 69 74 65 20 66 6f 72 6d 61 74 20 33 00   SQLite format 3.
|     16: 10 00 01 01 00 40 20 20 00 00 00 00 00 00 00 07   .....@  ........
|     32: 00 00 00 02 00 00 00 01 00 00 00 07 00 00 00 04   ................
|     48: 00 00 00 00 00 00 00 00 00 00 00 01 00 00 00 00   ................
|     96: 00 00 00 00 0d 0e b1 00 06 0d a4 00 0f 8d 0f 21   ...............!
|    112: 0e b9 0d c8 0e 7e 0d a4 0d a4 00 00 00 00 00 00   .....~..........
|   3488: 00 00 00 00 22 07 06 17 11 11 01 31 74 61 62 6c   ...........1tabl
|   3504: 65 74 32 74 32 07 43 52 45 41 54 45 20 54 41 42   et2t2.CREATE TAB
|   3520: 4c 45 20 74 32 28 78 29 81 33 05 07 17 1f 1f 01   LE t2(x).3......
|   3536: 82 35 74 61 62 6c 65 74 31 5f 73 65 67 64 69 72   .5tablet1_segdir
|   3552: 74 31 5f 73 65 67 64 69 72 05 43 52 45 41 54 45   t1_segdir.CREATE
|   3568: 20 54 41 42 4c 45 20 27 74 31 5f 73 65 67 64 69    TABLE 't1_segdi
|   3584: 72 27 28 6c 65 76 65 6c 20 49 4e 54 45 47 45 52   r'(level INTEGER
|   3600: 2c 69 64 78 20 49 4e 54 45 47 45 52 2c 73 74 61   ,idx INTEGER,sta
|   3616: 72 74 5f 62 6c 6f 63 6b 20 49 4e 54 45 47 45 52   rt_block INTEGER
|   3632: 2c 6c 65 61 76 65 73 5f 65 6e 64 5f 62 6c 6f 63   ,leaves_end_bloc
|   3648: 6b 20 49 4e 54 45 47 45 52 2c 65 6e 64 5f 62 6c   k INTEGER,end_bl
|   3664: 6f 63 6b 20 49 4e 54 45 47 45 52 2c 72 6f 6f 74   ock INTEGER,root
|   3680: 20 42 4c 4f 42 2c 50 52 49 4d 41 52 59 20 4b 45    BLOB,PRIMARY KE
|   3696: 59 28 6c 65 76 65 6c 2c 20 69 64 78 29 29 31 06   Y(level, idx))1.
|   3712: 06 17 45 1f 01 00 69 6e 64 65 78 73 71 6c 69 74   ..E...indexsqlit
|   3728: 65 5f 61 75 74 6f 69 6e 64 65 78 5f 74 31 5f 73   e_autoindex_t1_s
|   3744: 65 67 64 69 72 5f 31 74 31 5f 73 65 67 64 69 72   egdir_1t1_segdir
|   3760: 06 0f c7 00 08 00 00 00 00 66 04 07 17 23 23 01   .........f...##.
|   3776: 81 13 74 61 62 6c 65 74 31 5f 73 65 67 6d 65 6e   ..tablet1_segmen
|   3792: 74 73 74 31 5f 73 65 67 6d 65 6e 74 73 04 43 52   tst1_segments.CR
|   3808: 45 41 54 45 20 54 41 42 4c 45 20 27 74 31 5f 73   EATE TABLE 't1_s
|   3824: 65 67 6d 65 6e 74 73 27 28 62 6c 6f 63 6b 69 64   egments'(blockid
|   3840: 20 49 4e 54 45 47 45 52 20 50 52 49 4d 41 52 59    INTEGER PRIMARY
|   3856: 20 4b 45 59 2c 20 62 6c 6f 63 6b 20 42 4c 4f 42    KEY, block BLOB
|   3872: 29 6a 03 07 17 21 21 01 81 1f 74 61 62 6c 65 74   )j...!!...tablet
|   3888: 31 5f 63 6f 6e 74 65 6e 74 74 31 5f 63 6f 6e 74   1_contentt1_cont
|   3904: 65 6e 74 03 43 52 45 41 54 45 20 54 41 42 4c 45   ent.CREATE TABLE
|   3920: 20 27 74 31 5f 63 6f 6e 74 65 6e 74 27 28 64 6f    't1_content'(do
|   3936: 63 69 64 20 49 4e 54 45 47 45 52 20 50 52 49 4d   cid INTEGER PRIM
|   3952: 41 52 59 20 4b 45 59 2c 20 27 63 30 61 27 2c 20   ARY KEY, 'c0a', 
|   3968: 27 63 31 62 27 2c 20 27 63 32 63 27 29 38 02 06   'c1b', 'c2c')8..
|   3984: 17 11 11 08 5f 74 61 62 6c 65 74 31 74 31 43 52   ...._tablet1t1CR
|   4000: 45 41 54 45 20 56 49 52 54 55 41 4c 20 54 41 42   EATE VIRTUAL TAB
|   4016: 4c 45 20 74 31 20 55 53 49 4e 47 20 66 74 73 33   LE t1 USING fts3
|   4032: 28 61 2c 62 2c 63 29 00 00 00 39 00 00 00 00 00   (a,b,c)...9.....
| page 3 offset 8192
|      0: 0d 00 00 00 25 0b 48 00 0f d8 0f af 0f 86 0f 74   ....%.H........t
|     16: 0f 61 0f 4e 0f 2f 0f 0f 0e ef 0e d7 0e be 0e a5   .a.N./..........
|     32: 0e 8d 0e 74 0e 5b 0e 40 0e 24 0e 08 0d ef 0d d5   ...t.[.@.$......
|     48: 0d bb 0d a0 0d 84 03 28 0d 4f 0d 35 0d 1b 0c fb   .......(.O.5....
|     64: 0c da 0c b9 0c 99 0c 78 0c 57 0c 3e 0c 24 0c 0a   .......x.W.>.$..
|     80: 0b 48 00 00 00 00 00 00 00 00 00 00 00 00 00 00   .H..............
|   2880: 00 00 00 00 00 00 00 00 81 3f 25 06 00 72 7f 00   .........?%..r..
|   2896: 00 43 4f 4d 50 49 4c 45 52 3d 67 63 63 2d 35 2e   .COMPILER=gcc-5.
|   2912: 34 2e 30 20 32 30 31 36 30 36 30 39 20 44 45 42   4.0 20160609 DEB
|   2928: 55 47 20 45 4e 41 42 4c 45 20 44 42 53 54 41 54   UG ENABLE DBSTAT
|   2944: 20 56 54 41 42 20 45 4e 41 42 4c 45 20 46 54 53    VTAB ENABLE FTS
|   2960: 34 20 45 4e 41 42 4c 45 20 46 54 53 35 20 45 4e   4 ENABLE FTS5 EN
|   2976: 41 42 4c 45 20 47 45 4f 50 4f 4c 59 20 45 4e 41   ABLE GEOPOLY ENA
|   2992: 42 4c 45 20 4a 53 4f 4e 31 20 45 4e 41 42 4c 45   BLE JSON1 ENABLE
|   3008: 20 4d 45 4d 53 59 53 35 20 45 4e 41 42 4c 45 20    MEMSYS5 ENABLE 
|   3024: 52 54 52 45 45 20 4d 41 58 20 4d 45 4d 4f 52 59   RTREE MAX MEMORY
|   3040: 3d 35 30 30 30 30 30 30 30 20 4f 4d 49 54 20 4c   =50000000 OMIT L
|   3056: 4f 41 43 20 45 58 54 45 4e 53 49 4f 4e 20 54 48   OAC EXTENSION TH
|   3072: 52 45 41 44 53 41 46 45 3d 30 18 24 05 00 25 0f   READSAFE=0.$..%.
|   3088: 19 54 48 52 45 41 44 53 41 46 45 3d 30 58 42 49   .THREADSAFE=0XBI
|   3104: 4e 41 52 59 18 23 05 00 25 0f 19 54 48 52 45 41   NARY.#..%..THREA
|   3120: 44 53 41 46 45 3d 30 58 4e 4f 43 41 53 45 17 22   DSAFE=0XNOCASE..
|   3136: 05 00 25 0f 17 54 48 52 45 41 44 53 41 46 45 3d   ..%..THREADSAFE=
|   3152: 30 58 52 54 52 49 4d 1f 21 05 00 33 0f 19 4f 4d   0XRTRIM.!..3..OM
|   3168: 49 54 20 4c 4f 41 44 20 45 58 54 45 4e 53 49 4f   IT LOAD EXTENSIO
|   3184: 4e 58 42 49 4e 41 52 59 1f 20 05 00 33 0f 19 4f   NXBINARY. ..3..O
|   3200: 4d 49 54 20 4c 4f 41 44 20 45 58 54 45 4e 53 49   MIT LOAD EXTENSI
|   3216: 4f 4e 58 4e 4f 43 41 53 45 1e 1f 05 00 33 0f 17   ONXNOCASE....3..
|   3232: 4f 4d 49 54 20 4c 4f 41 44 20 45 58 54 45 4e 53   OMIT LOAD EXTENS
|   3248: 49 4f 4e 58 52 54 52 49 4d 1f 1e 05 00 33 0f 19   IONXRTRIM....3..
|   3264: 4d 41 58 20 4d 45 4d 4f 52 59 3d 35 30 30 30 30   MAX MEMORY=50000
|   3280: 30 30 30 58 42 49 4e 41 52 59 1f 1d 05 00 33 0f   000XBINARY....3.
|   3296: 19 4d 41 58 20 4d 45 4d 4f 52 59 3d 35 30 30 30   .MAX MEMORY=5000
|   3312: 30 30 30 30 58 4e 4f 43 41 53 45 1e 1c 05 00 33   0000XNOCASE....3
|   3328: 0f 17 4d 41 58 20 4d 45 4d 4f 52 59 3d 35 30 30   ..MAX MEMORY=500
|   3344: 30 30 30 30 30 58 52 54 52 49 4d 18 1b 05 00 25   00000XRTRIM....%
|   3360: 0f 19 45 4e 41 42 4c 45 20 52 54 52 45 45 58 42   ..ENABLE RTREEXB
|   3376: 49 4e 41 52 59 18 1a 05 00 25 0f 19 45 4e 41 42   INARY....%..ENAB
|   3392: 4c 45 20 52 54 52 45 45 58 4e 4f 43 41 53 45 17   LE RTREEXNOCASE.
|   3408: 19 05 00 25 0f 17 45 4e 41 42 4c 45 20 52 54 52   ...%..ENABLE RTR
|   3424: 45 45 58 52 54 52 49 4d 1a 18 05 00 29 0f 19 45   EEXRTRIM....)..E
|   3440: 4e 41 42 4c 45 20 4d 45 4d 53 59 53 35 58 42 49   NABLE MEMSYS5XBI
|   3456: 4e 41 52 59 1a 17 05 00 29 0f 19 45 4e 41 42 4c   NARY....)..ENABL
|   3472: 45 20 4d 45 4d 53 59 53 35 58 4e 4f 43 41 53 45   E MEMSYS5XNOCASE
|   3488: 19 16 05 00 29 0f 17 45 4e 41 42 4c 45 20 4d 45   ....)..ENABLE ME
|   3504: 4d 53 59 53 35 58 52 54 52 49 4d 18 14 05 00 25   MSYS5XRTRIM....%
|   3520: 0f 19 45 4e 41 42 4c 45 20 4a 53 4f 4e 31 58 42   ..ENABLE JSON1XB
|   3536: 49 4e 41 52 59 18 14 05 00 25 0f 19 45 4e 41 42   INARY....%..ENAB
|   3552: 4c 45 20 4a 53 4f 4e 31 58 4e 4f 43 41 53 45 17   LE JSON1XNOCASE.
|   3568: 13 05 00 25 0f 17 45 4e 41 42 4c 45 20 4a 53 4f   ...%..ENABLE JSO
|   3584: 4e 31 58 52 54 52 49 4d 1a 12 05 00 29 0f 19 45   N1XRTRIM....)..E
|   3600: 4e 41 42 4c 45 20 47 45 4f 50 4f 4c 59 58 42 49   NABLE GEOPOLYXBI
|   3616: 4e 41 52 59 1a 11 05 00 29 0f 19 45 4e 41 42 4c   NARY....)..ENABL
|   3632: 45 20 47 45 4f 50 4f 4c 59 58 4e 4f 43 41 53 45   E GEOPOLYXNOCASE
|   3648: 19 10 05 00 29 0f 17 45 4e 41 42 4c 45 20 47 45   ....)..ENABLE GE
|   3664: 4f 50 4f 4c 59 58 52 54 52 49 4d 17 0f 05 00 23   OPOLYXRTRIM....#
|   3680: 0f 19 45 4e 41 42 4c 45 20 46 54 53 35 58 42 49   ..ENABLE FTS5XBI
|   3696: 4e 41 52 59 17 0e 05 00 23 0f 19 45 4e 41 42 4c   NARY....#..ENABL
|   3712: 45 20 46 54 53 35 58 4e 4f 43 41 53 45 16 0d 05   E FTS5XNOCASE...
|   3728: 00 23 0f 17 45 4e 41 42 4c 45 20 46 54 53 35 58   .#..ENABLE FTS5X
|   3744: 52 54 52 49 4d 17 0c 05 00 23 0f 19 45 4e 41 42   RTRIM....#..ENAB
|   3760: 4c 45 20 46 54 53 34 58 42 49 4e 41 52 59 17 0b   LE FTS4XBINARY..
|   3776: 05 00 23 0f 19 45 4e 41 42 4c 45 20 46 54 53 34   ..#..ENABLE FTS4
|   3792: 58 4e 4f 43 41 53 45 16 0a 05 00 23 0f 17 45 4e   XNOCASE....#..EN
|   3808: 41 42 4c 45 20 46 54 53 34 58 52 54 52 49 4d 1e   ABLE FTS4XRTRIM.
|   3824: 09 05 00 31 0f 19 45 4e 41 42 4c 45 20 44 42 53   ...1..ENABLE DBS
|   3840: 54 41 54 20 56 54 41 42 58 42 49 4e 41 52 59 1e   TAT VTABXBINARY.
|   3856: 08 05 00 31 0f 19 45 4e 41 42 4c 45 20 44 42 53   ...1..ENABLE DBS
|   3872: 54 41 54 20 56 54 41 42 58 4e 4f 43 41 53 45 1d   TAT VTABXNOCASE.
|   3888: 07 05 00 31 0f 17 45 4e 41 42 4c 45 20 44 42 53   ...1..ENABLE DBS
|   3904: 54 41 54 20 56 54 41 42 58 52 54 52 49 4d 11 06   TAT VTABXRTRIM..
|   3920: 05 00 17 0f 19 44 45 42 55 47 58 42 49 4e 41 52   .....DEBUGXBINAR
|   3936: 59 11 05 05 00 17 0e 19 44 45 42 55 47 58 4e 4f   Y.......DEBUGXNO
|   3952: 43 41 53 45 10 04 05 00 17 0f 17 44 45 42 55 47   CASE.......DEBUG
|   3968: 58 52 54 52 49 4d 27 03 05 00 43 0f 19 43 4f 4d   XRTRIM'...C..COM
|   3984: 50 49 4c 45 52 3d 67 63 63 2d 35 2e 34 2e 30 20   PILER=gcc-5.4.0 
|   4000: 32 30 31 36 30 36 30 39 58 42 49 4e 41 52 59 27   20160609XBINARY'
|   4016: 02 05 00 43 0f 19 43 4f 4d 50 49 4c 45 52 3d 67   ...C..COMPILER=g
|   4032: 63 63 2d 35 2e 34 2e 30 20 32 30 31 36 30 36 30   cc-5.4.0 2016060
|   4048: 39 58 4e 4f 43 41 53 45 26 01 05 00 43 0f 17 43   9XNOCASE&...C..C
|   4064: 4f 4d 50 49 4c 45 52 3d 67 63 63 2d 35 2e 34 2e   OMPILER=gcc-5.4.
|   4080: 30 20 32 30 31 36 30 36 30 39 58 52 54 52 49 4d   0 20160609XRTRIM
| page 4 offset 12288
|      0: 0d 00 00 00 00 10 00 00 00 00 00 00 00 00 00 00   ................
| page 5 offset 16384
|      0: 0d 00 00 00 02 0b a0 00 0c ad 0b a0 00 00 00 00   ................
|   2976: 82 0a 02 08 08 09 08 08 17 84 06 30 20 32 35 33   ...........0 253
|   2992: 00 01 30 04 25 06 1b 00 00 08 32 30 31 36 30 36   ..0.%.....201606
|   3008: 30 39 03 25 07 00 00 01 34 03 25 05 00 00 01 35   09.%....4.%....5
|   3024: 03 25 04 00 01 07 30 30 30 30 30 30 30 03 25 1a   .%....0000000.%.
|   3040: 00 00 08 63 6f 6d 70 69 6c 65 72 03 25 02 00 00   ...compiler.%...
|   3056: 06 64 62 73 74 61 74 03 25 0a 00 01 04 65 62 75   .dbstat.%....ebu
|   3072: 67 03 25 08 00 00 06 65 6e 61 62 6c 65 09 25 09   g.%....enable.%.
|   3088: 05 04 04 04 04 04 00 01 08 78 74 65 6e 73 69 6f   .........xtensio
|   3104: 6e 03 25 1d 00 00 04 66 74 73 34 03 25 0d 00 03   n.%....fts4.%...
|   3120: 01 35 03 25 0f 00 00 03 67 63 63 03 25 03 00 01   .5.%....gcc.%...
|   3136: 06 65 6f 70 6f 6c 79 03 25 11 00 00 05 6a 73 6f   .eopoly.%....jso
|   3152: 6e 31 03 25 13 00 00 04 6c 6f 61 64 03 25 1c 00   n1.%....load.%..
|   3168: 00 03 6d 61 78 03 25 18 00 01 05 65 6d 6f 72 79   ..max.%....emory
|   3184: 03 25 19 00 03 04 73 79 73 4d 03 25 15 00 00 04   .%....sysM.%....
|   3200: 6f 6d 69 74 03 25 1b 00 00 05 72 74 72 65 65 03   omit.%....rtree.
|   3216: 25 17 00 00 0a 74 68 72 65 61 64 73 61 66 65 03   %....threadsafe.
|   3232: 25 0e 00 00 04 76 74 61 62 03 25 0b 00 86 50 01   %....vtab.%...P.
|   3248: 08 08 08 08 08 17 8d 12 30 20 38 33 35 00 01 30   ........0 835..0
|   3264: 12 01 06 00 01 06 00 01 06 00 1f 03 00 01 03 00   ................
|   3280: 01 03 00 00 08 32 30 31 36 30 36 30 39 09 01 07   .....20160609...
|   3296: 00 01 07 00 01 07 00 00 01 34 09 01 05 00 01 05   .........4......
|   3312: 00 01 05 00 00 01 35 09 01 04 00 01 04 00 01 04   ......5.........
|   3328: 00 01 07 30 30 30 30 30 30 30 09 1c 04 00 01 04   ...0000000......
|   3344: 00 01 04 00 00 06 62 69 6e 61 72 79 3c 03 01 02   ......binary<...
|   3360: 02 00 03 01 02 02 00 03 01 02 02 00 03 01 02 02   ................
|   3376: 00 03 01 02 02 00 03 01 02 02 00 03 01 02 02 00   ................
|   3392: 03 01 02 02 00 03 01 02 02 00 03 01 02 02 00 03   ................
|   3408: 01 02 02 00 03 01 02 02 00 00 08 63 6f 6d 70 69   ...........compi
|   3424: 6c 65 72 09 01 02 00 01 02 00 01 02 00 00 06 64   ler............d
|   3440: 62 73 74 61 74 09 07 03 00 01 03 00 01 03 00 01   bstat...........
|   3456: 04 65 62 75 67 09 04 02 00 01 02 00 01 02 00 00   .ebug...........
|   3472: 06 65 6e 61 62 6c 65 3f 07 02 00 01 02 00 01 02   .enable?........
|   3488: 00 01 02 00 01 02 00 01 02 00 01 02 00 01 02 00   ................
|   3504: 01 02 00 01 02 00 01 02 00 01 02 00 01 02 00 01   ................
|   3520: 02 00 01 02 00 01 02 00 01 02 00 01 02 00 01 02   ................
|   3536: 00 01 02 00 01 02 00 01 08 78 74 65 6e 73 69 6f   .........xtensio
|   3552: 6e 09 1f 04 00 01 04 00 01 04 00 00 04 66 74 73   n............fts
|   3568: 34 09 0a 03 00 01 03 00 01 03 00 03 01 35 09 0d   4............5..
|   3584: 03 00 01 03 00 01 03 00 00 03 67 63 63 09 01 03   ..........gcc...
|   3600: 00 01 03 00 01 03 00 01 06 65 6f 70 6f 6c 79 09   .........eopoly.
|   3616: 10 03 00 01 03 00 01 03 00 00 05 6a 73 6f 6e 31   ...........json1
|   3632: 09 13 03 00 01 03 00 01 03 00 00 04 6c 6f 61 64   ............load
|   3648: 09 1f 03 00 01 03 00 01 03 00 00 03 6d 61 78 09   ............max.
|   3664: 1c 02 00 01 02 00 01 02 00 01 05 65 6d 6f 72 79   ...........emory
|   3680: 09 1c 03 00 01 03 00 01 03 00 03 04 73 79 73 35   ............sys5
|   3696: 09 16 03 00 01 03 00 01 03 00 00 06 6e 6f 63 61   ............noca
|   3712: 73 65 3c 02 01 02 02 00 03 01 02 02 00 03 01 02   se<.............
|   3728: 02 00 03 01 02 02 00 03 01 02 02 00 03 01 02 02   ................
|   3744: 00 03 01 02 02 00 03 01 02 02 00 03 01 02 02 00   ................
|   3760: 03 01 02 02 00 03 01 02 02 00 03 01 02 02 00 00   ................
|   3776: 04 6f 6d 69 74 09 1f 02 00 01 02 00 01 02 00 00   .omit...........
|   3792: 05 72 74 72 65 65 09 19 03 00 01 03 00 01 03 00   .rtree..........
|   3808: 03 02 69 6d 3c 01 01 02 02 00 03 01 02 02 00 03   ..im<...........
|   3824: 01 02 02 00 03 01 02 02 00 03 01 02 02 00 03 01   ................
|   3840: 02 02 00 03 01 02 02 00 03 01 02 02 00 03 01 02   ................
|   3856: 02 00 03 01 02 02 00 03 01 02 02 00 03 01 02 02   ................
|   3872: 00 00 0a 74 68 72 65 61 64 73 61 66 65 09 22 02   ...threadsafe...
|   3888: 00 01 02 00 01 02 00 00 04 76 74 61 62 09 07 04   .........vtab...
|   3904: 00 01 04 00 01 04 00 00 01 78 b4 01 01 01 01 02   .........x......
|   3920: 00 01 01 01 02 00 01 01 01 02 00 01 01 01 02 00   ................
|   3936: 01 01 01 02 00 01 01 01 02 00 01 01 01 02 00 01   ................
|   3952: 01 01 02 00 01 01 01 02 00 01 01 01 02 00 01 01   ................
|   3968: 01 02 00 01 01 01 02 00 01 01 01 02 00 01 01 01   ................
|   3984: 02 00 01 01 01 02 00 01 01 01 02 00 01 01 01 02   ................
|   4000: 00 01 01 01 02 00 01 01 01 02 00 01 01 01 02 00   ................
|   4016: 01 01 01 02 00 01 01 01 02 00 01 01 01 02 00 01   ................
|   4032: 01 01 02 00 01 01 01 02 00 01 01 01 02 00 01 01   ................
|   4048: 01 02 00 01 01 01 02 00 01 01 01 02 00 01 01 01   ................
|   4064: 02 00 01 01 01 02 00 01 01 01 02 00 01 01 01 02   ................
|   4080: 00 01 01 01 02 00 01 01 01 02 00 01 01 01 02 00   ................
| page 6 offset 20480
|      0: 0a 00 00 00 02 0f f5 00 0f fb 0f f5 00 00 00 00   ................
|   4080: 00 00 00 00 00 05 04 08 09 01 02 04 04 08 08 09   ................
| page 7 offset 24576
|      0: 0d 00 00 00 05 0f b8 00 0f f4 0f e9 10 d6 0f c7   ................
|     16: 0f b8 00 00 00 00 00 00 00 00 00 00 00 00 00 00   ................
|   4016: 00 00 00 00 00 00 00 00 0d 05 02 23 61 75 74 6f   ...........#auto
|   4032: 6d 65 72 67 65 3d 35 0d 04 02 23 6d 65 72 67 65   merge=5...#merge
|   4048: 3d 31 30 30 2c 38 11 03 02 2b 69 6e 74 65 67 72   =100,8...+integr
|   4064: 69 74 79 2d 63 68 65 63 6b 09 02 02 1b 72 65 62   ity-check....reb
|   4080: 75 69 6c 64 0a 01 02 1d 6f 70 74 69 6d 69 7a 65   uild....optimize
| end crash-f15972acf5bc1c.db
}]} {}

do_execsql_test 17.1 {
  BEGIN;
    INSERT INTO t1(t1) SELECT x FROM t2;
    UPDATE t1 SET b=quote(zeroblob(200)) WHERE a MATCH 'thread*';
}

do_execsql_test 17.2 {
  INSERT INTO t1(t1) VALUES('optimize');
}

do_catchsql_test 17.3 {
  DROP TABLE IF EXISTS t1;
} {0 {}}

#-------------------------------------------------------------------------
reset_db
do_test 18.0 {
  sqlite3 db {}
  db deserialize [decode_hexdb {
| size 32768 pagesize 4096 filename crash-4ce32d0608aff1.db
| page 1 offset 0
|      0: 53 51 4c 69 74 65 20 66 6f 72 6d 61 74 20 33 00   SQLite format 3.
|     16: 10 00 01 01 00 40 20 20 00 00 00 00 00 00 00 07   .....@  ........
|     32: 00 00 00 02 00 00 00 01 00 00 00 07 00 00 00 04   ................
|     48: 00 00 00 00 00 00 00 07 00 00 00 01 00 00 00 00   ................
|     96: 00 00 00 00 0d 0e b1 00 06 0d a4 00 0f 8d 0f 21   ...............!
|    112: 0e b9 0d c8 0e 7e 0d a4 0d a4 00 00 00 00 00 00   .....~..........
|   3488: 00 00 00 00 22 07 06 17 11 11 01 31 74 61 62 6c   ...........1tabl
|   3504: 65 74 32 74 32 07 43 52 45 41 54 45 20 54 41 42   et2t2.CREATE TAB
|   3520: 4c 45 20 74 32 28 78 29 81 33 05 07 17 1f 1f 01   LE t2(x).3......
|   3536: 82 35 74 61 62 6c 65 74 31 5f 73 65 67 64 69 72   .5tablet1_segdir
|   3552: 74 31 5f 73 65 67 64 69 72 05 43 52 45 41 54 45   t1_segdir.CREATE
|   3568: 20 54 41 42 4c 45 20 27 74 31 5f 73 65 67 64 69    TABLE 't1_segdi
|   3584: 72 27 28 6c 65 76 65 6c 20 49 4e 54 45 47 45 52   r'(level INTEGER
|   3600: 2c 69 64 78 20 49 4e 54 45 47 45 52 2c 73 74 61   ,idx INTEGER,sta
|   3616: 72 74 5f 62 6c 6f 63 6b 20 49 4e 54 45 47 45 52   rt_block INTEGER
|   3632: 2c 6c 65 61 76 65 73 5f 65 6e 64 5f 62 6c 6f 63   ,leaves_end_bloc
|   3648: 6b 20 49 4e 54 45 47 45 52 2c 65 6e 64 5f 62 6c   k INTEGER,end_bl
|   3664: 6f 63 6b 20 49 4e 54 45 47 45 62 2c 72 6f 6f 74   ock INTEGEb,root
|   3680: 20 42 4c 4f 42 2c 50 52 49 4d 41 52 59 20 4b 45    BLOB,PRIMARY KE
|   3696: 59 28 6c 65 76 65 6c 2c 20 69 64 78 29 29 31 06   Y(level, idx))1.
|   3712: 06 17 45 1f 01 00 69 6e 64 65 78 73 71 6c 69 74   ..E...indexsqlit
|   3728: 65 5f 61 75 74 6f 69 6e 64 65 78 5f 74 31 5f 73   e_autoindex_t1_s
|   3744: 65 67 64 69 72 5f 31 74 31 5f 73 65 67 64 69 72   egdir_1t1_segdir
|   3760: 06 0f c7 00 08 00 00 00 00 66 04 07 17 23 23 01   .........f...##.
|   3776: 81 13 74 61 62 6c 65 74 31 5f 73 65 67 6d 65 6e   ..tablet1_segmen
|   3792: 74 73 74 31 5f 73 65 67 6d 65 6e 74 73 04 43 52   tst1_segments.CR
|   3808: 45 41 54 45 20 54 41 42 4c 45 20 27 74 31 5f 73   EATE TABLE 't1_s
|   3824: 65 67 6d 65 6e 74 73 27 28 62 6c 6f 63 6b 69 64   egments'(blockid
|   3840: 20 49 4e 54 45 47 45 52 20 50 52 49 4d 41 52 59    INTEGER PRIMARY
|   3856: 20 4b 45 59 2c 20 62 6c 6f 63 6b 20 42 4c 4f 42    KEY, block BLOB
|   3872: 29 6a 03 07 17 21 21 01 81 1f 74 61 62 6c 65 74   )j...!!...tablet
|   3888: 31 5f 63 6f 6e 74 65 6e 74 74 31 5f 63 6f 6e 74   1_contentt1_cont
|   3904: 65 6e 74 03 43 52 45 41 54 45 20 54 41 42 4c 45   ent.CREATE TABLE
|   3920: 20 27 74 31 5f 63 6f 6e 74 65 6e 74 27 28 64 6f    't1_content'(do
|   3936: 63 69 64 20 49 4e 54 45 47 45 52 20 50 52 49 4d   cid INTEGER PRIM
|   3952: 41 52 59 20 4b 45 59 2c 20 27 63 30 61 27 2c 20   ARY KEY, 'c0a', 
|   3968: 27 63 31 62 27 2c 20 27 63 32 63 27 29 38 02 06   'c1b', 'c2c')8..
|   3984: 17 11 11 08 5f 74 61 62 6c 65 74 31 74 31 43 52   ...._tablet1t1CR
|   4000: 45 41 54 45 20 56 49 52 54 55 41 4c 20 54 41 42   EATE VIRTUAL TAB
|   4016: 4c 45 20 74 31 20 55 53 49 4e 47 20 66 74 73 33   LE t1 USING fts3
|   4032: 28 61 2c 62 2c 63 29 00 00 00 39 00 00 00 00 00   (a,b,c)...9.....
| page 3 offset 8192
|      0: 0d 00 00 00 25 0b 48 00 0f d8 0f af 0f 86 0f 74   ....%.H........t
|     16: 0f 61 0f 4e 0f 2f 0f 0f 0e ef 0e d7 0e be 0e a5   .a.N./..........
|     32: 0e 8d 0e 74 0e 5b 0e 40 0e 24 0e 08 0d ef 0d d5   ...t.[.@.$......
|     48: 0d bb 0d a0 0d 84 0d 68 0d 4f 0d 35 0d 1b 0c fb   .......h.O.5....
|     64: 0c da 0c b9 0c 99 0c 78 0c 57 0c 3e 0c 24 0c 0a   .......x.W.>.$..
|     80: 0b 48 00 00 00 00 00 00 00 00 00 00 00 00 00 00   .H..............
|   2880: 00 00 00 00 00 00 00 00 81 3f 25 06 00 82 7f 00   .........?%.....
|   2896: 00 43 4f 4d 50 49 4c 45 52 3d 67 63 63 2d 35 2e   .COMPILER=gcc-5.
|   2912: 34 23 00 20 32 30 31 36 30 36 30 39 20 44 45 42   4#. 20160609 DEB
|   2928: 55 47 20 45 4e 41 42 4c 45 20 44 42 53 54 41 54   UG ENABLE DBSTAT
|   2944: 20 56 54 41 42 20 45 4e 41 42 4c 45 20 46 54 53    VTAB ENABLE FTS
|   2960: 34 20 45 4e 41 42 4c 45 20 46 54 53 35 20 45 4e   4 ENABLE FTS5 EN
|   2976: 41 42 4c 45 20 47 45 4f 50 4f 4c 59 20 45 4e 41   ABLE GEOPOLY ENA
|   2992: 42 4c 45 20 4a 53 4f 4e 31 20 45 4e 41 42 4c 45   BLE JSON1 ENABLE
|   3008: 20 4d 45 4d 53 59 53 35 20 45 4e 41 42 4c 45 20    MEMSYS5 ENABLE 
|   3024: 52 54 52 45 45 20 4d 41 58 20 4d 45 4d 4f 52 59   RTREE MAX MEMORY
|   3040: 3d 35 30 30 30 30 30 30 30 20 4f 4d 49 54 20 4c   =50000000 OMIT L
|   3056: 4f 41 44 20 45 58 54 45 4e 53 49 4f 4e 20 54 48   OAD EXTENSION TH
|   3072: 52 45 41 44 53 41 46 45 3d 30 18 24 05 00 25 0f   READSAFE=0.$..%.
|   3088: 19 54 48 52 45 41 44 53 41 46 45 3d 30 58 42 49   .THREADSAFE=0XBI
|   3104: 4e 41 52 59 18 23 05 00 25 0f 19 54 48 52 45 41   NARY.#..%..THREA
|   3120: 44 53 41 46 45 3d 30 58 4e 4f 43 41 53 45 17 22   DSAFE=0XNOCASE..
|   3136: 05 00 25 0f 17 54 48 52 45 41 44 53 41 46 45 3d   ..%..THREADSAFE=
|   3152: 30 58 52 54 52 49 4d 1f 21 05 00 33 0f 19 4f 4d   0XRTRIM.!..3..OM
|   3168: 49 54 20 4c 4f 41 44 20 45 58 54 45 4e 53 49 4f   IT LOAD EXTENSIO
|   3184: 4e 58 42 49 4e 41 52 59 1f 20 05 00 33 0f 19 4f   NXBINARY. ..3..O
|   3200: 4d 49 54 20 4c 4f 41 44 20 45 58 54 45 4e 53 49   MIT LOAD EXTENSI
|   3216: 4f 4e 58 4e 4f 43 41 53 45 1e 1f 05 00 33 0f 17   ONXNOCASE....3..
|   3232: 4f 4d 49 54 20 4c 4f 41 44 20 45 58 54 45 4e 53   OMIT LOAD EXTENS
|   3248: 49 4f 4e 58 52 54 52 49 4d 1f 1e 05 00 33 0f 19   IONXRTRIM....3..
|   3264: 4d 41 58 20 4d 45 4d 4f 52 59 3d 35 30 30 30 30   MAX MEMORY=50000
|   3280: 30 30 30 58 42 49 4e 41 52 59 1f 1d 05 00 33 0f   000XBINARY....3.
|   3296: 19 4d 41 58 20 4d 45 4d 4f 52 59 3d 35 30 30 30   .MAX MEMORY=5000
|   3312: 30 30 30 30 58 4e 4f 43 41 53 45 1e 1c 05 00 33   0000XNOCASE....3
|   3328: 0f 17 4d 41 58 20 4d 45 4d 4f 52 59 3d 35 30 30   ..MAX MEMORY=500
|   3344: 30 30 30 30 30 58 52 54 53 49 4d 18 1b 05 00 25   00000XRTSIM....%
|   3360: 0f 19 45 4e 41 42 4c 45 20 52 54 52 45 45 58 42   ..ENABLE RTREEXB
|   3376: 49 4e 41 52 59 18 1a 05 00 25 0f 19 45 4e 41 42   INARY....%..ENAB
|   3392: 4c 45 20 52 54 52 45 45 58 4e 4f 43 41 53 45 17   LE RTREEXNOCASE.
|   3408: 19 05 00 25 0f 17 45 4e 41 42 4c 45 20 52 54 52   ...%..ENABLE RTR
|   3424: 45 45 58 52 54 52 49 4d 1a 18 05 00 29 0f 19 45   EEXRTRIM....)..E
|   3440: 4e 41 42 4c 45 20 4d 45 4d 53 59 53 35 58 42 49   NABLE MEMSYS5XBI
|   3456: 4e 41 52 59 1a 17 05 00 29 0f 19 45 4e 41 42 4c   NARY....)..ENABL
|   3472: 45 20 4d 45 4d 53 59 53 35 58 4e 4f 43 41 53 45   E MEMSYS5XNOCASE
|   3488: 19 16 05 00 29 0f 17 45 4e 41 42 4c 45 20 4d 45   ....)..ENABLE ME
|   3504: 4d 53 59 53 35 58 52 54 52 49 4d 18 15 05 00 25   MSYS5XRTRIM....%
|   3520: 0f 19 45 4e 41 42 4c 45 20 4a 53 4f 4e 31 58 42   ..ENABLE JSON1XB
|   3536: 49 4e 41 52 59 18 14 05 00 25 0f 19 45 4e 41 42   INARY....%..ENAB
|   3552: 4c 45 20 4a 53 4f 4e 31 58 4e 4f 43 41 53 45 17   LE JSON1XNOCASE.
|   3568: 13 05 00 25 0f 17 45 4e 41 52 4c 45 20 4a 53 4f   ...%..ENARLE JSO
|   3584: 4e 31 58 52 54 52 49 4d 1a 12 05 00 29 0f 19 45   N1XRTRIM....)..E
|   3600: 4e 41 42 4c 45 20 47 45 4f 50 4f 4c 59 58 42 49   NABLE GEOPOLYXBI
|   3616: 4e 41 52 59 1a 11 05 00 29 0f 19 45 4e 41 1e 4c   NARY....)..ENA.L
|   3632: 45 20 47 45 4f 50 4f 4c 59 58 4e 4f 43 41 53 45   E GEOPOLYXNOCASE
|   3648: 19 10 05 00 29 0f 17 45 4e 41 42 4c 45 20 47 55   ....)..ENABLE GU
|   3664: 4f 50 4f 4c 59 58 52 54 52 49 4d 17 0f 05 00 23   OPOLYXRTRIM....#
|   3680: 0f 19 45 4e 41 42 4c 45 20 46 54 53 35 58 42 49   ..ENABLE FTS5XBI
|   3696: 4e 41 52 59 17 0e 05 00 23 0f 19 45 4e 41 42 4c   NARY....#..ENABL
|   3712: 45 20 46 54 53 35 58 4e 4f 43 41 53 45 16 0d 05   E FTS5XNOCASE...
|   3728: 00 23 0f 17 45 4e 41 42 4c 45 20 46 54 59 e5 58   .#..ENABLE FTY.X
|   3744: 52 54 52 49 4d 17 0c 05 00 23 0f 19 45 4e 41 42   RTRIM....#..ENAB
|   3760: 4c 45 20 46 54 53 34 58 42 49 4e 41 52 59 17 0b   LE FTS4XBINARY..
|   3776: 05 00 23 0f 19 45 4e 41 42 4c 45 20 46 54 53 35   ..#..ENABLE FTS5
|   3792: 58 4e 4f 43 40 53 45 16 0a 05 00 23 0f 17 45 4e   XNOC@SE....#..EN
|   3808: 41 42 4c 45 20 46 54 53 34 58 52 54 52 49 4d 1e   ABLE FTS4XRTRIM.
|   3824: 09 05 00 31 0f 19 45 4e 41 42 4c 45 20 44 42 53   ...1..ENABLE DBS
|   3840: 54 41 54 20 56 54 41 42 58 42 49 4e 41 52 59 1e   TAT VTABXBINARY.
|   3856: 08 05 00 31 0f 19 45 4e 41 42 4c 45 20 44 42 53   ...1..ENABLE DBS
|   3872: 54 41 54 20 56 54 41 42 58 4e 4f 43 41 53 45 1d   TAT VTABXNOCASE.
|   3888: 07 05 00 31 0f 17 45 4e 41 42 4c 45 20 44 42 53   ...1..ENABLE DBS
|   3904: 54 41 54 20 56 54 41 42 58 52 54 52 49 4d 11 06   TAT VTABXRTRIM..
|   3920: 05 00 17 0f 19 44 45 42 55 47 58 42 49 4e 41 52   .....DEBUGXBINAR
|   3936: 59 11 05 05 00 17 0f 19 44 45 42 55 47 58 4e 4f   Y.......DEBUGXNO
|   3952: 43 41 53 45 10 04 05 00 17 0f 17 44 45 42 55 47   CASE.......DEBUG
|   3968: 58 52 54 52 49 4d 27 03 05 00 43 0f 19 43 4f 4d   XRTRIM'...C..COM
|   3984: 50 49 4c 45 52 3d 67 63 63 2d 35 2e 34 2e 30 20   PILER=gcc-5.4.0 
|   4000: 32 30 31 36 30 36 30 39 58 42 49 4e 41 52 59 27   20160609XBINARY'
|   4016: 02 05 00 43 0f 19 43 4f 4d 50 49 4c 45 52 3d 67   ...C..COMPILER=g
|   4032: 63 63 25 75 2e 34 2f 30 20 32 30 31 36 30 36 30   cc%u.4/0 2016060
|   4048: 39 58 4e 4f 43 41 53 45 26 01 05 00 43 0f 17 43   9XNOCASE&...C..C
|   4064: 4f 4d 50 49 4c 45 52 3d 67 63 63 2d 35 2e 34 2e   OMPILER=gcc-5.4.
|   4080: 30 20 32 30 31 36 30 36 30 39 58 52 54 52 49 4d   0 20160609XRTRIM
| page 4 offset 12288
|      0: 0d 00 00 00 00 10 00 00 00 00 00 00 00 00 00 00   ................
| page 5 offset 16384
|      0: 0d 00 00 00 02 0b a0 00 0c ad 0b a0 00 00 00 00   ................
|   2976: 82 0a 02 08 08 09 08 08 17 84 06 30 20 32 35 33   ...........0 253
|   2992: 00 01 30 04 25 06 1b 00 00 08 32 30 31 36 30 36   ..0.%.....201606
|   3008: 30 39 03 25 07 00 00 01 34 03 25 05 00 00 01 35   09.%....4.%....5
|   3024: 03 25 04 00 01 07 30 30 30 30 30 30 30 03 25 1a   .%....0000000.%.
|   3040: 00 00 08 63 6f 6d 70 69 6c 65 72 03 25 02 00 00   ...compiler.%...
|   3056: 06 64 62 73 74 61 74 03 25 0a 00 01 04 65 62 75   .dbstat.%....ebu
|   3072: 67 03 25 08 00 00 06 65 6e 61 62 6c 65 09 25 09   g.%....enable.%.
|   3088: 05 04 04 04 04 04 00 01 08 78 74 65 6e 73 69 6f   .........xtensio
|   3104: 6e 03 25 1d 00 00 04 66 74 73 34 03 25 0d 00 03   n.%....fts4.%...
|   3120: 01 35 03 25 0f 00 00 03 67 63 63 03 25 03 00 01   .5.%....gcc.%...
|   3136: 06 65 6f 70 6f 6c 79 03 25 11 00 00 05 6a 73 6f   .eopoly.%....jso
|   3152: 6e 31 03 25 13 41 00 04 6c 6f 61 64 03 25 1c 00   n1.%.A..load.%..
|   3168: 00 03 6d 61 78 03 25 18 00 01 05 65 6d 6f 72 79   ..max.%....emory
|   3184: 03 25 19 00 03 04 73 79 73 35 03 25 15 00 00 04   .%....sys5.%....
|   3200: 6f 6d 69 74 03 25 1b 00 00 05 72 74 72 65 65 03   omit.%....rtree.
|   3216: 25 17 00 00 0a 74 68 72 65 61 64 73 61 56 65 03   %....threadsaVe.
|   3232: 25 1e 00 00 04 76 74 61 62 03 25 0b 00 86 50 01   %....vtab.%...P.
|   3248: 08 08 08 08 08 17 8d 12 30 20 38 33 35 00 01 30   ........0 835..0
|   3264: 12 01 06 00 01 06 00 01 06 00 1f 03 00 01 03 00   ................
|   3280: 01 03 00 00 08 32 30 31 36 30 36 30 39 09 01 07   .....20160609...
|   3296: 00 01 07 00 01 07 00 00 01 34 09 01 05 00 01 05   .........4......
|   3312: 00 01 05 00 00 01 35 09 01 04 00 01 04 00 01 04   ......5.........
|   3328: 00 01 07 30 30 30 30 30 30 30 09 1c 04 00 01 04   ...0000000......
|   3344: 00 01 04 00 00 06 62 69 6e 61 72 79 3c 03 02 02   ......binary<...
|   3360: 02 00 03 01 02 02 00 03 01 02 02 00 03 01 02 02   ................
|   3376: 00 03 01 02 02 00 03 01 02 02 00 03 01 02 02 00   ................
|   3392: 03 01 02 02 00 03 01 02 02 00 03 01 02 02 00 03   ................
|   3408: 01 02 02 00 03 01 02 02 00 00 08 63 6f 6d 70 69   ...........compi
|   3424: 6c 65 72 09 01 02 00 01 02 00 01 02 00 00 06 64   ler............d
|   3440: 62 73 74 61 74 09 f2 03 00 01 03 00 01 03 00 01   bstat...........
|   3456: 04 65 62 75 67 09 04 02 00 01 02 00 01 02 00 00   .ebug...........
|   3472: 06 65 6e 61 62 6c 65 3f 07 02 00 01 02 00 01 02   .enable?........
|   3488: 00 01 02 00 01 02 00 01 02 00 01 02 00 57 02 00   .............W..
|   3504: 01 02 00 01 01 00 01 02 00 11 02 00 01 02 10 01   ................
|   3520: 02 00 01 02 00 01 02 00 01 02 00 01 02 00 01 02   ................
|   3536: 00 01 02 00 01 02 00 01 08 78 74 64 6e 73 69 6f   .........xtdnsio
|   3552: 6e 09 1f 04 00 01 04 00 01 03 00 00 04 66 74 73   n............fts
|   3568: 34 09 0a 03 00 01 03 00 01 03 00 03 01 35 09 0d   4............5..
|   3584: 03 00 01 03 00 01 03 00 00 03 57 63 63 09 01 03   ..........Wcc...
|   3600: 00 01 03 00 01 03 00 01 06 65 6f 70 6f 6c 79 09   .........eopoly.
|   3616: 10 03 00 01 03 00 01 03 00 00 05 6a 73 6f 6e 31   ...........json1
|   3632: 09 13 03 00 01 03 00 01 03 00 00 04 6c 6f 61 64   ............load
|   3648: 09 1f 03 00 01 03 00 01 03 00 00 03 6d 61 78 09   ............max.
|   3664: 1c 02 00 01 02 00 01 02 00 01 05 65 6d 6f 72 79   ...........emory
|   3680: 09 1c 03 00 01 03 00 01 03 00 03 04 73 79 73 35   ............sys5
|   3696: 09 16 03 00 01 03 00 01 03 00 00 06 6e 6f 63 61   ............noca
|   3712: 73 65 3c 02 01 02 02 00 03 01 02 02 00 03 01 02   se<.............
|   3728: 02 00 03 01 02 02 00 03 01 02 02 00 03 01 02 02   ................
|   3744: 00 03 01 02 02 00 03 01 02 02 00 03 01 02 02 00   ................
|   3760: 03 01 02 02 00 03 01 02 02 00 03 01 02 02 00 00   ................
|   3776: 04 6f 6d 69 74 09 1f 02 00 01 02 00 01 02 00 00   .omit...........
|   3792: 05 72 74 72 65 65 09 19 03 00 01 03 00 01 03 00   .rtree..........
|   3808: 03 02 69 6d 3c 01 01 02 02 00 03 01 02 02 00 03   ..im<...........
|   3824: 01 02 02 00 03 01 02 02 00 03 01 02 02 00 03 01   ................
|   3840: 02 02 00 03 01 02 02 00 03 01 02 02 00 03 01 02   ................
|   3856: 02 00 03 01 02 02 00 03 01 02 02 00 03 01 02 02   ................
|   3872: 00 00 0a 74 68 72 65 61 64 73 61 66 65 09 22 02   ...threadsafe...
|   3888: 00 01 02 00 02 02 00 00 04 76 74 61 62 09 07 04   .........vtab...
|   3904: 00 01 04 00 01 04 00 00 01 78 b4 01 01 01 01 02   .........x......
|   3920: 00 01 01 01 02 00 01 01 01 02 00 01 01 01 02 00   ................
|   3936: 01 01 01 02 00 01 01 01 02 00 01 01 01 02 00 01   ................
|   3952: 01 01 02 00 01 01 01 02 00 01 01 01 02 00 01 01   ................
|   3968: 01 02 00 01 01 01 02 00 01 01 01 02 00 01 01 01   ................
|   3984: 02 00 01 01 01 02 00 01 01 01 02 00 01 01 01 02   ................
|   4000: 00 01 01 01 02 00 01 01 01 02 00 01 01 01 02 00   ................
|   4016: 01 01 01 02 00 01 01 01 02 00 01 01 01 02 00 01   ................
|   4032: 01 01 02 00 01 01 01 02 00 01 01 01 02 00 01 01   ................
|   4048: 01 02 00 01 01 01 02 00 01 01 01 02 00 01 01 01   ................
|   4064: 02 00 01 01 01 02 00 01 01 01 02 00 01 01 01 02   ................
|   4080: 00 01 01 01 02 00 01 01 01 02 00 01 01 01 02 00   ................
| page 6 offset 20480
|      0: 0a 00 00 00 02 0f f5 00 0f fb 0f f5 00 00 00 00   ................
|   4080: 00 00 00 00 00 05 04 08 09 01 02 04 04 08 08 09   ................
| page 7 offset 24576
|      0: 0d 00 00 00 05 0f b8 00 0f f4 0f e9 0f d6 0f c7   ................
|     16: 0f b8 00 00 00 00 00 00 00 00 00 00 00 00 00 00   ................
|   4064: 00 00 00 00 00 0d 05 02 23 61 75 74 6f 6d 65 72   ........#automer
|   4080: 67 65 3d 35 0d 04 02 23 6d 65 72 67 65 3d 31 30   ge=5...#merge=10
| page 8 offset 28672
|      0: 30 2c 38 11 03 02 2b 69 6e 74 65 67 72 69 74 79   0,8...+integrity
|     16: 2d 63 68 65 63 6b 09 02 02 1b 72 65 62 75 69 6c   -check....rebuil
|     32: 64 0a 01 02 1d 6f 70 74 69 6d 69 7a 65 00 00 00   d....optimize...
| end crash-4ce32d0608aff1.db
}]} {}

do_catchsql_test 18.1 {
  SELECT quote(matchinfo(t1,'pcxybs'))==0 FROM t1 WHERE b MATCH 'e*';
} {0 {}}

#-------------------------------------------------------------------------
reset_db
do_test 19.0 {
  sqlite3 db {}
  db deserialize [decode_hexdb {
| size 28672 pagesize 4096 filename crash-526ea445f41c02.db
| page 1 offset 0
|      0: 53 51 4c 69 74 65 20 66 6f 72 6d 61 74 20 33 00   SQLite format 3.
|     16: 10 00 01 01 00 40 20 20 00 00 00 00 00 00 00 07   .....@  ........
|     32: 00 00 00 02 00 00 00 01 00 00 00 07 00 00 00 04   ................
|     48: 00 00 00 00 00 00 00 00 00 00 00 01 00 00 00 00   ................
|     96: 00 00 00 00 0d 0e b1 00 06 0d a4 00 0f 8d 0f 21   ...............!
|    112: 0e b9 0d c8 0e 7e 0d a4 00 00 00 00 00 00 00 00   .....~..........
|   3488: 00 00 00 00 22 07 06 17 11 11 01 31 74 61 62 6c   ...........1tabl
|   3504: 65 74 32 74 32 07 43 52 45 41 54 45 20 54 41 42   et2t2.CREATE TAB
|   3520: 4c 45 20 74 32 28 78 29 81 33 05 07 17 1f 1f 01   LE t2(x).3......
|   3536: 82 35 74 61 62 6c 65 74 31 5f 73 65 67 64 69 72   .5tablet1_segdir
|   3552: 74 31 5f 73 65 67 64 69 72 05 43 52 45 41 54 45   t1_segdir.CREATE
|   3568: 20 54 41 42 4c 45 20 27 74 31 5f 73 65 67 64 69    TABLE 't1_segdi
|   3584: 72 27 28 6c 65 76 65 6c 20 49 4e 54 45 47 45 52   r'(level INTEGER
|   3600: 2c 69 64 78 20 49 4e 54 45 47 45 52 2c 73 74 61   ,idx INTEGER,sta
|   3616: 72 74 5f 62 6c 6f 63 6b 20 49 4e 54 45 47 45 52   rt_block INTEGER
|   3632: 2c 6c 65 61 76 65 73 5f 65 6e 64 5f 62 6c 6f 63   ,leaves_end_bloc
|   3648: 6b 20 49 4e 54 45 47 45 52 2c 65 6e 64 5f 62 6c   k INTEGER,end_bl
|   3664: 6f 63 6b 20 49 4e 54 45 47 45 52 2c 72 6f 6f 74   ock INTEGER,root
|   3680: 20 42 4c 4f 42 2c 50 52 49 4d 41 52 59 20 4b 45    BLOB,PRIMARY KE
|   3696: 59 28 6c 65 76 65 6c 2c 20 69 64 78 29 29 31 06   Y(level, idx))1.
|   3712: 06 17 45 1f 01 00 69 6e 64 65 78 73 71 6c 69 74   ..E...indexsqlit
|   3728: 65 5f 61 75 74 6f 69 6e 64 65 78 5f 74 31 5f 73   e_autoindex_t1_s
|   3744: 65 67 64 69 72 5f 31 74 31 5f 73 65 67 64 69 72   egdir_1t1_segdir
|   3760: 06 0f c7 00 08 00 00 00 00 66 04 07 17 23 23 01   .........f...##.
|   3776: 81 13 74 61 62 6c 65 74 31 5f 73 65 67 6d 65 6e   ..tablet1_segmen
|   3792: 74 73 74 31 5f 73 65 67 6d 65 6e 74 73 04 43 52   tst1_segments.CR
|   3808: 45 41 54 45 20 54 41 42 4c 45 20 27 74 31 5f 73   EATE TABLE 't1_s
|   3824: 65 67 6d 65 6e 74 73 27 28 62 6c 6f 63 6b 69 64   egments'(blockid
|   3840: 20 49 4e 54 45 47 45 52 20 50 52 49 4d 41 52 59    INTEGER PRIMARY
|   3856: 20 4b 45 59 2c 20 62 6c 6f 63 6b 20 42 4c 4f 42    KEY, block BLOB
|   3872: 29 6a 03 07 17 21 21 01 81 1f 74 61 62 6c 65 74   )j...!!...tablet
|   3888: 31 5f 63 6f 6e 74 65 6e 74 74 31 5f 63 6f 6e 74   1_contentt1_cont
|   3904: 65 6e 74 03 43 52 45 41 54 45 20 54 41 42 4c 45   ent.CREATE TABLE
|   3920: 20 27 74 31 5f 63 6f 6e 74 65 6e 74 27 28 64 6f    't1_content'(do
|   3936: 63 69 64 20 49 4e 54 45 47 45 52 20 50 52 49 4d   cid INTEGER PRIM
|   3952: 41 52 59 20 4b 45 59 2c 20 27 63 30 61 27 2c 20   ARY KEY, 'c0a', 
|   3968: 27 63 31 62 27 2c 20 27 63 32 63 27 29 38 02 06   'c1b', 'c2c')8..
|   3984: 17 11 11 08 5f 74 61 62 6c 65 74 31 74 41 43 52   ...._tablet1tACR
|   4000: 45 41 54 45 20 56 49 52 54 55 41 4c 20 54 41 42   EATE VIRTUAL TAB
|   4016: 4c 45 20 74 31 20 55 53 49 4e 47 20 66 74 73 33   LE t1 USING fts3
|   4032: 28 61 2c 62 2c 63 29 00 00 00 39 00 00 00 00 00   (a,b,c)...9.....
| page 3 offset 8192
|      0: 0d 00 00 00 25 0b 48 00 0f d8 0f af 0f 86 0f 74   ....%.H........t
|     16: 0f 61 0f 4e 0f 2f 0f 0f 0e ef 0e d7 0e be 0e a5   .a.N./..........
|     32: 0e 8d 0e 74 0e 5b 0e 40 0e 24 0e 08 0d ef 0d d5   ...t.[.@.$......
|     48: 0d bb 0d a0 0d 84 0d 68 0d 4f 0d 35 0d 1b 0c fb   .......h.O.5....
|     64: 0c da 0c b9 0c 99 0c 78 0c 57 0c 3e 0c 24 0c 0a   .......x.W.>.$..
|     80: 0b 48 00 00 00 00 00 00 00 00 00 00 00 00 00 00   .H..............
|   2880: 00 00 00 00 00 00 00 00 81 3f 25 06 00 82 7f 00   .........?%.....
|   2896: 00 43 4f 4d 50 49 4c 45 52 3d 67 63 63 2d 35 2f   .COMPILER=gcc-5/
|   2912: 34 2e 30 20 32 30 31 36 30 36 30 39 20 44 45 42   4.0 20160609 DEB
|   2928: 55 47 20 45 4e 41 42 4c 45 20 44 42 53 54 41 54   UG ENABLE DBSTAT
|   2944: 20 56 54 41 42 20 45 4e 41 42 4c 45 20 46 54 53    VTAB ENABLE FTS
|   2960: 34 20 45 4e 41 42 4c 45 20 46 54 53 35 20 45 4e   4 ENABLE FTS5 EN
|   2976: 41 42 4c 45 20 47 45 4f 50 4f 4c 59 20 45 4e 41   ABLE GEOPOLY ENA
|   2992: 42 4c 45 20 4a 53 4f 4e 31 20 45 4e 41 42 4c 45   BLE JSON1 ENABLE
|   3008: 20 4d 45 4d 53 59 53 35 20 45 4e 41 42 4c 45 20    MEMSYS5 ENABLE 
|   3024: 52 54 52 45 45 20 4d 41 58 20 4d 45 4d 4f 52 59   RTREE MAX MEMORY
|   3040: 3d 35 30 30 30 30 30 30 30 20 4f 4d 49 54 20 4c   =50000000 OMIT L
|   3056: 4f 41 44 20 45 58 54 45 4e 53 49 4f 4e 20 54 48   OAD EXTENSION TH
|   3072: 52 45 41 44 53 41 46 45 3d 30 18 24 05 00 25 0f   READSAFE=0.$..%.
|   3088: 19 54 48 52 45 41 44 53 41 46 45 3d 30 58 42 49   .THREADSAFE=0XBI
|   3104: 4e 41 52 59 18 23 05 00 25 0f 19 54 48 52 45 41   NARY.#..%..THREA
|   3120: 44 53 41 46 45 3d 30 58 4e 4f 43 41 53 45 17 22   DSAFE=0XNOCASE..
|   3136: 05 00 25 0f 17 54 48 52 45 41 44 53 41 46 45 3d   ..%..THREADSAFE=
|   3152: 30 58 52 54 52 49 4d 1f 21 05 00 33 0f 19 4f 4d   0XRTRIM.!..3..OM
|   3168: 49 54 20 4c 4f 41 44 20 45 58 54 45 4e 53 49 4f   IT LOAD EXTENSIO
|   3184: 4e 58 42 49 4e 41 52 59 1f 20 05 00 33 0f 19 4f   NXBINARY. ..3..O
|   3200: 4d 49 54 20 4c 4f 41 44 20 45 58 54 45 4e 53 49   MIT LOAD EXTENSI
|   3216: 4f 4e 58 4e 4f 43 41 53 45 1e 1f 05 00 33 0f 17   ONXNOCASE....3..
|   3232: 4f 4d 49 54 20 4c 4f 41 44 20 45 58 54 45 4e 53   OMIT LOAD EXTENS
|   3248: 49 4f 4e 58 52 54 52 49 4d 1f 1e 05 00 33 0f 19   IONXRTRIM....3..
|   3264: 4d 41 58 20 4d 45 4d 4f 52 59 3d 35 30 30 30 30   MAX MEMORY=50000
|   3280: 30 30 30 58 42 49 4e 41 52 59 1f 1d 05 00 33 0f   000XBINARY....3.
|   3296: 19 4d 41 58 20 4d 45 4d 4f 52 59 3d 35 30 30 30   .MAX MEMORY=5000
|   3312: 30 30 30 30 58 4e 4f 43 41 53 45 1e 1c 05 00 33   0000XNOCASE....3
|   3328: 0f 17 4d 41 58 20 4d 45 4d 4f 52 59 3d 35 30 30   ..MAX MEMORY=500
|   3344: 30 30 30 30 30 58 52 54 52 49 4d 18 1b 05 00 25   00000XRTRIM....%
|   3360: 0f 19 45 4e 41 42 4c 45 20 52 54 52 45 45 58 42   ..ENABLE RTREEXB
|   3376: 49 4e 41 52 59 18 1a 05 00 25 0f 19 45 4e 41 42   INARY....%..ENAB
|   3392: 4c 45 20 52 54 52 45 45 58 4e 4f 43 41 53 45 17   LE RTREEXNOCASE.
|   3408: 19 05 00 25 0f 17 45 4e 41 42 4c 45 20 52 54 52   ...%..ENABLE RTR
|   3424: 45 45 58 52 54 52 49 4d 1a 18 05 00 29 0f 19 45   EEXRTRIM....)..E
|   3440: 4e 41 42 4c 45 20 4d 45 4d 53 59 53 35 58 42 49   NABLE MEMSYS5XBI
|   3456: 4e 41 52 59 1a 17 05 00 29 0f 19 45 4e 41 42 4c   NARY....)..ENABL
|   3472: 45 20 4d 45 4d 53 59 53 35 58 4e 4f 43 41 53 45   E MEMSYS5XNOCASE
|   3488: 19 16 05 00 29 0f 17 45 4e 41 42 4c 45 20 4d 45   ....)..ENABLE ME
|   3504: 4d 53 59 53 35 58 52 54 52 49 4d 18 15 05 00 25   MSYS5XRTRIM....%
|   3520: 0f 19 45 4e 41 42 4c 45 20 4a 53 4f 4e 31 58 42   ..ENABLE JSON1XB
|   3536: 49 4e 41 52 59 18 14 05 00 25 0f 19 45 4e 41 42   INARY....%..ENAB
|   3552: 4c 45 20 4a 53 4f 4e 31 58 4e 4f 43 41 53 45 17   LE JSON1XNOCASE.
|   3568: 13 05 00 25 0f 17 45 4e 41 42 4c 45 20 4a 53 4f   ...%..ENABLE JSO
|   3584: 4e 31 58 52 54 52 49 4d 1a 12 05 00 29 0f 19 45   N1XRTRIM....)..E
|   3600: 4e 41 42 4c 45 20 47 45 4f 50 4f 4c 59 58 42 49   NABLE GEOPOLYXBI
|   3616: 4e 41 52 59 1a 11 05 00 29 0f 19 45 4e 41 42 4c   NARY....)..ENABL
|   3632: 45 20 47 45 4f 50 4f 4c 59 58 4e 4f 43 41 53 45   E GEOPOLYXNOCASE
|   3648: 19 10 05 00 29 0f 17 45 4e 41 42 4c 45 20 47 45   ....)..ENABLE GE
|   3664: 4f 50 4f 4c 59 58 52 54 52 49 4d 17 0f 05 00 23   OPOLYXRTRIM....#
|   3680: 0f 19 45 4e 41 42 4c 45 20 46 54 53 35 58 42 49   ..ENABLE FTS5XBI
|   3696: 4f 41 52 59 17 0e 05 00 23 0f 19 45 4e 41 42 4c   OARY....#..ENABL
|   3712: 45 20 46 54 53 35 58 4e 4f 43 41 53 45 16 0d 05   E FTS5XNOCASE...
|   3728: 00 23 0f 17 45 4e 41 42 4c 45 20 46 54 53 35 58   .#..ENABLE FTS5X
|   3744: 52 54 52 49 4d 17 0c 05 00 23 0f 19 45 4e 41 42   RTRIM....#..ENAB
|   3760: 4c 45 20 46 54 53 34 58 42 49 4e 41 52 59 17 0b   LE FTS4XBINARY..
|   3776: 05 00 23 0f 19 45 4e 41 42 4d f5 20 46 54 53 34   ..#..ENABM. FTS4
|   3792: 58 4e 4f 43 41 53 45 16 0a 05 00 23 0f 17 45 4e   XNOCASE....#..EN
|   3808: 41 52 4c 45 20 46 54 53 34 58 52 54 52 49 4d 1e   ARLE FTS4XRTRIM.
|   3824: 09 05 00 31 0f 19 45 4e 41 42 4c 45 20 44 42 53   ...1..ENABLE DBS
|   3840: 54 41 54 20 56 54 41 42 58 42 49 4e 41 52 59 1e   TAT VTABXBINARY.
|   3856: 08 05 00 31 0f 19 45 4e 41 42 4c 45 20 44 42 53   ...1..ENABLE DBS
|   3872: 54 41 54 20 56 54 41 42 58 4e 4f 43 41 53 45 1d   TAT VTABXNOCASE.
|   3888: 07 05 00 31 0f 17 45 4e 41 42 4c 45 20 44 42 53   ...1..ENABLE DBS
|   3904: 54 41 54 20 56 54 41 42 58 52 54 52 49 4d 11 06   TAT VTABXRTRIM..
|   3920: 05 00 17 0f 19 44 45 42 55 47 58 42 49 4e 41 52   .....DEBUGXBINAR
|   3936: 59 11 05 05 00 17 0f 19 44 45 42 55 47 58 4e 4f   Y.......DEBUGXNO
|   3952: 43 41 53 45 10 04 05 00 17 0f 17 44 45 42 55 47   CASE.......DEBUG
|   3968: 58 52 54 52 49 4d 27 03 05 00 43 0f 19 43 4f 4d   XRTRIM'...C..COM
|   3984: 50 49 4c 45 52 3d 67 63 63 2d 35 2e 34 2e 30 20   PILER=gcc-5.4.0 
|   4000: 32 30 31 36 30 36 30 39 58 42 49 4e 41 52 59 27   20160609XBINARY'
|   4016: 02 04 00 43 0f 19 43 4f 4d 50 49 4c 45 52 3d 67   ...C..COMPILER=g
|   4032: 63 63 2d 35 2e 34 2e 30 20 32 30 31 36 30 36 30   cc-5.4.0 2016060
|   4048: 39 58 4e 4f 43 41 53 45 26 01 05 00 43 0f 17 43   9XNOCASE&...C..C
|   4064: 4f 4d 50 49 4c 45 52 3d 67 63 63 2d 35 2e 34 2e   OMPILER=gcc-5.4.
|   4080: 30 20 32 30 31 36 30 36 30 39 58 52 54 52 49 4d   0 20160609XRTRIM
| page 4 offset 12288
|      0: 0d 00 00 00 00 00 00 00 00 00 00 00 00 00 00 00   ................
| page 5 offset 16384
|      0: 0d 00 00 00 02 0b a0 00 0c ad 0b a0 00 00 00 00   ................
|   2976: 82 0a 02 08 08 09 08 08 17 84 06 30 20 32 35 33   ...........0 253
|   2992: 00 01 30 04 25 06 1b 00 00 08 32 30 31 36 30 36   ..0.%.....201606
|   3008: 30 39 03 25 07 00 00 01 34 03 25 05 00 00 01 35   09.%....4.%....5
|   3024: 03 25 04 00 01 07 30 30 30 30 30 30 30 03 25 1a   .%....0000000.%.
|   3040: 00 00 08 63 6f 6d 70 69 6c 65 72 03 25 02 00 00   ...compiler.%...
|   3056: 06 64 62 73 74 61 74 03 25 0a 00 01 04 65 62 75   .dbstat.%....ebu
|   3072: 67 03 25 08 00 00 06 65 6e 61 62 6c 65 09 25 09   g.%....enable.%.
|   3088: 05 04 04 04 04 04 00 01 08 78 74 65 6e 73 69 6f   .........xtensio
|   3104: 6e 03 25 1d 00 00 04 66 74 73 34 03 25 0d 00 03   n.%....fts4.%...
|   3120: 01 35 03 25 0f 00 00 03 67 63 63 03 25 03 00 01   .5.%....gcc.%...
|   3136: 06 65 6f 70 6f 6c 79 03 25 11 00 00 05 6a 73 6f   .eopoly.%....jso
|   3152: 6e 31 03 25 13 00 00 04 6c 6f 61 64 03 25 1c 00   n1.%....load.%..
|   3168: 00 03 6d 61 78 03 25 18 00 01 05 65 6d 6f 72 79   ..max.%....emory
|   3184: 03 25 19 00 03 04 73 79 73 35 03 25 15 00 00 04   .%....sys5.%....
|   3200: 6f 6d 69 74 03 25 1b 00 00 05 72 74 72 65 65 03   omit.%....rtree.
|   3216: 25 17 00 00 0a 74 68 72 65 61 64 73 61 66 65 03   %....threadsafe.
|   3232: 25 1e 00 00 04 76 74 61 62 03 25 0b 00 86 50 01   %....vtab.%...P.
|   3248: 08 08 08 08 08 17 8d 12 30 20 38 33 35 00 01 30   ........0 835..0
|   3264: 12 01 06 00 01 06 00 01 06 00 1f 03 00 01 03 00   ................
|   3280: 01 03 00 00 08 32 30 31 36 30 36 30 39 09 01 07   .....20160609...
|   3296: 00 01 07 00 01 07 00 00 01 34 09 01 05 00 01 05   .........4......
|   3312: 00 01 05 00 00 01 35 09 01 04 00 01 04 00 01 04   ......5.........
|   3328: 00 01 07 30 30 30 30 30 30 30 09 1c 04 00 01 04   ...0000000......
|   3344: 00 01 04 00 00 06 62 69 6e 61 72 79 3c 03 01 02   ......binary<...
|   3360: 02 00 03 01 02 02 00 03 01 02 02 00 03 01 02 02   ................
|   3376: 00 03 01 02 02 00 03 01 02 02 00 03 01 02 02 00   ................
|   3392: 03 01 02 02 00 03 01 02 02 00 03 01 02 02 00 03   ................
|   3408: 01 02 02 00 03 01 02 02 00 00 08 63 6f 6d 70 69   ...........compi
|   3424: 6c 65 72 09 01 02 00 01 02 00 01 02 00 00 06 64   ler............d
|   3440: 62 73 74 61 74 09 07 03 00 01 03 00 01 03 00 01   bstat...........
|   3456: 04 65 62 75 67 09 04 02 00 01 02 00 01 02 00 00   .ebug...........
|   3472: 06 65 6e 61 62 6c 65 3f 07 02 00 01 02 00 01 02   .enable?........
|   3488: 00 01 02 00 01 02 00 01 02 00 01 02 00 01 02 00   ................
|   3504: 01 02 00 01 02 00 01 02 00 01 02 00 01 02 00 01   ................
|   3520: 02 00 01 02 00 01 02 00 01 02 00 01 02 00 01 02   ................
|   3536: 00 01 02 00 01 02 00 01 08 78 74 65 6e 73 69 6f   .........xtensio
|   3552: 6e 09 1f 04 00 01 04 00 01 04 00 00 04 66 74 73   n............fts
|   3568: 34 09 0a 03 00 01 03 00 01 03 00 03 01 35 09 0d   4............5..
|   3584: 03 00 01 03 00 01 03 00 00 03 67 63 63 09 01 03   ..........gcc...
|   3600: 00 01 03 00 01 03 00 01 06 65 6f 70 6f 6c 79 09   .........eopoly.
|   3616: 10 03 00 01 03 00 01 03 00 00 05 6a 73 6f 6e 31   ...........json1
|   3632: 09 13 03 00 01 03 00 01 03 00 00 04 6c 6f 61 64   ............load
|   3648: 09 1f 03 00 01 03 00 01 03 00 00 03 6d 61 78 09   ............max.
|   3664: 1c 02 00 01 02 00 01 02 00 01 05 65 6d 6f 72 79   ...........emory
|   3680: 09 1c 03 00 01 03 00 01 03 00 03 04 73 79 73 35   ............sys5
|   3696: 09 16 03 00 01 03 00 01 03 00 00 06 6e 6f 63 61   ............noca
|   3712: 73 65 3c 02 01 02 02 00 03 01 02 02 00 03 01 02   se<.............
|   3728: 02 00 03 01 02 02 00 03 01 02 02 00 03 01 02 02   ................
|   3744: 00 03 01 02 02 00 03 01 02 02 00 03 01 02 02 00   ................
|   3760: 03 01 02 02 00 13 01 02 02 00 03 01 02 02 00 00   ................
|   3776: 04 6f 6d 69 74 09 1f 02 00 01 12 00 01 02 00 00   .omit...........
|   3792: 05 72 74 72 65 65 09 19 03 00 01 81 00 01 03 00   .rtree..........
|   3808: 03 02 69 6d 3c 01 01 02 02 00 03 01 02 02 00 03   ..im<...........
|   3824: 01 02 02 00 03 01 02 02 00 03 01 02 02 00 03 01   ................
|   3840: 02 02 00 03 01 02 02 00 03 01 02 02 00 03 01 02   ................
|   3856: 02 00 03 01 02 02 00 03 01 02 02 00 03 01 02 02   ................
|   3872: 00 00 0a 74 68 72 65 61 64 73 61 66 65 09 22 02   ...threadsafe...
|   3888: 00 01 02 00 01 02 00 00 04 76 74 61 62 09 07 04   .........vtab...
|   3904: 00 01 04 00 01 04 00 00 01 78 b4 01 01 01 01 02   .........x......
|   3920: 00 01 01 01 02 00 01 01 01 02 00 01 01 01 02 00   ................
|   3936: 01 01 01 02 00 01 01 01 02 00 01 01 01 02 00 01   ................
|   3952: 01 01 02 00 01 01 01 02 00 01 01 01 02 00 01 01   ................
|   3968: 01 02 00 01 01 01 02 00 01 01 01 02 00 01 01 01   ................
|   3984: 02 00 01 01 01 02 00 01 01 01 02 00 01 01 01 02   ................
|   4000: 00 01 01 01 02 00 01 01 01 02 00 01 01 01 02 00   ................
|   4016: 01 01 01 02 00 01 01 01 02 00 01 01 01 02 00 01   ................
|   4032: 01 01 02 00 01 01 01 02 00 01 01 01 02 00 01 01   ................
|   4048: 01 02 00 01 01 01 02 00 01 01 01 02 00 01 01 01   ................
|   4064: 02 00 01 01 01 02 00 01 01 01 02 00 01 01 01 02   ................
|   4080: 00 01 01 01 02 00 01 01 01 02 00 01 01 01 02 00   ................
| page 6 offset 20480
|      0: 0a 00 00 00 02 0f f5 00 0f fb 0f f5 00 00 00 00   ................
|   4080: 00 00 00 00 00 05 04 08 09 01 02 04 04 08 08 09   ................
| page 7 offset 24576
|      0: 0d 00 00 00 05 0f b8 00 0f f4 0f e9 0f d6 0f c7   ................
|     16: 0f b8 00 00 00 00 00 00 00 00 00 00 00 00 00 00   ................
|   4016: 00 00 00 00 00 00 00 00 0d 05 02 23 61 75 74 6f   ...........#auto
|   4032: 6d 65 72 67 65 3d 35 0d 04 02 23 6d 65 72 67 65   merge=5...#merge
|   4048: 3d 31 30 30 2c 38 11 03 02 2b 69 6e 74 65 67 72   =100,8...+integr
|   4064: 69 74 79 2d 63 68 65 63 6b 09 02 02 1b 72 65 62   ity-check....reb
|   4080: 75 69 6c 64 0a 01 02 1d 6f 70 74 69 6d 69 7a 65   uild....optimize
| end crash-526ea445f41c02.db
}]} {}

do_catchsql_test 19.1 {
  PRAGMA writable_schema = 1;
  SELECT rowid,a,c,snippet(t1,85101090932165,-1,10) FROM t1 WHERE a MATCH 'rtree';
} {1 {database disk image is malformed}}

#-------------------------------------------------------------------------
reset_db
do_test 20.0 {
  sqlite3 db {}
  db deserialize [decode_hexdb {
.open --hexdb
| size 28672 pagesize 4096 filename crash-afecd03c862e58.db
| page 1 offset 0
|      0: 53 51 4c 69 74 65 20 66 6f 72 6d 61 74 20 33 00   SQLite format 3.
|     16: 10 00 01 01 00 40 20 20 00 00 00 00 00 00 00 07   .....@  ........
|     32: 00 00 00 00 00 00 00 00 00 00 00 06 00 00 00 04   ................
|     96: 00 00 00 00 0d 0e ef 00 07 0d 4d 00 0f bd 0f 5f   ..........M...._
|    112: 0e f7 0e 06 0e bc 0d a4 0d 4d 00 00 01 00 00 00   .........M......
|   3392: 00 00 00 00 00 00 00 00 00 00 00 00 00 55 07 07   .............U..
|   3408: 17 1b 1b 01 81 01 74 61 62 6c 65 74 31 5f 73 74   ......tablet1_st
|   3424: 61 74 74 31 5f 73 74 61 74 07 43 52 45 41 54 45   att1_stat.CREATE
|   3440: 20 54 41 42 4c 45 20 27 74 31 5f 73 74 61 74 27    TABLE 't1_stat'
|   3456: 28 69 64 20 49 4e 54 45 47 45 52 20 50 52 49 4d   (id INTEGER PRIM
|   3472: 41 52 59 20 4b 45 59 2c 20 76 61 6c 75 65 20 42   ARY KEY, value B
|   3488: 4c 4f 42 29 60 06 07 17 21 21 01 81 0b 74 61 62   LOB)`...!!...tab
|   3504: 6c 65 74 31 5f 64 6f 63 73 69 7a 65 74 31 5f 64   let1_docsizet1_d
|   3520: 6f 63 73 69 7a 65 06 43 52 45 41 54 45 20 54 41   ocsize.CREATE TA
|   3536: 42 4c 45 20 27 74 31 5f 64 6f 63 73 69 7a 65 27   BLE 't1_docsize'
|   3552: 28 64 6f 63 69 64 20 49 4e 54 45 47 45 52 20 50   (docid INTEGER P
|   3568: 52 49 4d 41 52 59 30 4b 45 59 2c 20 73 69 7a 65   RIMARY0KEY, size
|   3584: 20 42 4c 4f 42 29 81 33 04 07 17 1f 1f 01 82 35    BLOB).3.......5
|   3600: 74 61 62 6c 65 74 31 5f 73 65 67 64 69 72 74 31   tablet1_segdirt1
|   3616: 5f 73 65 67 64 69 25 04 43 52 45 41 54 45 20 54   _segdi%.CREATE T
|   3632: 41 42 4c 45 20 27 74 31 5f 73 65 67 64 69 72 27   ABLE 't1_segdir'
|   3648: 28 6c 65 76 65 6c 20 49 4e 54 45 47 45 52 2c 69   (level INTEGER,i
|   3664: 64 78 20 49 4e 54 45 47 45 52 2c 73 74 61 72 74   dx INTEGER,start
|   3680: 5f 62 6c 6f 63 6b 20 49 4e 54 45 47 45 52 2c 6c   _block INTEGER,l
|   3696: 65 61 76 65 73 5f 65 6e 64 5f 62 6c 6f 63 6b 20   eaves_end_block 
|   3712: 49 4d 54 45 47 45 52 2c 65 6e 64 5f 62 6c 6f 63   IMTEGER,end_bloc
|   3728: 6b 20 49 4e 54 45 47 45 52 2c 72 6f 6f 74 20 42   k INTEGER,root B
|   3744: 4c 4f 42 2c 50 52 49 4d 41 52 59 20 4b 45 59 28   LOB,PRIMARY KEY(
|   3760: 6c 65 76 65 6c 2c 20 69 64 78 29 29 31 05 06 17   level, idx))1...
|   3776: 45 1f 01 00 69 6e 64 65 78 73 71 6c 69 74 65 5f   E...indexsqlite_
|   3792: 61 75 74 6f 69 6e 64 65 78 5f 74 31 5f 73 65 67   autoindex_t1_seg
|   3808: 64 69 72 5f 31 74 31 5f 73 65 67 64 69 72 05 00   dir_1t1_segdir..
|   3824: 00 00 08 00 00 00 00 66 03 07 17 23 23 01 81 13   .......f...##...
|   3840: 74 61 62 6c 65 74 31 5f 73 65 67 6d 65 6e 74 73   tablet1_segments
|   3856: 74 31 5f 73 65 67 6d 65 6e 74 73 03 43 52 45 41   t1_segments.CREA
|   3872: 54 45 20 54 41 42 4c 45 20 27 74 31 5f 73 65 67   TE TABLE 't1_seg
|   3888: 6d 65 6e 74 73 27 28 62 6c 6f 63 6b 69 64 20 49   ments'(blockid I
|   3904: 4e 54 45 47 45 52 20 50 52 49 4d 41 52 59 20 4b   NTEGER PRIMARY K
|   3920: 45 59 2c 20 62 6c 6f 63 6b 20 42 4c 4f 42 29 5c   EY, block BLOB).
|   3936: 02 07 17 21 21 01 81 03 74 61 62 6c 65 74 31 5f   ...!!...tablet1_
|   3952: 63 6f 6e 74 65 6e 74 74 31 5f 63 6f 6e 74 65 6e   contentt1_conten
|   3968: 74 02 43 52 45 41 54 45 20 54 41 42 4c 45 20 27   t.CREATE TABLE '
|   3984: 74 31 5f 63 6f 6e 74 65 6e 74 27 28 64 6f 63 69   t1_content'(doci
|   4000: 64 20 49 4e 54 45 47 45 52 20 50 52 49 4d 41 52   d INTEGER PRIMAR
|   4016: 59 20 4b 45 59 2c 20 27 63 30 61 27 29 41 01 06   Y KEY, 'c0a')A..
|   4032: 17 11 11 08 71 74 61 62 6c 65 74 31 74 31 43 52   ....qtablet1t1CR
|   4048: 45 41 54 45 20 56 49 52 54 55 41 4c 20 54 41 42   EATE VIRTUAL TAB
|   4064: 4c 45 20 74 31 20 55 53 49 4e 47 20 66 74 73 34   LE t1 USING fts4
|   4080: 28 61 2c 70 72 65 66 69 78 3d 27 31 2c 32 27 29   (a,prefix='1,2')
| page 2 offset 4096
|      0: 0d 00 00 00 08 0e 1f 00 0f c4 0f 7c 0f 34 0f 07   ...........|.4..
|     16: 0e c3 0e 97 0e 63 0e 1f 00 00 00 00 00 00 00 00   .....c..........
|   3600: 00 00 00 00 00 00 00 00 00 00 00 00 00 00 00 42   ...............B
|   3616: 08 04 00 81 09 73 75 6e 74 20 69 6e 20 63 75 6c   .....sunt in cul
|   3632: 70 61 20 71 75 68 20 6f 66 66 69 63 69 61 20 64   pa quh officia d
|   3648: 65 73 65 72 75 6e 74 20 6d 6f 6c 6c 69 74 20 61   eserunt mollit a
|   3664: 6e 69 6d 20 69 64 20 65 73 74 20 6c 61 62 6f 72   nim id est labor
|   3680: 75 6d 2e 32 07 03 01 6b 45 78 63 65 70 74 65 75   um.2...kExcepteu
|   3696: 72 20 73 69 6e 74 20 6f 63 63 61 65 63 61 74 20   r sint occaecat 
|   3712: 63 75 70 69 64 61 74 61 74 20 6e 6f 6e 20 70 72   cupidatat non pr
|   3728: 6f 69 64 65 6e 74 2c 2a 06 03 00 5b 63 69 6c 6c   oident,*...[cill
|   3744: 75 6d 20 64 6f 6c 6f 72 65 20 65 75 20 66 75 67   um dolore eu fug
|   3760: 69 61 74 20 6e 75 6c 6c 61 20 70 61 72 69 61 74   iat nulla pariat
|   3776: 75 72 2e 43 05 04 00 81 09 44 75 69 73 20 61 75   ur.C.....Duis au
|   3792: 74 65 20 69 72 75 72 65 20 64 6f 6c 6f 72 20 69   te irure dolor i
|   3808: 6e 20 72 65 70 72 65 68 65 6e 64 65 72 69 74 20   n reprehenderit 
|   3824: 69 6e 20 76 6f 6c 75 70 74 61 74 65 20 76 65 6c   in voluptate vel
|   3840: 69 74 20 65 73 73 65 2b 14 03 00 5d 6e 69 73 69   it esse+...]nisi
|   3856: 20 75 74 20 61 6c 69 71 75 69 70 20 65 78 20 65    ut aliquip ex e
|   3872: 61 20 63 6f 6d 6d 6f 64 6f 20 63 6f 6e 73 65 71   a commodo conseq
|   3888: 75 61 74 2e 46 03 04 00 81 11 55 74 20 65 6e 69   uat.F.....Ut eni
|   3904: 6d 20 61 63 20 6d 69 6e 69 6d 20 76 65 6e 69 61   m ac minim venia
|   3920: 6d 2c 20 71 75 69 73 20 6e 6f 73 74 72 75 64 20   m, quis nostrud 
|   3936: 65 78 65 72 63 69 74 61 74 69 6f 6e 20 75 6c 6c   exercitation ull
|   3952: 61 6d 63 6f 20 6c 61 62 6f 72 69 73 46 02 04 00   amco laborisF...
|   3968: 81 11 73 65 64 20 64 6f 20 65 69 75 73 6d 6f 64   ..sed do eiusmod
|   3984: 20 74 65 6d 70 6f 72 20 69 6e 63 69 64 69 64 75    tempor incididu
|   4000: 6e 74 20 75 74 20 6c 61 62 6f 72 65 20 65 74 20   nt ut labore et 
|   4016: 64 6f 6c 6f 72 65 20 6d 61 67 6e 61 20 61 6c 69   dolore magna ali
|   4032: 71 75 61 2e 3a 01 03 00 7b 4c 6f 72 65 6d 20 69   qua.:....Lorem i
|   4048: 70 73 75 6d 20 64 6f 6c 6f 72 20 73 69 74 20 61   psum dolor sit a
|   4064: 6d 65 74 2c 20 63 6f 6e 73 65 63 74 65 74 75 72   met, consectetur
|   4080: 20 61 64 69 70 69 73 63 69 6e 67 20 65 6c 69 74    adipiscing elit
| page 3 offset 8192
|      0: 0d 00 00 00 00 10 00 00 00 00 00 00 00 00 00 00   ................
| page 4 offset 12288
|      0: 0d 00 00 00 03 0a a6 00 0d 57 0c 4a 0a a6 00 00   .........W.J....
|   2720: 00 00 00 00 00 00 83 21 03 08 02 08 08 08 17 86   .......!........
|   2736: 30 08 00 30 20 34 30 32 00 02 61 64 06 01 08 00   0..0 402..ad....
|   2752: 02 04 00 01 01 6c 06 02 0c 00 02 04 00 01 01 6d   .....l.........m
|   2768: 03 01 06 00 01 01 6e 03 08 09 00 01 01 75 03 05   ......n......u..
|   2784: 03 00 00 02 63 69 03 06 01 00 01 01 6f 07 01 07   ....ci......o...
|   2800: 00 03 07 03 00 01 01 75 06 07 05 00 01 04 00 00   .......u........
|   2816: 02 64 65 03 08 07 00 01 01 6f 0d 01 04 00 01 03   .de......o......
|   2832: 09 00 03 05 00 01 03 00 01 01 75 03 05 02 00 00   ..........u.....
|   2848: 02 65 61 03 04 06 00 01 01 69 03 02 04 00 01 01   .ea......i......
|   2864: 6c 03 01 09 00 01 01 6e 03 03 03 00 01 01 73 06   l......n......s.
|   2880: 05 0b 00 03 0b 00 01 01 74 03 02 09 00 01 01 75   ........t......u
|   2896: 03 06 04 00 01 01 78 09 03 09 00 01 05 00 03 02   ......x.........
|   2912: 00 00 02 66 75 03 06 05 00 00 02 69 64 03 08 0a   ...fu......id...
|   2928: 00 01 01 6e 0a 02 06 00 03 06 04 00 03 03 00 01   ...n............
|   2944: 01 70 03 01 13 00 01 01 72 03 05 04 00 00 02 6c   .p......r......l
|   2960: 61 09 02 08 00 01 0b 00 05 0c 00 01 01 6f 03 01   a............o..
|   2976: 02 00 00 02 6d 61 03 02 0b 00 01 01 69 03 03 05   ....ma......i...
|   2992: 00 01 01 6f 03 08 08 00 00 02 6e 69 03 04 02 00   ...o......ni....
|   3008: 01 01 6f 06 03 08 00 04 06 00 01 01 75 03 06 06   ..o.........u...
|   3024: 00 00 02 6f 63 03 07 04 00 01 01 66 03 08 06 00   ...oc......f....
|   3040: 00 02 70 61 03 06 07 00 01 01 72 03 07 07 00 00   ..pa......r.....
|   3056: 02 71 75 06 03 07 00 05 05 00 00 02 72 65 03 05   .qu.........re..
|   3072: 07 00 00 02 73 65 03 02 02 00 01 01 69 06 01 05   ....se......i...
|   3088: 00 06 03 00 01 01 75 03 08 02 00 00 02 74 65 03   ......u......te.
|   3104: 03 05 00 00 02 72 bc 03 03 0a 00 01 01 74 09 02   .....r.......t..
|   3120: 07 00 01 02 00 01 03 00 00 02 76 65 06 03 06 00   ..........ve....
|   3136: 02 0a 00 01 01 6f 03 05 09 00 82 0a 02 08 02 08   .....o..........
|   3152: 08 08 17 84 02 04 00 30 20 32 35 31 00 01 61 13   .......0 251..a.
|   3168: 01 06 04 00 01 0c 00 01 04 00 01 04 00 01 03 00   ................
|   3184: 03 09 00 00 01 63 10 01 07 00 03 07 03 00 02 02   .....c..........
|   3200: 00 01 05 00 01 04 00 00 01 64 11 01 04 00 01 03   .........d......
|   3216: 09 00 03 02 05 00 01 03 00 02 07 00 00 01 65 1b   ..............e.
|   3232: 01 09 00 01 04 07 00 01 03 08 00 01 05 03 00 01   ................
|   3248: 0b 00 01 04 00 01 02 00 01 0b 00 00 01 66 03 06   .............f..
|   3264: 05 00 00 01 69 0f 01 03 00 01 06 00 02 04 04 04   ....i...........
|   3280: 00 03 03 09 00 00 01 6c 0c 01 02 00 01 08 00 01   .......l........
|   3296: 0b 00 05 0c 00 00 01 6d 09 02 0b 00 01 05 00 05   .......m........
|   3312: 08 00 00 01 6e 0c 03 08 00 01 02 00 02 06 00 01   ....n...........
|   3328: 06 00 f0 01 6f 06 07 04 00 01 06 00 00 01 70 06   ....o.........p.
|   3344: 06 07 00 01 07 00 00 01 71 06 03 07 00 05 05 00   ........q.......
|   3360: 00 01 72 03 05 08 00 00 01 73 0c 01 05 00 01 02   ..r......s......
|   3376: 00 05 03 00 01 02 00 00 01 74 03 02 05 00 00 01   .........t......
|   3392: 75 0a 02 07 00 01 02 0a 00 01 03 00 00 01 76 07   u.............v.
|   3408: 03 06 00 02 09 03 00 85 26 01 08 08 08 08 08 17   ........&.......
|   3424: 8a 3e 30 21 36 36 35 00 02 61 64 03 03 04 00 02   .>0!665..ad.....
|   3440: 08 69 70 69 73 63 69 6e 67 03 01 08 00 01 05 6c   .ipiscing......l
|   3456: 69 71 75 61 03 02 0c 00 05 02 69 70 03 04 04 00   iqua......ip....
|   3472: 01 03 6d 65 74 03 01 06 00 01 03 6e 69 6d 03 08   ..met......nim..
|   3488: 09 00 01 03 75 74 65 03 05 03 00 00 06 63 69 6c   ....ute......cil
|   3504: 6c 75 6d 03 06 02 00 01 06 6f 6d 6d 6f 64 6f 03   lum......ommodo.
|   3520: 04 07 00 02 09 6e 73 65 63 74 65 74 75 72 03 01   .....nsectetur..
|   3536: 07 00 05 04 71 75 61 74 03 04 08 00 01 04 75 6c   ....quat......ul
|   3552: 70 61 03 08 04 00 02 07 70 69 64 61 74 61 74 03   pa......pidatat.
|   3568: 07 05 00 00 08 64 65 73 65 72 75 6e 74 03 08 07   .....deserunt...
|   3584: 00 01 01 6f 03 02 03 00 02 03 6c 6f 72 06 01 04   ...o......lor...
|   3600: 00 04 05 00 05 01 65 06 02 0a 00 04 03 00 01 03   ......e.........
|   3616: 75 69 73 03 05 02 00 00 02 65 61 03 04 06 00 01   uis......ea.....
|   3632: 06 69 75 73 6d 6f 64 03 02 04 00 01 03 6c 69 74   .iusmod......lit
|   3648: 03 01 09 00 01 03 6e 69 6d 03 03 03 00 01 03 73   ......nim......s
|   3664: 73 65 03 05 0b 00 02 01 74 03 08 0b 00 01 01 74   se......t......t
|   3680: 03 02 09 00 01 01 75 03 06 04 00 01 01 78 03 04   ......u......x..
|   3696: 05 00 02 07 63 65 70 74 65 75 72 03 07 02 00 02   ....cepteur.....
|   3712: 0a 65 72 63 69 74 61 74 69 6f 6e 03 03 09 00 00   .ercitation.....
|   3728: 06 66 75 67 69 61 74 03 06 05 00 00 02 69 64 03   .fugiat......id.
|   3744: 08 0a 00 01 01 6e 07 05 06 04 00 03 03 00 02 08   .....n..........
|   3760: 63 69 64 69 64 75 6e 74 03 02 06 00 01 04 70 73   cididunt......ps
|   3776: 75 6d 03 01 03 00 01 04 72 75 72 65 03 05 04 00   um......rure....
|   3792: 00 06 6c 61 62 6f 72 65 03 02 08 00 05 02 69 73   ..labore......is
|   3808: 03 03 0b 00 05 02 75 6d 03 08 0c 00 01 04 6f 72   ......um......or
|   3824: 65 6d 03 01 02 00 00 05 6d 61 67 6e 61 03 02 0b   em......magna...
|   3840: 00 01 04 69 6e 69 6d 03 03 05 00 01 05 6f 6c 6c   ...inim......oll
|   3856: 69 74 03 08 08 00 00 04 6e 69 73 69 03 04 02 00   it......nisi....
|   3872: 01 02 6f 6e 03 07 06 00 02 05 73 74 72 75 64 03   ..on......strud.
|   3888: 03 08 00 01 04 75 6c 6c 61 03 06 06 00 00 08 6f   .....ulla......o
|   3904: 63 63 61 65 63 61 74 03 07 04 00 01 06 66 66 69   ccaecat......ffi
|   3920: 63 69 61 03 08 06 00 00 08 70 61 72 69 61 74 75   cia......pariatu
|   3936: 72 03 06 07 00 01 07 72 6f 69 64 65 6e 74 03 07   r......roident..
|   3952: 07 00 00 03 71 75 69 03 08 05 00 03 01 73 03 03   ....qui......s..
|   3968: 07 00 00 0d 72 65 41 72 65 68 65 6e 64 65 72 69   ....reArehenderi
|   3984: 74 03 05 07 00 00 03 73 65 64 03 02 02 00 01 03   t......sed......
|   4000: 69 6e 74 03 07 03 00 02 01 74 03 01 05 00 01 03   int......t......
|   4016: 75 6e 74 03 08 02 00 00 06 74 65 6d 70 6f 72 03   unt......tempor.
|   4032: 02 05 00 00 07 75 6c 6c 61 6d 63 6f 03 03 0a 00   .....ullamco....
|   4048: 01 01 74 09 02 07 00 01 02 00 01 03 00 00 05 76   ..t............v
|   4064: 65 6c 69 74 03 05 0a 00 02 04 6e 69 61 6d 03 03   elit......niam..
|   4080: 06 00 01 08 70 6c 75 70 74 61 74 65 03 05 09 00   ....pluptate....
| page 5 offset 16384
|      0: 0a 00 00 00 03 0f eb 00 0f fb 0f f3 0f eb 00 00   ................
|   4064: 00 00 00 00 00 00 00 00 00 00 00 07 04 02 08 01   ................
|   4080: 08 00 03 07 04 0a 98 01 04 00 02 04 04 08 08 09   ................
| page 6 offset 20480
|      0: 0d 00 00 00 08 0f d0 00 0f fa 0f f4 0f ee 0f e8   ................
|     16: 0f e2 00 00 00 00 00 00 00 00 00 00 00 00 00 00   ................
|   4048: 04 08 03 00 0e 0b 04 07 03 00 0e 06 04 06 03 00   ................
|   4064: 0e 06 04 05 03 00 0e 0a 04 04 03 00 0e 07 04 03   ................
|   4080: 03 00 0e 0a 04 02 03 00 0e 0b 04 01 03 00 0e 08   ................
| page 7 offset 24576
|      0: 0d 00 00 00 01 0f f7 00 0f f7 00 00 00 00 00 00   ................
|   4080: 00 00 00 00 00 00 00 07 00 03 00 14 08 45 b5 03   .............E..
| end crash-afecd03c862e58.db
}]} {}

do_execsql_test 20.1 {
  PRAGMA writable_schema = 1;
  BEGIN;
  WITH RECURSIVE c(x) AS (VALUES(1) UNION ALL SELECT x+1 FROM c WHERE x<10)
    INSERT INTO t1(a) SELECT randomblob(3000) FROM c;
}

do_execsql_test 20.2 {
  INSERT INTO t1(t1) VALUES('optimize');
} 

#-------------------------------------------------------------------------
reset_db
do_test 21.0 {
  sqlite3 db {}
  db deserialize [decode_hexdb {
| size 28672 pagesize 4096 filename crash-18cc014e42e828.db
| page 1 offset 0
|      0: 53 51 4c 69 74 65 20 66 6f 72 6d 61 74 20 33 00   SQLite format 3.
|     16: 10 00 01 01 00 40 20 20 00 00 00 00 00 00 00 07   .....@  ........
|     32: 00 00 00 02 00 00 00 01 00 00 00 07 00 00 00 04   ................
|     96: 00 00 00 00 0d 0e b1 00 06 0d a4 00 0f 8d 0f 21   ...............!
|    112: 0e b9 0d c8 0e 7e 0d a4 00 00 00 00 00 00 00 00   .....~..........
|   3488: 00 00 00 00 22 07 06 17 11 11 01 31 74 61 62 6c   ...........1tabl
|   3504: 66 74 32 74 32 07 43 52 45 41 54 45 20 54 41 42   ft2t2.CREATE TAB
|   3520: 4c 45 20 74 32 28 78 29 81 33 05 07 17 1f 1f 01   LE t2(x).3......
|   3536: 82 35 74 61 62 6c 65 74 31 5f 73 75 67 64 69 72   .5tablet1_sugdir
|   3552: 74 31 5f 73 65 67 64 69 72 05 43 52 45 41 54 45   t1_segdir.CREATE
|   3568: 20 54 41 42 4c 45 20 27 74 31 5f 73 65 67 64 69    TABLE 't1_segdi
|   3584: 72 27 28 6c 65 76 65 6c 20 49 4e 54 45 47 45 52   r'(level INTEGER
|   3600: 2c 69 64 78 20 49 4e 54 45 47 45 52 2c 73 74 61   ,idx INTEGER,sta
|   3616: 72 74 5f 62 6c 6f 63 6b 20 49 4e 54 46 47 45 52   rt_block INTFGER
|   3632: 2c 6c 65 61 76 65 73 5f 65 6e 64 5f 62 6c 6f 63   ,leaves_end_bloc
|   3648: 6b 20 49 4e 54 45 47 45 52 2c 65 6e 64 5f 62 6c   k INTEGER,end_bl
|   3664: 6f 63 6b 20 49 4e 54 45 47 45 62 2c 72 6f 6f 74   ock INTEGEb,root
|   3680: 20 42 4c 4f 42 2c 50 52 49 4d 41 52 59 20 4b 45    BLOB,PRIMARY KE
|   3696: 59 28 6c 65 76 65 6c 2c 20 69 64 78 29 29 31 06   Y(level, idx))1.
|   3712: 06 17 45 1f 01 00 69 6e 64 65 78 73 71 6c 69 74   ..E...indexsqlit
|   3728: 65 5f 61 75 74 6f 69 6e 64 65 78 5f 74 31 5f 73   e_autoindex_t1_s
|   3744: 65 67 64 69 72 5f 31 74 31 5f 73 65 67 64 69 72   egdir_1t1_segdir
|   3760: 06 0f c7 00 08 00 00 00 00 66 04 07 17 23 23 01   .........f...##.
|   3776: 81 13 74 61 62 6c 65 74 31 5f 73 65 67 6d 65 6e   ..tablet1_segmen
|   3792: 74 73 74 31 5f 73 65 67 6d 65 6e 74 73 04 43 52   tst1_segments.CR
|   3808: 45 41 54 45 20 54 41 42 4c 45 20 27 74 31 5f 73   EATE TABLE 't1_s
|   3824: 65 67 6d 65 6e 74 73 27 28 62 6c 6f 63 6b 69 64   egments'(blockid
|   3840: 20 49 4e 54 45 47 45 52 20 50 52 49 4d 41 52 59    INTEGER PRIMARY
|   3856: 20 4b 45 59 2c 20 62 6c 6f 63 6b 20 42 4c 4f 42    KEY, block BLOB
|   3872: 29 6a 03 07 17 21 21 01 81 1f 74 61 62 6c 65 74   )j...!!...tablet
|   3888: 31 5f 63 6f 6e 74 65 6e 74 74 31 5f 63 6f 6e 74   1_contentt1_cont
|   3904: 65 6e 74 03 43 52 45 41 54 45 20 54 41 42 4c 45   ent.CREATE TABLE
|   3920: 20 27 74 31 5f 63 6f 6e 74 65 6e 74 27 28 64 6f    't1_content'(do
|   3936: 63 69 64 20 49 4e 54 45 47 45 52 20 50 52 49 4d   cid INTEGER PRIM
|   3952: 41 52 59 20 4b 45 59 2c 20 27 63 30 61 27 2c 20   ARY KEY, 'c0a', 
|   3968: 27 63 31 62 27 2c 20 27 63 32 63 27 29 38 02 06   'c1b', 'c2c')8..
|   3984: 17 11 11 08 5f 74 61 62 6c 65 74 31 74 31 43 52   ...._tablet1t1CR
|   4000: 45 41 54 45 20 56 49 52 54 55 41 4c 20 54 41 42   EATE VIRTUAL TAB
|   4016: 4c 45 20 74 31 20 55 53 49 4e 47 20 66 74 73 33   LE t1 USING fts3
|   4032: 28 61 2c 62 2c 63 29 00 00 00 00 00 00 00 00 00   (a,b,c).........
| page 3 offset 8192
|      0: 0d 00 00 00 25 0b 48 00 0f d8 0f af 0f 86 0f 74   ....%.H........t
|     16: 0f 61 0f 4e 0f 2f 0f 0f 0e ef 0e d7 0e be 0e a5   .a.N./..........
|     32: 0e 8d 0e 74 0e 5b 0e 40 0e 24 0e 08 0d ef 0d d5   ...t.[.@.$......
|     48: 0d bb 0d a0 0d 84 0d 68 0d 4e 0d 35 0d 1b 0c fb   .......h.N.5....
|     64: 0c da 0c b9 0c 99 0c 78 0c 57 0c 3e 0c 24 00 00   .......x.W.>.$..
|   2880: 00 00 00 00 00 00 00 00 81 3f 25 06 00 82 7f 00   .........?%.....
|   2896: 00 43 4f 4d 50 49 4c 45 52 3d 67 63 63 2d 35 2e   .COMPILER=gcc-5.
|   2912: 34 23 00 20 32 30 31 36 30 36 30 39 20 44 45 42   4#. 20160609 DEB
|   2928: 55 47 20 45 4e 41 42 4c 45 20 44 42 53 54 41 54   UG ENABLE DBSTAT
|   2944: 20 56 54 41 42 20 45 4e 41 42 4c 45 20 46 43 53    VTAB ENABLE FCS
|   2960: 34 20 45 4e 41 42 4c 45 20 46 54 53 35 20 45 4e   4 ENABLE FTS5 EN
|   2976: 41 42 4c 45 20 47 45 4f 50 4f 4c 59 20 45 4e 41   ABLE GEOPOLY ENA
|   2992: 42 4c 45 20 4a 53 4f 4e 31 20 45 4e 41 42 4c 45   BLE JSON1 ENABLE
|   3008: 20 4d 45 4d 53 59 53 35 20 45 4e 41 42 4c 45 20    MEMSYS5 ENABLE 
|   3024: 52 54 52 45 45 20 4d 41 58 20 4d 45 4d 4f 52 59   RTREE MAX MEMORY
|   3040: 3d 35 30 30 30 30 30 30 30 20 4f 4d 49 54 20 4c   =50000000 OMIT L
|   3056: 4f 41 44 20 45 58 54 45 4e 53 49 4f 4e 20 54 48   OAD EXTENSION TH
|   3072: 52 45 41 44 53 41 46 45 3d 30 18 24 05 00 25 0f   READSAFE=0.$..%.
|   3088: 19 54 48 52 45 41 44 53 41 46 45 3d 30 58 42 49   .THREADSAFE=0XBI
|   3104: 4e 41 52 59 18 23 05 00 25 0f 19 54 48 52 45 41   NARY.#..%..THREA
|   3120: 44 53 41 46 45 3d 30 58 4e 4f 43 41 53 45 17 22   DSAFE=0XNOCASE..
|   3136: 05 00 25 0f 17 54 48 52 45 41 44 53 41 46 45 3d   ..%..THREADSAFE=
|   3152: 30 58 52 54 52 49 4d 20 21 05 00 33 0f 19 4f 4d   0XRTRIM !..3..OM
|   3168: 49 54 20 4c 4f 41 44 20 45 58 54 45 4e 53 49 4f   IT LOAD EXTENSIO
|   3184: 4e 58 42 49 4e 41 52 59 1f 20 05 00 33 0f 19 4f   NXBINARY. ..3..O
|   3200: 4d 49 54 20 4c 4f 41 44 20 45 58 54 45 4e 53 49   MIT LOAD EXTENSI
|   3216: 4f 4e 58 4e 4f 43 41 53 45 1e 1f 05 00 33 0f 17   ONXNOCASE....3..
|   3232: 4f 4d 49 54 20 4c 4f 41 44 20 45 58 54 45 4e 53   OMIT LOAD EXTENS
|   3248: 49 4f 4e 58 52 54 52 49 4d 1f 1e 05 00 33 0f 19   IONXRTRIM....3..
|   3264: 4d 41 58 20 4d 45 4d 4f 52 59 3d 35 30 30 30 30   MAX MEMORY=50000
|   3280: 30 30 30 58 42 49 4e 41 52 59 1f 1d 05 00 33 0f   000XBINARY....3.
|   3296: 19 4d 41 58 20 4d 45 4d 4f 52 59 3d 35 30 30 30   .MAX MEMORY=5000
|   3312: 30 30 30 30 58 4e 4f 43 41 53 45 1e 1c 05 00 33   0000XNOCASE....3
|   3328: 0f 17 4d 41 58 20 4d 45 4d 4f 52 59 3d 35 30 30   ..MAX MEMORY=500
|   3344: 30 30 30 30 30 58 52 54 52 49 4d 18 1b 05 00 25   00000XRTRIM....%
|   3360: 0f 19 45 4e 41 42 4c 45 20 52 54 52 45 45 58 42   ..ENABLE RTREEXB
|   3376: 49 4e 41 52 59 18 1a 05 00 25 0f 19 45 4e 41 42   INARY....%..ENAB
|   3392: 4c 45 20 52 54 52 45 45 58 4e 4f 43 41 53 45 17   LE RTREEXNOCASE.
|   3408: 19 05 00 25 0f 17 45 4e 41 42 4c 45 20 52 54 52   ...%..ENABLE RTR
|   3424: 45 45 58 52 54 52 49 4d 1a 18 05 00 29 0f 19 45   EEXRTRIM....)..E
|   3440: 4e 41 42 4c 45 20 4d 45 4d 53 59 53 35 58 42 49   NABLE MEMSYS5XBI
|   3456: 4e 41 52 59 1a 17 05 00 29 0f 19 45 4e 41 42 4c   NARY....)..ENABL
|   3472: 45 20 4d 45 4d 53 59 53 35 58 4e 4f 43 41 53 45   E MEMSYS5XNOCASE
|   3488: 19 16 05 00 29 0f 17 45 4e 41 42 4c 45 20 4d 45   ....)..ENABLE ME
|   3504: 4d 53 59 53 35 58 52 54 52 49 4d 18 15 05 00 25   MSYS5XRTRIM....%
|   3520: 0f 19 45 4e 41 42 4c 45 20 4a 53 4f 4e 31 58 42   ..ENABLE JSON1XB
|   3536: 49 4e 41 52 59 18 14 05 00 25 0f 19 45 4e 41 42   INARY....%..ENAB
|   3552: 4c 45 20 4a 53 4f 4e 31 58 4e 4f 43 41 53 45 17   LE JSON1XNOCASE.
|   3568: 13 05 00 25 0f 17 45 4e 41 42 4c 45 20 4a 53 4f   ...%..ENABLE JSO
|   3584: 4e 31 58 52 54 52 49 4d 1a 12 05 00 29 0f 19 45   N1XRTRIM....)..E
|   3600: 4e 41 42 4c 45 20 47 45 4f 50 4f 4c 59 58 42 39   NABLE GEOPOLYXB9
|   3616: 4e 41 52 59 1a 11 05 00 29 0f 19 45 4e 41 1e 4c   NARY....)..ENA.L
|   3632: 45 20 47 45 4f 50 4f 4c 59 58 4e 4f 43 41 53 45   E GEOPOLYXNOCASE
|   3648: 19 10 05 00 29 0f 17 45 4e 41 42 4c 45 20 47 45   ....)..ENABLE GE
|   3664: 4f 50 4f 4c 59 58 52 54 52 49 4d 17 0f 05 00 23   OPOLYXRTRIM....#
|   3680: 0f 19 45 4e 41 42 4c 45 20 46 54 53 35 58 42 49   ..ENABLE FTS5XBI
|   3696: 4e 41 52 59 17 0e 05 00 23 0f 19 45 4e 41 42 4c   NARY....#..ENABL
|   3712: 45 20 46 54 53 35 58 4e 4f 43 41 53 45 16 0d 05   E FTS5XNOCASE...
|   3728: 00 23 0f 16 45 4e 41 42 4c 45 20 46 54 53 35 58   .#..ENABLE FTS5X
|   3744: 52 54 52 49 4d 17 0c 05 00 23 0f 19 45 4e 41 42   RTRIM....#..ENAB
|   3760: 4c 45 20 46 54 53 34 58 42 48 4e 41 52 59 17 0b   LE FTS4XBHNARY..
|   3776: 05 00 23 0e 19 45 4e 41 42 4c 45 20 46 54 53 35   ..#..ENABLE FTS5
|   3792: 58 4e 4f 43 40 53 45 16 0a 05 00 23 0f 17 45 4e   XNOC@SE....#..EN
|   3808: 41 42 4c 45 20 46 54 53 34 58 52 2e 52 49 4d 1e   ABLE FTS4XR.RIM.
|   3824: 09 05 00 31 0f 19 45 4e 41 42 4c 45 20 44 42 53   ...1..ENABLE DBS
|   3840: 54 41 54 20 56 54 41 42 58 42 49 4e 41 52 59 1e   TAT VTABXBINARY.
|   3856: 08 05 00 31 0f 19 45 4e 41 42 4c 45 20 44 42 53   ...1..ENABLE DBS
|   3872: 54 41 54 20 56 54 41 42 58 4e 4f 43 41 53 45 1d   TAT VTABXNOCASE.
|   3888: 07 05 00 31 0f 17 45 4e 41 42 4c 45 20 44 42 53   ...1..ENABLE DBS
|   3904: 54 41 54 20 56 54 41 42 58 52 54 52 49 4d 11 06   TAT VTABXRTRIM..
|   3920: 05 00 17 0f 19 44 45 42 55 47 58 42 49 4e 41 52   .....DEBUGXBINAR
|   3936: 59 11 05 05 00 17 0f 19 44 45 42 55 47 58 4e 4f   Y.......DEBUGXNO
|   3952: 43 41 53 45 10 04 05 00 17 0f 17 44 45 42 55 47   CASE.......DEBUG
|   3968: 58 52 54 52 49 4d 27 03 05 00 43 0f 19 43 4f 4d   XRTRIM'...C..COM
|   3984: 50 49 4c 45 52 3d 67 63 63 2d 35 2e 34 2e 30 20   PILER=gcc-5.4.0 
|   4000: 32 30 31 36 30 36 30 39 58 42 49 da 41 52 59 27   20160609XBI.ARY'
|   4016: 02 05 00 43 0f 19 43 4f 4d 50 49 4c 45 52 3d 67   ...C..COMPILER=g
|   4032: 63 63 2d 35 2e 34 2e 30 20 32 30 31 36 30 36 30   cc-5.4.0 2016060
|   4048: 39 58 4e 4f 43 41 53 45 26 01 05 00 43 0f 17 43   9XNOCASE&...C..C
|   4064: 4f 4d 50 49 4c 45 52 3d 67 63 63 2d 00 00 00 00   OMPILER=gcc-....
| page 5 offset 16384
|      0: 0d 00 00 00 02 0b a0 00 0c ad 0b a0 00 00 00 00   ................
|   2976: 82 0a 02 08 08 09 08 08 17 84 06 30 20 32 35 33   ...........0 253
|   2992: 00 01 30 04 25 06 1b 00 00 08 32 30 31 36 30 36   ..0.%.....201606
|   3008: 30 3a 03 25 07 00 00 01 34 03 25 05 00 00 01 35   0:.%....4.%....5
|   3024: 03 25 04 00 01 07 30 30 30 30 30 30 30 03 25 1a   .%....0000000.%.
|   3040: 00 00 08 63 6f 6d 70 69 6c 65 72 03 25 02 00 00   ...compiler.%...
|   3056: 06 64 62 73 74 61 74 03 25 0a 00 01 04 65 62 75   .dbstat.%....ebu
|   3072: 67 03 25 08 00 00 06 65 6e 61 62 6c 65 09 25 09   g.%....enable.%.
|   3088: 05 04 04 04 04 04 00 01 08 78 74 65 6e 73 69 6f   .........xtensio
|   3104: 6e 03 25 1d 00 00 04 66 74 73 34 03 25 0d 00 03   n.%....fts4.%...
|   3120: 01 35 03 25 0f 00 00 03 57 63 63 03 25 03 00 01   .5.%....Wcc.%...
|   3136: 06 65 6f 70 6f 6c 79 03 25 11 00 00 05 6a 73 6f   .eopoly.%....jso
|   3152: 6e 31 03 25 13 00 00 04 6c 6f 61 64 03 25 1c 00   n1.%....load.%..
|   3168: 00 03 6d 61 78 03 25 18 00 01 05 65 6d 6f 72 79   ..max.%....emory
|   3184: 03 25 19 00 03 04 73 79 73 35 03 25 15 00 00 04   .%....sys5.%....
|   3200: 6f 6d 69 74 03 25 1b 00 00 05 72 74 72 65 65 03   omit.%....rtree.
|   3216: 25 17 00 00 0a 74 68 72 65 64 64 73 61 66 65 03   %....threddsafe.
|   3232: 25 1e 00 00 04 76 74 61 62 03 25 0b 00 86 50 01   %....vtab.%...P.
|   3248: 08 08 08 08 08 17 8d 12 30 20 38 33 35 00 01 30   ........0 835..0
|   3264: 12 01 06 00 01 06 00 01 06 00 1f 03 00 01 03 00   ................
|   3280: 01 03 00 00 08 32 30 31 36 30 36 30 39 09 01 07   .....20160609...
|   3296: 00 01 07 00 01 07 00 00 01 34 09 01 05 00 01 05   .........4......
|   3312: 00 01 05 00 00 01 35 09 01 04 00 01 04 00 01 04   ......5.........
|   3328: 00 01 07 30 30 30 30 30 30 30 09 1c 04 00 01 04   ...0000000......
|   3344: 00 01 04 00 00 06 62 69 6e 61 72 79 3c 03 01 02   ......binary<...
|   3360: 02 00 03 01 02 02 00 03 01 02 02 00 03 01 02 02   ................
|   3376: 00 03 01 02 02 00 03 01 02 02 00 03 01 02 02 00   ................
|   3392: 03 01 02 02 00 03 01 02 02 00 03 01 02 02 00 03   ................
|   3408: 01 02 02 00 03 01 02 02 00 00 08 63 6f 6d 70 69   ...........compi
|   3424: 6c 65 72 09 01 02 00 01 02 00 01 02 00 00 06 64   ler............d
|   3440: 62 73 74 61 74 09 07 03 00 01 03 00 01 03 00 01   bstat...........
|   3456: 04 65 62 75 67 09 04 02 00 01 02 00 01 02 00 00   .ebug...........
|   3472: 06 65 6e 61 62 6c 65 3f 07 02 00 01 02 00 01 12   .enable?........
|   3488: 00 01 02 00 01 02 00 01 02 00 01 02 0e 97 02 00   ................
|   3504: 01 02 00 01 cb 00 01 02 00 01 02 00 01 02 10 01   ................
|   3520: 02 00 01 02 00 01 02 01 01 02 00 01 02 00 01 02   ................
|   3536: 00 01 02 00 01 02 00 01 08 78 74 65 6e 73 69 6f   .........xtensio
|   3552: 6e 09 1f 04 00 01 04 00 01 04 00 00 04 66 74 73   n............fts
|   3568: 34 09 0a 03 00 01 03 00 01 03 00 03 01 35 09 0d   4............5..
|   3584: 03 00 01 03 00 01 03 00 00 03 67 63 63 09 01 03   ..........gcc...
|   3600: 00 01 03 00 01 03 00 01 06 65 6f 70 6f 6c 79 09   .........eopoly.
|   3616: 10 03 00 01 03 00 01 03 00 00 05 6a 73 6f 6e 31   ...........json1
|   3632: 09 13 03 00 01 03 00 01 03 00 00 04 6c 6f 61 64   ............load
|   3648: 09 1f 03 00 01 03 00 01 03 00 00 03 6d 61 78 09   ............max.
|   3664: 1c 02 00 01 02 00 01 02 00 01 05 65 6d 6f 72 79   ...........emory
|   3680: 09 1c 03 00 01 03 00 01 03 00 03 04 73 79 73 35   ............sys5
|   3696: 09 16 03 00 01 03 00 01 03 00 00 06 6e 6f 63 61   ............noca
|   3712: 73 65 3c 02 01 02 02 00 03 01 02 02 00 03 01 02   se<.............
|   3728: 02 00 03 01 02 02 00 03 01 02 02 00 ab 01 02 02   ................
|   3744: 00 03 01 02 02 00 03 01 02 02 00 03 01 02 02 00   ................
|   3760: 03 01 02 02 00 03 01 02 02 00 03 01 02 02 00 00   ................
|   3776: 04 6f 6d 69 74 09 1f 12 00 01 02 00 01 02 00 00   .omit...........
|   3792: 05 72 74 72 65 65 09 19 03 00 01 03 00 01 03 00   .rtree..........
|   3808: 03 02 69 6d 3c 01 01 02 02 00 03 01 02 02 00 03   ..im<...........
|   3824: 01 02 02 00 03 01 02 02 00 03 01 02 02 00 03 01   ................
|   3840: 02 02 00 03 01 02 01 f0 03 01 02 02 00 03 01 02   ................
|   3856: 02 00 03 01 02 02 00 03 01 02 02 00 03 01 02 02   ................
|   3872: 00 00 0a 74 68 72 65 61 64 73 61 66 65 09 22 02   ...threadsafe...
|   3888: 00 01 02 00 02 02 00 00 04 76 74 61 62 09 07 04   .........vtab...
|   3904: 00 01 04 00 01 04 00 00 01 78 b4 01 01 01 08 a2   .........x......
|   3920: 00 01 01 01 02 00 01 01 01 02 00 02 01 01 02 00   ................
|   3936: 01 01 01 01 ff f1 01 01 02 00 01 01 01 02 00 01   ................
|   3952: 01 01 02 00 01 01 01 02 00 01 01 01 02 00 01 01   ................
|   3968: 01 02 00 01 01 01 02 00 01 01 01 02 00 01 01 01   ................
|   3984: 02 00 01 01 01 02 00 01 01 01 02 01 01 01 01 02   ................
|   4000: 00 01 01 01 02 00 01 01 01 02 00 01 01 01 02 00   ................
|   4016: 01 01 01 02 00 01 01 01 02 00 01 01 01 03 00 01   ................
|   4032: 01 01 02 00 01 01 01 02 00 01 01 01 02 00 01 01   ................
|   4048: 01 02 00 01 01 01 02 00 01 01 01 02 00 01 01 01   ................
|   4064: 02 00 01 01 01 02 00 01 02 01 02 00 01 01 01 02   ................
|   4080: 00 01 01 01 02 00 01 01 01 02 00 01 01 01 02 00   ................
| page 6 offset 20480
|      0: 0a 00 00 00 02 0f f5 00 0f fb 0f f5 00 00 00 00   ................
|   4080: 00 00 00 00 00 05 04 08 09 01 02 04 04 08 08 09   ................
| page 7 offset 24576
|      0: 0d 00 00 00 05 0f b8 00 00 00 00 00 00 00 00 00   ................
|   4016: 00 00 00 00 00 00 00 00 0d 05 02 23 61 75 74 6f   ...........#auto
|   4032: 6d 65 72 67 65 3d 35 0d 04 02 23 6d 65 72 67 65   merge=5...#merge
|   4048: 3d 31 30 30 2c 38 11 03 02 2b 69 6e 74 65 67 72   =100,8...+integr
|   4064: 69 74 79 2d 63 68 65 63 6b 09 02 02 1b 72 65 62   ity-check....reb
|   4080: 75 69 6c 64 0a 01 02 1d 00 00 00 00 00 00 00 00   uild............
| end crash-18cc014e42e828.db
}]} {}

do_catchsql_test 21.1 {
  PRAGMA writable_schema = 1;
  SELECT offsets(t1) FROM t1 WHERE t1 MATCH 'R*';
} {1 {database disk image is malformed}}

#-------------------------------------------------------------------------
reset_db
do_test 22.0 {
  sqlite3 db {}
  db deserialize [decode_hexdb {
| size 28672 pagesize 4096 filename crash-b794c89d922ac9.db
| page 1 offset 0
|      0: 53 51 4c 69 74 65 20 66 6f 72 6d 61 74 20 33 00   SQLite format 3.
|     16: 10 00 01 01 00 40 20 20 00 00 00 00 00 00 00 07   .....@  ........
|     32: 00 00 00 02 00 00 00 01 00 00 00 07 00 00 00 00   ................
|     96: 00 00 00 00 0d 0e b1 00 06 0d a4 00 0f 8d 0f 21   ...............!
|    112: 0e b9 0d c8 0e 7e 0d a4 00 00 00 00 00 00 00 00   .....~..........
|   3488: 00 00 00 00 22 07 06 17 11 11 01 31 74 61 62 6c   ...........1tabl
|   3504: 65 74 32 74 32 07 43 52 45 41 54 45 20 54 41 42   et2t2.CREATE TAB
|   3520: 4c 45 20 74 32 28 78 29 81 33 05 07 17 1f 1f 01   LE t2(x).3......
|   3536: 82 35 74 61 61 6c 65 74 31 5f 73 65 67 64 69 72   .5taalet1_segdir
|   3552: 74 31 5f 73 65 67 64 69 72 05 43 52 45 41 54 45   t1_segdir.CREATE
|   3568: 20 54 41 42 4c 45 20 27 74 31 5f 73 65 67 64 69    TABLE 't1_segdi
|   3584: 72 27 28 6c 65 76 65 6c 20 49 4e 54 45 47 45 52   r'(level INTEGER
|   3600: 2c 69 64 78 20 49 4e 54 45 47 45 52 2c 73 74 61   ,idx INTEGER,sta
|   3616: 72 74 5f 62 6c 6f 63 6b 20 49 4e 54 45 47 45 52   rt_block INTEGER
|   3632: 2c 6c 65 61 76 65 73 5f 65 6e 64 5f 62 6c 6f 63   ,leaves_end_bloc
|   3648: 6b 20 49 4e 54 45 47 45 52 2c 65 6e 64 5f 62 6c   k INTEGER,end_bl
|   3664: 6f 63 6b 20 49 4e 54 45 47 45 52 2c 72 6f 6f 74   ock INTEGER,root
|   3680: 20 42 4c 4f 42 2c 50 52 49 4d 41 52 59 20 4b 45    BLOB,PRIMARY KE
|   3696: 59 28 6c 65 76 65 6c 2c 20 69 64 78 29 29 31 06   Y(level, idx))1.
|   3712: 06 17 45 1f 01 00 69 6e 64 65 78 73 71 6c 69 74   ..E...indexsqlit
|   3728: 65 5f 61 75 74 6f 69 6e 64 65 78 5f 74 31 5f 73   e_autoindex_t1_s
|   3744: 65 67 64 69 72 5f 31 74 31 5f 73 65 67 64 69 72   egdir_1t1_segdir
|   3760: 06 0f c7 00 08 00 00 00 00 66 04 07 17 23 23 01   .........f...##.
|   3776: 81 13 74 61 62 6c 65 74 31 5f 73 65 67 6d 65 6e   ..tablet1_segmen
|   3792: 74 73 74 31 5f 73 65 67 6d 65 6e 74 73 04 43 52   tst1_segments.CR
|   3808: 45 41 54 45 20 54 41 42 4c 45 20 27 74 31 5f 73   EATE TABLE 't1_s
|   3824: 65 67 6d 65 6e 74 73 27 28 62 6c 6f 63 6b 69 64   egments'(blockid
|   3840: 20 49 4e 54 45 47 45 52 20 50 52 49 4d 41 52 59    INTEGER PRIMARY
|   3856: 20 4b 45 59 2c 20 62 6c 6f 63 6b 20 42 4c 4f 42    KEY, block BLOB
|   3872: 29 6a 03 07 17 21 21 01 81 1f 74 61 62 6c 65 74   )j...!!...tablet
|   3888: 31 5f 63 6f 6e 84 65 6e 74 74 31 5f 63 6f 6e 74   1_con.entt1_cont
|   3904: 65 6e 74 03 43 52 45 41 54 45 20 54 41 42 4c 45   ent.CREATE TABLE
|   3920: 20 27 74 31 5f 63 6f 6e 74 65 6e 74 27 28 64 6f    't1_content'(do
|   3936: 63 69 64 20 49 4e 54 45 47 45 52 20 50 52 49 4d   cid INTEGER PRIM
|   3952: 41 52 59 20 4b 45 59 2c 20 27 63 30 61 27 2c 20   ARY KEY, 'c0a', 
|   3968: 27 63 31 62 27 2c 20 27 63 32 63 27 29 38 02 06   'c1b', 'c2c')8..
|   3984: 17 11 11 08 5f 74 61 62 6c 65 74 31 74 31 43 52   ...._tablet1t1CR
|   4000: 45 41 54 45 20 56 49 52 54 55 41 4c 20 54 41 42   EATE VIRTUAL TAB
|   4016: 4c 45 20 74 31 20 55 53 49 4e 47 20 66 74 73 33   LE t1 USING fts3
|   4032: 28 61 2c 62 2c 63 29 00 00 00 00 00 00 00 00 00   (a,b,c).........
| page 3 offset 8192
|      0: 0d 00 00 00 25 0b 48 00 0f d8 0f af 0f 86 0f 74   ....%.H........t
|     16: 0f 61 0f 4e 0f 2f 0f 0f 0e ef 0e d7 0e be 0e a5   .a.N./..........
|     32: 0e 8d 0e 74 0e 5b 0e 40 0e 24 0e 08 0d ef 0d d5   ...t.[.@.$......
|     48: 0d bb 0d a0 0d 84 0d 68 0d 4f 0d 35 0d 1b 0c fb   .......h.O.5....
|     64: 0c da 0c b9 0c 99 0c 78 0c 57 0c 3e 0c 24 0c 0a   .......x.W.>.$..
|     80: 0b 48 00 00 00 00 00 00 00 00 00 00 00 00 00 00   .H..............
|   2880: 00 00 00 00 00 00 00 00 81 3f 25 06 00 82 7f 00   .........?%.....
|   2896: 00 43 4f 4d 50 49 4c 45 52 3d 67 63 63 2d 35 2e   .COMPILER=gcc-5.
|   2912: 34 2e 30 20 32 30 31 36 30 36 30 39 20 44 45 42   4.0 20160609 DEB
|   2928: 55 47 20 45 4e 41 42 4c 45 20 44 42 53 54 41 54   UG ENABLE DBSTAT
|   2944: 20 56 54 41 42 20 45 4e 41 42 4c 45 20 46 54 53    VTAB ENABLE FTS
|   2960: 34 20 45 4e 41 42 4c 45 20 46 54 53 35 20 45 4e   4 ENABLE FTS5 EN
|   2976: 41 42 4c 45 20 47 45 4f 50 4f 4c 59 20 45 4e 41   ABLE GEOPOLY ENA
|   2992: 42 4c 45 20 4a 53 4f 4e 31 20 45 4e 41 42 4c 45   BLE JSON1 ENABLE
|   3008: 20 4d 45 4d 53 49 53 35 20 45 4e 41 42 4c 45 20    MEMSIS5 ENABLE 
|   3024: 52 54 52 45 45 20 4d 41 58 20 4d 45 4d 4f 52 59   RTREE MAX MEMORY
|   3040: 3d 35 30 30 30 30 30 30 30 20 4f 4d 49 54 20 4c   =50000000 OMIT L
|   3056: 4f 41 44 20 45 58 54 45 4e 53 49 4f 4e 20 54 48   OAD EXTENSION TH
|   3072: 52 45 41 44 53 41 46 45 3d 30 18 24 05 00 26 0f   READSAFE=0.$..&.
|   3088: 19 54 48 52 45 41 44 53 41 46 45 3d 30 58 42 49   .THREADSAFE=0XBI
|   3104: 4e 41 52 59 18 23 05 00 25 0f 19 54 48 52 45 41   NARY.#..%..THREA
|   3120: 44 53 41 46 45 3d 30 58 4e 4f 43 41 53 45 17 22   DSAFE=0XNOCASE..
|   3136: 05 00 25 0f 17 54 48 52 45 41 44 53 41 46 45 3d   ..%..THREADSAFE=
|   3152: 30 58 52 54 52 49 4d 1f 21 05 00 33 0f 19 4f 4d   0XRTRIM.!..3..OM
|   3168: 49 54 20 4c 4f 41 44 20 45 58 54 45 4e 53 49 4f   IT LOAD EXTENSIO
|   3184: 4e 58 42 49 4e 41 52 59 1f 20 05 00 33 0f 19 4f   NXBINARY. ..3..O
|   3200: 4d 49 54 20 4c 4f 41 44 20 45 58 54 45 4e 53 49   MIT LOAD EXTENSI
|   3216: 4f 4e 58 4e 4f 43 41 53 45 1e 1f 05 00 33 0f 17   ONXNOCASE....3..
|   3232: 4f 4d 49 54 20 4c 4f 41 44 20 45 58 54 45 4e 53   OMIT LOAD EXTENS
|   3248: 49 4f 4e 58 52 54 52 49 4d 1f 1e 05 00 33 0f 19   IONXRTRIM....3..
|   3264: 4d 41 58 20 4d 45 4d 4f 52 59 3d 35 30 30 30 30   MAX MEMORY=50000
|   3280: 30 30 30 58 42 49 4e 41 52 59 1f 1d 05 00 33 0f   000XBINARY....3.
|   3296: 19 4d 41 58 20 4d 45 4d 4f 52 59 3d 35 30 30 30   .MAX MEMORY=5000
|   3312: 30 30 30 30 58 4e 4f 43 41 53 45 1e 1c 05 00 33   0000XNOCASE....3
|   3328: 0f 17 4d 41 58 20 4d 45 4d 4f 52 59 3d 35 30 30   ..MAX MEMORY=500
|   3344: 30 30 30 30 30 58 52 54 52 49 4d 18 1b 05 00 25   00000XRTRIM....%
|   3360: 0f 19 45 4e 41 42 4c 45 20 52 54 52 45 45 58 42   ..ENABLE RTREEXB
|   3376: 49 4e 41 52 59 18 1a 05 00 25 0f 19 45 4e 41 42   INARY....%..ENAB
|   3392: 4c 55 20 52 54 52 45 45 58 4e 4f 43 41 53 45 17   LU RTREEXNOCASE.
|   3408: 19 05 00 25 0f 17 45 4e 41 42 4c 45 20 52 54 52   ...%..ENABLE RTR
|   3424: 45 45 58 52 54 52 49 4d 1a 18 05 00 29 0f 19 45   EEXRTRIM....)..E
|   3440: 4e 41 42 4c 45 20 4d 45 4d 53 59 53 35 58 42 49   NABLE MEMSYS5XBI
|   3456: 4e 41 52 59 1a 17 05 00 29 0f 19 45 4e 41 42 4c   NARY....)..ENABL
|   3472: 45 20 4d 45 4d 53 59 53 35 58 4e 4f 43 41 53 45   E MEMSYS5XNOCASE
|   3488: 19 16 05 00 29 0f 17 45 4e 41 42 4c 45 20 4d 45   ....)..ENABLE ME
|   3504: 4d 53 59 53 35 58 52 54 52 49 4d 18 15 05 00 25   MSYS5XRTRIM....%
|   3520: 0f 19 45 4e 41 42 4c 45 20 4a 53 4f 4e 31 58 42   ..ENABLE JSON1XB
|   3536: 49 4e 41 52 59 18 14 05 00 25 0f 19 45 4e 41 42   INARY....%..ENAB
|   3552: 4c 45 20 4a 53 4f 4e 31 58 4e 4f 43 41 53 45 17   LE JSON1XNOCASE.
|   3568: 13 05 00 25 0f 17 45 4e 41 42 4c 45 20 4a 53 4f   ...%..ENABLE JSO
|   3584: 4e 31 58 52 54 52 49 4d 1a 12 05 00 29 0f 19 45   N1XRTRIM....)..E
|   3600: 4e 41 42 4c 45 20 47 45 4f 50 4f 4c 59 58 42 49   NABLE GEOPOLYXBI
|   3616: 4e 41 52 59 1a 11 05 00 29 0f 19 45 4e 41 42 4c   NARY....)..ENABL
|   3632: 45 20 47 45 4f 50 4f 4c 59 58 4e 4f 43 41 53 45   E GEOPOLYXNOCASE
|   3648: 19 10 05 00 29 0f 17 45 4e 41 42 4c 45 20 47 45   ....)..ENABLE GE
|   3664: 4f 50 4f 4c 59 58 52 54 52 49 4d 17 0f 05 00 23   OPOLYXRTRIM....#
|   3680: 0f 19 45 4e 41 42 4c 45 20 46 54 53 35 58 42 49   ..ENABLE FTS5XBI
|   3696: 4e 41 52 59 17 0e 05 00 23 0f 19 45 4e 41 42 4c   NARY....#..ENABL
|   3712: 45 20 46 54 53 35 58 4e 4f 43 41 53 45 16 0d 05   E FTS5XNOCASE...
|   3728: 00 23 0f 17 45 4e 41 42 4c 45 20 46 54 53 35 58   .#..ENABLE FTS5X
|   3744: 52 54 52 49 4d 17 0c 05 00 23 0f 19 45 4e 41 42   RTRIM....#..ENAB
|   3760: 4c 45 19 46 54 53 34 58 42 49 4e 41 52 59 17 0b   LE.FTS4XBINARY..
|   3776: 05 00 23 0f 19 45 4e 41 42 4e f5 20 46 54 53 34   ..#..ENABN. FTS4
|   3792: 58 4e 4f 43 41 53 45 16 0a 05 00 23 0f 17 45 4e   XNOCASE....#..EN
|   3808: 41 42 4c 45 20 46 54 53 34 58 52 54 52 49 4d 1e   ABLE FTS4XRTRIM.
|   3824: 09 05 00 31 0f 19 45 4e 41 42 4c 45 20 44 42 53   ...1..ENABLE DBS
|   3840: 54 41 54 20 56 54 41 42 58 42 49 4e 41 52 59 1e   TAT VTABXBINARY.
|   3856: 08 05 00 31 0f 19 45 4e 41 42 4c 45 20 44 42 53   ...1..ENABLE DBS
|   3872: 54 41 54 20 56 54 41 42 58 4e 4f 43 41 53 45 1d   TAT VTABXNOCASE.
|   3888: 07 05 00 31 0f 17 45 4e 41 42 4c 45 20 44 41 53   ...1..ENABLE DAS
|   3904: 54 41 54 20 56 54 41 42 58 52 54 52 49 4d 11 06   TAT VTABXRTRIM..
|   3920: 05 00 17 0f 19 44 45 42 55 47 58 42 49 4e 41 52   .....DEBUGXBINAR
|   3936: 59 11 05 05 00 17 0f 19 44 45 42 55 47 58 4e 4f   Y.......DEBUGXNO
|   3952: 43 41 53 45 10 04 05 00 17 ab 17 44 45 42 55 47   CASE.......DEBUG
|   3968: 48 52 54 52 49 4d 27 03 05 00 43 0f 19 43 4f 4d   HRTRIM'...C..COM
|   3984: 50 49 4c 45 52 3d 67 63 63 2d 35 2e 34 2e 30 20   PILER=gcc-5.4.0 
|   4000: 32 30 31 36 30 36 30 39 58 43 49 4e 41 52 59 27   20160609XCINARY'
|   4016: 02 04 00 43 0f 19 43 4f 4d 50 49 4c 45 52 3d 67   ...C..COMPILER=g
|   4032: 63 63 2d 35 2e 34 2e 30 20 32 30 31 36 30 36 30   cc-5.4.0 2016060
|   4048: 39 58 4e 4f 43 41 53 45 26 01 05 00 43 0f 17 43   9XNOCASE&...C..C
|   4064: 4f 4d 50 49 4c 45 52 3d 67 63 63 2d 35 2e 34 2e   OMPILER=gcc-5.4.
|   4080: 30 20 32 30 31 36 30 36 30 39 58 52 54 52 49 4d   0 20160609XRTRIM
| page 4 offset 12288
|      0: 0d 00 00 00 00 00 00 00 00 00 00 00 00 00 00 00   ................
| page 5 offset 16384
|      0: 0d 00 00 00 02 0b a0 00 0c ad 0b a0 00 00 00 00   ................
|   2976: 82 0a 02 08 08 09 08 08 17 84 06 30 20 32 35 33   ...........0 253
|   2992: 00 01 30 04 25 06 1b 00 00 08 32 30 31 36 30 36   ..0.%.....201606
|   3008: 30 39 03 25 07 00 00 01 34 03 25 05 00 00 01 35   09.%....4.%....5
|   3024: 03 25 04 00 01 07 30 30 30 30 30 30 30 03 25 1a   .%....0000000.%.
|   3040: 00 00 08 63 6f 6d 70 69 6c 65 72 03 25 02 00 00   ...compiler.%...
|   3056: 06 64 62 73 74 61 74 03 25 0a 00 01 04 65 62 75   .dbstat.%....ebu
|   3072: 67 03 25 08 00 00 06 65 6e 61 62 6c 65 09 25 09   g.%....enable.%.
|   3088: 05 04 04 04 04 04 00 01 08 78 74 65 6e 73 69 6f   .........xtensio
|   3104: 6e 03 25 1d 00 00 04 66 74 73 34 03 25 0d 00 03   n.%....fts4.%...
|   3120: 01 35 03 25 0f 00 00 03 67 63 63 03 25 03 00 01   .5.%....gcc.%...
|   3136: 06 65 6f 70 6f 6c 79 03 25 11 00 00 05 6a 73 6f   .eopoly.%....jso
|   3152: 6e 31 03 25 13 00 00 04 6c 6f 61 64 03 25 1c 00   n1.%....load.%..
|   3168: 00 03 6d 61 78 03 25 18 00 01 05 65 6d 6f 72 79   ..max.%....emory
|   3184: 03 25 19 00 03 04 73 79 73 35 03 25 15 00 00 04   .%....sys5.%....
|   3200: 6f 6d 69 74 03 25 1b 00 00 05 72 74 72 65 65 03   omit.%....rtree.
|   3216: 25 17 00 00 0a 74 68 72 65 61 64 73 61 66 65 03   %....threadsafe.
|   3232: 25 1e 00 00 04 76 74 61 62 03 25 0b 00 86 50 01   %....vtab.%...P.
|   3248: 08 08 08 08 08 17 8d 12 30 20 38 33 35 00 01 30   ........0 835..0
|   3264: 12 01 06 00 01 06 00 01 06 00 1f 03 00 01 03 00   ................
|   3280: 01 03 00 00 08 32 30 31 36 30 36 30 39 09 01 07   .....20160609...
|   3296: 00 01 07 00 01 07 00 00 01 34 09 01 05 00 01 05   .........4......
|   3312: 00 01 05 00 00 01 35 09 01 04 00 01 04 00 01 04   ......5.........
|   3328: 00 01 07 30 30 30 30 30 30 30 09 1c 04 00 01 04   ...0000000......
|   3344: 00 01 04 00 00 06 62 69 6e 61 72 79 3c 03 01 02   ......binary<...
|   3360: 02 00 03 01 02 02 00 03 01 02 02 00 03 01 02 02   ................
|   3376: 00 03 01 02 02 00 03 01 02 02 00 03 01 02 02 00   ................
|   3392: 03 01 02 02 00 03 01 02 02 00 03 01 02 02 00 03   ................
|   3408: 01 02 02 00 03 01 02 02 00 00 08 63 6f 6d 70 69   ...........compi
|   3424: 6c 65 72 09 01 02 00 01 02 00 01 02 00 00 06 64   ler............d
|   3440: 62 73 74 61 74 09 07 03 00 01 03 00 01 03 00 01   bstat...........
|   3456: 04 65 62 75 67 09 04 02 00 01 02 00 01 02 00 00   .ebug...........
|   3472: 06 65 6e 61 62 6c 65 3f 07 02 00 01 02 00 01 02   .enable?........
|   3488: 00 01 02 00 01 02 00 01 02 00 01 02 00 01 02 00   ................
|   3504: 01 02 00 01 02 00 01 02 00 01 02 00 01 02 00 01   ................
|   3520: 02 00 01 02 00 01 02 00 01 02 00 01 02 00 01 02   ................
|   3536: 00 01 02 00 01 02 00 01 08 78 74 65 6e 73 69 6f   .........xtensio
|   3552: 6e 09 1f 04 00 01 04 00 01 04 00 00 04 66 74 73   n............fts
|   3568: 34 09 0a 03 d4 01 02 ff 01 03 00 03 01 35 09 0d   4............5..
|   3584: 03 00 01 03 00 01 03 00 00 03 67 64 d3 09 01 03   ..........gd....
|   3600: 00 01 03 00 01 03 00 01 06 65 6f 70 6f 6c 79 09   .........eopoly.
|   3616: 10 03 00 01 03 00 01 03 00 00 05 6a 73 6f 6e 31   ...........json1
|   3632: 19 13 03 00 01 03 00 01 03 00 00 04 6c 6f 61 64   ............load
|   3648: 09 1f 03 00 01 03 00 01 03 00 00 03 6d 61 78 09   ............max.
|   3664: 1c 02 00 01 02 00 01 02 00 01 05 65 6d 6f 72 79   ...........emory
|   3680: 09 1c 03 00 01 03 00 01 03 00 03 04 73 79 73 35   ............sys5
|   3696: 09 16 03 00 01 03 00 01 03 00 00 06 6e 6f 63 61   ............noca
|   3712: 73 65 3c 02 01 02 02 00 03 01 02 02 00 03 01 02   se<.............
|   3728: 02 00 03 01 02 02 00 03 01 02 02 00 03 01 02 02   ................
|   3744: 00 03 01 02 02 00 03 01 02 02 00 03 01 02 02 00   ................
|   3760: 03 01 02 02 00 03 01 02 02 00 03 01 02 02 00 00   ................
|   3776: 04 6f 6d 69 74 09 1f 02 00 01 12 00 01 02 00 00   .omit...........
|   3792: 05 72 74 72 65 65 09 19 03 00 01 07 80 00 f3 00   .rtree..........
|   3808: 03 02 69 6d 3c 01 01 02 02 00 03 01 02 02 00 03   ..im<...........
|   3824: 01 02 02 00 03 01 02 02 00 03 01 02 02 00 03 01   ................
|   3840: 02 02 00 03 01 02 02 00 03 01 02 02 00 03 01 02   ................
|   3856: 02 00 03 01 02 02 00 03 01 02 02 00 03 01 02 02   ................
|   3872: 00 00 0a 74 68 72 65 61 64 73 61 66 65 09 22 02   ...threadsafe...
|   3888: 00 01 02 00 01 02 00 00 04 76 74 61 62 09 07 04   .........vtab...
|   3904: 00 01 04 00 01 04 00 00 01 78 b4 01 01 01 01 02   .........x......
|   3920: 00 01 01 01 02 00 01 01 01 02 00 01 01 01 02 00   ................
|   3936: 01 01 01 02 00 01 01 01 02 00 01 01 01 02 00 01   ................
|   3952: 01 01 02 00 01 01 01 02 00 01 01 01 02 00 01 01   ................
|   3968: 01 02 00 01 01 01 02 00 01 01 01 02 00 01 01 01   ................
|   3984: 02 00 01 01 01 02 00 01 01 01 02 00 01 01 01 02   ................
|   4000: 00 01 01 01 02 00 01 01 01 02 00 01 01 01 02 00   ................
|   4016: 01 01 01 02 00 01 01 01 02 00 01 01 01 02 00 01   ................
|   4032: 01 01 02 00 01 01 01 02 00 01 01 01 02 00 01 01   ................
|   4048: 01 02 00 01 01 01 02 00 01 01 01 02 00 01 01 01   ................
|   4064: 02 00 01 01 01 02 00 01 01 01 02 00 01 01 01 02   ................
|   4080: 00 01 01 01 02 00 01 01 01 02 00 01 01 01 02 00   ................
| page 6 offset 20480
|      0: 0a 00 00 00 02 0f f5 00 0f fb 0f f5 00 00 00 00   ................
|   4080: 00 00 00 00 00 05 04 08 09 01 02 04 04 08 08 09   ................
| page 7 offset 24576
|      0: 0d 00 00 00 00 00 00 00 00 00 00 00 00 00 00 00   ................
|   4016: 00 00 00 00 00 00 00 00 0d 05 02 23 61 75 74 6f   ...........#auto
|   4032: 6d 65 72 67 65 3d 35 0d 04 02 23 6d 65 72 67 65   merge=5...#merge
|   4048: 3d 31 30 30 2c 38 11 03 02 2b 69 6e 74 65 67 72   =100,8...+integr
|   4064: 69 74 79 2d 63 68 65 63 6b 09 02 02 1b 72 65 62   ity-check....reb
| end crash-b794c89d922ac9.db
}]} {}

do_catchsql_test 22.1 {
  PRAGMA writable_schema = 1;
  SELECT snippet(t1,'', '', '--',-1,01)==0
    FROM t1 WHERE a MATCH 'rtree OR json1rtree OR json1';
} {0 {0 0 0 0 0 0 0}}

#-------------------------------------------------------------------------
reset_db
do_test 23.0 {
  sqlite3 db {}
  db deserialize [decode_hexdb {
.open --hexdb
| size 28672 pagesize 4096 filename crash-670b15f2955a36.db
| page 1 offset 0
|      0: 53 51 4c 69 74 65 20 66 6f 72 6d 61 74 20 33 00   SQLite format 3.
|     16: 10 00 01 01 00 40 20 20 00 00 00 00 00 00 00 07   .....@  ........
|     32: 00 00 00 02 10 00 00 01 00 00 00 07 00 00 00 00   ................
|     96: 00 00 00 00 0d 0e b1 00 06 0d a4 00 0f 8d 0f 21   ...............!
|    112: 0e b9 0d c8 0e 7e 0d a4 00 00 00 00 00 00 00 00   .....~..........
|   3488: 00 00 00 00 22 07 06 17 11 11 01 31 74 61 62 6c   ...........1tabl
|   3504: 65 74 32 74 32 07 43 52 45 41 54 45 20 54 41 42   et2t2.CREATE TAB
|   3520: 4c 45 20 74 32 28 78 29 81 33 05 07 17 1f 1f 01   LE t2(x).3......
|   3536: 82 35 74 61 62 6c 65 74 31 5f 73 65 67 64 69 72   .5tablet1_segdir
|   3552: 74 31 5f 73 65 67 64 69 72 05 43 52 45 41 54 45   t1_segdir.CREATE
|   3568: 20 54 41 42 4c 45 20 27 74 31 5f 73 65 67 64 69    TABLE 't1_segdi
|   3584: 72 27 28 6c 65 76 65 6c 20 49 4e 54 45 47 45 52   r'(level INTEGER
|   3600: 2c 69 64 78 20 49 4e 54 45 47 45 52 2c 73 74 61   ,idx INTEGER,sta
|   3616: 72 74 5f 62 6c 6f 63 6b 20 49 4e 54 45 47 45 52   rt_block INTEGER
|   3632: 2c 6c 65 61 76 65 73 5f 65 6e 64 5f 62 6c 6f 63   ,leaves_end_bloc
|   3648: 6b 20 49 4e 54 45 47 45 52 2c 65 6e 64 5f 62 6c   k INTEGER,end_bl
|   3664: 6f 63 6b 20 49 4e 54 45 47 45 52 2c 72 6f 6f 74   ock INTEGER,root
|   3680: 20 42 4c 4f 42 2c 50 52 49 4d 41 52 59 20 4b 45    BLOB,PRIMARY KE
|   3696: 59 28 6c 65 76 65 6c 2c 20 69 64 78 29 29 31 06   Y(level, idx))1.
|   3712: 06 17 45 1f 01 00 69 6e 64 65 78 73 71 6c 69 74   ..E...indexsqlit
|   3728: 65 5f 61 75 74 6f 69 6e 64 65 78 5f 74 31 5f 73   e_autoindex_t1_s
|   3744: 65 67 64 69 72 5f 31 74 31 5f 73 65 67 64 69 72   egdir_1t1_segdir
|   3760: 06 0f c7 00 08 00 00 00 00 66 04 07 17 23 23 01   .........f...##.
|   3776: 81 13 74 61 62 6c 75 74 31 5f 73 65 67 6d 65 6e   ..tablut1_segmen
|   3792: 74 73 74 31 5f 73 65 67 6d 65 6e 74 73 04 43 52   tst1_segments.CR
|   3808: 45 41 54 45 20 54 41 42 4c 45 20 27 74 31 5f 73   EATE TABLE 't1_s
|   3824: 65 67 6d 65 6e 74 73 27 28 62 6c 6f 63 6b 69 64   egments'(blockid
|   3840: 20 49 4e 54 45 47 45 42 20 50 52 49 4d 41 52 59    INTEGEB PRIMARY
|   3856: 20 4b 45 59 2c 20 62 6c 6f 63 6b 20 42 4c 4f 42    KEY, block BLOB
|   3872: 29 6a 03 07 17 21 21 01 81 1f 74 61 62 6c 65 74   )j...!!...tablet
|   3888: 31 5f 63 6f 6e 74 65 6e 74 74 31 5f 63 6f 6e 74   1_contentt1_cont
|   3904: 65 6e 74 03 43 52 45 41 54 45 20 54 41 42 4c 45   ent.CREATE TABLE
|   3920: 20 27 74 31 5f 63 6f 6e 74 65 6e 74 27 28 64 6f    't1_content'(do
|   3936: 63 69 64 20 49 4e 54 45 47 45 52 20 50 52 49 4d   cid INTEGER PRIM
|   3952: 41 52 59 20 4b 45 59 2c 20 27 63 30 61 27 2c 20   ARY KEY, 'c0a', 
|   3968: 27 63 31 62 27 2c 20 27 63 32 63 27 29 38 02 06   'c1b', 'c2c')8..
|   3984: 17 11 11 08 5f 74 61 62 6c 65 74 31 74 31 43 52   ...._tablet1t1CR
|   4000: 45 41 54 45 20 56 49 52 54 55 41 4c 20 54 41 42   EATE VIRTUAL TAB
|   4016: 4c 45 20 74 31 20 55 53 49 4e 47 20 66 74 73 33   LE t1 USING fts3
|   4032: 28 61 2c 62 2c 63 29 00 00 00 00 00 00 00 00 00   (a,b,c).........
| page 3 offset 8192
|      0: 0d 00 00 00 25 0b 48 01 0f d8 00 2f 0f 86 0f 74   ....%.H..../...t
|     16: 0f 61 0f 4e 0f 2f 0f 0f 0e ef 0e d7 0e be 0e a5   .a.N./..........
|     32: 0e 8d 0e 74 0e 5a fe 40 0e 24 0e 08 0d ef 0d d5   ...t.Z.@.$......
|     48: 0d bb 0d a0 0d 84 0d 68 0d 4f 81 35 0d 1b 0c fb   .......h.O.5....
|     64: 0c da 0c b9 0c 99 0c 78 0c 57 0c 3e 00 00 00 00   .......x.W.>....
|   2880: 00 00 00 00 00 00 00 00 81 3f 25 06 00 82 7f 10   .........?%.....
|   2896: 00 43 4f 4d 50 49 4c 45 52 3d 67 63 63 2d 35 2e   .COMPILER=gcc-5.
|   2912: 34 2e 30 20 32 30 31 36 30 36 30 39 20 44 45 42   4.0 20160609 DEB
|   2928: 55 47 20 45 4e 41 42 4c 45 20 44 42 53 54 41 54   UG ENABLE DBSTAT
|   2944: 20 56 54 41 42 20 45 4e 41 42 4c 45 20 46 54 53    VTAB ENABLE FTS
|   2960: 34 20 45 4e 41 42 4c 45 20 46 54 53 35 20 45 4e   4 ENABLE FTS5 EN
|   2976: 41 42 4c 45 20 47 45 4f 50 4f 4c 59 20 45 4e 41   ABLE GEOPOLY ENA
|   2992: 42 4c 45 20 4a 53 4f 4e 31 20 45 4e 41 42 4c 45   BLE JSON1 ENABLE
|   3008: 20 4d 45 4d 53 59 53 35 20 45 4e 41 42 4c 45 20    MEMSYS5 ENABLE 
|   3024: 52 54 52 45 45 20 4d 41 58 20 4d 45 4d 4f 52 59   RTREE MAX MEMORY
|   3040: 3d 35 30 30 30 30 30 30 30 20 4f 4d 49 54 20 4c   =50000000 OMIT L
|   3056: 4f 41 44 20 45 58 54 45 4e 53 49 4f 4e 20 54 48   OAD EXTENSION TH
|   3072: 52 45 41 44 53 41 46 45 3d 30 18 24 05 00 35 0f   READSAFE=0.$..5.
|   3088: 19 54 48 52 45 41 44 53 41 46 45 3d 30 58 42 49   .THREADSAFE=0XBI
|   3104: 4e 41 52 59 18 23 55 00 25 0f 19 54 48 52 45 41   NARY.#U.%..THREA
|   3120: 44 53 41 46 45 3d 30 58 4e 4f 43 41 53 45 17 22   DSAFE=0XNOCASE..
|   3136: 05 00 25 0f 17 54 48 52 45 41 44 53 41 46 45 3d   ..%..THREADSAFE=
|   3152: 30 58 52 54 52 49 4d 1f 21 05 00 33 0f 19 4f 4d   0XRTRIM.!..3..OM
|   3168: 49 54 20 4c 4f 41 44 20 45 58 54 45 4e 53 49 4f   IT LOAD EXTENSIO
|   3184: 4e 58 42 49 4e 41 52 59 1f 20 05 00 33 0f 19 4f   NXBINARY. ..3..O
|   3200: 4d 49 54 20 4c 4f 41 44 20 45 58 54 45 4e 53 49   MIT LOAD EXTENSI
|   3216: 4f 4e 58 4e 4f 43 41 53 45 1e 1f 05 00 33 0f 17   ONXNOCASE....3..
|   3232: 4f 4d 49 54 20 4c 4f 41 44 20 45 58 54 45 4e 53   OMIT LOAD EXTENS
|   3248: 49 4f 4e 58 52 54 52 49 4d 1f 1e 05 00 33 0f 19   IONXRTRIM....3..
|   3264: 4d 41 58 20 4d 45 4d 4f 52 59 3d 35 30 30 30 30   MAX MEMORY=50000
|   3280: 30 30 30 58 42 49 4e 41 52 59 1f 1d 05 00 33 0f   000XBINARY....3.
|   3296: 19 4d 41 58 20 4d 45 4d 4f 52 59 3d 35 30 30 30   .MAX MEMORY=5000
|   3312: 30 30 30 30 58 4e 4f 43 41 53 45 1e 1c 05 00 33   0000XNOCASE....3
|   3328: 0f 17 4d 41 58 20 4d 45 4d 4f 52 59 3d 35 30 30   ..MAX MEMORY=500
|   3344: 30 30 30 30 30 58 52 54 52 49 4d 18 1b 05 00 25   00000XRTRIM....%
|   3360: 0f 19 45 4e 41 42 4c 44 20 52 54 52 45 45 58 42   ..ENABLD RTREEXB
|   3376: 49 4e 41 52 59 18 1a 05 00 25 0f 19 45 4e 41 42   INARY....%..ENAB
|   3392: 4c 45 20 52 54 52 45 45 58 4e 4f 43 41 53 45 17   LE RTREEXNOCASE.
|   3408: 19 05 00 24 0f 17 45 4e 40 42 4c 45 20 52 54 52   ...$..EN@BLE RTR
|   3424: 45 45 58 52 54 52 49 4d 1a 18 05 00 29 0f 19 45   EEXRTRIM....)..E
|   3440: 4e 41 42 4c 45 20 4d 45 4d 53 59 53 35 58 42 49   NABLE MEMSYS5XBI
|   3456: 4e 41 52 59 1a 17 05 00 29 0f 19 45 4d 41 42 4c   NARY....)..EMABL
|   3472: 45 20 4d 45 4d 53 59 53 35 58 4e 4f 43 41 4c 45   E MEMSYS5XNOCALE
|   3488: 19 16 05 00 29 0f 17 45 4e 41 42 4c 45 20 4d 45   ....)..ENABLE ME
|   3504: 4e 53 59 53 35 58 52 54 52 49 4d 18 15 05 00 25   NSYS5XRTRIM....%
|   3520: 0f 19 45 4e 41 42 4c 45 20 4a 53 4f 4e 31 58 42   ..ENABLE JSON1XB
|   3536: 49 4e 41 52 59 18 14 05 00 25 0f 19 45 4e 41 42   INARY....%..ENAB
|   3552: 4c 45 20 4a 53 4f 4e 31 58 4e 4f 43 41 53 45 17   LE JSON1XNOCASE.
|   3568: 13 05 00 25 0f 17 45 4e 41 42 4c 45 20 4a 53 4f   ...%..ENABLE JSO
|   3584: 4e 31 58 52 54 5f b9 4d 1a 12 05 00 29 0f 19 45   N1XRT_.M....)..E
|   3600: 4e 41 42 4c 45 20 47 45 4f 50 31 4c 59 58 42 49   NABLE GEOP1LYXBI
|   3616: 4e 41 52 58 1a 11 05 00 29 0f 19 45 4e 41 42 4c   NARX....)..ENABL
|   3632: 45 20 47 45 4f 50 4f 4c 59 58 4e 4f 43 41 53 45   E GEOPOLYXNOCASE
|   3648: 19 10 05 00 29 0f 17 45 4e 41 42 4c 45 20 57 45   ....)..ENABLE WE
|   3664: 4f 50 4f 4c 59 48 52 54 52 49 4d 17 0f 05 00 23   OPOLYHRTRIM....#
|   3680: 0f 19 45 4e 41 42 4c 45 20 46 54 53 35 58 42 49   ..ENABLE FTS5XBI
|   3696: 4e 41 53 59 17 0e 05 00 23 0f 19 45 4e 40 42 4b   NASY....#..EN@BK
|   3712: 45 20 46 54 53 35 58 4e 4f 43 41 53 45 16 0d 05   E FTS5XNOCASE...
|   3728: 00 23 0f 17 45 4e 41 42 4c 45 20 46 54 53 35 58   .#..ENABLE FTS5X
|   3744: 52 54 52 49 4d 17 0c 05 00 23 0f 19 45 4e 41 42   RTRIM....#..ENAB
|   3760: 4c 45 20 46 54 94 34 58 42 49 4e 41 52 59 17 0b   LE FT.4XBINARY..
|   3776: 05 00 23 0f 19 45 4e 41 42 4c 43 70 46 54 53 34   ..#..ENABLCpFTS4
|   3792: 58 4e 4f 43 41 53 45 16 0a 05 00 23 0f 17 45 4e   XNOCASE....#..EN
|   3808: 41 42 4c 45 20 46 54 53 34 58 52 54 52 49 4d 1e   ABLE FTS4XRTRIM.
|   3824: 09 05 00 31 0f 19 45 4e 41 42 4c 45 20 44 42 53   ...1..ENABLE DBS
|   3840: 54 41 54 20 56 54 41 42 58 42 49 4e 41 52 59 1e   TAT VTABXBINARY.
|   3856: 08 05 00 31 0f 19 45 4e 41 42 4c 45 20 44 32 53   ...1..ENABLE D2S
|   3872: 54 41 54 20 56 54 41 42 58 4e 4f 43 41 53 45 1d   TAT VTABXNOCASE.
|   3888: 07 05 00 31 0f 17 45 4e 41 42 4c 45 20 44 42 53   ...1..ENABLE DBS
|   3904: 54 41 54 20 56 54 41 42 58 52 54 52 49 4d 11 06   TAT VTABXRTRIM..
|   3920: 05 0b 27 0f 19 44 45 42 55 47 58 42 49 4e 41 52   ..'..DEBUGXBINAR
|   3936: 59 11 05 05 00 17 0f 19 44 45 42 55 47 58 4e 4f   Y.......DEBUGXNO
|   3952: 43 41 53 45 10 03 05 00 17 0f 17 44 45 42 55 47   CASE.......DEBUG
|   3968: 58 52 54 52 49 4d 27 03 05 00 43 0f 19 43 4f 4d   XRTRIM'...C..COM
|   3984: 50 49 4c 45 52 3d 67 63 63 2d 35 2e 34 2e 30 20   PILER=gcc-5.4.0 
|   4000: 32 30 31 36 30 36 30 39 58 42 49 4e 41 52 59 27   20160609XBINARY'
|   4016: 02 05 00 43 0f 19 43 4f 4d 50 49 4c 35 52 3d 67   ...C..COMPIL5R=g
|   4032: 63 63 2d 35 2e 34 2e 30 20 32 30 31 36 30 36 30   cc-5.4.0 2016060
|   4048: 39 58 4e 4f 43 41 53 45 26 01 05 00 43 0f 02 43   9XNOCASE&...C..C
|   4064: 4f 4d 50 49 4c 45 52 3d 67 63 63 2d 35 2e 34 2e   OMPILER=gcc-5.4.
|   4080: 30 20 32 30 31 36 30 36 30 39 58 00 00 00 00 00   0 20160609X.....
| page 5 offset 16384
|      0: 0d 00 00 00 02 0b a0 00 0c ad 0b a0 00 00 00 00   ................
|   2976: 82 0a 02 08 08 09 08 08 17 84 06 30 20 32 35 33   ...........0 253
|   2992: 00 01 30 04 25 06 1b 00 00 08 32 30 31 36 30 36   ..0.%.....201606
|   3008: 30 39 03 25 07 00 00 01 34 03 25 05 00 00 01 35   09.%....4.%....5
|   3024: 03 25 04 00 01 07 30 30 30 30 30 30 30 08 55 1a   .%....0000000.U.
|   3040: 00 00 08 63 6f 6d 70 69 6c 65 72 03 25 02 00 00   ...compiler.%...
|   3056: 06 64 62 73 74 61 74 03 25 0a 00 01 04 65 61 75   .dbstat.%....eau
|   3072: 67 03 25 08 00 00 06 65 6e 61 62 6c 65 09 25 09   g.%....enable.%.
|   3088: 05 04 04 04 04 04 00 01 08 78 74 65 6e 73 69 6f   .........xtensio
|   3104: 6e 03 25 1d 00 00 04 66 74 73 34 03 25 0d 00 03   n.%....fts4.%...
|   3120: 01 35 03 25 0f 00 00 0c 97 63 63 03 25 03 00 01   .5.%.....cc.%...
|   3136: 06 65 6f 70 6f 6c 7a 03 25 11 00 00 05 6a 73 6f   .eopolz.%....jso
|   3152: 6e 31 03 25 13 00 00 04 6c 6f 61 64 03 25 1c 00   n1.%....load.%..
|   3168: 00 03 6d 61 78 03 25 18 00 01 05 65 6d 6f 72 79   ..max.%....emory
|   3184: 03 25 3d f0 03 04 73 79 73 35 03 25 15 00 00 04   .%=...sys5.%....
|   3200: 6f 6d 69 74 03 25 1b 00 00 05 72 74 72 65 65 03   omit.%....rtree.
|   3216: 25 17 00 00 0a 74 68 72 65 61 64 73 61 66 65 03   %....threadsafe.
|   3232: 25 1e 00 00 04 76 74 61 62 03 25 0b 00 86 50 01   %....vtab.%...P.
|   3248: 08 08 08 09 08 17 8d 12 30 20 38 33 37 e3 aa e0   ........0 837...
|   3264: 12 d1 06 00 01 06 00 01 06 00 1f 03 00 01 03 00   ................
|   3280: 01 03 00 00 08 32 30 31 36 30 36 30 49 09 01 07   .....2016060I...
|   3296: 00 01 07 00 01 07 00 00 01 34 09 01 05 00 01 05   .........4......
|   3312: 00 01 05 00 00 01 35 09 01 04 00 01 04 00 01 04   ......5.........
|   3328: 00 01 07 30 30 30 30 30 30 30 09 1c 04 00 01 04   ...0000000......
|   3344: 00 01 04 00 00 06 62 69 6e 61 72 79 3c 03 01 02   ......binary<...
|   3360: 02 00 03 01 02 02 00 03 01 02 02 00 03 01 02 02   ................
|   3376: 00 03 01 02 02 00 03 01 02 02 00 03 01 02 02 00   ................
|   3392: 03 01 02 02 00 03 01 02 02 00 03 01 02 02 00 03   ................
|   3408: 01 02 02 00 03 01 02 02 00 00 08 63 6f 6d 70 69   ...........compi
|   3424: 6c 65 72 09 01 02 00 01 02 00 01 02 00 00 06 64   ler............d
|   3440: 62 73 74 61 74 09 07 03 00 01 03 00 01 03 00 01   bstat...........
|   3456: 04 65 62 75 67 09 04 01 f0 01 02 00 01 02 00 00   .ebug...........
|   3472: 06 65 6e 61 62 6c 65 3f 07 02 00 01 02 00 01 02   .enable?........
|   3488: 00 01 02 00 01 02 00 01 02 00 01 02 00 01 02 00   ................
|   3504: 01 02 00 01 02 00 01 02 00 01 02 00 01 02 00 01   ................
|   3520: 02 00 01 02 00 01 02 00 01 02 00 01 02 00 01 02   ................
|   3536: 00 01 02 00 01 02 00 01 08 78 74 65 6e 73 69 6f   .........xtensio
|   3552: 6e 09 1f 04 00 01 04 00 01 04 00 00 04 66 74 73   n............fts
|   3568: 34 09 0a 03 f3 01 03 00 01 03 00 19 01 35 09 0d   4............5..
|   3584: 03 00 01 03 00 01 03 00 00 03 67 63 63 09 01 03   ..........gcc...
|   3600: 00 01 03 00 01 03 00 01 06 65 6f 70 6f 6c 79 09   .........eopoly.
|   3616: 10 03 00 01 03 00 01 03 00 00 05 6a 73 6f 6e 31   ...........json1
|   3632: 09 13 03 00 01 03 00 00 f3 00 00 04 6c 6f 61 64   ............load
|   3648: 09 1f 03 00 01 03 00 01 03 00 00 03 6d 61 78 09   ............max.
|   3664: 1c 02 00 01 02 00 01 02 00 01 05 65 6d 6f 72 79   ...........emory
|   3680: 09 1c 03 00 01 03 00 01 03 00 03 04 73 79 73 35   ............sys5
|   3696: 09 16 03 00 01 03 00 01 03 00 00 06 6e 6f 63 61   ............noca
|   3712: 73 65 3c 02 01 02 02 00 03 01 02 02 00 03 01 02   se<.............
|   3728: 02 00 03 01 02 02 00 03 01 02 02 00 03 01 02 02   ................
|   3744: 00 03 01 02 02 00 03 01 02 02 00 03 01 02 02 00   ................
|   3760: 03 01 02 02 00 03 01 02 02 00 46 01 02 02 00 00   ..........F.....
|   3776: 04 6f 6d 69 74 09 1f 02 00 01 02 00 01 02 00 00   .omit...........
|   3792: 05 72 74 72 64 65 09 19 03 00 01 03 00 01 03 00   .rtrde..........
|   3808: 03 02 69 6d 3c 01 01 02 02 00 03 01 02 02 00 03   ..im<...........
|   3824: 01 02 02 00 03 01 02 01 ff 03 01 02 02 00 03 01   ................
|   3840: 02 02 00 03 01 02 02 00 03 01 02 02 00 03 01 02   ................
|   3856: 02 00 03 01 02 02 00 03 01 02 02 00 03 01 02 02   ................
|   3872: 00 00 0a 74 68 72 65 61 64 73 61 66 65 09 22 02   ...threadsafe...
|   3888: 00 01 02 00 01 02 00 00 04 76 74 61 62 09 07 04   .........vtab...
|   3904: 00 01 04 00 01 04 00 00 01 78 b4 01 01 01 01 02   .........x......
|   3920: 00 01 01 01 02 00 01 01 01 02 00 01 01 01 02 00   ................
|   3936: 01 01 01 02 00 01 01 01 02 00 01 01 01 02 00 01   ................
|   3952: 01 01 02 00 01 01 01 02 00 01 01 01 02 00 01 01   ................
|   3968: 01 02 00 01 01 01 02 00 01 01 01 02 00 01 01 01   ................
|   3984: 02 00 01 01 01 02 00 01 01 01 02 00 01 01 01 02   ................
|   4000: 00 01 01 01 02 00 01 01 01 02 00 01 01 01 02 00   ................
|   4016: 01 01 01 02 00 01 01 01 02 00 01 01 01 02 00 01   ................
|   4032: 01 01 02 00 01 01 01 02 00 01 01 01 02 00 01 01   ................
|   4048: 01 02 00 01 01 01 02 00 01 01 01 02 00 01 01 01   ................
|   4064: 02 00 01 01 01 02 00 01 01 01 02 00 01 01 02 02   ................
|   4080: 00 01 01 01 02 00 01 01 01 02 00 01 01 01 02 00   ................
| page 6 offset 20480
|      0: 0a 00 00 00 02 0f f5 00 0f fb 0f f5 00 00 00 00   ................
|   4080: 00 00 00 00 00 05 04 08 09 01 02 04 04 08 09 09   ................
| page 7 offset 24576
|      0: 0d 00 00 00 00 00 00 00 00 00 00 00 00 00 00 00   ................
|   4016: 00 00 00 00 00 00 00 00 0d 05 02 23 61 75 74 6f   ...........#auto
|   4032: 6d 65 71 97 65 3d 35 0d 04 02 23 6d 65 72 67 65   meq.e=5...#merge
|   4048: 3d 31 30 30 2c 38 11 03 02 2b 69 6e 74 65 67 72   =100,8...+integr
|   4064: 69 74 79 00 00 00 00 00 00 00 00 00 00 00 00 00   ity.............
| end crash-670b15f2955a36.db
}]} {}

do_catchsql_test 23.1 {
  PRAGMA writable_schema = 1;
  SELECT 'FyzLy'FROM t1 WHERE t1 MATCH 'j';
} {1 {database disk image is malformed}}

#-------------------------------------------------------------------------
reset_db
do_test 24.0 {
  sqlite3 db {}
  db deserialize [decode_hexdb {
.open --hexdb
| size 28672 pagesize 4096 filename crash-369d042958c29b.db
| page 1 offset 0
|      0: 53 51 4c 69 74 65 20 66 6f 72 6d 61 74 20 33 00   SQLite format 3.
|     16: 10 00 01 01 00 40 20 20 00 00 03 10 00 00 00 00   .....@  ........
|     96: 00 00 00 00 0d 0e b1 00 06 0d a4 00 0f 8d 0f 21   ...............!
|    112: 0e b9 0d c8 0e 7e 0d a4 00 00 00 00 00 00 00 00   .....~..........
|   3488: 00 00 00 00 22 07 06 17 11 11 01 31 74 61 62 6c   ...........1tabl
|   3504: 65 74 32 74 32 07 43 52 45 41 54 45 20 54 41 42   et2t2.CREATE TAB
|   3520: 4c 45 20 74 32 28 78 29 81 33 05 07 17 1f 1f 01   LE t2(x).3......
|   3536: 82 35 74 61 62 6c 65 74 31 5f 73 65 67 64 69 72   .5tablet1_segdir
|   3552: 74 31 5f 73 65 67 64 69 72 05 43 52 45 41 54 45   t1_segdir.CREATE
|   3568: 20 54 41 42 4c 45 20 27 74 31 5f 73 65 67 64 69    TABLE 't1_segdi
|   3584: 72 27 28 6c 65 76 65 6c 20 49 4e 54 45 47 45 52   r'(level INTEGER
|   3600: 2c 69 64 78 20 49 4e 54 45 47 45 52 2c 73 74 61   ,idx INTEGER,sta
|   3616: 72 74 5f 62 6c 6f 63 6b 20 49 4e 54 45 47 45 52   rt_block INTEGER
|   3632: 2c 6c 65 61 76 65 73 5f 65 6e 64 5f 62 6c 6f 63   ,leaves_end_bloc
|   3648: 6b 20 49 4e 54 45 47 45 52 2c 65 6e 64 5f 62 6c   k INTEGER,end_bl
|   3664: 6f 63 6b 20 49 4e 54 45 47 45 52 2c 72 6f 6f 74   ock INTEGER,root
|   3680: 20 42 4c 4f 42 2c 50 52 49 4d 41 52 59 20 4b 45    BLOB,PRIMARY KE
|   3696: 59 28 6c 65 76 65 6c 2c 20 69 64 78 29 29 31 06   Y(level, idx))1.
|   3712: 06 17 45 1f 01 00 69 6e 64 65 78 73 71 6c 69 74   ..E...indexsqlit
|   3728: 65 5f 61 75 74 6f 69 6e 64 65 78 5f 74 31 5f 73   e_autoindex_t1_s
|   3744: 65 67 64 69 72 5f 31 74 31 5f 73 65 67 64 69 72   egdir_1t1_segdir
|   3760: 06 0f c7 00 08 00 10 00 00 66 04 07 17 23 23 01   .........f...##.
|   3776: 81 13 74 61 62 6c 65 74 31 5f 73 65 67 6d 65 6e   ..tablet1_segmen
|   3792: 64 73 74 31 5f 73 65 67 6d 65 6e 74 73 04 43 52   dst1_segments.CR
|   3808: 45 41 54 45 20 54 41 42 4c 45 20 27 74 31 5f 73   EATE TABLE 't1_s
|   3824: 65 67 6d 65 6e 74 73 27 28 62 6c 6f 63 6b 69 64   egments'(blockid
|   3840: 20 49 4e 54 45 47 45 52 20 50 52 49 4d 41 52 59    INTEGER PRIMARY
|   3856: 20 4b 45 59 2c 20 62 6c 6f 63 6b 20 42 4c 4f 42    KEY, block BLOB
|   3872: 29 6a 03 07 17 21 21 01 81 1f 74 61 62 6c 65 74   )j...!!...tablet
|   3888: 31 4f 63 6f 6e 74 65 6e 74 74 31 5f 63 6f 6e 74   1Ocontentt1_cont
|   3904: 65 6e 74 03 43 52 45 41 54 45 20 54 41 42 4c 45   ent.CREATE TABLE
|   3920: 20 27 74 31 5f 63 6f 6e 74 65 6e 74 27 28 64 6f    't1_content'(do
|   3936: 63 69 64 20 49 4e 54 45 47 45 52 20 50 52 39 4d   cid INTEGER PR9M
|   3952: 41 52 59 20 4b 45 59 2c 20 27 63 30 61 27 2c 20   ARY KEY, 'c0a', 
|   3968: 27 63 31 62 27 2c 20 27 63 32 63 27 29 38 02 06   'c1b', 'c2c')8..
|   3984: 17 11 11 08 5f 74 61 62 6c 65 74 31 74 31 43 52   ...._tablet1t1CR
|   4000: 45 41 54 45 20 56 49 52 54 55 41 4c 20 54 41 42   EATE VIRTUAL TAB
|   4016: 4c 45 20 74 31 20 55 53 49 4e 47 20 66 74 73 33   LE t1 USING fts3
|   4032: 28 61 2c 62 2c 63 29 00 00 00 00 00 00 00 00 00   (a,b,c).........
| page 3 offset 8192
|      0: 0d 00 00 00 26 0b 48 0e 0f d8 0f af 0f 86 0f 74   ....&.H........t
|     16: 0f 61 0f 4e 0f 2f 0f 0f 0e ef 0e d7 0e be 0e a5   .a.N./..........
|     32: 0e 8d 0e 74 0e 5b 0e 40 0e 24 0e 08 0d ef 0d d5   ...t.[.@.$......
|     48: 0d bb 0d a0 0e 94 03 28 0d 4f 0d 35 0d 1b 05 0b   .......(.O.5....
|     64: 0c da 0c b9 0c 99 0c 78 0c 57 0c 3e 0c 24 0c 0a   .......x.W.>.$..
|   2880: 00 00 00 00 00 00 00 00 81 3f 25 06 00 72 7f 00   .........?%..r..
|   2896: 00 43 4f 4d 50 49 4c 45 52 3d 67 63 63 2d 35 2e   .COMPILER=gcc-5.
|   2912: 34 2e 30 20 32 30 31 36 30 36 30 39 20 44 55 42   4.0 20160609 DUB
|   2928: 55 47 20 45 4e 41 e4 7c 45 20 44 42 53 54 41 54   UG ENA.|E DBSTAT
|   2944: e4 d1 54 41 42 20 45 4e 41 42 4c 45 20 46 54 53   ..TAB ENABLE FTS
|   2960: 34 20 45 4e 41 42 4c 45 20 46 54 53 35 20 45 4e   4 ENABLE FTS5 EN
|   2976: 41 42 4c 45 20 47 45 4f 50 4f 4c 59 20 45 4e 41   ABLE GEOPOLY ENA
|   2992: 42 4c 45 20 4a 53 4f 4e 31 20 45 4e 41 42 4c 45   BLE JSON1 ENABLE
|   3008: 20 4d 45 4d 53 59 53 35 20 45 4e 41 42 4c 45 20    MEMSYS5 ENABLE 
|   3024: 42 54 52 45 45 20 4d 41 58 20 4d 45 4d 4f 52 59   BTREE MAX MEMORY
|   3040: 3d 35 30 30 30 30 30 30 30 20 4f 4c 49 54 20 4c   =50000000 OLIT L
|   3056: 4f 41 43 20 45 58 54 45 4e 53 49 4f 4e 21 54 48   OAC EXTENSION!TH
|   3072: 52 45 41 44 53 41 46 45 3d 30 18 24 05 00 25 0f   READSAFE=0.$..%.
|   3088: 19 54 48 52 45 41 44 53 41 46 45 3d 30 58 42 49   .THREADSAFE=0XBI
|   3104: 4e 41 52 59 18 23 05 00 25 0f 19 54 48 52 45 41   NARY.#..%..THREA
|   3120: 44 53 41 4b 75 3d 30 58 4d 4f 43 41 53 45 17 22   DSAKu=0XMOCASE..
|   3136: 05 00 25 0f 17 54 48 52 45 41 44 53 41 46 46 3d   ..%..THREADSAFF=
|   3152: 30 58 52 54 52 49 4d 1f 21 05 00 33 0f 19 4f 4d   0XRTRIM.!..3..OM
|   3168: 49 54 20 4c 4f 41 44 20 45 58 54 45 4e 52 49 4f   IT LOAD EXTENRIO
|   3184: 4e 58 42 49 4e 41 52 59 1f 20 05 00 33 0f 19 4f   NXBINARY. ..3..O
|   3200: 4d 49 54 20 4c 4f 41 44 20 45 58 54 45 4e 53 49   MIT LOAD EXTENSI
|   3216: 4f 4e 58 4e 4f 43 41 53 45 1e 1f 05 00 33 0f 17   ONXNOCASE....3..
|   3232: 4f 4d 49 54 20 4c 4f 41 44 20 45 58 54 45 4e 53   OMIT LOAD EXTENS
|   3248: 49 4f 4e 58 52 54 52 49 4d 1f 1e 05 00 33 0f 19   IONXRTRIM....3..
|   3264: 4d 41 58 20 4d 45 4d 4f 52 59 3d 35 30 30 30 30   MAX MEMORY=50000
|   3280: 30 30 30 58 42 49 4e 41 52 59 1f 1d 05 00 33 0f   000XBINARY....3.
|   3296: 19 4d 41 58 20 4d 45 4d 4f 52 59 3d 35 30 30 30   .MAX MEMORY=5000
|   3312: 30 30 30 30 58 4e 4f 43 41 53 45 1e 1c 05 00 33   0000XNOCASE....3
|   3328: 0f 17 4d 42 b8 20 4d 45 4d 4f 52 59 3d 35 30 30   ..MB. MEMORY=500
|   3344: 30 30 30 30 30 58 52 54 52 49 4d 18 1b 05 00 25   00000XRTRIM....%
|   3360: 0f 19 45 4e 41 42 4c 45 20 52 54 52 45 45 58 42   ..ENABLE RTREEXB
|   3376: 49 4e 41 52 59 18 1a 05 0d a5 0f 19 45 4e 41 42   INARY.......ENAB
|   3392: 4c 45 20 52 54 52 45 45 58 4e 4f 43 41 53 45 17   LE RTREEXNOCASE.
|   3408: 19 1c 00 25 0f 17 45 4e 41 42 4c 45 20 52 54 52   ...%..ENABLE RTR
|   3424: 45 45 58 52 54 52 49 4d 1a 18 05 00 29 0f 19 45   EEXRTRIM....)..E
|   3440: 4e 41 42 4c 45 20 4d 45 4d 53 59 53 35 58 42 49   NABLE MEMSYS5XBI
|   3456: 4e 41 52 59 1a 17 05 00 29 0f 19 45 4e 41 42 4c   NARY....)..ENABL
|   3472: 45 20 4d 45 4d 53 59 53 35 58 4e 4f 43 41 53 45   E MEMSYS5XNOCASE
|   3488: 19 16 05 00 29 0f 17 45 4e 41 42 4c 45 20 4d 45   ....)..ENABLE ME
|   3504: 4d 53 59 53 35 58 52 54 52 49 4d 18 14 05 01 25   MSYS5XRTRIM....%
|   3520: 0f 19 45 4e 12 42 4c 45 20 4a 53 4f 4e 31 58 42   ..EN.BLE JSON1XB
|   3536: 49 4e 41 52 59 18 14 05 00 25 09 d9 45 4e 41 42   INARY....%..ENAB
|   3552: 4c 45 20 4a 53 4f 3e 31 58 4e 4f 43 41 53 45 17   LE JSO>1XNOCASE.
|   3568: 13 05 00 25 0f 17 45 4e 40 42 4c 45 20 4a 53 4f   ...%..EN@BLE JSO
|   3584: 4e 31 58 52 54 52 49 4d 1a 12 05 82 29 0f 19 45   N1XRTRIM....)..E
|   3600: 4e 41 42 4c 45 20 47 45 4f 50 4f 4c 59 58 42 49   NABLE GEOPOLYXBI
|   3616: 4e 41 52 59 1a 11 05 c9 29 e8 19 46 4e 41 42 4c   NARY....)..FNABL
|   3632: 48 c0 47 45 4f 50 4f 4c 59 58 4e 74 43 41 53 45   H.GEOPOLYXNtCASE
|   3648: 19 10 05 00 29 0f 17 45 4e 41 42 4c 45 20 47 45   ....)..ENABLE GE
|   3664: 4f 50 4f 4c 59 58 52 54 52 49 4d 17 0f 05 00 23   OPOLYXRTRIM....#
|   3680: 0f 19 45 4e 41 42 4c 45 30 46 54 53 35 58 42 49   ..ENABLE0FTS5XBI
|   3696: 4e 41 52 59 17 0e 05 00 23 0f 19 45 4e 41 42 4c   NARY....#..ENABL
|   3712: 45 20 46 54 53 35 58 4e 4f 43 41 53 45 16 0e 05   E FTS5XNOCASE...
|   3728: 00 23 0f 17 45 4e 41 42 4c 45 20 46 54 53 35 58   .#..ENABLE FTS5X
|   3744: 52 54 52 49 4d 17 0c 05 00 23 0f 19 45 4e 41 42   RTRIM....#..ENAB
|   3760: 4c 45 20 46 54 53 34 58 42 49 4e 41 52 59 17 0b   LE FTS4XBINARY..
|   3776: 05 00 23 0f 19 45 4e 41 42 4c 45 20 46 54 53 34   ..#..ENABLE FTS4
|   3792: 58 4e 4f 43 41 53 45 16 0a 05 00 23 0f 17 45 4e   XNOCASE....#..EN
|   3808: 41 42 4c 45 20 46 54 53 34 58 52 54 52 49 4d 1e   ABLE FTS4XRTRIM.
|   3824: 09 05 00 31 0f 19 45 4e 42 42 4c 45 20 44 42 53   ...1..ENBBLE DBS
|   3840: 54 41 54 20 56 54 41 42 58 42 49 4e 41 52 59 1e   TAT VTABXBINARY.
|   3856: 08 05 00 31 0f 19 45 4e 41 42 4c 45 20 44 42 53   ...1..ENABLE DBS
|   3872: 54 41 54 20 56 54 41 42 58 4e 4f 43 41 53 45 1d   TAT VTABXNOCASE.
|   3888: 07 05 00 31 0f 17 45 4e 41 42 4c 45 20 44 42 53   ...1..ENABLE DBS
|   3904: 54 41 54 20 56 54 41 42 58 52 54 52 4a 4d 11 06   TAT VTABXRTRJM..
|   3920: 05 f0 17 0f 19 44 45 42 55 47 58 42 49 4e 41 52   .....DEBUGXBINAR
|   3936: 59 11 05 05 00 17 0e 19 44 45 42 55 47 58 4e 4f   Y.......DEBUGXNO
|   3952: 43 41 53 45 10 04 05 00 17 0f 16 44 45 42 55 47   CASE.......DEBUG
|   3968: 58 52 54 52 49 4d 27 03 05 00 43 0f 19 43 4f 4d   XRTRIM'...C..COM
|   3984: 50 49 4c 45 52 3d 67 63 63 2d 35 2e 34 2e 30 20   PILER=gcc-5.4.0 
|   4000: 32 30 31 36 30 36 30 39 58 42 49 4e 41 52 59 27   20160609XBINARY'
|   4016: 02 05 00 43 0f 19 43 4f 4d 50 49 4c 45 52 3d 67   ...C..COMPILER=g
|   4032: 63 63 2d 35 2e 34 2e 30 20 32 30 31 36 30 36 30   cc-5.4.0 2016060
|   4048: 39 58 4e 4f 43 41 53 45 26 01 06 00 43 0f 17 43   9XNOCASE&...C..C
|   4064: 4f 4d 50 49 4b 45 52 3d 67 63 63 2d 35 2e 34 2e   OMPIKER=gcc-5.4.
|   4080: 30 20 32 30 31 36 30 36 40 39 58 29 54 52 49 4d   0 201606@9X)TRIM
| page 4 offset 12288
|      0: 0d 00 10 00 00 10 00 00 00 00 00 00 00 01 00 00   ................
| page 5 offset 16384
|      0: 0d 00 00 00 02 0b a0 00 0c ad 0b a0 00 00 00 00   ................
|   2976: 82 0a 02 08 08 09 08 08 17 84 06 30 20 32 35 33   ...........0 253
|   2992: 00 01 30 04 25 06 1b 00 00 08 32 30 31 36 30 36   ..0.%.....201606
|   3008: 30 39 03 25 07 00 00 01 34 03 25 05 00 00 01 35   09.%....4.%....5
|   3024: 03 25 04 00 01 07 30 30 30 30 30 30 30 03 25 1a   .%....0000000.%.
|   3040: 00 00 08 63 6f 6d 70 69 6c 65 72 03 25 02 00 00   ...compiler.%...
|   3056: 06 64 62 73 74 61 74 03 25 0a 00 01 04 65 62 75   .dbstat.%....ebu
|   3072: 67 03 25 08 00 00 06 65 6e 61 62 6c 65 09 25 09   g.%....enable.%.
|   3088: 05 04 04 04 04 04 00 01 08 78 74 65 6e 73 69 6f   .........xtensio
|   3104: 6e 03 25 1d 00 00 04 66 74 73 34 03 25 0d 00 03   n.%....fts4.%...
|   3120: 01 35 03 25 0f 00 00 03 67 63 63 03 25 03 00 01   .5.%....gcc.%...
|   3136: 06 65 6f 70 6f 6c 79 03 25 11 00 00 05 6a 73 6f   .eopoly.%....jso
|   3152: 6e 31 03 25 13 00 00 04 6c 6f 61 64 03 25 1c 00   n1.%....load.%..
|   3168: 00 03 6d 61 78 03 25 18 00 01 05 65 6e 6f 72 79   ..max.%....enory
|   3184: 03 25 19 00 03 04 ce 79 73 4d 03 25 15 00 00 04   .%.....ysM.%....
|   3200: 6f 6d 69 74 03 25 1b 00 00 05 72 74 72 65 65 03   omit.%....rtree.
|   3216: 25 17 00 00 0a 74 68 72 65 61 64 73 61 66 65 03   %....threadsafe.
|   3232: 25 0e 00 00 04 76 74 61 62 03 25 0b 00 86 50 01   %....vtab.%...P.
|   3248: 08 08 08 08 08 17 8d 12 30 20 38 33 35 00 01 30   ........0 835..0
|   3264: 12 01 06 00 01 06 00 01 06 00 1f 03 00 01 03 09   ................
|   3280: 51 03 00 00 08 32 30 31 36 30 36 30 39 09 01 07   Q....20160609...
|   3296: 00 01 07 00 01 07 00 00 01 34 09 01 05 00 01 05   .........4......
|   3312: 00 01 05 00 00 01 35 09 01 04 00 01 04 00 01 04   ......5.........
|   3328: 00 01 07 30 30 30 30 30 30 30 09 1c 04 00 01 04   ...0000000......
|   3344: 00 01 04 00 00 06 62 69 6e 61 72 79 3c 03 01 02   ......binary<...
|   3360: 02 00 03 01 02 02 00 03 01 02 02 00 03 01 02 02   ................
|   3376: 00 03 01 02 02 00 02 f1 02 02 00 03 01 02 02 00   ................
|   3392: 03 01 02 02 00 03 01 02 02 00 03 01 02 02 00 03   ................
|   3408: 01 02 02 00 03 01 02 02 00 00 08 63 6f 6d 70 69   ...........compi
|   3424: 6c 65 72 09 01 02 00 01 02 00 01 02 00 00 06 67   ler............g
|   3440: d2 73 74 61 74 09 07 03 00 01 03 00 01 03 00 01   .stat...........
|   3456: 04 65 62 75 67 09 04 02 00 01 02 00 01 02 00 00   .ebug...........
|   3472: 06 65 6e 6f 82 6c 65 3f 07 02 00 01 02 00 01 02   .eno.le?........
|   3488: b0 01 02 00 01 02 00 11 02 00 01 02 00 01 02 00   ................
|   3504: 01 02 00 01 02 00 01 02 00 01 a6 00 01 02 00 01   ................
|   3520: 02 05 51 02 00 01 02 00 01 02 00 01 02 00 01 02   ..Q.............
|   3536: 00 01 02 00 01 02 00 01 08 78 74 65 6e 73 69 6f   .........xtensio
|   3552: 6e 09 1f 04 00 01 04 00 00 04 00 00 04 66 74 73   n............fts
|   3568: 34 09 0a 03 00 01 03 00 01 03 00 03 01 35 09 0d   4............5..
|   3584: 03 00 01 03 00 01 03 00 00 03 67 63 63 09 01 03   ..........gcc...
|   3600: 00 01 03 00 01 03 00 01 06 65 6f 70 73 6c 79 09   .........eopsly.
|   3616: 10 03 00 01 03 00 01 03 00 00 05 6a 73 6f 6e 31   ...........json1
|   3632: 09 13 03 00 01 03 00 01 03 00 00 04 6c 6f 61 64   ............load
|   3648: 09 1f 03 00 01 03 00 01 03 00 00 03 6d 61 78 09   ............max.
|   3664: 1c 02 00 01 02 00 01 02 00 01 05 65 6d 6f 72 79   ...........emory
|   3680: 09 1c 03 00 01 03 00 01 03 00 03 04 73 79 73 35   ............sys5
|   3696: 09 16 03 00 01 03 00 01 03 00 00 06 6e 6f 63 61   ............noca
|   3712: 73 65 3c 02 01 02 02 00 03 01 12 02 00 03 01 02   se<.............
|   3728: 02 00 03 01 02 02 00 03 01 02 02 00 03 01 02 02   ................
|   3744: 00 03 01 02 02 00 03 01 02 02 00 03 01 02 02 00   ................
|   3760: 03 01 02 02 00 03 01 02 02 00 03 01 02 02 00 00   ................
|   3776: 04 6f 6d 69 74 09 1f 02 00 01 02 00 01 02 00 00   .omit...........
|   3792: 05 72 74 72 65 65 09 19 03 00 01 03 00 01 03 00   .rtree..........
|   3808: 03 02 69 6d 3c 01 01 02 02 00 03 01 02 02 00 03   ..im<...........
|   3824: 01 02 02 00 03 01 02 02 00 03 01 02 02 00 03 01   ................
|   3840: 02 02 00 03 01 02 02 00 03 01 02 02 00 03 01 02   ................
|   3856: 02 00 03 01 02 02 00 03 01 02 02 00 03 01 02 02   ................
|   3872: 00 00 0a 74 68 72 65 61 64 73 61 66 65 09 22 02   ...threadsafe...
|   3888: 00 01 02 00 01 02 00 00 04 76 74 61 62 09 07 04   .........vtab...
|   3904: 00 01 04 00 01 03 ff ff 01 78 b4 01 01 01 01 02   .........x......
|   3920: 00 01 01 01 02 00 01 01 01 02 00 01 01 01 02 00   ................
|   3936: 01 01 01 02 00 01 01 01 02 00 01 01 01 02 00 01   ................
|   3952: 01 01 02 00 01 01 01 07 30 01 01 01 02 00 01 01   ........0.......
|   3968: 01 02 00 11 01 01 02 00 01 01 01 02 00 11 01 01   ................
|   3984: 02 00 01 01 01 02 00 01 01 01 02 00 01 01 01 02   ................
|   4000: 00 01 01 01 02 00 01 01 01 02 00 01 01 01 02 00   ................
|   4016: 01 01 01 01 ff 01 01 01 02 00 01 01 01 02 00 01   ................
|   4032: 01 01 02 00 01 01 01 02 00 01 01 01 02 00 01 01   ................
|   4048: 01 02 00 01 01 09 c2 00 01 01 01 02 00 01 01 01   ................
|   4064: 02 00 01 01 01 02 00 01 01 01 02 00 01 01 01 02   ................
|   4080: 00 01 01 01 02 00 01 01 01 02 00 01 01 01 02 00   ................
| page 6 offset 20480
|      0: 0a 00 00 00 02 0f f5 00 0f fb 0f f5 00 00 00 00   ................
|   4080: 00 00 00 00 00 05 04 08 09 01 02 04 04 08 08 09   ................
| page 7 offset 24576
|      0: 0d 00 00 00 05 0f b8 00 0e f4 0f e9 10 d6 0f c7   ................
|   4016: 00 00 00 00 00 00 00 00 0d 05 02 23 61 75 74 6f   ...........#auto
|   4032: 6d 65 72 67 65 3d 35 0d 04 02 23 6d 65 72 67 65   merge=5...#merge
|   4048: 3d 31 00 00 00 00 00 00 00 00 00 00 00 00 00 00   =1..............
| end crash-369d042958c29b.db
}]} {}

do_catchsql_test 24.1 {
  PRAGMA writable_schema = 1;
  WITH RECURSIVE c(x) AS (VALUES(1) UNION ALL SELECT '4hE'+x FROM c WHERE x<72)
    INSERT INTO t1(a) SELECT randomblob(2829) FROM c;
} {1 {database disk image is malformed}}

do_catchsql_test 24.2 {
  UPDATE t1 SET b=quote((true) ) WHERE t1 MATCH 'h';
} {0 {}}

do_catchsql_test 24.3 {
  WITH RECURSIVE c(x) AS (VALUES(1) UNION ALL SELECT 3+x FROM c WHERE x<72)
    INSERT INTO t1(a) SELECT randomblob(2829) FROM c;
} {1 {database disk image is malformed}}

do_catchsql_test 24.4 {
  WITH RECURSIVE c(x) AS (VALUES(1) UNION ALL SELECT null<<x FROM c WHERE x<72)
    INSERT INTO t1(a) SELECT randomblob(2829) FROM c;
} {0 {}}

do_catchsql_test 24.5 {
  WITH RECURSIVE c(x) AS (VALUES(1) UNION ALL SELECT 3+x FROM c WHERE x<72)
    INSERT INTO t1(a) SELECT randomblob(2829) FROM c;
} {1 {database disk image is malformed}}

do_catchsql_test 24.7 {
  INSERT INTO t1(t1) SELECT x FROM t2;
} {0 {}}

#-------------------------------------------------------------------------
#-------------------------------------------------------------------------
reset_db
do_test 25.0 {
  sqlite3 db {}
  db deserialize [decode_hexdb {
.open --hexdb
| size 28672 pagesize 4096 filename crash-dde9e76ed8ab2d.db
| page 1 offset 0
|      0: 53 51 4c 69 74 65 20 66 6f 72 6d 61 74 20 33 00   SQLite format 3.
|     16: 10 00 01 01 00 40 20 20 00 00 03 10 00 00 00 00   .....@  ........
|     96: 00 00 00 00 0d 0e b1 00 06 0d a4 00 0f 8d 0f 21   ...............!
|    112: 0e b9 0d c8 0e 7e 0d a4 00 00 00 00 00 00 00 00   .....~..........
|   3488: 00 00 00 00 22 07 06 17 11 11 01 31 74 61 62 6c   ...........1tabl
|   3504: 65 74 32 74 32 07 43 52 45 41 54 45 20 54 41 42   et2t2.CREATE TAB
|   3520: 4c 45 20 74 32 28 78 29 81 33 05 07 17 1f 1f 01   LE t2(x).3......
|   3536: 82 35 74 61 62 6c 65 74 31 5f 73 65 67 64 69 72   .5tablet1_segdir
|   3552: 74 31 5f 73 65 67 64 69 72 05 43 52 45 41 54 45   t1_segdir.CREATE
|   3568: 20 54 41 42 4c 45 20 27 74 31 5f 73 65 67 64 69    TABLE 't1_segdi
|   3584: 72 27 28 6c 65 76 65 6c 20 49 4e 54 45 47 45 52   r'(level INTEGER
|   3600: 2c 69 64 78 20 49 4e 54 45 47 45 52 2c 73 74 61   ,idx INTEGER,sta
|   3616: 72 74 5f 62 6c 6f 63 6b 20 49 4e 54 45 47 45 52   rt_block INTEGER
|   3632: 2c 6c 65 61 76 65 73 5f 65 6e 64 5f 62 6c 6f 63   ,leaves_end_bloc
|   3648: 6b 20 49 4e 54 45 47 45 52 2c 65 6e 64 5f 62 6c   k INTEGER,end_bl
|   3664: 6f 63 6b 20 49 4e 54 45 47 45 52 2c 72 6f 6f 74   ock INTEGER,root
|   3680: 20 42 4c 4f 42 2c 50 52 49 4d 41 52 59 20 4b 45    BLOB,PRIMARY KE
|   3696: 59 28 6c 65 76 65 6c 2c 20 69 64 78 29 29 31 06   Y(level, idx))1.
|   3712: 06 17 45 1f 01 00 69 6e 64 65 78 73 71 6c 69 74   ..E...indexsqlit
|   3728: 65 5f 61 75 74 6f 69 6e 64 65 78 5f 74 31 5f 73   e_autoindex_t1_s
|   3744: 65 67 64 69 72 5f 31 74 31 5f 73 65 67 64 69 72   egdir_1t1_segdir
|   3760: 06 0f c7 00 08 00 00 00 00 66 04 07 17 23 23 01   .........f...##.
|   3776: 81 13 74 61 62 6c 65 74 31 5f 73 65 67 6d 65 6e   ..tablet1_segmen
|   3792: 64 73 74 31 5f 73 65 67 6d 65 6e 74 73 04 43 52   dst1_segments.CR
|   3808: 45 41 54 45 20 54 41 42 4c 45 20 27 74 31 5f 73   EATE TABLE 't1_s
|   3824: 65 67 6d 65 6e 74 73 27 28 62 6c 6f 63 6b 69 64   egments'(blockid
|   3840: 20 49 4e 54 45 47 45 52 20 50 52 49 4d 41 52 59    INTEGER PRIMARY
|   3856: 20 4b 45 59 2c 20 62 6c 6f 63 6b 20 42 4c 4f 42    KEY, block BLOB
|   3872: 29 6a 03 07 17 21 21 01 81 1f 74 61 62 6c 65 74   )j...!!...tablet
|   3888: 31 5f 63 6f 6e 74 65 6e 74 74 31 5f 63 6f 6e 74   1_contentt1_cont
|   3904: 65 6e 74 03 43 52 45 41 54 45 20 54 41 42 4c 45   ent.CREATE TABLE
|   3920: 20 27 74 31 5f 63 6f 6e 74 65 6e 74 27 28 64 6f    't1_content'(do
|   3936: 63 69 64 20 49 4e 54 45 47 45 52 20 50 52 39 4d   cid INTEGER PR9M
|   3952: 41 52 59 20 4b 45 59 2c 20 27 63 30 61 27 2c 20   ARY KEY, 'c0a', 
|   3968: 27 63 31 62 27 2c 20 27 63 32 63 27 29 38 02 06   'c1b', 'c2c')8..
|   3984: 17 11 11 08 5f 74 61 62 6c 65 74 31 74 31 43 52   ...._tablet1t1CR
|   4000: 45 41 54 45 20 56 49 52 54 55 41 4c 20 54 41 42   EATE VIRTUAL TAB
|   4016: 4c 45 20 74 31 20 55 53 49 4e 47 20 66 74 73 33   LE t1 USING fts3
|   4032: 28 61 2c 62 2c 63 29 00 00 00 00 00 00 00 00 00   (a,b,c).........
| page 3 offset 8192
|      0: 0d 00 00 00 26 0b 48 0e 0f d8 0f af 0f 86 0f 74   ....&.H........t
|     16: 0f 61 0f 4e 0f 2f 0f 0f 0e ef 0e d7 0e be 0e a5   .a.N./..........
|     32: 0e 8d 0e 74 0e 5b 0e 40 0e 24 0e 08 0d ef 0d d5   ...t.[.@.$......
|     48: 0d bb 0d a0 0e 94 03 28 0d 4f 0d 35 0d 1b 05 0b   .......(.O.5....
|     64: 0c da 0c b9 0c 99 0c 78 0c 57 0c 3e 0c 24 0c 0a   .......x.W.>.$..
|   2880: 00 00 00 00 00 00 00 00 81 3f 25 06 00 72 7f 00   .........?%..r..
|   2896: 00 43 4f 4d 50 49 4c 45 52 3d 67 63 63 2d 35 2e   .COMPILER=gcc-5.
|   2912: 34 2e 30 20 32 30 31 36 30 36 30 39 20 44 55 42   4.0 20160609 DUB
|   2928: 55 47 20 45 4e 41 e4 7c 45 20 44 42 53 54 41 54   UG ENA.|E DBSTAT
|   2944: e4 46 54 41 42 20 45 4e 41 42 4c 45 20 46 54 53   .FTAB ENABLE FTS
|   2960: 34 20 45 4e 41 42 4c 45 20 46 54 53 35 20 45 4e   4 ENABLE FTS5 EN
|   2976: 41 42 4c 45 20 47 45 4f 50 4f 4c 59 20 45 4e 41   ABLE GEOPOLY ENA
|   2992: 42 4c 45 20 4a 53 4f 4e 31 20 45 4e 41 42 4c 45   BLE JSON1 ENABLE
|   3008: 20 4d 45 4d 53 59 53 35 20 45 4e 41 42 4c 45 20    MEMSYS5 ENABLE 
|   3024: 42 54 52 45 45 20 4d 41 58 20 4d 45 4d 4f 52 59   BTREE MAX MEMORY
|   3040: 3d 35 30 30 30 30 30 30 30 20 4f 4c 49 54 20 4c   =50000000 OLIT L
|   3056: 4f 41 43 20 45 58 54 45 4e 53 49 4f 4e 21 54 48   OAC EXTENSION!TH
|   3072: 52 45 41 44 53 41 46 45 3d 30 18 24 05 00 25 0f   READSAFE=0.$..%.
|   3088: 19 54 48 52 45 41 44 53 41 46 45 3d 30 58 42 49   .THREADSAFE=0XBI
|   3104: 4e 41 52 59 18 23 05 00 25 0f 19 54 48 52 45 41   NARY.#..%..THREA
|   3120: 44 53 41 4b 75 3d 30 58 4d 4f 43 41 53 45 17 22   DSAKu=0XMOCASE..
|   3136: 05 00 25 0f 17 54 48 52 45 41 44 53 41 46 46 3d   ..%..THREADSAFF=
|   3152: 30 58 52 54 52 49 4d 1f 21 05 00 33 0f 19 4f 4d   0XRTRIM.!..3..OM
|   3168: 49 54 20 4c 4f 41 44 20 45 58 54 45 4e 52 49 4f   IT LOAD EXTENRIO
|   3184: 4e 58 42 49 4e 41 52 59 1f 20 05 00 33 0f 19 4f   NXBINARY. ..3..O
|   3200: 4d 49 54 20 4c 4f 41 44 20 45 58 54 45 4e 53 49   MIT LOAD EXTENSI
|   3216: 4f 4e 58 4e 4f 43 41 53 45 1e 1f 05 00 33 0f 17   ONXNOCASE....3..
|   3232: 4f 4d 49 54 20 4c 4f 41 44 20 45 58 54 45 4e 53   OMIT LOAD EXTENS
|   3248: 49 4f 4e 58 52 54 52 49 4d 1f 1e 05 00 33 0f 19   IONXRTRIM....3..
|   3264: 4d 41 58 20 4d 45 4d 4f 52 59 3d 35 30 30 30 30   MAX MEMORY=50000
|   3280: 30 30 30 58 42 49 4e 41 52 59 1f 1d 05 00 33 0f   000XBINARY....3.
|   3296: 19 4d 41 58 20 4d 45 4d 4f 52 59 3d 35 30 30 30   .MAX MEMORY=5000
|   3312: 30 30 30 30 58 4e 4f 43 41 53 45 1e 1c 05 00 33   0000XNOCASE....3
|   3328: 0f 17 4d 42 b8 20 4d 45 4d 4f 52 59 3d 35 30 30   ..MB. MEMORY=500
|   3344: 30 30 30 30 30 58 52 54 52 49 4d 18 1b 05 00 25   00000XRTRIM....%
|   3360: 0f 19 45 4e 41 42 4c 45 20 52 54 52 45 45 58 42   ..ENABLE RTREEXB
|   3376: 49 4e 41 52 59 18 1a 05 0d a5 0f 19 45 4e 41 42   INARY.......ENAB
|   3392: 4c 45 20 52 54 52 45 45 58 4e 4f 43 41 53 45 17   LE RTREEXNOCASE.
|   3408: 19 1c 00 25 0f 17 45 4e 41 42 4c 45 20 52 54 52   ...%..ENABLE RTR
|   3424: 45 45 58 52 54 52 49 4d 1a 18 05 00 29 0f 19 45   EEXRTRIM....)..E
|   3440: 4e 41 42 4c 45 20 4d 45 4d 53 59 53 35 58 42 49   NABLE MEMSYS5XBI
|   3456: 4e 41 52 59 1a 17 05 00 29 0f 19 45 4e 41 42 4c   NARY....)..ENABL
|   3472: 45 20 4d 45 4d 53 59 53 35 58 4e 4f 43 41 53 45   E MEMSYS5XNOCASE
|   3488: 19 16 05 00 29 0f 17 45 4e 41 42 4c 45 20 4d 45   ....)..ENABLE ME
|   3504: 4d 53 59 53 35 58 52 54 52 49 4d 18 14 05 01 25   MSYS5XRTRIM....%
|   3520: 0f 19 45 4e 12 42 4c 45 20 4a 53 4f 4e 31 58 42   ..EN.BLE JSON1XB
|   3536: 49 4e 41 52 59 18 14 05 00 25 09 d9 45 4e 41 42   INARY....%..ENAB
|   3552: 4c 45 20 4a 53 4f 3e 31 58 4e 4f 43 41 53 45 17   LE JSO>1XNOCASE.
|   3568: 13 05 00 25 0f 17 45 4e 40 42 4c 45 20 4a 53 4f   ...%..EN@BLE JSO
|   3584: 4e 31 58 52 54 52 49 4d 1a 12 05 82 29 0f 19 45   N1XRTRIM....)..E
|   3600: 4e 41 42 4c 45 20 47 45 4f 50 4f 4c 59 58 42 49   NABLE GEOPOLYXBI
|   3616: 4e 41 52 59 1a 11 05 c9 29 e8 19 46 4e 41 42 4c   NARY....)..FNABL
|   3632: 48 c0 47 45 4f 50 4f 4c 59 58 4e 74 43 41 53 45   H.GEOPOLYXNtCASE
|   3648: 19 10 05 00 29 0f 17 45 4e 41 42 4c 45 20 47 45   ....)..ENABLE GE
|   3664: 4f 50 4f 4c 59 58 52 54 52 49 4d 17 0f 05 00 23   OPOLYXRTRIM....#
|   3680: 0f 19 45 4e 41 42 4c 45 30 46 54 53 35 58 42 49   ..ENABLE0FTS5XBI
|   3696: 4e 41 52 59 17 0e 05 00 23 0f 19 45 4e 41 42 4c   NARY....#..ENABL
|   3712: 45 20 46 54 53 35 58 4e 4f 43 41 53 45 16 0e 05   E FTS5XNOCASE...
|   3728: 00 23 0f 17 45 4e 41 42 4c 45 20 46 54 53 35 58   .#..ENABLE FTS5X
|   3744: 52 54 52 49 4d 17 0c 05 00 23 0f 19 45 4e 41 42   RTRIM....#..ENAB
|   3760: 4c 45 20 46 54 53 34 58 42 49 4e 41 52 59 17 0b   LE FTS4XBINARY..
|   3776: 05 00 23 0f 19 45 4e 41 42 4c 45 20 46 54 53 34   ..#..ENABLE FTS4
|   3792: 58 4e 4f 43 41 53 45 16 0a 05 00 23 0f 17 45 4e   XNOCASE....#..EN
|   3808: 41 42 4c 45 20 46 54 53 34 58 52 54 52 49 4d 1e   ABLE FTS4XRTRIM.
|   3824: 09 05 00 31 0f 19 45 4e 42 42 4c 45 20 44 42 53   ...1..ENBBLE DBS
|   3840: 54 41 54 20 56 54 41 42 58 42 49 4e 41 52 59 1e   TAT VTABXBINARY.
|   3856: 08 05 00 31 0f 19 45 4e 41 42 4c 45 20 44 42 53   ...1..ENABLE DBS
|   3872: 54 41 54 20 56 54 41 42 58 4e 4f 43 41 53 45 1d   TAT VTABXNOCASE.
|   3888: 07 05 00 31 0f 17 45 4e 41 42 4c 45 20 44 42 53   ...1..ENABLE DBS
|   3904: 54 41 54 20 56 54 41 42 58 52 54 52 4a 4d 11 06   TAT VTABXRTRJM..
|   3920: 05 f0 17 0f 19 44 45 42 55 47 58 42 49 4e 41 52   .....DEBUGXBINAR
|   3936: 59 11 05 05 00 17 0e 19 44 45 42 55 47 58 4e 4f   Y.......DEBUGXNO
|   3952: 43 41 53 45 10 04 05 00 17 0f 16 44 45 42 55 47   CASE.......DEBUG
|   3968: 58 52 54 52 49 4d 27 03 05 00 43 0f 19 43 4f 4d   XRTRIM'...C..COM
|   3984: 50 49 4c 45 52 3d 67 63 63 2d 35 2e 34 2e 30 20   PILER=gcc-5.4.0 
|   4000: 32 30 31 36 30 36 30 39 58 42 49 4e 41 52 59 27   20160609XBINARY'
|   4016: 02 05 00 43 0f 19 43 4f 4d 50 49 4c 45 52 3d 67   ...C..COMPILER=g
|   4032: 63 63 2d 35 2e 34 2e 30 20 32 30 31 36 30 36 30   cc-5.4.0 2016060
|   4048: 39 58 4e 4f 43 41 53 45 26 01 06 00 43 0f 17 43   9XNOCASE&...C..C
|   4064: 4f 4d 50 49 4b 45 52 3d 67 63 63 2d 35 2e 34 2e   OMPIKER=gcc-5.4.
|   4080: 30 20 32 30 31 36 30 36 40 39 58 29 54 52 49 4d   0 201606@9X)TRIM
| page 4 offset 12288
|      0: 0d 00 10 00 00 10 00 00 00 00 00 00 00 01 00 00   ................
| page 5 offset 16384
|      0: 0d 00 00 00 02 0b a0 00 0c ad 0b a0 00 00 00 00   ................
|   2976: 82 0a 02 08 08 09 08 08 17 84 06 30 20 32 35 33   ...........0 253
|   2992: 00 01 30 04 25 06 1b 00 00 08 32 30 31 36 30 36   ..0.%.....201606
|   3008: 30 39 03 25 07 00 00 01 34 03 25 05 00 00 01 35   09.%....4.%....5
|   3024: 03 25 04 00 01 07 30 30 30 30 30 30 30 03 25 1a   .%....0000000.%.
|   3040: 00 00 08 63 6f 6d 70 69 6c 65 72 03 25 02 00 00   ...compiler.%...
|   3056: 06 64 62 73 74 61 74 03 25 0a 00 01 04 65 62 75   .dbstat.%....ebu
|   3072: 67 03 25 08 00 00 06 65 6e 61 62 6c 65 09 25 09   g.%....enable.%.
|   3088: 05 04 04 04 04 04 00 01 08 78 74 65 6e 73 69 6f   .........xtensio
|   3104: 6e 03 25 1d 00 00 04 66 74 73 34 03 25 0d 00 03   n.%....fts4.%...
|   3120: 01 35 03 25 0f 00 00 03 67 63 63 03 25 03 00 01   .5.%....gcc.%...
|   3136: 06 65 6f 70 6f 6c 79 03 25 11 00 00 05 6a 73 6f   .eopoly.%....jso
|   3152: 6e 31 03 25 13 00 00 04 6c 6f 61 64 03 25 1c 00   n1.%....load.%..
|   3168: 00 03 6d 61 78 03 25 18 00 01 05 65 6e 6f 72 79   ..max.%....enory
|   3184: 03 25 19 00 03 04 ce 79 73 4d 03 25 15 00 00 04   .%.....ysM.%....
|   3200: 6f 6d 69 74 03 25 1b 00 00 05 72 74 72 65 65 03   omit.%....rtree.
|   3216: 25 17 00 00 0a 74 68 72 65 61 64 73 61 66 65 03   %....threadsafe.
|   3232: 25 0e 00 00 04 76 74 61 62 03 25 0b 00 86 50 01   %....vtab.%...P.
|   3248: 08 08 08 08 08 17 8d 12 30 20 38 33 35 00 01 30   ........0 835..0
|   3264: 12 01 06 00 01 06 00 01 06 00 1f 03 00 01 03 09   ................
|   3280: 51 03 00 00 08 32 30 31 36 30 36 30 39 09 01 07   Q....20160609...
|   3296: 00 01 07 00 01 07 00 00 01 34 09 01 05 00 01 05   .........4......
|   3312: 00 01 05 00 00 01 35 09 01 04 00 01 04 00 01 04   ......5.........
|   3328: 00 01 07 30 30 30 30 30 30 30 09 1c 04 00 01 04   ...0000000......
|   3344: 00 01 04 00 00 06 62 69 6e 61 72 79 3c 03 01 02   ......binary<...
|   3360: 02 00 03 01 02 02 00 03 01 02 02 00 03 01 02 02   ................
|   3376: 00 03 01 02 02 00 02 f1 02 02 00 03 01 02 02 00   ................
|   3392: 03 01 02 02 00 03 01 02 02 00 03 01 02 02 00 03   ................
|   3408: 01 02 02 00 03 01 02 02 00 00 08 63 6f 6d 70 69   ...........compi
|   3424: 6c 65 72 09 01 02 00 01 02 00 01 02 00 00 06 67   ler............g
|   3440: d2 73 74 61 74 09 07 03 00 01 03 00 01 03 00 01   .stat...........
|   3456: 04 65 62 75 67 09 04 02 00 01 02 00 01 02 00 00   .ebug...........
|   3472: 06 65 6e 6f 82 6c 65 3f 07 02 00 01 02 00 01 02   .eno.le?........
|   3488: b0 01 02 00 01 02 00 11 02 00 01 02 00 01 02 00   ................
|   3504: 01 02 00 01 02 00 01 02 00 01 a6 00 01 02 00 01   ................
|   3520: 02 05 51 02 00 01 02 00 01 02 00 01 02 00 01 02   ..Q.............
|   3536: 00 01 02 00 01 02 00 01 08 78 74 65 6e 73 69 6f   .........xtensio
|   3552: 6e 09 1f 04 00 01 04 00 00 04 00 00 04 66 74 73   n............fts
|   3568: 34 09 0a 03 00 01 03 00 01 03 00 03 01 35 09 0d   4............5..
|   3584: 03 00 01 03 00 01 03 00 00 03 67 63 63 09 01 03   ..........gcc...
|   3600: 00 01 03 00 01 03 00 01 06 65 6f 70 73 6c 79 09   .........eopsly.
|   3616: 10 03 00 01 03 00 01 03 00 00 05 6a 73 6f 6e 31   ...........json1
|   3632: 09 13 03 00 01 03 00 01 03 00 00 04 6c 6f 61 64   ............load
|   3648: 09 1f 03 00 01 03 00 01 03 00 00 03 6d 61 78 09   ............max.
|   3664: 1c 02 00 01 02 00 01 02 00 01 05 65 6d 6f 72 79   ...........emory
|   3680: 09 1c 03 00 01 03 00 01 03 00 03 04 73 79 73 35   ............sys5
|   3696: 09 16 03 00 01 03 00 01 03 00 00 06 6e 6f 63 61   ............noca
|   3712: 73 65 3c 02 01 02 02 00 03 01 12 02 00 03 01 02   se<.............
|   3728: 02 00 03 01 02 02 00 03 01 02 02 00 03 01 02 02   ................
|   3744: 00 03 01 02 02 00 03 01 02 02 00 03 01 02 02 00   ................
|   3760: 03 01 02 02 00 03 01 02 02 00 03 01 02 02 00 00   ................
|   3776: 0e 9f 6d 69 74 09 1f 02 00 01 02 00 01 02 00 00   ..mit...........
|   3792: 05 72 74 72 65 65 09 19 03 00 01 03 00 01 03 00   .rtree..........
|   3808: 03 02 69 6d 3c 01 01 02 02 00 03 01 02 02 00 03   ..im<...........
|   3824: 01 02 02 00 03 01 02 02 00 03 01 02 02 00 03 01   ................
|   3840: 02 02 00 03 01 02 02 00 03 01 02 02 00 03 01 02   ................
|   3856: 02 00 03 01 02 02 00 03 01 02 02 00 03 01 02 02   ................
|   3872: 00 00 0a 74 68 72 65 61 64 73 61 66 65 09 22 02   ...threadsafe...
|   3888: 00 01 02 00 01 02 00 00 04 76 74 61 62 09 07 04   .........vtab...
|   3904: 00 01 04 00 01 04 00 00 01 78 b4 01 01 01 01 02   .........x......
|   3920: 00 01 01 01 02 00 01 01 01 02 00 01 01 01 02 00   ................
|   3936: 01 01 01 02 00 01 01 01 02 00 01 01 01 02 00 01   ................
|   3952: 01 01 02 00 01 01 01 07 30 01 01 01 02 00 01 01   ........0.......
|   3968: 01 02 00 11 01 01 02 00 01 01 01 02 00 11 01 01   ................
|   3984: 02 00 01 01 01 02 00 01 01 01 02 00 01 01 01 02   ................
|   4000: 00 01 01 01 02 00 01 01 01 02 00 01 01 01 02 00   ................
|   4016: 01 01 01 01 ff 01 01 01 02 00 01 01 01 02 00 01   ................
|   4032: 01 01 02 00 01 01 01 02 00 01 01 01 02 00 01 01   ................
|   4048: 01 02 00 01 01 01 02 00 01 01 01 02 00 01 01 01   ................
|   4064: 02 00 01 01 01 02 00 01 01 01 02 00 01 01 01 02   ................
|   4080: 00 01 01 01 02 00 01 01 01 02 00 01 01 01 02 00   ................
| page 6 offset 20480
|      0: 0a 00 00 00 02 0f f5 00 0f fb 0f f5 00 00 00 00   ................
|   4080: 00 00 00 00 00 05 04 08 09 01 02 04 04 08 08 09   ................
| page 7 offset 24576
|      0: 0d 00 00 00 05 0f b8 00 0e f4 0f e9 10 d6 0f c7   ................
|   4016: 00 00 00 00 00 00 00 00 0d 05 02 23 61 75 74 6f   ...........#auto
|   4032: 6d 65 72 67 65 3d 35 0d 04 02 23 6d 65 72 67 65   merge=5...#merge
|   4048: 3d 31 00 00 00 00 00 00 00 00 00 00 00 00 00 00   =1..............
| end crash-dde9e76ed8ab2d.db
}]} {}

reset_prng_state

do_catchsql_test 25.1 {
  PRAGMA writable_schema = 1;
  WITH RECURSIVE c(x) AS (VALUES(1) UNION ALL SELECT x%1 FROM c WHERE x<599237)
    INSERT INTO t1( a ) SELECT randomblob(3000) FROM t2 ;
} {0 {}}

do_catchsql_test 25.2 {
  UPDATE t1 SET b=quote((true) ) WHERE t1 MATCH 'h*';
} {0 {}}

do_catchsql_test 25.3 {
  WITH RECURSIVE c(x) AS (VALUES(1) UNION ALL SELECT x +x FROM c WHERE 72<x)
    INSERT INTO t1(a) SELECT randomblob(2829) FROM c;
} {0 {}}

do_catchsql_test 25.4 {
  WITH RECURSIVE c(x) AS (VALUES(1) UNION ALL SELECT x%1 FROM c WHERE 599237<x)
    INSERT INTO t1(a) SELECT randomblob(3000) FROM t2 ;
} {0 {}}

do_catchsql_test 25.5 {
  WITH RECURSIVE c(x) AS (VALUES(1) UNION ALL SELECT x%1 FROM c WHERE x<599237)
    INSERT INTO t1( a ) SELECT randomblob(3000) FROM t2 ;
} {0 {}}

if {$tcl_platform(byteOrder)=="littleEndian"} {
  # The SQLITE_CORRUPT error depends on the specific random byte
  # sequence generated by SQLite's PRNG.  But the SQLite PRNG
  # uses ChaCha20, which generates a different byte sequence on
  # big-endian and little-endian platforms.  The SQLITE_CORRUPT
  # error only comes up when the pseudo-random byte sequence is
  # the one generated on little-endian platforms.
  #
  # See Forum thread:
  # https://sqlite.org/forum/forumpost/b5f89d813babfd88
  #
  do_catchsql_test 25.6a {
    INSERT INTO t1(t1) SELECT x FROM t2;
  } {1 {database disk image is malformed}}
  do_catchsql_test 25.6b {
    INSERT INTO t1(t1) SELECT x FROM t2;
  } {1 {database disk image is malformed}}
} else {
  do_catchsql_test 25.6a {
    INSERT INTO t1(t1) SELECT x FROM t2;
  } {0 {}}
  do_catchsql_test 25.6b {
    INSERT INTO t1(t1) SELECT x FROM t2;
  } {0 {}}
}


#-------------------------------------------------------------------------
reset_db
do_test 26.0 {
  sqlite3 db {}
  db deserialize [decode_hexdb {
.open --hexdb
| size 28672 pagesize 4096 filename crash-26682721375870.db
| page 1 offset 0
|      0: 53 51 4c 69 74 65 20 66 6f 72 6d 61 74 20 33 00   SQLite format 3.
|     16: 10 00 01 01 00 40 20 20 00 00 00 00 00 00 00 00   .....@  ........
|     96: 00 00 00 00 0d 0e b1 00 06 0d a4 00 0f 8d 0f 21   ...............!
|    112: 0e b9 0d c8 0e 7e 0d a4 00 00 00 00 00 00 00 00   .....~..........
|   3488: 00 00 00 00 22 07 06 17 11 11 01 31 74 61 62 6c   ...........1tabl
|   3504: 65 74 32 74 32 07 43 52 45 41 54 45 20 54 41 42   et2t2.CREATE TAB
|   3520: 4c 45 20 74 32 28 78 29 81 33 05 07 17 1f 1f 01   LE t2(x).3......
|   3536: 82 35 74 61 62 6c 65 74 31 5f 73 65 67 64 69 72   .5tablet1_segdir
|   3552: 74 31 5f 73 65 67 64 69 72 05 43 52 45 41 54 45   t1_segdir.CREATE
|   3568: 20 54 41 42 4c 45 20 27 74 31 5f 73 65 67 64 69    TABLE 't1_segdi
|   3584: 72 27 28 6c 65 76 65 6c 20 49 4e 54 45 47 45 51   r'(level INTEGEQ
|   3600: 2c 69 64 78 20 49 4e 54 45 47 45 52 2c 73 74 61   ,idx INTEGER,sta
|   3616: 72 74 5f 62 6c 6f 63 6b 20 49 4e 54 45 47 45 52   rt_block INTEGER
|   3632: 2c 6c 65 61 76 65 73 5f 65 6e 64 5f 62 6c 6f 63   ,leaves_end_bloc
|   3648: 6b 20 49 4e 54 45 47 45 52 2c 65 6e 64 5f 62 6c   k INTEGER,end_bl
|   3664: 6f 63 6b 20 49 4e 54 45 47 45 62 2c 72 6f 6f 74   ock INTEGEb,root
|   3680: 20 42 4c 4f 42 2c 50 52 49 4d 41 52 59 20 4b 45    BLOB,PRIMARY KE
|   3696: 59 28 6c 65 76 65 6c 2c 20 69 64 78 29 29 31 06   Y(level, idx))1.
|   3712: 06 17 45 1f 01 00 69 6e 64 65 78 73 71 6c 69 74   ..E...indexsqlit
|   3728: 65 5f 61 75 74 6f 69 6e 64 65 78 5f 74 31 5f 73   e_autoindex_t1_s
|   3744: 65 67 64 69 72 5f 31 74 31 5f 73 65 67 64 69 72   egdir_1t1_segdir
|   3760: 06 0f c7 00 08 00 00 00 00 66 04 07 17 23 23 01   .........f...##.
|   3776: 81 13 74 61 62 6c 65 74 31 5f 73 65 66 6d 65 6e   ..tablet1_sefmen
|   3792: 74 73 74 31 5f 73 65 67 6d 65 6e 74 73 04 43 52   tst1_segments.CR
|   3808: 45 41 54 45 20 54 41 42 4c 45 20 27 74 31 5f 73   EATE TABLE 't1_s
|   3824: 65 67 6d 65 6e 74 73 27 28 62 6c 6f 63 6b 69 64   egments'(blockid
|   3840: 20 49 4e 54 45 47 45 52 20 50 52 49 4d 41 52 59    INTEGER PRIMARY
|   3856: 20 4b 45 59 2c 20 62 6c 6f 63 6b 20 42 4c 4f 42    KEY, block BLOB
|   3872: 29 6a 03 07 17 21 21 01 81 1f 74 61 62 6c 65 74   )j...!!...tablet
|   3888: 31 5f 63 6f 6e 74 65 6e 74 74 31 5f 63 6f 6e 74   1_contentt1_cont
|   3904: 65 6e 74 03 43 52 45 41 54 45 20 54 41 42 4c 45   ent.CREATE TABLE
|   3920: 20 27 74 31 5f 63 6f 6e 74 65 6e 74 27 28 64 6f    't1_content'(do
|   3936: 63 69 64 20 49 4e 54 45 47 45 52 20 50 52 49 4d   cid INTEGER PRIM
|   3952: 41 52 59 20 4b 45 59 2c 20 27 63 30 61 27 2c 20   ARY KEY, 'c0a', 
|   3968: 27 63 31 62 27 2c 20 27 63 32 63 27 29 38 02 06   'c1b', 'c2c')8..
|   3984: 17 11 11 08 5f 74 61 62 6c 65 74 31 74 31 43 52   ...._tablet1t1CR
|   4000: 45 41 54 45 20 56 49 52 54 55 41 4c 20 54 41 42   EATE VIRTUAL TAB
|   4016: 4c 45 20 74 31 20 55 53 49 4e 47 20 66 74 73 33   LE t1 USING fts3
|   4032: 28 61 2c 62 2c 63 29 00 00 00 00 00 00 00 00 00   (a,b,c).........
| page 3 offset 8192
|      0: 0d 00 00 00 25 0b 48 00 0f d8 0f af 0f 86 0f 74   ....%.H........t
|     16: 0f 61 0f 4e 0f 2f 0f 0f 0e ef 0e d7 0e be 0e a5   .a.N./..........
|     32: 0e 8d 0e 74 0e 5b 0e 40 0e 24 0e 08 0d ef 00 00   ...t.[.@.$......
|   2880: 00 00 00 00 00 00 00 00 81 3f 25 06 00 82 7f 00   .........?%.....
|   2896: 00 43 4f 4d 50 49 4c 45 52 3d 67 63 63 2d 35 2e   .COMPILER=gcc-5.
|   2912: 34 23 00 20 32 2f 31 36 30 36 30 39 20 44 45 42   4#. 2/160609 DEB
|   2928: 55 47 20 45 4e 41 42 4c 45 20 44 42 53 54 41 54   UG ENABLE DBSTAT
|   2944: 20 56 54 41 42 20 45 4e 41 42 4c 45 20 46 54 53    VTAB ENABLE FTS
|   2960: 34 20 45 4e 41 42 4c 45 20 46 54 53 35 20 45 4e   4 ENABLE FTS5 EN
|   2976: 41 42 4c 45 20 47 45 4f 50 4f 4c 59 20 45 4e 41   ABLE GEOPOLY ENA
|   2992: 42 4c 45 20 4a 53 4f 4e 31 20 45 4e 41 42 4c 45   BLE JSON1 ENABLE
|   3008: 20 4d 45 4d 53 59 53 35 20 45 4e 41 42 4c 45 20    MEMSYS5 ENABLE 
|   3024: 52 54 52 45 45 20 4d 41 58 20 4d 45 4d 4f 52 59   RTREE MAX MEMORY
|   3040: 3d 35 30 30 30 30 30 30 30 20 4f 4d 49 54 20 4c   =50000000 OMIT L
|   3056: 4f 41 44 20 45 58 54 45 4e 53 59 4f 4e 20 54 48   OAD EXTENSYON TH
|   3072: 52 45 41 44 53 41 46 45 3d 30 18 24 05 00 25 0f   READSAFE=0.$..%.
|   3088: 19 54 48 52 45 41 44 53 41 46 45 3d 30 58 42 49   .THREADSAFE=0XBI
|   3104: 4e 41 52 59 18 23 05 00 25 0f 19 54 48 52 45 41   NARY.#..%..THREA
|   3120: 44 53 41 46 45 3d 30 58 4e 4f 43 41 53 45 17 22   DSAFE=0XNOCASE..
|   3136: 05 00 25 0f 17 54 38 52 45 41 44 53 41 46 45 3d   ..%..T8READSAFE=
|   3152: 30 58 52 54 52 49 4d 1f 21 05 00 33 0f 19 4f 4d   0XRTRIM.!..3..OM
|   3168: 49 54 20 4c 4f 41 44 20 45 58 54 45 fc 53 49 4f   IT LOAD EXTE.SIO
|   3184: 4e 68 42 49 4e 4a c2 59 1f 20 05 00 33 0f 19 4f   NhBINJ.Y. ..3..O
|   3200: 4d 49 54 20 4c 4f 41 44 20 45 58 54 45 4e 53 49   MIT LOAD EXTENSI
|   3216: 4f 4e 58 4e 4f 43 41 53 45 1e 1f 05 00 33 0f 17   ONXNOCASE....3..
|   3232: 4f 4d 49 54 20 4c 4f 41 44 20 45 58 54 45 4e 53   OMIT LOAD EXTENS
|   3248: 49 4f 4e 58 52 54 52 49 4d 1f 1e 05 00 33 0f 19   IONXRTRIM....3..
|   3264: 4d 41 58 20 4d 45 4d 4f 52 59 3d 35 30 2f 30 30   MAX MEMORY=50/00
|   3280: 30 30 30 58 42 49 4e 41 52 59 1f 1d 05 00 33 0f   000XBINARY....3.
|   3296: 19 4d 41 58 20 4d 45 4d 4f 52 59 3d 35 30 30 30   .MAX MEMORY=5000
|   3312: 30 30 30 30 48 4e 4f 43 41 53 45 1e 1c 05 00 33   0000HNOCASE....3
|   3328: 0f 17 4d 41 58 20 4d 45 4d 4f 52 59 3d 35 30 30   ..MAX MEMORY=500
|   3344: 30 30 30 30 30 58 52 54 52 49 4d 18 1b 05 00 25   00000XRTRIM....%
|   3360: 0f 19 45 4e 41 42 4c 45 20 52 54 52 45 45 58 42   ..ENABLE RTREEXB
|   3376: 49 4e 41 52 59 18 1a 05 00 25 0f 19 45 4e 41 42   INARY....%..ENAB
|   3392: 4c 45 20 52 54 52 45 45 58 4e 4f 53 41 53 45 17   LE RTREEXNOSASE.
|   3408: 19 05 00 25 0f 17 45 4e 41 42 4c 45 20 52 54 52   ...%..ENABLE RTR
|   3424: 45 45 58 52 54 52 49 4d 1a 18 05 00 29 0f 19 45   EEXRTRIM....)..E
|   3440: 4e 41 42 4c 45 20 4d 45 4d 53 59 53 35 58 42 49   NABLE MEMSYS5XBI
|   3456: 4e 41 52 59 1a 17 05 00 29 0f 19 45 4e 41 42 4c   NARY....)..ENABL
|   3472: 45 20 4d 45 4d 53 59 53 35 58 4e 4f 43 41 53 45   E MEMSYS5XNOCASE
|   3488: 19 16 05 00 29 0f 17 45 4e 41 42 4c 45 20 4d 45   ....)..ENABLE ME
|   3504: 4d 53 59 53 35 58 52 54 52 49 4d 18 15 05 00 25   MSYS5XRTRIM....%
|   3520: 0f 19 45 4e 41 42 4c 45 20 4a 53 4f 4e 31 58 42   ..ENABLE JSON1XB
|   3536: 49 4e 41 52 59 18 14 05 00 25 0f 19 45 4e 42 42   INARY....%..ENBB
|   3552: 4d 45 20 4a 53 4f 4e 31 58 4e 4f 43 41 53 45 17   ME JSON1XNOCASE.
|   3568: 13 05 00 25 0f 17 45 4e 41 42 4c 45 20 4a 53 4f   ...%..ENABLE JSO
|   3584: 4e 31 58 52 54 52 49 4d 1a 12 05 00 29 0f 19 45   N1XRTRIM....)..E
|   3600: 4e 41 42 4c 45 20 47 45 4f 50 4f 4c 59 58 42 49   NABLE GEOPOLYXBI
|   3616: 4e 41 52 59 1a 11 05 00 29 0f 19 45 4e 41 1e 4c   NARY....)..ENA.L
|   3632: 45 20 47 45 4f 50 4f 4c 59 58 4e 4f 43 41 53 45   E GEOPOLYXNOCASE
|   3648: 19 10 05 00 29 0f 17 45 4e 41 42 4c 45 20 47 45   ....)..ENABLE GE
|   3664: 4f 50 4f 4c 59 58 62 54 52 49 4d 17 0f 05 00 23   OPOLYXbTRIM....#
|   3680: 0f 19 45 4e 41 42 4c 45 20 46 54 53 35 58 42 49   ..ENABLE FTS5XBI
|   3696: 4e 41 52 59 17 0e 05 00 23 0f 19 45 4e 41 42 4c   NARY....#..ENABL
|   3712: 45 20 46 54 fc 35 58 4e 4f 43 41 53 45 16 0d 05   E FT.5XNOCASE...
|   3728: 00 23 0f 17 45 4e 41 42 4c 45 20 46 54 53 35 58   .#..ENABLE FTS5X
|   3744: 52 54 52 49 4d 17 0c 05 00 23 0f 19 45 4e 41 42   RTRIM....#..ENAB
|   3760: 4c 45 20 46 54 53 34 58 42 49 4e 41 52 59 17 0b   LE FTS4XBINARY..
|   3776: 05 00 23 0f 19 45 4e 41 42 4c 45 20 46 54 53 35   ..#..ENABLE FTS5
|   3792: 58 4e 4f 43 40 53 45 16 0a 05 00 23 0f 17 45 4e   XNOC@SE....#..EN
|   3808: 41 42 4c 45 20 56 54 53 34 58 52 54 52 49 4d 1e   ABLE VTS4XRTRIM.
|   3824: 09 05 00 31 0f 19 45 4e 41 42 4c 45 20 44 42 53   ...1..ENABLE DBS
|   3840: 54 41 54 20 56 54 41 42 58 42 49 4e 41 b3 58 1e   TAT VTABXBINA.X.
|   3856: 08 05 00 31 0f 19 45 4e 40 42 4c 45 20 44 42 53   ...1..EN@BLE DBS
|   3872: 54 41 54 20 56 54 41 42 58 4e 4f 43 41 53 45 1d   TAT VTABXNOCASE.
|   3888: 07 05 00 31 0f 17 45 4e 41 42 4c 45 20 45 42 53   ...1..ENABLE EBS
|   3904: 54 41 54 20 56 54 41 42 58 52 54 52 49 4d 11 06   TAT VTABXRTRIM..
|   3920: 05 00 17 0f 19 44 45 42 55 47 58 42 49 4e 41 52   .....DEBUGXBINAR
|   3936: 59 11 05 05 00 17 0f 19 44 45 42 55 47 58 4e 4f   Y.......DEBUGXNO
|   3952: 43 41 53 45 10 04 05 00 17 0f 17 44 45 42 55 47   CASE.......DEBUG
|   3968: 58 52 54 52 49 4d 27 03 05 00 43 0f 19 43 4f 4d   XRTRIM'...C..COM
|   3984: 50 49 4c 45 52 3d 67 63 63 2d 35 2e 34 2e 30 20   PILER=gcc-5.4.0 
|   4000: 32 30 31 36 30 36 30 39 58 4b 19 4e 41 52 59 27   20160609XK.NARY'
|   4016: 02 05 00 43 0f 19 43 4f 4d 50 49 4c 45 52 3d 67   ...C..COMPILER=g
|   4032: 63 63 2d 35 2e 34 2e 30 20 32 30 31 36 30 36 30   cc-5.4.0 2016060
| page 5 offset 16384
|      0: 0d 00 00 00 02 0b a0 00 0c ad 0b a0 00 00 00 00   ................
|   2976: 82 0a 02 08 08 09 08 08 17 84 06 30 20 32 34 33   ...........0 243
|   2992: 00 01 30 04 25 06 1b 00 00 08 32 30 31 36 30 36   ..0.%.....201606
|   3008: 30 39 03 25 07 00 00 01 34 03 25 05 00 00 01 35   09.%....4.%....5
|   3024: 03 25 04 00 01 07 30 30 30 30 30 30 30 03 25 1a   .%....0000000.%.
|   3040: 00 00 08 63 6f 6d 70 69 6c 65 72 03 25 02 00 00   ...compiler.%...
|   3056: 06 64 62 73 74 51 74 03 25 0a 00 01 04 65 62 75   .dbstQt.%....ebu
|   3072: 67 03 25 08 00 00 06 65 6e 61 62 6c 65 09 25 09   g.%....enable.%.
|   3088: 05 04 04 04 04 04 00 01 08 78 74 65 6e 73 69 6f   .........xtensio
|   3104: 6e 03 25 1d 00 00 04 66 74 73 34 03 25 0d 00 03   n.%....fts4.%...
|   3120: 01 35 03 25 0f 00 00 03 67 63 63 03 25 03 00 01   .5.%....gcc.%...
|   3136: 06 65 6f 70 6f 6c 79 03 25 11 00 00 05 6a 73 6f   .eopoly.%....jso
|   3152: 6e 31 03 25 13 00 00 04 6c 6f 61 64 03 25 1c 00   n1.%....load.%..
|   3168: 00 03 6d 61 78 03 25 18 00 01 05 65 6d 6f 72 79   ..max.%....emory
|   3184: 03 25 19 00 03 04 73 79 73 35 03 25 15 00 00 04   .%....sys5.%....
|   3200: 6f 6d 69 74 03 25 1b 00 00 05 72 74 72 65 65 03   omit.%....rtree.
|   3216: 25 17 00 00 0a 74 68 72 65 61 64 73 61 66 65 03   %....threadsafe.
|   3232: 25 1e 00 00 04 76 74 61 62 03 25 0b 00 86 50 01   %....vtab.%...P.
|   3248: 08 08 08 08 08 17 8d 12 30 20 38 33 35 00 01 30   ........0 835..0
|   3264: 12 01 06 00 01 06 00 01 06 00 1e f3 00 01 03 00   ................
|   3280: 01 03 00 00 08 32 30 31 36 30 36 30 39 09 01 07   .....20160609...
|   3296: 00 01 07 00 01 07 00 00 01 34 09 01 05 00 01 05   .........4......
|   3312: 00 01 05 00 00 01 35 09 01 04 00 01 04 00 01 04   ......5.........
|   3328: 00 01 07 30 30 30 30 2f 30 30 09 1c 04 00 01 04   ...0000/00......
|   3344: 00 01 04 00 00 06 62 69 6e 61 72 79 3c 03 01 02   ......binary<...
|   3360: 02 00 03 01 02 02 00 03 01 02 02 00 03 01 02 02   ................
|   3376: 00 03 01 02 02 00 03 01 02 02 00 03 01 02 02 00   ................
|   3392: 03 01 02 02 00 03 01 02 02 00 03 01 02 02 00 03   ................
|   3408: 01 02 02 00 03 01 02 02 00 00 08 63 6f 6d 70 69   ...........compi
|   3424: 6c 65 72 09 01 02 00 01 02 00 01 02 00 00 06 64   ler............d
|   3440: 62 73 74 61 74 09 07 03 00 01 03 00 01 03 00 01   bstat...........
|   3456: 04 65 62 75 67 09 04 02 00 01 02 00 01 02 00 00   .ebug...........
|   3472: 06 65 6e 61 62 6c 65 3f 07 02 00 01 02 00 01 02   .enable?........
|   3488: 00 01 02 00 01 02 00 01 01 f0 01 02 00 57 02 00   .............W..
|   3504: 01 02 00 01 02 00 01 02 00 01 02 00 01 02 10 01   ................
|   3520: 02 00 01 02 00 01 02 00 01 02 00 01 02 00 01 02   ................
|   3536: 00 00 02 00 01 02 00 01 08 78 74 65 6e 73 69 6f   .........xtensio
|   3552: 6e 09 1f 04 00 01 04 00 01 04 00 00 04 66 74 73   n............fts
|   3568: 34 09 0a 03 00 01 03 00 01 03 00 03 01 35 09 0d   4............5..
|   3584: 03 00 01 03 00 a9 03 00 00 03 67 63 63 09 01 03   ..........gcc...
|   3600: 00 01 03 00 01 03 00 01 06 65 6f 70 6f 6c 79 09   .........eopoly.
|   3616: 10 03 00 01 03 00 01 03 00 00 05 6a 73 6f 6e 31   ...........json1
|   3632: 09 13 03 00 01 03 00 01 03 00 00 04 6c 6f 61 64   ............load
|   3648: 09 1f 03 00 01 03 00 01 03 00 00 03 6d 61 78 09   ............max.
|   3664: 1c 02 0b 31 02 00 01 02 00 01 05 65 6d 6f 72 79   ...1.......emory
|   3680: 09 1c 03 00 01 03 00 01 03 00 03 04 73 79 73 35   ............sys5
|   3696: 09 16 03 00 01 03 00 01 03 00 00 06 6e 6f 63 61   ............noca
|   3712: 73 65 3c 02 01 02 02 00 03 01 02 02 00 03 01 02   se<.............
|   3728: 02 00 03 01 02 02 00 03 01 02 02 00 03 01 02 02   ................
|   3744: 00 03 01 02 02 00 f3 01 02 02 00 03 01 02 02 00   ................
|   3760: 03 01 02 02 00 03 01 02 02 00 03 01 02 02 00 00   ................
|   3776: 04 6f 6d 69 74 09 1f 02 00 01 02 00 01 02 00 00   .omit...........
|   3792: 05 72 74 72 65 65 09 19 03 00 01 03 00 01 03 00   .rtree..........
|   3808: 03 02 69 6d 3c 01 01 02 02 00 03 01 02 02 00 03   ..im<...........
|   3824: 01 02 02 00 03 01 02 02 00 03 01 02 02 00 03 01   ................
|   3840: 02 02 00 03 01 02 02 00 03 01 02 02 00 03 01 02   ................
|   3856: 02 00 03 01 02 02 00 03 01 02 02 00 03 01 02 02   ................
|   3872: 00 00 0a 74 68 72 65 61 64 63 61 66 65 09 22 02   ...threadcafe...
|   3888: 00 01 02 00 02 02 00 00 04 76 74 61 62 09 07 04   .........vtab...
|   3904: 00 01 04 00 01 04 00 00 01 78 b4 01 01 01 01 02   .........x......
|   3920: 00 01 01 01 02 00 01 01 01 02 00 01 01 01 02 00   ................
|   3936: 01 01 01 02 00 01 01 01 02 00 01 01 01 02 00 01   ................
|   3952: 01 01 02 00 01 01 01 02 00 01 01 01 02 00 01 01   ................
|   3968: 01 02 00 01 01 01 02 00 01 01 01 02 00 01 01 01   ................
|   3984: 02 00 01 01 01 02 00 01 01 01 02 00 01 01 01 02   ................
|   4000: 00 01 01 01 02 00 01 01 01 02 00 01 01 01 02 00   ................
|   4016: 01 01 01 02 00 01 01 01 02 00 01 00 01 02 00 01   ................
|   4032: 01 01 02 00 01 01 00 e2 00 01 01 01 02 00 01 01   ................
|   4048: 01 02 00 01 01 01 02 00 01 01 01 02 00 01 01 01   ................
|   4064: 02 00 01 01 01 02 00 01 01 01 02 00 01 01 01 02   ................
|   4080: 00 01 01 01 02 00 01 01 01 02 00 01 01 01 02 00   ................
| page 6 offset 20480
|      0: 0a 00 00 00 02 0f f5 00 0f fb 0f f5 00 00 00 00   ................
|   4080: 00 00 00 00 00 05 04 08 09 01 02 04 04 08 08 09   ................
| page 7 offset 24576
|      0: 0d 00 00 00 00 00 00 00 00 00 00 00 00 00 00 00   ................
|   4016: 00 00 00 00 00 00 00 00 0d 05 02 23 61 00 00 00   ...........#a...
| end crash-26682721375870.db
}]} {}

do_execsql_test 26.1 {
  PRAGMA writable_schema = 1;
  SELECT count(*) FROM (
    SELECT t1, (t1) FROM t1 WHERE b MATCH 'x'
  )
} 34

#-------------------------------------------------------------------------
reset_db
do_test 27.0 {
  sqlite3 db {}
  db deserialize [decode_hexdb {
.open --hexdb
| size 28672 pagesize 4096 filename crash-23ddd777a03bfd.db
| page 1 offset 0
|      0: 53 51 4c 69 74 65 20 66 6f 72 6d 61 74 20 33 00   SQLite format 3.
|     16: 10 00 01 01 00 40 20 20 00 00 00 00 00 00 00 00   .....@  ........
|     96: 00 00 00 00 0d 0e b1 00 06 0d a4 00 0f 8d 0f 21   ...............!
|    112: 0e b9 0d c8 0e 7e 0d a4 00 00 00 00 00 00 00 00   .....~..........
|   3488: 00 00 00 00 22 07 06 17 11 11 01 31 74 61 62 6c   ...........1tabl
|   3504: 65 74 32 74 32 07 43 52 45 41 54 45 20 54 41 42   et2t2.CREATE TAB
|   3520: 4c 45 20 74 32 28 78 29 81 33 05 07 17 1f 1f 01   LE t2(x).3......
|   3536: 82 35 74 61 62 6c 65 74 31 5f 73 65 67 64 69 72   .5tablet1_segdir
|   3552: 74 31 5f 73 65 67 64 69 72 05 43 52 45 41 54 45   t1_segdir.CREATE
|   3568: 20 54 41 42 4c 45 20 27 74 31 5f 73 65 67 64 69    TABLE 't1_segdi
|   3584: 72 27 28 6c 65 76 65 6c 20 49 4e 54 45 47 45 52   r'(level INTEGER
|   3600: 2c 69 64 78 20 49 4e 54 45 47 45 52 2c 73 74 61   ,idx INTEGER,sta
|   3616: 72 74 5f 62 6c 6f 63 6b 20 49 4e 54 45 47 45 52   rt_block INTEGER
|   3632: 2c 6c 65 61 76 65 73 5f 65 6e 64 5f 62 6c 6f 63   ,leaves_end_bloc
|   3648: 6b 20 49 4e 54 45 47 45 52 2c 65 6e 64 5f 62 6c   k INTEGER,end_bl
|   3664: 6f 63 6b 20 49 4e 54 45 47 45 52 2c 72 6f 6f 74   ock INTEGER,root
|   3680: 20 42 4c 4f 42 2c 50 52 49 4d 41 52 59 20 4b 45    BLOB,PRIMARY KE
|   3696: 59 28 6c 65 76 65 6c 2c 20 69 64 78 29 29 31 06   Y(level, idx))1.
|   3712: 06 17 45 1f 01 00 69 6e 64 65 78 73 71 6c 69 74   ..E...indexsqlit
|   3728: 65 5f 61 75 74 6f 69 6e 64 65 78 5f 74 31 5f 73   e_autoindex_t1_s
|   3744: 65 67 64 69 72 5f 31 74 31 5f 73 65 67 64 69 72   egdir_1t1_segdir
|   3760: 06 0f c7 00 08 00 00 00 00 66 04 07 17 23 23 01   .........f...##.
|   3776: 81 13 74 61 62 6c 65 74 31 5f 73 65 67 6d 65 6e   ..tablet1_segmen
|   3792: 64 73 74 31 5f 73 65 67 6d 65 6e 73 73 04 43 52   dst1_segmenss.CR
|   3808: 45 41 54 45 20 54 41 42 4c 45 20 27 74 31 5f 73   EATE TABLE 't1_s
|   3824: 65 67 6d 65 6e 74 73 27 28 62 6c 6f 63 6b 69 64   egments'(blockid
|   3840: 20 49 4e 54 45 47 45 52 20 50 52 49 4d 4e 72 59    INTEGER PRIMNrY
|   3856: 20 4b 45 59 2c 20 62 6c 6f 63 6b 20 42 4c 4f 42    KEY, block BLOB
|   3872: 29 6a 03 07 17 21 21 01 81 1f 74 61 62 6c 65 74   )j...!!...tablet
|   3888: 31 5f 63 6f 6e 74 65 6e 74 74 31 5f 63 6f 6e 74   1_contentt1_cont
|   3904: 65 6e 74 04 43 52 45 41 54 45 20 54 41 42 4c 45   ent.CREATE TABLE
|   3920: 20 27 74 31 5f 63 6f 6e 74 65 6e 74 27 28 64 6f    't1_content'(do
|   3936: 63 69 64 20 49 4e 54 45 47 45 52 20 50 52 39 4d   cid INTEGER PR9M
|   3952: 41 52 59 20 4b 45 59 2c 20 27 63 30 61 27 2c 20   ARY KEY, 'c0a', 
|   3968: 27 63 31 62 27 2c 20 27 63 32 63 27 29 38 02 06   'c1b', 'c2c')8..
|   3984: 17 11 11 08 5f 74 61 62 6c 65 74 31 74 31 43 52   ...._tablet1t1CR
|   4000: 45 41 54 45 20 56 49 52 54 55 41 4c 20 54 41 42   EATE VIRTUAL TAB
|   4016: 4c 45 20 74 31 20 55 53 49 4e 47 20 66 74 73 33   LE t1 USING fts3
|   4032: 28 61 2c 62 2c 63 29 00 00 00 00 00 00 00 00 00   (a,b,c).........
| page 3 offset 8192
|      0: 0d 00 00 00 26 0b 48 0e 0f d8 0f af 0f 86 0f 74   ....&.H........t
|     16: 0f 61 0f 4e 0f 2f 0f 0f 0e ef 0e 00 00 00 00 00   .a.N./..........
|   2880: 00 00 00 00 00 00 00 00 81 3f 25 06 00 72 7f 00   .........?%..r..
|   2896: 00 43 4f 4d 50 49 4c 45 52 3d 67 63 63 2d 35 2e   .COMPILER=gcc-5.
|   2912: 34 2e 30 20 32 30 31 36 30 36 30 39 20 44 55 42   4.0 20160609 DUB
|   2928: 55 47 20 45 4e 41 e4 7c 45 20 44 42 53 54 41 54   UG ENA.|E DBSTAT
|   2944: e4 46 54 41 42 20 45 4e 41 42 4c 45 20 46 54 53   .FTAB ENABLE FTS
|   2960: 34 20 45 4e 41 42 4c 45 20 46 54 53 35 20 45 4e   4 ENABLE FTS5 EN
|   2976: 41 42 4c 45 20 47 45 4f 50 4f 4c 59 20 45 4e 41   ABLE GEOPOLY ENA
|   2992: 42 4c 45 20 4a 53 4f 4e 31 20 45 4e 41 42 4c 45   BLE JSON1 ENABLE
|   3008: 20 4d 45 4d 53 59 53 35 20 45 4e 41 42 4c 45 20    MEMSYS5 ENABLE 
|   3024: 42 54 52 45 45 20 4d 41 58 20 4d 45 4d 4f 52 59   BTREE MAX MEMORY
|   3040: 3d 35 30 30 30 30 30 30 30 20 4f 4c 49 54 20 4c   =50000000 OLIT L
|   3056: 4f 41 43 20 45 58 54 45 4e 53 49 4f 4e 21 54 48   OAC EXTENSION!TH
|   3072: 52 45 41 44 53 41 46 45 3d 30 18 24 05 00 25 0f   READSAFE=0.$..%.
|   3088: 19 54 48 52 45 41 44 53 41 46 45 3d 30 58 42 49   .THREADSAFE=0XBI
|   3104: 4e 41 52 59 18 23 05 00 25 0f 19 54 48 52 45 41   NARY.#..%..THREA
|   3120: 44 53 41 4b 75 3d 30 58 4d 4f 43 41 53 45 17 22   DSAKu=0XMOCASE..
|   3136: 05 00 25 0f 17 54 48 52 45 41 44 53 41 46 46 3d   ..%..THREADSAFF=
|   3152: 30 58 52 54 52 49 4d 1f 21 05 00 33 0f 19 4f 4d   0XRTRIM.!..3..OM
|   3168: 49 54 20 4c 4f 41 44 20 45 58 54 45 4e 52 49 4f   IT LOAD EXTENRIO
|   3184: 4e 58 42 49 4e 41 52 59 0f 20 05 00 33 0f 19 4f   NXBINARY. ..3..O
|   3200: 4d 49 54 20 4c 4f 41 44 20 45 58 54 45 4e 43 49   MIT LOAD EXTENCI
|   3216: 4f 4e 58 4e 4f 43 41 53 45 1e 1f 05 00 33 0f 17   ONXNOCASE....3..
|   3232: 4f 4d 49 54 20 4c 4f 41 44 20 45 58 54 45 4e 53   OMIT LOAD EXTENS
|   3248: 49 4f 4e 58 52 5d 12 49 4d 1f 1e 05 00 33 0f 19   IONXR].IM....3..
|   3264: 4d 41 58 20 4d 45 4d 4f 52 59 3d 35 30 30 30 30   MAX MEMORY=50000
|   3280: 30 30 30 58 42 49 4e 41 52 59 1f 1d 05 00 33 0f   000XBINARY....3.
|   3296: 19 4d 41 58 20 4d 45 4d 4f 52 59 3d 35 30 30 30   .MAX MEMORY=5000
|   3312: 30 30 30 30 58 4f 4f 43 41 53 45 1e 1c 05 00 33   0000XOOCASE....3
|   3328: 0f 17 4d 41 b8 20 4d 45 4d 4f 52 59 3d 35 30 3c   ..MA. MEMORY=50<
|   3344: 30 30 30 30 30 58 52 54 52 49 4d 18 1b 05 00 25   00000XRTRIM....%
|   3360: 0f 19 45 4e 41 42 4c 45 20 52 54 52 45 45 58 42   ..ENABLE RTREEXB
|   3376: 49 4e 41 52 59 18 1a 05 0d a5 0f 19 45 4e 41 42   INARY.......ENAB
|   3392: 4c 45 20 52 54 52 45 45 58 4e 4f 43 41 53 45 17   LE RTREEXNOCASE.
|   3408: 19 1c 00 25 0f 17 45 4e 41 42 4c 45 20 52 54 52   ...%..ENABLE RTR
|   3424: 45 45 58 52 54 52 49 4d 1a 18 05 00 29 0f 19 45   EEXRTRIM....)..E
|   3440: 4e 41 42 4c 45 20 4d 45 4d 53 59 53 35 58 42 49   NABLE MEMSYS5XBI
|   3456: 4e 41 53 59 1a 17 05 00 29 0f 19 45 4e 41 42 4c   NASY....)..ENABL
|   3472: 45 20 4d 45 4d 53 59 53 35 58 4e 4f 43 41 53 45   E MEMSYS5XNOCASE
|   3488: 19 16 05 00 29 0f 17 45 4e 41 42 4c 45 20 4d 45   ....)..ENABLE ME
|   3504: 4d 53 59 53 35 58 52 54 52 49 4d 18 14 05 01 25   MSYS5XRTRIM....%
|   3520: 0f 19 45 4e 12 42 4c 45 20 4a 53 4f 4e 31 58 42   ..EN.BLE JSON1XB
|   3536: 49 4e 41 52 59 18 14 05 00 25 09 d9 45 4e 41 42   INARY....%..ENAB
|   3552: 4c 45 20 4a 53 4f 3e 31 58 4e 4f 43 41 53 45 17   LE JSO>1XNOCASE.
|   3568: 13 05 00 25 0f 17 45 4e 40 42 4c 45 20 4a 53 4f   ...%..EN@BLE JSO
|   3584: 4e 31 58 52 54 52 49 4d 1a 12 05 82 29 0f 19 45   N1XRTRIM....)..E
|   3600: 4e 41 42 4c 45 20 47 45 4f 50 4f 4d 59 58 42 49   NABLE GEOPOMYXBI
|   3616: 4e 41 52 59 1a 11 05 c9 29 e8 19 46 4e 41 42 4c   NARY....)..FNABL
|   3632: 48 c0 47 45 4f 50 4f 4c 59 58 4e 74 43 41 53 45   H.GEOPOLYXNtCASE
|   3648: 19 10 05 00 29 0f 17 45 4e 41 42 4c 45 20 47 45   ....)..ENABLE GE
|   3664: 4f 50 4f 4c 59 58 52 54 52 49 4d 17 0f 05 00 23   OPOLYXRTRIM....#
|   3680: 0f 19 45 4e 41 42 4c 45 30 46 54 53 35 58 42 49   ..ENABLE0FTS5XBI
|   3696: 4e 41 52 59 17 0e 05 00 23 0f 19 45 4e 41 42 4c   NARY....#..ENABL
|   3712: 45 20 46 54 53 35 58 4e 4f 4a e1 53 45 16 0e 05   E FTS5XNOJ.SE...
|   3728: 00 23 0f 17 45 4e 41 42 4c 45 20 46 54 53 35 58   .#..ENABLE FTS5X
|   3744: 52 54 52 49 4d 17 0c 05 00 23 0f 19 45 4e 41 42   RTRIM....#..ENAB
|   3760: 4c 45 20 46 54 53 34 58 42 49 4e 41 52 59 17 0b   LE FTS4XBINARY..
|   3776: 05 00 23 0f 19 45 4e 41 42 4c 45 20 46 54 53 34   ..#..ENABLE FTS4
|   3792: 58 4e 4f 43 41 53 45 16 0a 05 00 23 0f 17 55 4e   XNOCASE....#..UN
|   3808: 41 42 4c 45 20 46 54 53 34 58 52 54 52 49 4d 1e   ABLE FTS4XRTRIM.
|   3824: 09 05 00 31 0f 19 45 4e 42 42 4c 45 20 44 42 53   ...1..ENBBLE DBS
|   3840: 54 41 54 20 56 54 41 42 58 42 49 4e 41 52 59 1e   TAT VTABXBINARY.
|   3856: 08 05 00 31 0f 19 45 4e 41 42 4c 45 20 44 42 53   ...1..ENABLE DBS
|   3872: 54 41 54 20 56 54 41 42 58 4e 4f 43 41 53 45 1d   TAT VTABXNOCASE.
|   3888: 07 05 00 31 0f 17 45 4e 41 42 4c 45 20 44 42 53   ...1..ENABLE DBS
|   3904: 54 41 54 20 56 54 41 42 58 52 54 52 4a 4d 11 06   TAT VTABXRTRJM..
|   3920: 05 f0 17 0f 29 44 45 42 55 47 58 42 49 4e 41 52   ....)DEBUGXBINAR
|   3936: 59 11 05 05 00 17 0e 19 44 45 42 55 47 58 4e 4f   Y.......DEBUGXNO
|   3952: 43 41 53 45 10 04 05 00 17 0f 16 44 45 42 55 47   CASE.......DEBUG
|   3968: 58 52 54 52 49 4d 27 03 05 00 43 0f 19 43 4f 4d   XRTRIM'...C..COM
|   3984: 50 49 4c 45 52 3d 67 63 63 2d 35 2e 34 2e 30 20   PILER=gcc-5.4.0 
|   4000: 32 30 31 36 30 36 30 39 58 42 49 4e 41 52 59 27   20160609XBINARY'
|   4016: 02 05 00 43 0f 19 43 4f 4d 50 49 4c 45 52 3d 67   ...C..COMPILER=g
|   4032: 63 63 2d 35 2e 34 2e 30 20 32 30 31 36 30 36 30   cc-5.4.0 2016060
|   4048: 39 58 4e 4f 43 41 53 45 26 01 06 00 43 0f 17 43   9XNOCASE&...C..C
|   4064: 4f 4d 50 49 4b 45 52 3d 67 63 63 2d 35 2e 34 2e   OMPIKER=gcc-5.4.
|   4080: 30 20 32 30 31 36 30 36 40 39 58 29 54 52 49 4d   0 201606@9X)TRIM
| page 4 offset 12288
|      0: 0d 00 10 00 00 10 00 00 00 00 00 00 00 00 00 00   ................
|     16: 01 00 00 00 00 00 00 00 00 00 00 00 00 00 00 00   ................
| page 5 offset 16384
|      0: 0d 00 00 00 02 0b a0 00 0c ad 0b a0 00 00 00 00   ................
|   2976: 82 0a 02 08 08 09 08 08 17 84 06 30 20 32 35 33   ...........0 253
|   2992: 00 01 30 04 25 06 1b 00 00 08 32 30 31 36 30 36   ..0.%.....201606
|   3008: 30 39 03 25 07 00 00 01 34 03 25 05 00 00 01 35   09.%....4.%....5
|   3024: 03 25 04 00 01 07 30 30 30 30 30 30 30 03 25 1a   .%....0000000.%.
|   3040: 00 00 08 63 6f 6d 70 69 6c 65 72 03 25 02 00 00   ...compiler.%...
|   3056: 06 64 62 73 74 61 74 03 25 0a 00 01 04 65 62 75   .dbstat.%....ebu
|   3072: 67 03 25 08 00 00 06 65 6e 61 62 7c 65 09 25 09   g.%....enab|e.%.
|   3088: 05 04 04 04 04 04 00 01 08 78 74 65 6e 73 69 6f   .........xtensio
|   3104: 6e 03 25 1d 00 00 04 66 74 73 34 03 25 0d 00 03   n.%....fts4.%...
|   3120: 01 35 03 25 0f 00 00 03 67 63 63 03 25 03 00 01   .5.%....gcc.%...
|   3136: 06 65 6f 70 6f 6c 79 03 25 11 00 00 05 6a 73 6f   .eopoly.%....jso
|   3152: 6e 31 03 25 13 00 00 04 6c 6f 61 64 03 25 1c 00   n1.%....load.%..
|   3168: 00 03 6d 61 78 03 25 18 00 01 05 65 6e 6f 72 79   ..max.%....enory
|   3184: 03 25 19 00 03 04 ce 79 73 4d 03 25 15 00 00 04   .%.....ysM.%....
|   3200: 6f 6d 69 74 03 25 1b 00 00 05 72 74 72 65 65 03   omit.%....rtree.
|   3216: 25 17 00 00 0a 74 68 72 65 61 64 73 61 66 65 03   %....threadsafe.
|   3232: 25 0e 00 00 04 76 74 61 62 03 25 0b 00 86 50 01   %....vtab.%...P.
|   3248: 08 08 08 08 08 17 8d 12 30 20 38 33 35 00 01 30   ........0 835..0
|   3264: 12 01 06 00 01 06 00 01 06 00 1f 03 00 01 03 00   ................
|   3280: 01 03 00 00 08 32 30 31 36 30 36 30 39 09 01 07   .....20160609...
|   3296: 00 01 07 00 01 07 00 00 01 34 09 01 05 00 01 05   .........4......
|   3312: 00 01 05 00 00 01 35 09 01 04 00 01 04 00 01 04   ......5.........
|   3328: 00 01 07 30 30 30 30 30 30 30 09 1c 04 00 01 04   ...0000000......
|   3344: 00 01 04 00 00 06 62 69 6e 61 72 79 3c 03 01 02   ......binary<...
|   3360: 02 00 03 01 02 02 00 03 01 02 02 00 03 01 02 02   ................
|   3376: 00 03 01 02 02 00 02 f1 02 02 00 03 01 02 02 00   ................
|   3392: 03 01 02 02 00 03 01 02 02 00 03 01 02 02 00 03   ................
|   3408: 01 01 f2 00 03 01 02 02 00 00 08 63 6f 6d 70 69   ...........compi
|   3424: 6c 65 72 09 01 02 00 01 02 00 01 02 00 00 06 67   ler............g
|   3440: d2 73 74 61 74 09 07 03 00 01 03 00 01 03 00 01   .stat...........
|   3456: 04 65 62 75 67 09 04 02 00 01 02 00 01 02 00 00   .ebug...........
|   3472: 06 65 6e 6f 82 6c 65 3f 07 02 00 01 02 00 01 02   .eno.le?........
|   3488: b0 01 02 00 01 02 00 11 0a f0 01 02 00 01 02 00   ................
|   3504: 01 02 00 01 02 00 01 02 00 01 a6 00 01 02 00 02   ................
|   3520: 02 05 51 02 00 01 02 00 01 02 00 01 02 00 01 02   ..Q.............
|   3536: 00 01 02 00 01 02 00 01 08 78 74 65 6e 73 69 6f   .........xtensio
|   3552: 6e 09 1f 04 00 01 04 00 00 04 00 00 04 66 74 73   n............fts
|   3568: 34 09 0a 03 00 01 03 00 01 03 00 03 01 35 09 0d   4............5..
|   3584: 03 00 01 03 00 01 03 00 00 03 67 63 63 09 01 03   ..........gcc...
|   3600: 00 01 03 00 01 03 00 01 06 65 6f 70 73 6c 79 09   .........eopsly.
|   3616: 10 03 00 01 03 00 01 03 00 00 05 6a 73 6f 6e 31   ...........json1
|   3632: 09 13 03 00 01 03 00 01 03 00 00 04 6c 6f 61 64   ............load
|   3648: 09 1f 03 00 01 03 00 01 03 00 00 03 6d 61 78 09   ............max.
|   3664: 1c 02 00 01 02 00 01 02 00 01 05 65 6d 6f 72 79   ...........emory
|   3680: 09 1c 03 00 01 03 00 01 03 00 03 04 73 79 73 35   ............sys5
|   3696: 09 16 03 00 01 03 00 01 03 00 00 06 6e 6f 63 61   ............noca
|   3712: 73 65 3c 02 01 02 02 00 03 01 12 02 00 03 01 02   se<.............
|   3728: 02 00 03 01 02 02 00 03 01 02 02 00 03 01 02 02   ................
|   3744: 00 03 01 02 02 00 03 01 02 02 00 03 01 02 02 00   ................
|   3760: 03 01 02 02 00 03 01 02 02 00 03 01 02 02 00 00   ................
|   3776: 04 6f 6d 69 74 09 1f 02 00 01 02 00 01 02 00 00   .omit...........
|   3792: 05 72 74 72 65 65 09 19 03 00 01 03 00 01 03 00   .rtree..........
|   3808: 03 02 69 6d 3c 01 01 02 02 00 03 01 02 02 00 03   ..im<...........
|   3824: 01 02 02 00 03 01 02 02 00 03 01 02 02 00 03 01   ................
|   3840: 02 02 00 03 01 02 02 00 03 01 02 02 00 03 01 02   ................
|   3856: 02 00 03 01 02 02 01 e3 01 02 02 00 03 01 02 02   ................
|   3872: 00 00 0a 74 68 72 65 61 64 73 61 66 65 09 22 02   ...threadsafe...
|   3888: 00 01 02 00 01 02 00 00 04 76 74 61 62 09 07 04   .........vtab...
|   3904: 00 01 04 00 01 04 00 00 01 78 b4 01 01 01 01 02   .........x......
|   3920: 00 01 01 01 02 00 01 01 01 02 00 01 01 01 02 00   ................
|   3936: 01 01 01 02 00 01 01 01 02 00 01 01 01 02 00 01   ................
|   3952: 01 01 01 f0 01 01 01 07 30 01 01 01 02 00 01 01   ........0.......
|   3968: 01 02 00 ea 01 01 02 00 01 01 01 02 00 11 01 01   ................
|   3984: 02 00 01 01 01 02 00 01 01 01 02 00 01 01 01 02   ................
|   4000: 00 01 01 01 02 00 01 01 01 02 00 01 01 01 02 00   ................
|   4016: 01 01 01 01 ff 01 01 01 02 00 01 01 01 02 00 01   ................
|   4032: 01 01 02 00 01 11 01 02 00 01 01 01 02 00 01 01   ................
|   4048: 01 02 00 01 01 01 02 00 01 01 01 02 00 01 01 01   ................
|   4064: 02 00 01 01 01 02 00 01 01 01 02 00 01 01 01 02   ................
|   4080: 00 01 01 01 02 00 01 01 01 02 00 01 01 01 02 00   ................
| page 6 offset 20480
|      0: 0a 00 00 00 02 0f f5 00 0f fb 0f f5 01 00 00 00   ................
|   4080: 00 00 00 00 00 05 04 08 09 01 02 04 04 08 08 09   ................
| page 7 offset 24576
|      0: 0d 00 00 00 05 0f b8 00 0e f4 0f e9 10 d6 0f c7   ................
|   4016: 00 00 00 00 00 00 00 00 0f 85 02 23 61 75 74 6f   ...........#auto
|   4032: 6d 65 72 67 65 3d 35 0d 04 02 23 6d 65 72 67 65   merge=5...#merge
|   4048: 3d 31 00 00 00 00 00 00 00 00 00 00 00 00 00 00   =1..............
| end crash-23ddd777a03bfd.db
}]} {}

do_catchsql_test 27.2 {
  PRAGMA writable_schema = 1;
  WITH RECURSIVE c(x) AS (VALUES(1) UNION ALL SELECT x GLOB 2.16770 FROM x)
    INSERT INTO t1(a) SELECT randomblob(3000) FROM t2 ;
} {1 {database disk image is malformed}}
do_catchsql_test 27.3 {
  WITH RECURSIVE c(x) AS (VALUES(1) UNION ALL SELECT 3+x FROM c WHERE x<2.653)
    INSERT INTO t1(a) SELECT randomblob(-current_time) FROM c;
} {1 {database disk image is malformed}}
do_catchsql_test 27.4 {
  UPDATE t1 SET b=quote((true) ) WHERE t1 MATCH 'h*h*';
} {0 {}}
do_catchsql_test 27.5 {
  WITH RECURSIVE c(x) AS (VALUES(1) UNION ALL SELECT 3+x FROM c WHERE x<2.653)
    INSERT INTO t1(a) SELECT randomblob(-current_time) FROM c;
} {1 {database disk image is malformed}}
do_catchsql_test 27.5 {
  INSERT INTO t1(t1) SELECT x FROM t2;
} {1 {database disk image is malformed}}
do_catchsql_test 27.6 {
  INSERT INTO t1(t1) SELECT x FROM t2;
} {1 {database disk image is malformed}}

#-------------------------------------------------------------------------
reset_db
do_test 28.0 {
  sqlite3 db {}
  db deserialize [decode_hexdb {
.open --hexdb
| size 28672 pagesize 4096 filename crash-159ac1ca51ed55.db
| page 1 offset 0
|      0: 53 51 4c 69 74 65 20 66 6f 72 6d 61 74 20 33 00   SQLite format 3.
|     16: 10 00 01 01 00 40 20 20 00 00 00 00 00 00 00 00   .....@  ........
|     96: 00 00 00 00 0d 0e b1 00 06 0d a4 00 0f 8d 0f 21   ...............!
|    112: 0e b9 0d c8 0e 7e 0d a4 00 00 00 00 00 00 00 00   .....~..........
|   3488: 00 00 00 00 22 07 06 17 11 11 01 31 74 61 62 6c   ...........1tabl
|   3504: 65 74 32 74 32 07 43 52 45 41 54 45 20 54 41 42   et2t2.CREATE TAB
|   3520: 4c 45 20 74 32 28 78 29 81 33 05 07 17 1f 1f 01   LE t2(x).3......
|   3536: 82 35 74 61 62 6c 65 74 31 5f 73 65 67 64 69 72   .5tablet1_segdir
|   3552: 74 31 5f 73 65 67 64 69 72 05 43 52 45 41 54 45   t1_segdir.CREATE
|   3568: 20 54 41 42 4c 45 20 27 74 31 5f 73 65 67 64 69    TABLE 't1_segdi
|   3584: 72 27 28 6c 65 76 65 6c 20 49 4e 54 45 47 45 52   r'(level INTEGER
|   3600: 2c 69 64 78 20 49 4e 54 45 47 45 52 2c 73 74 61   ,idx INTEGER,sta
|   3616: 72 74 5f 62 6c 6f 63 6b 20 49 4e 54 45 47 45 52   rt_block INTEGER
|   3632: 2c 6c 65 61 76 65 73 5f 65 6e 64 5f 62 6c 6f 63   ,leaves_end_bloc
|   3648: 6b 20 49 4e 54 45 47 45 52 2c 65 6e 64 5f 62 6c   k INTEGER,end_bl
|   3664: 6f 63 6b 20 49 4e 54 45 47 45 52 2c 72 6f 6f 74   ock INTEGER,root
|   3680: 20 42 4c 4f 42 2c 50 52 49 4d 41 52 59 20 4b 45    BLOB,PRIMARY KE
|   3696: 59 28 6c 65 76 65 6c 2c 20 69 64 78 29 29 31 06   Y(level, idx))1.
|   3712: 06 17 45 1f 01 00 69 6e 64 65 78 73 71 6c 69 74   ..E...indexsqlit
|   3728: 65 5f 61 75 74 6f 69 6e 64 65 78 5f 74 31 5f 73   e_autoindex_t1_s
|   3744: 65 67 64 69 72 5f 31 74 31 5f 73 65 67 64 69 72   egdir_1t1_segdir
|   3760: 06 0f c7 00 08 00 10 00 00 66 04 07 17 23 23 01   .........f...##.
|   3776: 81 13 74 61 62 6c 65 74 31 5f 73 65 67 6d 65 6e   ..tablet1_segmen
|   3792: 64 73 74 31 5f 73 65 67 6d 65 6e 74 73 04 43 52   dst1_segments.CR
|   3808: 45 41 54 45 20 54 41 42 4c 45 20 27 74 31 5f 73   EATE TABLE 't1_s
|   3824: 65 67 6d 65 6e 74 73 27 28 62 6c 6f 63 6b 69 64   egments'(blockid
|   3840: 20 49 4e 54 45 47 45 52 20 50 52 49 4d 41 52 59    INTEGER PRIMARY
|   3856: 20 4b 45 59 2c 20 62 6c 6f 63 6b 20 42 4c 4f 42    KEY, block BLOB
|   3872: 29 6a 03 07 17 21 21 01 81 1f 74 61 62 6c 65 74   )j...!!...tablet
|   3888: 31 4f 63 6f 6e 74 65 6e 74 74 31 5f 63 6f 6e 74   1Ocontentt1_cont
|   3904: 65 6e 74 03 43 52 45 41 54 45 20 54 41 42 4c 45   ent.CREATE TABLE
|   3920: 20 27 74 31 5f 63 6f 6e 74 65 6e 74 27 28 64 6f    't1_content'(do
|   3936: 63 69 64 20 49 4e 54 45 43 a5 52 20 50 52 39 4d   cid INTEC.R PR9M
|   3952: 41 52 59 20 4b 45 59 2c 20 27 63 30 61 27 2c 20   ARY KEY, 'c0a', 
|   3968: 27 63 31 62 27 2c 20 27 63 32 63 27 29 38 02 06   'c1b', 'c2c')8..
|   3984: 17 11 11 08 5f 74 61 62 6c 65 74 31 74 31 43 52   ...._tablet1t1CR
|   4000: 45 41 54 45 20 56 49 52 54 55 41 4c 20 54 41 42   EATE VIRTUAL TAB
|   4016: 4c 45 20 74 31 20 55 53 49 4e 47 20 66 74 73 33   LE t1 USING fts3
|   4032: 28 61 2c 62 2c 63 29 00 00 00 00 00 00 00 00 00   (a,b,c).........
| page 3 offset 8192
|      0: 0d 00 00 00 26 0b 48 00 00 00 00 00 00 00 00 00   ....&.H.........
|   2880: 00 00 00 00 00 00 00 00 81 3f 25 06 00 72 7f 00   .........?%..r..
|   2896: 00 43 4f 4d 50 49 4c 45 52 3d 67 63 63 2d 35 2e   .COMPILER=gcc-5.
|   2912: 34 2e 30 20 32 30 31 36 30 36 30 39 20 44 55 42   4.0 20160609 DUB
|   2928: 55 47 20 45 4e 41 e4 7c 45 20 44 42 53 54 41 54   UG ENA.|E DBSTAT
|   2944: e4 46 54 41 42 20 45 4e 41 42 4c 45 20 46 54 53   .FTAB ENABLE FTS
|   2960: 34 20 45 4e 41 42 4c 45 20 46 54 53 35 20 45 4e   4 ENABLE FTS5 EN
|   2976: 41 42 1f 45 20 47 45 4f 50 4f 4c 59 20 45 4e 41   AB.E GEOPOLY ENA
|   2992: 42 4c 45 20 4a 53 4f 4e 31 20 45 4e 41 42 4c 45   BLE JSON1 ENABLE
|   3008: 20 4d 45 4d 53 59 53 35 20 45 4e 41 42 4c 45 20    MEMSYS5 ENABLE 
|   3024: 42 54 52 45 45 20 4d 41 58 20 4d 45 4d 4f 52 59   BTREE MAX MEMORY
|   3040: 3d 35 30 30 30 30 30 30 30 20 4f 4c 49 54 20 4c   =50000000 OLIT L
|   3056: 4f 41 43 20 45 58 54 45 4e 53 49 4f 4e 21 54 48   OAC EXTENSION!TH
|   3072: 52 45 41 44 53 41 46 45 3d 2f 18 24 05 00 25 0f   READSAFE=/.$..%.
|   3088: 19 54 48 52 45 41 44 53 41 46 45 3d 30 58 42 49   .THREADSAFE=0XBI
|   3104: 4e 41 52 59 18 23 05 00 25 0f 19 54 48 52 45 41   NARY.#..%..THREA
|   3120: 44 53 41 4b 75 3d 30 58 4d 4f 43 41 53 45 17 22   DSAKu=0XMOCASE..
|   3136: 05 00 25 0f 17 54 48 52 45 41 44 53 41 46 46 3d   ..%..THREADSAFF=
|   3152: 30 58 52 54 52 49 4d 1f 21 05 00 33 0f 19 4f 4d   0XRTRIM.!..3..OM
|   3168: 49 54 20 4c 4f 41 44 20 45 58 54 45 4e 52 49 4f   IT LOAD EXTENRIO
|   3184: 4e 58 42 49 4e 41 52 59 1f 20 05 00 33 0f 19 4f   NXBINARY. ..3..O
|   3200: 4d 49 54 20 4c 4f 41 44 20 45 58 54 45 4e 53 49   MIT LOAD EXTENSI
|   3216: 4f 4e 58 4e 4f 43 41 53 45 1e 1f 05 00 33 0f 17   ONXNOCASE....3..
|   3232: 4f 4d 49 54 20 4c 4f 41 44 20 45 58 54 45 4e 53   OMIT LOAD EXTENS
|   3248: 49 4f 4e 58 52 54 52 49 4d 1f 1e 05 00 33 0f 19   IONXRTRIM....3..
|   3264: 4d 41 58 20 4d 45 4d 4f 52 59 3d 35 30 30 30 30   MAX MEMORY=50000
|   3280: 30 30 30 58 42 49 4e 41 52 59 1f 1d 05 00 33 0f   000XBINARY....3.
|   3296: 19 4d 41 58 20 4d 45 4d 4f 52 59 3d 35 30 30 30   .MAX MEMORY=5000
|   3312: 30 30 30 30 58 4e 4f 43 41 53 45 1e 1c 05 00 33   0000XNOCASE....3
|   3328: 0f 17 4d 42 b8 20 4d 45 4d 4f 52 59 3d 35 30 30   ..MB. MEMORY=500
|   3344: 30 30 30 30 30 58 52 54 52 4a 4d 18 1b 05 00 25   00000XRTRJM....%
|   3360: 0f 19 45 4e 41 42 4c 45 20 52 54 52 45 45 58 42   ..ENABLE RTREEXB
|   3376: 49 4e 41 52 59 18 1a 05 0d a5 0f 19 45 4e 41 42   INARY.......ENAB
|   3392: 4c 45 20 52 54 52 45 45 58 4e 4f 43 41 53 45 17   LE RTREEXNOCASE.
|   3408: 19 1c 00 25 0f 17 45 4e 41 42 4c 45 20 52 54 52   ...%..ENABLE RTR
|   3424: 45 45 58 52 54 52 49 4d 1a 18 05 00 29 0f 19 45   EEXRTRIM....)..E
|   3440: 4e 41 42 4c 45 20 4d 45 4d 53 59 53 35 58 42 49   NABLE MEMSYS5XBI
|   3456: 4e 41 52 59 1a 17 05 00 29 0f 19 45 4e 41 42 4c   NARY....)..ENABL
|   3472: 45 20 4d 45 4d 53 59 53 35 58 4e 4f 43 41 53 45   E MEMSYS5XNOCASE
|   3488: 19 16 05 00 29 0f 17 45 4e 41 42 4c 45 20 4d 45   ....)..ENABLE ME
|   3504: 4d 53 59 53 35 58 52 54 52 49 4d 18 14 05 01 25   MSYS5XRTRIM....%
|   3520: 0f 19 45 4e 12 42 4c 45 20 4a 53 4f 4e 31 58 42   ..EN.BLE JSON1XB
|   3536: 49 4e 41 52 59 18 14 05 00 25 09 d9 45 4e 41 42   INARY....%..ENAB
|   3552: 4c 45 20 4a 53 4f 3e 31 58 4e 4f 43 41 53 45 17   LE JSO>1XNOCASE.
|   3568: 13 05 00 25 0f 17 44 4e 40 42 4c 45 20 4a 53 4f   ...%..DN@BLE JSO
|   3584: 4e 31 58 52 54 52 49 4d 1a 12 05 82 29 0f 19 45   N1XRTRIM....)..E
|   3600: 4e 41 42 4c 45 20 47 45 4f 50 4f 4c 59 58 42 49   NABLE GEOPOLYXBI
|   3616: 4e 41 52 59 1a 11 05 c9 29 e8 19 46 4e 41 42 4c   NARY....)..FNABL
|   3632: 48 c0 47 45 4f 50 4f 4c 59 58 4e 74 43 41 53 45   H.GEOPOLYXNtCASE
|   3648: 19 10 05 00 29 0f 17 45 4e 41 42 4c 45 20 47 45   ....)..ENABLE GE
|   3664: 4f 50 4f 4c 59 58 52 54 52 49 4d 17 0f 05 00 23   OPOLYXRTRIM....#
|   3680: 0f 19 45 4e 41 42 4c 45 30 46 54 53 35 58 42 49   ..ENABLE0FTS5XBI
|   3696: 4e 41 52 59 17 0e 05 00 23 0f 19 45 4e 41 42 4c   NARY....#..ENABL
|   3712: 45 20 46 54 53 35 58 4e 4f 43 41 53 45 16 0e 05   E FTS5XNOCASE...
|   3728: 00 23 0f 17 45 4e 41 42 4c 45 20 46 54 53 35 58   .#..ENABLE FTS5X
|   3744: 52 54 52 49 4d 17 0c 05 00 23 0f 19 45 4e 41 42   RTRIM....#..ENAB
|   3760: 4c 45 20 46 54 53 34 58 42 49 4e 41 52 59 17 0b   LE FTS4XBINARY..
|   3776: 04 ff 23 0f 19 45 4e 41 42 4c 45 20 46 54 53 34   ..#..ENABLE FTS4
|   3792: 58 4e 4f 43 41 53 45 16 0a 05 00 23 0f 17 45 4e   XNOCASE....#..EN
|   3808: 41 42 4c 45 20 46 54 53 34 58 52 54 52 49 4d 1e   ABLE FTS4XRTRIM.
|   3824: 09 05 00 31 0f 19 45 4e 42 42 4c 45 20 44 42 53   ...1..ENBBLE DBS
|   3840: 54 41 54 20 56 54 41 42 58 42 49 4e 41 52 59 1e   TAT VTABXBINARY.
|   3856: 08 05 00 31 0f 19 45 4e 41 42 4c 45 20 44 42 53   ...1..ENABLE DBS
|   3872: 54 41 54 20 56 54 41 42 58 4e 4f 43 41 53 45 1d   TAT VTABXNOCASE.
|   3888: 07 05 00 31 0f 17 45 4e 41 42 4c 45 20 44 42 53   ...1..ENABLE DBS
|   3904: 54 41 54 20 56 54 41 42 58 52 54 52 4a 4d 11 06   TAT VTABXRTRJM..
|   3920: 05 f0 17 0f 19 44 45 42 55 47 58 42 49 4e 41 52   .....DEBUGXBINAR
|   3936: 59 11 05 09 b0 17 0e 19 44 45 42 55 47 58 4e 4f   Y.......DEBUGXNO
|   3952: 43 41 53 45 10 04 05 00 17 0f 16 44 45 42 55 47   CASE.......DEBUG
|   3968: 58 52 54 52 49 4d 27 03 05 00 43 0f 19 43 4f 4d   XRTRIM'...C..COM
|   3984: 50 49 4c 45 52 3d 67 63 63 2d 35 2e 34 2e 30 20   PILER=gcc-5.4.0 
|   4000: 32 30 31 36 30 36 30 39 58 42 49 4e 41 52 59 27   20160609XBINARY'
|   4016: 02 05 00 43 0f 19 43 4f 4d 50 49 4c 45 52 4d 67   ...C..COMPILERMg
|   4032: 63 63 2d 35 2e 34 2e 30 20 32 30 31 36 30 36 30   cc-5.4.0 2016060
|   4048: 39 58 4e 4f 43 41 53 45 26 01 06 00 43 0f 17 43   9XNOCASE&...C..C
|   4064: 4f 4d 50 49 4b 45 52 3d 67 63 63 2d 35 2e 34 2e   OMPIKER=gcc-5.4.
|   4080: 30 20 32 30 31 36 30 36 40 39 58 29 54 52 49 4d   0 201606@9X)TRIM
| page 4 offset 12288
|      0: 0d 00 10 00 00 10 00 00 00 00 00 00 00 00 00 00   ................
| page 5 offset 16384
|      0: 0d 00 00 00 02 0b a0 00 00 00 00 00 00 00 00 00   ................
|   2976: 82 0a 02 08 08 09 08 08 17 84 06 30 20 32 35 33   ...........0 253
|   2992: 00 01 30 04 25 06 1b 00 00 08 32 30 31 36 30 36   ..0.%.....201606
|   3008: 30 39 03 25 07 00 00 01 34 03 25 05 00 00 01 35   09.%....4.%....5
|   3024: 03 25 04 00 4d 07 30 30 30 30 30 30 30 03 25 1a   .%..M.0000000.%.
|   3040: 00 00 08 63 6f 6d 70 69 6c 65 72 03 25 02 00 00   ...compiler.%...
|   3056: 06 64 62 73 74 61 74 03 25 0a 00 01 04 65 62 75   .dbstat.%....ebu
|   3072: 67 03 25 08 00 00 06 65 6e 61 62 6c 65 09 25 09   g.%....enable.%.
|   3088: 05 04 04 04 04 04 00 01 08 78 74 65 6e 73 69 6f   .........xtensio
|   3104: 6e 03 25 1d 00 00 04 66 74 73 34 03 25 0d 00 03   n.%....fts4.%...
|   3120: 01 35 03 25 0f 00 00 03 67 63 63 03 25 03 00 01   .5.%....gcc.%...
|   3136: 06 65 6f 70 6f 6c 79 03 25 10 ff ff f5 6a 73 6f   .eopoly.%....jso
|   3152: 6e 31 03 25 13 00 00 04 6c 6f 61 64 03 25 1c 00   n1.%....load.%..
|   3168: 00 03 6d 71 78 03 25 18 00 01 05 65 6e 6f 72 79   ..mqx.%....enory
|   3184: 03 25 19 00 03 04 ce 79 73 4d 03 25 15 00 00 04   .%.....ysM.%....
|   3200: 6f 6d 69 74 03 25 1b 00 00 05 72 74 72 65 65 03   omit.%....rtree.
|   3216: 25 17 00 00 0a 7f 08 72 65 61 64 73 61 66 65 03   %......readsafe.
|   3232: 25 0e 00 00 04 76 75 61 62 03 25 0b 00 86 50 01   %....vuab.%...P.
|   3248: 08 08 08 08 08 17 8d 12 30 20 38 33 35 00 01 30   ........0 835..0
|   3264: 12 01 06 00 01 06 00 01 06 00 1f 03 00 01 03 09   ................
|   3280: 51 03 00 00 09 32 30 31 36 30 36 30 39 09 01 07   Q....20160609...
|   3296: 00 01 07 00 01 07 00 00 01 34 09 01 05 00 01 05   .........4......
|   3312: 00 01 05 00 00 01 35 09 01 04 00 01 03 ff 01 04   ......5.........
|   3328: 00 01 07 30 30 30 30 30 30 30 09 1c 04 00 01 04   ...0000000......
|   3344: 00 01 04 00 00 06 62 69 6e 61 72 79 3c 03 01 02   ......binary<...
|   3360: 02 00 03 01 02 02 00 03 01 02 02 00 03 01 02 02   ................
|   3376: 00 03 01 02 02 00 02 f1 02 02 00 03 01 02 02 00   ................
|   3392: 03 01 02 02 00 03 01 02 02 00 03 01 02 02 00 03   ................
|   3408: 01 02 02 00 03 01 02 02 00 00 08 63 6f 6d 70 69   ...........compi
|   3424: 6c 65 72 09 01 02 00 01 02 00 01 02 00 00 06 67   ler............g
|   3440: d2 73 74 61 74 09 07 03 00 01 03 00 01 03 00 01   .stat...........
|   3456: 04 65 62 75 67 09 04 02 00 01 02 00 01 02 00 00   .ebug...........
|   3472: 06 65 6e 6f 82 6c 65 3f 07 02 00 01 02 00 01 02   .eno.le?........
|   3488: b0 01 02 00 00 f2 00 11 02 00 01 02 00 01 02 00   ................
|   3504: 01 02 00 01 02 00 01 02 00 01 a6 00 01 02 00 01   ................
|   3520: 02 05 51 02 00 01 02 00 01 02 00 01 02 00 01 02   ..Q.............
|   3536: 00 01 02 00 01 02 00 01 08 78 74 65 6e 73 69 6f   .........xtensio
|   3552: 6e 09 1f 04 00 01 04 00 00 04 00 00 04 66 74 73   n............fts
|   3568: 34 09 0a 03 00 01 03 00 01 03 00 03 01 35 09 0d   4............5..
|   3584: 03 00 01 03 00 01 03 00 00 03 67 63 63 09 01 03   ..........gcc...
|   3600: 00 01 03 00 01 03 00 01 06 65 6f 70 73 6c 79 09   .........eopsly.
|   3616: 10 03 00 01 03 00 01 03 00 00 05 6a 73 6f 6e 31   ...........json1
|   3632: 09 13 03 00 01 03 00 01 03 00 00 04 6c 6f 61 64   ............load
|   3648: 09 1f 03 00 01 03 00 01 03 00 00 03 6d 61 78 09   ............max.
|   3664: 1c 02 00 01 02 00 01 02 00 01 05 65 6d 6f 72 79   ...........emory
|   3680: 09 1c 03 00 01 03 00 01 03 00 03 04 73 79 73 35   ............sys5
|   3696: 09 16 03 00 01 03 00 01 03 00 00 06 6e 6f 63 61   ............noca
|   3712: 73 65 3c 02 01 02 02 00 03 01 12 02 00 03 01 02   se<.............
|   3728: 02 00 03 01 02 02 00 03 01 02 02 00 03 01 02 02   ................
|   3744: 00 03 01 02 02 00 03 01 02 02 00 03 01 02 02 00   ................
|   3760: 0f 71 02 02 00 03 01 02 02 00 03 6f 02 02 00 00   .q.........o....
|   3776: 04 6f 6d 69 74 09 1f 02 00 01 02 00 01 02 00 00   .omit...........
|   3792: 05 72 74 72 65 65 09 19 03 00 01 03 00 01 03 00   .rtree..........
|   3808: 03 02 69 6d 3c 01 01 02 02 00 03 01 02 02 00 03   ..im<...........
|   3824: 01 02 02 00 03 01 02 02 00 03 01 02 02 00 03 01   ................
|   3840: 02 02 00 03 01 02 02 00 03 01 02 02 00 03 01 02   ................
|   3856: 02 00 03 01 02 02 00 03 01 02 02 00 03 01 02 02   ................
|   3872: 00 00 0a 74 68 72 65 61 64 73 61 66 65 09 22 02   ...threadsafe...
|   3888: 00 01 02 00 01 02 00 00 04 76 74 61 62 09 07 04   .........vtab...
|   3904: 00 01 04 00 01 04 00 00 01 78 b4 01 01 01 01 02   .........x......
|   3920: 00 01 01 01 02 00 01 01 01 02 00 01 01 01 02 00   ................
|   3936: 01 01 01 02 00 01 01 01 02 00 01 01 01 02 00 01   ................
|   3952: 01 01 02 00 01 01 01 07 30 01 01 01 02 00 01 01   ........0.......
|   3968: 01 02 00 11 01 01 02 00 01 01 01 02 00 11 01 01   ................
|   3984: 02 00 01 01 01 02 00 01 01 01 02 00 01 01 01 02   ................
|   4000: 00 01 01 01 02 00 01 01 01 02 00 01 01 01 02 00   ................
|   4016: 01 01 01 01 ff 01 01 01 02 00 01 01 01 02 00 01   ................
|   4032: 01 01 02 00 01 01 01 02 00 01 01 01 02 00 01 01   ................
|   4048: 01 02 00 01 01 01 02 00 01 01 01 02 00 01 01 01   ................
|   4064: 02 00 01 01 01 02 00 01 01 01 02 00 01 01 01 02   ................
|   4080: 00 01 01 01 02 00 01 01 01 02 00 01 01 01 02 00   ................
| page 6 offset 20480
|      0: 0a 00 00 00 02 0f f5 00 00 00 00 00 00 00 00 00   ................
|   4080: 00 00 00 00 00 05 04 08 09 01 02 04 04 08 08 09   ................
| page 7 offset 24576
|      0: 0d 00 00 00 05 0f b8 00 0e f4 0f e9 10 d6 0f c7   ................
|   4016: 00 00 00 00 00 00 00 00 0d 05 02 23 61 75 74 6f   ...........#auto
|   4032: 6d 65 72 67 65 3d 35 0d 04 02 23 6d 65 72 67 65   merge=5...#merge
|   4048: 3d 31 00 00 00 00 00 00 00 00 00 00 00 00 00 00   =1..............
| end crash-159ac1ca51ed55.db
}]} {}

do_catchsql_test 28.1 {
  PRAGMA writable_schema = 1;
  WITH RECURSIVE c(x) AS (VALUES(1) UNION ALL SELECT 3+x FROM c WHERE x<72)
    INSERT INTO t1(a) SELECT randomblob(2829) FROM c;
} {1 {database disk image is malformed}}

do_catchsql_test 28.2 {
  UPDATE t1 SET b=quote((true) ) WHERE t1 MATCH 'h';
} {0 {}}

do_catchsql_test 28.3 {
  WITH RECURSIVE c(x) AS (VALUES(1) UNION ALL SELECT 3+x FROM c WHERE x<72)
    INSERT INTO t1(a) SELECT randomblob(2829) FROM c;
} {1 {database disk image is malformed}}

do_catchsql_test 28.4 {
  WITH c(x) AS (VALUES(1) UNION ALL SELECT 3<<x FROM c WHERE x<72)
    INSERT INTO t1(a) SELECT randomblob(2829) FROM c;
} {0 {}}

do_catchsql_test 28.5 {
  WITH RECURSIVE c(x) AS (VALUES(1) UNION ALL SELECT 3+x FROM c WHERE x<72)
    INSERT INTO t1(a) SELECT randomblob(2829) FROM c;
} {1 {database disk image is malformed}}

do_catchsql_test 28.6 {
  WITH c(x) AS (VALUES(1) UNION ALL SELECT 3<<x FROM c WHERE x<72)
    INSERT INTO t1(a) SELECT randomblob(2829) FROM c;
} {0 {}}

do_catchsql_test 28.7 {
  WITH RECURSIVE c(x) AS (VALUES(1) UNION ALL SELECT x+3 FROM c WHERE x<72)
    INSERT INTO t1(a) SELECT randomblob(2829) FROM c;
} {1 {database disk image is malformed}}

do_catchsql_test 28.8 {
  INSERT INTO t1(t1) SELECT x FROM t2;
} {0 {}}

#-------------------------------------------------------------------------
#
reset_db
do_test 29.0 {
  sqlite3 db {}
  db deserialize [decode_hexdb {
.open --hexdb
| size 28672 pagesize 4096 filename crash-53f41622dd3bf6.db
| page 1 offset 0
|      0: 53 51 4c 69 74 65 20 66 6f 72 6d 61 74 20 33 00   SQLite format 3.
|     16: 10 00 01 01 00 40 20 20 00 00 00 00 00 00 00 00   .....@  ........
|     96: 00 00 00 00 0d 0e b1 00 06 0d a4 00 0f 8d 0f 21   ...............!
|    112: 0e b9 0d c8 0e 7e 0d a4 00 00 00 00 00 00 00 00   .....~..........
|   3488: 00 00 00 00 22 07 06 17 11 11 01 31 74 61 62 6c   ...........1tabl
|   3504: 65 74 32 74 32 07 43 52 45 41 54 45 20 54 41 42   et2t2.CREATE TAB
|   3520: 4c 45 20 74 32 28 78 29 81 33 05 07 17 1f 1f 01   LE t2(x).3......
|   3536: 82 35 74 61 62 6c 65 74 31 5f 73 65 67 54 69 72   .5tablet1_segTir
|   3552: 74 31 5f 73 65 67 64 69 72 05 43 52 45 41 54 45   t1_segdir.CREATE
|   3568: 20 54 41 42 4c 45 20 27 74 31 5f 73 65 67 64 69    TABLE 't1_segdi
|   3584: 72 27 28 6c 65 76 65 6c 20 49 4e 54 45 47 45 52   r'(level INTEGER
|   3600: 2c 69 64 78 20 49 4d 54 45 47 45 52 2c 73 74 61   ,idx IMTEGER,sta
|   3616: 72 74 5f 62 6c 6f 63 6b 20 49 4e 54 45 47 45 52   rt_block INTEGER
|   3632: 2c 6c 65 61 76 65 73 5f 65 6e 64 5f 62 6c 6f 63   ,leaves_end_bloc
|   3648: 6b 20 49 4e 54 45 47 45 52 2c 65 6e 64 5f 62 6c   k INTEGER,end_bl
|   3664: 6f 63 6b 20 49 4e 54 45 47 45 52 2c 72 6f 6f 74   ock INTEGER,root
|   3680: 20 42 4c 4f 42 2c 50 52 49 4d 41 52 59 20 4b 45    BLOB,PRIMARY KE
|   3696: 59 28 6c 65 76 65 6c 2c 20 69 64 78 29 29 31 06   Y(level, idx))1.
|   3712: 06 17 45 1f 01 00 69 6e 64 65 78 73 71 6c 69 74   ..E...indexsqlit
|   3728: 65 5f 61 75 74 6f 69 6e 64 65 78 5f 74 31 5f 73   e_autoindex_t1_s
|   3744: 65 67 64 69 72 5f 31 74 31 5f 73 65 67 64 69 72   egdir_1t1_segdir
|   3760: 06 0f c7 00 08 00 00 00 00 66 04 07 17 23 23 01   .........f...##.
|   3776: 81 13 74 61 62 6c 65 74 31 5f 73 65 67 6d 65 6e   ..tablet1_segmen
|   3792: 74 73 74 31 5f 73 65 67 6d 65 6e 74 73 04 43 52   tst1_segments.CR
|   3808: 45 41 54 45 20 54 41 42 4c 45 20 27 74 31 5f 73   EATE TABLE 't1_s
|   3824: 65 67 6d 65 6e 74 73 27 28 62 6c 6f 63 6b 69 64   egments'(blockid
|   3840: 20 49 4e 54 45 47 45 52 20 50 52 49 4d 41 52 59    INTEGER PRIMARY
|   3856: 20 4b 45 59 2c 20 62 6c 6f 63 6b 20 42 4c 4f 42    KEY, block BLOB
|   3872: 29 6a 03 07 17 21 21 01 81 1f 74 61 62 6c 65 74   )j...!!...tablet
|   3888: 31 5f 63 6f 6e 74 65 6e 74 74 31 5f 63 6f 6e 74   1_contentt1_cont
|   3904: 65 6e 74 03 43 52 45 41 54 45 20 54 41 42 4c 45   ent.CREATE TABLE
|   3920: 20 27 74 31 5f 63 6f 6e 74 65 6e 74 27 28 64 6f    't1_content'(do
|   3936: 63 69 64 20 49 4e 54 45 47 45 52 20 50 52 39 4d   cid INTEGER PR9M
|   3952: 41 52 59 20 4b 45 59 2c 20 27 63 30 61 27 2c 20   ARY KEY, 'c0a', 
|   3968: 27 63 31 62 27 2c 20 27 63 32 63 27 29 38 12 06   'c1b', 'c2c')8..
|   3984: 17 11 11 08 5f 74 61 6b 3c 65 74 31 74 31 43 52   ...._tak<et1t1CR
|   4000: 45 41 54 45 20 56 49 52 54 55 41 4c 20 54 41 42   EATE VIRTUAL TAB
|   4016: 4c 45 20 74 31 20 55 53 49 4e 47 20 66 74 73 33   LE t1 USING fts3
|   4032: 28 61 2c 62 2c 63 29 00 00 00 00 00 00 00 00 00   (a,b,c).........
| page 3 offset 8192
|      0: 0d 00 00 00 25 0b 48 00 0f d8 0f af 0f 86 0f 74   ....%.H........t
|     16: 0f 61 0f 4e 0f 2f 0f 0f 0e ef 0e d7 0e be 0e a5   .a.N./..........
|     32: 0e 8d 0e 74 0e 5b 0e 40 0e 24 0e 08 0d ef 0d d5   ...t.[.@.$......
|     48: 0d bb 0d a0 0d 84 03 28 0d 4f 0d 35 0d 1b 0c fb   .......(.O.5....
|     64: 0c da 0c b9 0c 99 0c 78 0c 57 0c 3e 0c 24 0c 0a   .......x.W.>.$..
|     80: 0b 48 00 00 00 00 00 00 00 00 00 00 00 00 00 00   .H..............
|   2880: 00 00 00 00 00 00 00 00 81 3f 25 06 00 72 7f 00   .........?%..r..
|   2896: 00 43 4f 4d 50 49 4c 45 52 3d 67 63 63 2d 35 2e   .COMPILER=gcc-5.
|   2912: 34 2e 30 20 32 30 31 36 30 36 30 39 21 44 45 42   4.0 20160609!DEB
|   2928: 55 47 20 45 4e 41 42 4c 45 20 44 42 53 54 41 54   UG ENABLE DBSTAT
|   2944: 20 56 54 41 42 20 45 4e 41 42 4c 46 20 46 54 53    VTAB ENABLF FTS
|   2960: 34 20 45 4e 41 42 4c 45 20 46 54 53 35 20 45 4e   4 ENABLE FTS5 EN
|   2976: 41 42 4c 45 20 47 45 4f 50 4f 4c 59 20 45 4e 41   ABLE GEOPOLY ENA
|   2992: 42 4c 55 20 4a 53 4f 4e 31 20 45 4e 41 42 4c 45   BLU JSON1 ENABLE
|   3008: 20 4d 45 4d 53 59 53 35 20 45 4e 41 42 4c 45 20    MEMSYS5 ENABLE 
|   3024: 52 54 52 45 45 56 4d 41 58 20 4d 45 4d 4f 52 59   RTREEVMAX MEMORY
|   3040: 3d 35 30 30 30 30 30 30 30 20 4f 4d 49 54 20 4c   =50000000 OMIT L
|   3056: 4f 42 43 20 45 58 54 45 4e 53 49 4f 4e 20 54 48   OBC EXTENSION TH
|   3072: 52 45 41 44 53 41 46 45 3d 40 18 24 05 00 25 0f   READSAFE=@.$..%.
|   3088: 19 54 48 52 45 41 44 53 41 46 45 3d 30 58 42 49   .THREADSAFE=0XBI
|   3104: 4e 41 52 59 18 23 05 00 25 0f 19 54 48 52 45 41   NARY.#..%..THREA
|   3120: 44 53 41 46 45 3d 31 58 4e 4f 43 41 53 45 17 22   DSAFE=1XNOCASE..
|   3136: 05 00 25 0f 17 54 48 52 45 41 44 43 41 46 45 3d   ..%..THREADCAFE=
|   3152: 30 58 52 54 52 49 4d 1f 21 05 00 33 0f 19 4f 4d   0XRTRIM.!..3..OM
|   3168: 49 54 20 4c 4f 41 44 20 45 58 54 45 4e 53 49 4f   IT LOAD EXTENSIO
|   3184: 4e 58 42 49 4e 41 52 59 1f 20 05 00 33 0f 19 4f   NXBINARY. ..3..O
|   3200: 4d 49 54 20 4c 4f 41 44 20 45 58 54 45 4e 53 48   MIT LOAD EXTENSH
|   3216: cf 4e 58 4e 4f 43 41 53 45 1e 1f 05 00 33 0f 17   .NXNOCASE....3..
|   3232: 4f 4d 49 54 20 4c 4f 41 44 20 45 58 54 45 4e 53   OMIT LOAD EXTENS
|   3248: 49 4f 4e 58 52 54 52 49 4d 1f 1e 05 00 33 0f 19   IONXRTRIM....3..
|   3264: 4d 41 58 20 4d 45 4d 4f 52 59 2d 35 30 30 30 30   MAX MEMORY-50000
|   3280: 30 30 30 58 42 49 4e 41 52 59 1f 1d 05 00 33 0f   000XBINARY....3.
|   3296: 19 4d 41 58 20 4d 45 4d 4f 52 59 3d 35 30 30 30   .MAX MEMORY=5000
|   3312: 30 30 30 30 58 4e 4f 43 41 53 45 1e 1c 05 00 33   0000XNOCASE....3
|   3328: 0f 17 4d 41 58 20 4d 45 4d 4f 52 59 3d 35 30 30   ..MAX MEMORY=500
|   3344: 30 30 30 30 30 58 52 54 52 49 4d 18 1b 05 00 25   00000XRTRIM....%
|   3360: 0f 19 45 4e 41 42 4c 45 20 52 54 52 45 45 58 42   ..ENABLE RTREEXB
|   3376: 49 4e 41 52 49 18 1a 05 0d a5 0f 19 45 4e 41 42   INARI.......ENAB
|   3392: 4c 45 20 52 54 52 45 45 58 4e 4f be 31 53 45 17   LE RTREEXNO.1SE.
|   3408: 19 05 00 25 0f 17 45 4e 41 42 4c 45 20 52 54 51   ...%..ENABLE RTQ
|   3424: 45 45 58 52 54 52 49 4d 1a 18 05 00 29 0f 19 45   EEXRTRIM....)..E
|   3440: 4e 41 42 4c 45 20 4d 45 4d 53 59 53 35 58 42 49   NABLE MEMSYS5XBI
|   3456: 4e 41 52 59 1a 17 05 00 29 0f 19 45 4e 41 42 4c   NARY....)..ENABL
|   3472: 45 20 4d 45 4d 53 59 53 35 58 4e 4f 43 41 53 45   E MEMSYS5XNOCASE
|   3488: 19 16 05 00 29 0f 17 45 4e 41 42 4c 45 20 4d 45   ....)..ENABLE ME
|   3504: 4d 53 59 53 37 f8 52 54 52 49 4d 18 14 05 00 25   MSYS7.RTRIM....%
|   3520: 0f 19 45 4e 41 42 4c 45 20 4a 53 4f 4e 31 58 42   ..ENABLE JSON1XB
|   3536: 49 4e 41 52 59 18 14 05 00 25 0f 19 45 4e 41 42   INARY....%..ENAB
|   3552: 4c 45 20 4a 53 4f 3e 31 58 4e 4f 43 41 53 45 17   LE JSO>1XNOCASE.
|   3568: 13 05 00 25 0f 17 45 4e 41 42 4c 45 20 4a 53 4f   ...%..ENABLE JSO
|   3584: 4e 31 58 52 54 52 49 4d 1a 12 05 00 29 0f 19 45   N1XRTRIM....)..E
|   3600: 4e 41 42 4c 45 20 47 45 4f 50 4f 4c 59 58 42 49   NABLE GEOPOLYXBI
|   3616: 4e 41 52 59 1a 11 05 00 29 0f 19 45 4e 41 42 4c   NARY....)..ENABL
|   3632: 48 c0 47 45 4f 50 4f 4c 40 58 4e 4f 43 41 53 45   H.GEOPOL@XNOCASE
|   3648: 19 10 05 00 29 0f 17 45 4e 41 42 4c 45 20 47 45   ....)..ENABLE GE
|   3664: 4f 50 4f 4c 59 58 52 54 51 49 4d 17 0f 05 00 23   OPOLYXRTQIM....#
|   3680: 0f 19 45 4e 41 42 4c 45 20 46 54 53 35 58 42 49   ..ENABLE FTS5XBI
|   3696: 4e 41 52 59 17 0e 05 00 23 0f 19 45 4e 41 42 4c   NARY....#..ENABL
|   3712: 45 20 46 54 53 35 58 4e 4f 43 41 53 45 16 0d 05   E FTS5XNOCASE...
|   3728: 00 23 0f 17 45 4e 41 42 4c 45 20 46 54 53 35 58   .#..ENABLE FTS5X
|   3744: 52 54 52 49 4d 17 0c 05 00 23 0f 19 45 4e 41 42   RTRIM....#..ENAB
|   3760: 4c 45 20 46 54 53 34 58 42 49 4d 41 52 59 17 0b   LE FTS4XBIMARY..
|   3776: 05 00 23 0f 19 45 4e 31 42 4c 45 20 46 1a 53 34   ..#..EN1BLE F.S4
|   3792: 58 4e 4f 43 41 53 45 16 0a 05 00 23 0f 17 45 4e   XNOCASE....#..EN
|   3808: 41 42 4c 45 20 46 54 53 34 58 52 54 52 49 4d 1e   ABLE FTS4XRTRIM.
|   3824: 09 05 00 31 0f 19 45 4e 41 42 4c 45 20 44 42 53   ...1..ENABLE DBS
|   3840: 54 41 54 20 56 54 41 42 58 42 49 4e 41 52 59 1e   TAT VTABXBINARY.
|   3856: 08 05 00 31 0f 19 45 4e 41 42 4c 45 20 44 42 53   ...1..ENABLE DBS
|   3872: 54 41 54 20 56 54 41 42 58 4e 4f 43 41 53 45 1d   TAT VTABXNOCASE.
|   3888: 07 05 00 31 0f 17 45 4e 41 42 4c 45 20 44 42 53   ...1..ENABLE DBS
|   3904: 54 96 54 20 56 54 41 42 58 52 54 52 49 4d 11 06   T.T VTABXRTRIM..
|   3920: 05 00 17 0f 1e e4 45 42 55 47 58 42 49 4e 41 52   ......EBUGXBINAR
|   3936: 59 11 05 05 00 17 0e 19 44 45 42 55 47 58 4e 4f   Y.......DEBUGXNO
|   3952: 43 41 53 45 10 04 05 00 17 0f 17 44 45 42 55 47   CASE.......DEBUG
|   3968: 58 52 54 52 49 4d 27 03 05 01 43 0f 19 43 4f 4d   XRTRIM'...C..COM
|   3984: 50 49 4c 45 52 3d 67 63 63 2d 35 2e 34 2e 30 20   PILER=gcc-5.4.0 
|   4000: 32 30 31 36 30 36 30 39 58 42 49 4e 41 52 59 27   20160609XBINARY'
|   4016: 02 05 00 43 0f 19 43 4f 4d 50 49 4c 45 52 3d 67   ...C..COMPILER=g
|   4032: 63 63 2d 35 2e 34 2e 30 40 32 30 31 36 30 36 30   cc-5.4.0@2016060
|   4048: 39 58 4e 4f 43 41 53 45 26 01 05 00 43 0f 17 43   9XNOCASE&...C..C
|   4064: 4f 4d 4f 49 4c 45 52 3d 67 63 63 2d 35 2e 34 2e   OMOILER=gcc-5.4.
|   4080: 30 20 32 30 31 36 30 36 30 39 58 52 54 52 49 4d   0 20160609XRTRIM
| page 4 offset 12288
|      0: 0d 00 00 01 00 10 00 00 00 00 00 00 00 00 00 00   ................
| page 5 offset 16384
|      0: 0d 00 00 00 02 0b a0 00 0c ad 0b a0 00 00 00 00   ................
|   2976: 82 0a 02 08 08 09 08 08 17 84 06 30 20 32 35 33   ...........0 253
|   2992: 00 01 30 04 25 06 1b 00 00 08 32 30 31 36 30 36   ..0.%.....201606
|   3008: 30 39 03 25 07 00 00 01 34 03 25 05 00 00 01 35   09.%....4.%....5
|   3024: 03 25 04 00 01 07 30 30 30 30 30 30 30 03 25 1a   .%....0000000.%.
|   3040: 00 00 08 63 6f 6d 70 69 6c 65 72 03 25 02 00 00   ...compiler.%...
|   3056: 06 64 62 73 74 61 74 03 25 0a 00 01 04 65 62 75   .dbstat.%....ebu
|   3072: 67 03 25 08 00 00 06 65 6e 61 62 6c 65 09 25 09   g.%....enable.%.
|   3088: 05 04 04 04 04 04 00 01 08 78 74 65 6e 73 69 6f   .........xtensio
|   3104: 6e 03 25 1d 00 00 04 66 74 73 34 03 25 0d 00 03   n.%....fts4.%...
|   3120: 01 35 03 25 0f 00 00 03 67 63 63 03 25 03 00 01   .5.%....gcc.%...
|   3136: 06 65 6f 70 6f 6c 79 03 25 11 00 00 05 6a 73 6f   .eopoly.%....jso
|   3152: 6e 31 03 25 13 00 00 04 6c 6f 61 64 03 25 1c 00   n1.%....load.%..
|   3168: 00 03 6d 61 78 03 25 18 00 01 05 65 6d 6f 72 79   ..max.%....emory
|   3184: 03 25 19 00 03 04 73 79 73 4d 03 25 15 00 00 04   .%....sysM.%....
|   3200: 6e 6d 69 74 03 25 1b 00 00 05 72 74 72 65 65 03   nmit.%....rtree.
|   3216: 25 17 00 00 0a 74 68 72 65 61 64 73 61 66 65 03   %....threadsafe.
|   3232: 25 0e 00 00 04 76 74 61 62 03 25 0b 00 86 50 01   %....vtab.%...P.
|   3248: 08 08 08 08 08 17 8d 12 30 20 38 33 35 00 01 30   ........0 835..0
|   3264: 12 01 06 00 01 06 00 01 06 00 1f 03 00 01 03 00   ................
|   3280: 01 03 00 00 08 32 30 31 36 30 36 30 39 09 01 bd   .....20160609...
|   3296: 00 01 07 00 01 07 00 00 01 34 09 01 05 00 01 05   .........4......
|   3312: 00 01 06 00 00 01 35 09 01 04 00 01 04 00 02 04   ......5.........
|   3328: 00 01 07 30 30 e6 30 30 30 30 09 1c 04 00 01 04   ...00.0000......
|   3344: 00 01 04 00 00 06 62 69 6e 61 72 79 3c 03 01 02   ......binary<...
|   3360: 02 00 03 01 02 02 00 04 01 02 02 10 03 01 02 02   ................
|   3376: 00 0f 71 02 12 00 03 01 02 02 00 03 01 65 02 00   ..q..........e..
|   3392: 03 01 02 02 00 03 01 02 02 00 03 01 02 02 00 03   ................
|   3408: 01 0d a2 00 03 01 02 02 00 00 08 63 3b 6d 70 69   ...........c;mpi
|   3424: 6c 65 72 09 01 02 00 01 02 00 01 02 00 00 06 64   ler............d
|   3440: 62 73 74 61 74 09 07 03 00 01 03 00 01 03 00 01   bstat...........
|   3456: 04 65 62 75 67 09 04 02 00 01 02 00 01 02 00 00   .ebug...........
|   3472: 06 65 6e 61 62 6c 65 3f 07 02 00 01 02 00 01 02   .enable?........
|   3488: 00 01 02 00 01 02 00 01 01 f0 01 02 00 01 02 00   ................
|   3504: 01 02 00 01 02 00 01 02 00 01 02 00 01 02 00 01   ................
|   3520: 02 00 01 02 00 01 02 00 01 02 00 01 02 00 01 02   ................
|   3536: 00 01 02 00 01 02 00 01 08 78 74 65 6e 73 69 6f   .........xtensio
|   3552: 6e 09 1f 04 00 01 04 00 01 04 00 00 04 66 74 73   n............fts
|   3568: 34 09 0a 03 00 01 03 00 01 03 00 03 01 35 09 0d   4............5..
|   3584: 03 00 01 03 00 01 03 00 00 03 67 63 63 09 01 03   ..........gcc...
|   3600: 00 01 03 00 01 03 00 01 06 65 6f 70 6f 6c 79 09   .........eopoly.
|   3616: 10 03 00 01 03 00 01 03 00 00 05 6a 73 6f 6e 31   ...........json1
|   3632: 09 13 03 00 01 03 00 01 03 00 00 04 6c 6f 61 64   ............load
|   3648: 09 1f 03 00 01 03 00 01 03 00 00 03 6d 61 78 09   ............max.
|   3664: 1c 02 00 01 02 00 01 02 00 01 05 65 6d 6f 72 79   ...........emory
|   3680: 09 1c 03 00 01 03 00 01 03 00 03 04 73 79 73 35   ............sys5
|   3696: 09 16 03 00 01 03 00 01 03 00 00 06 6e 6f 63 61   ............noca
|   3712: 73 65 3c 02 01 02 02 00 03 01 02 02 00 03 01 02   se<.............
|   3728: 02 00 03 01 02 02 00 03 01 02 02 00 03 01 02 02   ................
|   3744: 00 03 01 02 02 00 03 01 02 02 00 03 01 02 01 f0   ................
|   3760: 03 01 02 02 05 93 01 02 02 00 03 01 02 02 00 00   ................
|   3776: 04 6f 6d 69 74 09 1f 02 00 01 02 00 01 02 00 00   .omit...........
|   3792: 05 72 8a 72 65 65 09 19 03 00 01 03 00 11 03 00   .r.ree..........
|   3808: 03 02 69 6d 3c 01 01 02 02 00 03 01 02 02 00 03   ..im<...........
|   3824: 01 02 02 00 03 01 02 02 00 03 01 02 02 00 03 01   ................
|   3840: 02 02 00 03 01 02 02 00 03 01 02 02 00 03 01 02   ................
|   3856: 02 00 03 01 02 02 00 03 01 02 02 00 03 01 02 02   ................
|   3872: 00 00 0a 74 68 72 65 61 64 73 61 66 65 09 22 02   ...threadsafe...
|   3888: 00 01 02 00 01 02 00 00 04 76 75 61 62 09 07 04   .........vuab...
|   3904: 00 01 04 00 01 04 00 00 61 78 b4 01 01 01 01 02   ........ax......
|   3920: 00 01 01 01 02 00 00 f1 01 02 00 01 01 01 02 00   ................
|   3936: 01 01 01 02 00 01 01 01 02 00 01 01 01 02 00 01   ................
|   3952: 01 01 02 00 01 01 01 02 00 01 01 01 02 00 01 01   ................
|   3968: 01 02 00 01 01 01 01 ff 01 01 01 02 00 01 01 01   ................
|   3984: 02 00 01 01 01 02 00 01 01 01 02 09 01 01 01 02   ................
|   4000: 00 01 01 01 02 00 01 01 01 02 00 01 01 01 02 00   ................
|   4016: 01 01 01 02 00 01 02 01 02 00 01 01 01 02 00 01   ................
|   4032: 01 01 02 00 01 01 01 02 00 01 01 01 02 00 01 01   ................
|   4048: 01 02 00 01 01 01 02 00 01 01 01 02 00 01 01 01   ................
|   4064: 02 00 01 01 01 02 00 01 01 01 02 00 01 01 01 02   ................
|   4080: 00 01 01 11 02 00 01 01 01 02 00 01 01 01 02 00   ................
| page 6 offset 20480
|      0: 0a 00 00 00 02 0f f5 00 0f fb 1f f5 00 00 00 00   ................
|   4080: 00 00 00 00 00 05 04 08 09 01 02 04 04 08 08 09   ................
| page 7 offset 24576
|      0: 0d 00 00 00 05 0f b8 00 0f f4 0f e9 10 d6 0f c7   ................
|   4016: 00 00 00 00 00 00 00 00 0d 05 02 23 61 75 74 6f   ...........#auto
|   4032: 6d 65 72 67 65 3d 35 0d 04 02 23 6d 65 72 67 65   merge=5...#merge
|   4048: 3d 31 00 00 00 00 00 00 00 00 00 00 00 00 00 00   =1..............
| end crash-53f41622dd3bf6.db
}]} {}

do_catchsql_test 29.1 {
  PRAGMA writable_schema = 1;
  INSERT INTO t1(a) SELECT X'819192E578DE3F';
  UPDATE t1 SET b=quote(zeroblob(current_date)) WHERE t1 MATCH 't*';
  INSERT INTO t1(b) VALUES(x'78');
  INSERT INTO t1(t1) SELECT x FROM t2;
} {1 {database disk image is malformed}}

#-------------------------------------------------------------------------
#
reset_db
do_test 30.0 {
  sqlite3 db {}
  db deserialize [decode_hexdb {
| size 28672 pagesize 4096 filename crash-e6e3857edf9b26.db
| page 1 offset 0
|      0: 53 51 4c 69 74 65 20 66 6f 72 6d 61 74 20 33 00   SQLite format 3.
|     16: 10 00 01 01 00 40 20 20 00 00 00 00 00 00 00 00   .....@  ........
|     96: 00 00 00 00 0d 0e b1 00 06 0d a4 00 0f 8d 0f 21   ...............!
|    112: 0e b9 0d c8 0e 7e 0d a4 00 00 00 00 00 00 00 00   .....~..........
|   3488: 00 00 00 00 22 07 06 17 11 11 01 31 74 61 62 6c   ...........1tabl
|   3504: 65 74 32 74 32 07 43 52 45 41 54 45 20 54 41 42   et2t2.CREATE TAB
|   3520: 4c 45 20 74 32 28 78 29 81 33 05 07 17 1f 1f 01   LE t2(x).3......
|   3536: 82 35 74 61 62 6c 65 74 31 5f 73 65 67 64 69 72   .5tablet1_segdir
|   3552: 74 31 5f 73 65 67 64 69 72 05 43 52 45 41 54 45   t1_segdir.CREATE
|   3568: 20 54 41 42 4c 45 20 27 74 31 5f 73 65 67 64 69    TABLE 't1_segdi
|   3584: 72 27 28 6c 65 76 65 6c 20 49 4e 54 45 47 45 52   r'(level INTEGER
|   3600: 2c 69 64 78 20 49 4e 54 45 47 45 52 2c 73 74 61   ,idx INTEGER,sta
|   3616: 72 74 5f 62 6c 6f 63 6b 20 49 4e 54 45 47 45 52   rt_block INTEGER
|   3632: 2c 6c 65 61 76 65 73 5f 65 6e 64 5f 62 6c 6f 63   ,leaves_end_bloc
|   3648: 6b 20 49 4e 54 45 47 45 52 2c 65 6e 64 5f 62 6c   k INTEGER,end_bl
|   3664: 6f 63 6b 20 49 4e 54 45 47 45 62 2c 72 6f 6f 74   ock INTEGEb,root
|   3680: 20 42 4c 4f 42 2c 50 52 49 4d 41 52 59 20 4b 45    BLOB,PRIMARY KE
|   3696: 59 28 6c 65 76 65 6c 2c 20 69 64 78 29 29 31 06   Y(level, idx))1.
|   3712: 06 17 45 1f 01 00 69 6e 64 65 78 73 71 6c 69 74   ..E...indexsqlit
|   3728: 65 5f 61 75 74 6f 69 6e 64 65 78 5f 74 31 5f 73   e_autoindex_t1_s
|   3744: 65 67 64 69 72 5f 31 74 31 5f 73 65 67 64 69 72   egdir_1t1_segdir
|   3760: 06 0f c7 00 08 00 00 00 00 66 04 07 17 23 23 01   .........f...##.
|   3776: 81 13 74 61 62 6c 65 74 31 5f 73 65 67 6d 65 6e   ..tablet1_segmen
|   3792: 74 73 74 31 5f 73 65 67 6d 65 6e 74 73 04 43 52   tst1_segments.CR
|   3808: 45 41 54 45 20 54 41 42 4c 45 20 27 74 31 5f 73   EATE TABLE 't1_s
|   3824: 65 67 6d 65 6e 74 73 27 28 62 6c 6f 63 6b 69 64   egments'(blockid
|   3840: 20 49 4e 54 45 47 45 52 20 50 52 49 4d 41 52 59    INTEGER PRIMARY
|   3856: 20 4b 45 59 2c 20 62 6c 6f 63 6b 20 42 4c 4f 42    KEY, block BLOB
|   3872: 29 6a 03 07 17 21 21 01 81 1f 74 61 62 6c 65 74   )j...!!...tablet
|   3888: 31 5f 63 6f 6e 74 65 6e 74 74 31 5f 63 6f 6e 74   1_contentt1_cont
|   3904: 65 6e 74 03 43 52 45 41 54 45 20 54 41 42 4c 45   ent.CREATE TABLE
|   3920: 20 27 74 31 5f 63 6f 6e 74 65 6e 74 27 28 64 6f    't1_content'(do
|   3936: 63 69 64 20 49 4e 54 45 47 45 52 20 50 52 49 4d   cid INTEGER PRIM
|   3952: 41 52 59 20 4b 45 59 2c 20 27 63 30 61 27 2c 20   ARY KEY, 'c0a', 
|   3968: 27 63 31 62 27 2c 20 27 63 32 63 27 29 38 02 06   'c1b', 'c2c')8..
|   3984: 17 11 11 08 5f 74 61 62 6c 65 74 31 74 31 43 52   ...._tablet1t1CR
|   4000: 45 41 54 45 20 56 49 52 54 55 41 4c 20 54 41 42   EATE VIRTUAL TAB
|   4016: 4c 45 20 74 31 20 55 53 49 4e 47 20 66 74 73 33   LE t1 USING fts3
|   4032: 28 61 2c 62 2c 63 29 00 00 00 00 00 00 00 00 00   (a,b,c).........
| page 3 offset 8192
|      0: 0d 00 00 00 25 0b 48 00 0f d8 0f af 0f 86 0f 74   ....%.H........t
|     16: 0f 61 0f 4e 0f 2f 0f 0f 0e ef 0e d7 0e be 0e a5   .a.N./..........
|     32: 0e 8d 0e 74 0e 5b 0e 40 0e 24 0e 08 0d ef 00 00   ...t.[.@.$......
|   2880: 00 00 00 00 00 00 00 00 81 3f 25 06 00 82 7e f0   .........?%...~.
|   2896: 00 43 4f 4d 50 49 4c 45 52 3d 67 63 63 2d 35 2e   .COMPILER=gcc-5.
|   2912: 34 23 00 20 32 30 31 36 30 36 30 39 20 44 45 42   4#. 20160609 DEB
|   2928: 55 47 20 45 4e 41 42 4c 45 20 44 42 53 54 41 54   UG ENABLE DBSTAT
|   2944: 20 56 54 41 42 20 45 4e 42 92 4c 45 20 46 54 53    VTAB ENB.LE FTS
|   2960: 34 20 45 4e 41 42 4c 45 20 46 54 53 35 20 45 4e   4 ENABLE FTS5 EN
|   2976: 41 42 4c 45 20 47 45 4f 50 4f 4c 59 20 45 4e 41   ABLE GEOPOLY ENA
|   2992: 42 4c 45 1f 4a 53 4f 4e 31 20 45 4e 41 42 4c 49   BLE.JSON1 ENABLI
|   3008: 00 4d 45 4d 53 59 53 35 20 45 4e 41 42 4c 45 20   .MEMSYS5 ENABLE 
|   3024: 52 54 52 45 45 20 4d 41 58 20 4d 45 4d 4f 52 59   RTREE MAX MEMORY
|   3040: 3d 35 30 30 30 30 30 30 30 20 4f 4d 49 54 20 4c   =50000000 OMIT L
|   3056: 4f 41 44 20 45 58 54 45 4e 53 49 4f 4e 20 54 48   OAD EXTENSION TH
|   3072: 52 45 41 44 53 41 46 45 3d 30 18 24 05 00 25 0f   READSAFE=0.$..%.
|   3088: 19 54 48 52 45 41 44 53 41 46 45 3d 30 58 42 49   .THREADSAFE=0XBI
|   3104: 4e 41 52 59 18 23 05 00 25 0f 19 54 48 52 45 41   NARY.#..%..THREA
|   3120: 44 53 41 46 45 3d 30 88 4e 4f 43 41 53 45 17 22   DSAFE=0.NOCASE..
|   3136: 05 00 25 0f 17 54 48 52 45 41 44 53 41 46 45 3d   ..%..THREADSAFE=
|   3152: 30 58 52 54 52 49 4d 1f 21 05 00 33 0f 19 4f 4d   0XRTRIM.!..3..OM
|   3168: 49 54 20 4c 4f 41 44 20 45 58 54 45 4e 53 49 4f   IT LOAD EXTENSIO
|   3184: 4e 58 42 49 4e 41 52 59 1f 20 05 00 33 0f 19 4f   NXBINARY. ..3..O
|   3200: 4d 49 54 20 4c 4f 41 44 20 45 58 54 45 4e 53 49   MIT LOAD EXTENSI
|   3216: 4f 4e 58 4e 4f 43 41 53 45 1e 20 05 00 33 0f 17   ONXNOCASE. ..3..
|   3232: 4f 4d 49 54 20 4c 4f 41 54 20 45 58 54 45 4e 53   OMIT LOAT EXTENS
|   3248: 49 4f 4e 58 52 54 52 49 4d 1f 1e 04 00 33 0f 19   IONXRTRIM....3..
|   3264: 82 41 58 20 4d 45 4d 4f 52 59 3d 35 30 30 30 30   .AX MEMORY=50000
|   3280: 30 30 30 58 42 49 4e 41 52 59 1f 1d 05 00 33 0f   000XBINARY....3.
|   3296: 19 4d 41 58 20 4d 45 4d 4f 52 59 3d 35 30 30 30   .MAX MEMORY=5000
|   3312: 30 30 30 30 58 4e 4f 43 41 53 45 1e 1c 05 00 33   0000XNOCASE....3
|   3328: 0f 17 4d 41 58 20 4d 45 4d fa 52 59 3d 35 30 20   ..MAX MEM.RY=50 
|   3344: 30 30 30 30 30 58 52 54 52 49 4d 18 1b 05 00 25   00000XRTRIM....%
|   3360: 0f 19 45 4e 41 42 4c 45 20 52 53 52 45 45 58 42   ..ENABLE RSREEXB
|   3376: 49 4e 41 52 59 18 1a 05 00 25 0f 19 45 4e 41 42   INARY....%..ENAB
|   3392: 4c 45 20 52 54 52 45 45 58 4e 4f 53 41 53 45 17   LE RTREEXNOSASE.
|   3408: 19 05 00 25 0f 17 45 4e 42 42 4c 45 20 52 54 52   ...%..ENBBLE RTR
|   3424: 45 45 58 52 54 52 49 4d 1a 18 05 00 29 0f 19 45   EEXRTRIM....)..E
|   3440: 4e 41 42 4c 45 20 4d 45 4d 53 5a 53 35 58 42 49   NABLE MEMSZS5XBI
|   3456: 4e 41 52 59 1a 17 05 00 29 0f 19 45 4e 41 42 3c   NARY....)..ENAB<
|   3472: 45 20 4d 45 4d 53 59 53 35 58 4e 4f 43 41 53 45   E MEMSYS5XNOCASE
|   3488: 19 16 05 00 29 0f 17 45 4e 41 42 4c 45 20 4d 45   ....)..ENABLE ME
|   3504: 4d 53 59 53 35 58 52 54 52 49 4d 18 15 05 00 25   MSYS5XRTRIM....%
|   3520: 0f 19 45 4e 41 42 4c 45 20 4a 53 4f 4e 31 58 42   ..ENABLE JSON1XB
|   3536: 49 4e 41 52 59 18 14 05 00 25 0f 19 45 4e 41 42   INARY....%..ENAB
|   3552: 4c 45 20 4a 53 4f 4e 31 58 4e 4f 43 41 53 45 17   LE JSON1XNOCASE.
|   3568: 13 05 00 25 0f 17 45 4e 41 42 4c 45 20 4a 53 4f   ...%..ENABLE JSO
|   3584: 4e 31 58 52 54 52 49 4d 1a 12 05 00 29 0f 19 45   N1XRTRIM....)..E
|   3600: 4e 31 42 4c 45 20 47 45 4e 50 4f 4c 59 58 42 49   N1BLE GENPOLYXBI
|   3616: 4e 41 52 59 1a 11 05 00 29 0f 19 45 4e f2 1e 4c   NARY....)..EN..L
|   3632: 45 20 47 45 4f 50 4f 4c 59 58 4e 4f 43 41 53 45   E GEOPOLYXNOCASE
|   3648: 19 10 05 00 29 0f 17 45 4e 41 42 4c 45 20 47 45   ....)..ENABLE GE
|   3664: 4f 50 4f 4c 59 58 52 54 52 49 4d 17 0f 05 00 23   OPOLYXRTRIM....#
|   3680: 0f 19 45 4e 41 42 4c 45 20 46 54 53 35 58 42 49   ..ENABLE FTS5XBI
|   3696: 4e 41 52 59 17 0e 05 00 23 0f 19 45 4e 41 42 3c   NARY....#..ENAB<
|   3712: 45 20 46 54 53 35 58 4e 4f 43 41 53 45 16 0d 05   E FTS5XNOCASE...
|   3728: 00 23 0f 17 45 4e 41 42 4c 45 20 46 54 53 35 58   .#..ENABLE FTS5X
|   3744: 52 54 52 49 4d 17 0c 05 00 23 0f 19 45 4e 41 42   RTRIM....#..ENAB
|   3760: 4c 45 20 46 54 53 34 58 42 49 4e 41 52 59 17 0b   LE FTS4XBINARY..
|   3776: 05 00 23 0f 19 45 4e 41 43 4c 45 20 46 54 53 35   ..#..ENACLE FTS5
|   3792: 58 4e 4f 43 40 53 45 16 0a 05 00 23 0f 17 45 4e   XNOC@SE....#..EN
|   3808: 41 42 4c 45 20 46 54 53 34 58 52 54 52 49 4d 1e   ABLE FTS4XRTRIM.
|   3824: 09 05 00 31 0f 19 45 4e 41 42 4c 45 20 44 42 53   ...1..ENABLE DBS
|   3840: 54 41 55 20 56 54 41 42 58 42 49 4e 41 52 59 1e   TAU VTABXBINARY.
|   3856: 08 05 00 31 0f 19 45 4e 41 42 4c 45 20 44 42 53   ...1..ENABLE DBS
|   3872: 54 41 54 20 56 54 41 42 58 4e 4f 43 41 53 45 1d   TAT VTABXNOCASE.
|   3888: 07 05 00 31 0f 17 45 4e 41 42 4c 45 20 44 42 53   ...1..ENABLE DBS
|   3904: 54 41 54 20 56 54 41 42 58 52 54 62 49 4d 11 06   TAT VTABXRTbIM..
|   3920: 05 00 17 0f 19 44 45 42 54 47 58 42 49 4e 41 52   .....DEBTGXBINAR
|   3936: 59 11 05 05 00 17 0f 19 54 45 42 55 47 58 4e 4f   Y.......TEBUGXNO
|   3952: 43 41 53 45 10 04 05 00 17 0f 17 44 45 42 55 47   CASE.......DEBUG
|   3968: 68 52 54 52 49 4d 27 03 05 00 43 0f 19 43 4f 4d   hRTRIM'...C..COM
|   3984: 50 49 4c 45 52 3d 67 63 63 2d 35 2e 34 2e 30 20   PILER=gcc-5.4.0 
|   4000: 32 30 31 36 30 36 30 39 58 42 49 4e 41 52 59 27   20160609XBINARY'
|   4016: 02 05 00 43 0f 19 43 4f 4d 50 49 4c 45 52 3d 67   ...C..COMPILER=g
|   4032: 63 63 2d 35 2e 34 2e 30 20 32 30 31 36 30 36 30   cc-5.4.0 2016060
|   4048: 39 58 4f 4f 43 41 53 45 26 01 05 00 43 0f 17 43   9XOOCASE&...C..C
|   4064: 4f 4d 50 49 4c 45 52 3d 67 63 63 2d 35 2e 34 2e   OMPILER=gcc-5.4.
|   4080: 30 20 32 30 31 36 30 36 30 39 58 52 54 52 49 4d   0 20160609XRTRIM
| page 4 offset 12288
|      0: 0d 00 00 00 00 00 00 00 00 00 00 00 00 00 00 00   ................
| page 5 offset 16384
|      0: 0d 00 00 00 02 0b a0 00 0c ad 0b a0 00 00 00 00   ................
|   2976: 82 0a 02 08 08 09 08 08 17 84 06 30 20 32 35 33   ...........0 253
|   2992: 00 01 30 04 25 06 1b 00 00 08 32 30 31 36 30 36   ..0.%.....201606
|   3008: 30 39 03 25 07 00 00 01 34 03 25 05 00 00 01 35   09.%....4.%....5
|   3024: 03 25 04 00 01 07 30 30 30 30 30 30 30 03 25 1a   .%....0000000.%.
|   3040: 00 00 08 63 6f 6d 70 69 6c 65 72 03 25 02 00 00   ...compiler.%...
|   3056: 06 64 62 73 74 61 74 03 25 0a 00 01 04 65 62 75   .dbstat.%....ebu
|   3072: 67 03 25 08 00 00 06 65 6e 61 62 6c 65 09 25 09   g.%....enable.%.
|   3088: 05 04 04 04 04 04 00 01 08 78 74 65 6e 73 69 6f   .........xtensio
|   3104: 6e 03 25 1d 00 00 04 66 74 73 34 03 25 0d 00 03   n.%....fts4.%...
|   3120: 01 35 03 25 0f 00 00 03 67 63 63 03 25 03 00 01   .5.%....gcc.%...
|   3136: 06 65 6f 70 6f 6c 79 03 25 11 00 00 05 6a 73 6f   .eopoly.%....jso
|   3152: 6e 31 03 25 14 00 e8 04 6c 6f 61 64 03 25 1c 00   n1.%....load.%..
|   3168: 00 03 6d 61 78 03 25 18 00 01 05 65 6d 6f 72 79   ..max.%....emory
|   3184: 03 25 19 00 03 04 73 79 73 35 03 25 15 00 00 04   .%....sys5.%....
|   3200: 6f 6d 69 74 03 25 1b 00 00 05 72 74 72 65 65 03   omit.%....rtree.
|   3216: 25 17 00 00 0a 74 68 72 65 61 64 73 61 66 65 03   %....threadsafe.
|   3232: 25 1e 00 00 04 76 74 61 62 03 25 0b 00 86 50 01   %....vtab.%...P.
|   3248: 08 08 08 08 08 17 8d 12 30 20 38 33 35 00 01 30   ........0 835..0
|   3264: 12 01 06 00 01 06 00 01 06 00 1f 03 00 01 03 00   ................
|   3280: 01 03 00 00 08 32 30 31 36 30 36 30 39 09 01 07   .....20160609...
|   3296: 00 01 07 00 01 07 00 00 01 34 09 01 05 00 01 05   .........4......
|   3312: 00 01 05 00 00 01 35 09 01 04 00 01 04 00 01 04   ......5.........
|   3328: 00 01 07 30 30 30 30 30 30 30 09 1c 04 00 01 04   ...0000000......
|   3344: 00 01 04 00 00 06 62 69 6e 61 72 79 3c 03 01 02   ......binary<...
|   3360: 02 00 03 01 02 02 00 03 01 02 02 00 03 01 02 02   ................
|   3376: 00 03 01 02 f2 00 03 01 02 02 00 03 01 02 02 00   ................
|   3392: 03 01 02 02 00 03 01 02 02 00 03 01 02 02 00 03   ................
|   3408: 01 02 02 00 03 01 02 02 00 00 08 63 6f 6d 70 69   ...........compi
|   3424: 6c 65 72 09 01 02 00 01 02 00 01 02 00 00 06 64   ler............d
|   3440: 62 73 74 61 74 09 07 03 00 01 03 00 01 03 00 01   bstat...........
|   3456: 04 65 62 75 67 09 04 02 00 01 02 00 01 02 00 00   .ebug...........
|   3472: 06 65 6e 60 62 6c 65 3f 07 02 00 01 02 00 01 01   .en`ble?........
|   3488: ff f1 b1 00 00 02 3f 01 01 f0 f1 02 00 57 02 00   ......?......W..
|   3504: 01 02 00 01 02 00 01 02 00 01 02 00 01 02 10 01   ................
|   3520: 02 00 01 02 00 01 02 00 01 02 01 01 02 00 01 02   ................
|   3536: 00 01 02 00 00 f2 00 01 08 78 74 65 6e 73 69 6f   .........xtensio
|   3552: 6e 09 1f 04 00 01 04 00 01 04 00 00 04 66 74 73   n............fts
|   3568: 34 09 0a 03 00 01 03 00 01 03 00 03 01 35 09 0d   4............5..
|   3584: 03 00 01 03 00 01 03 00 00 03 67 63 63 09 01 03   ..........gcc...
|   3600: 00 01 03 00 01 03 00 01 06 65 6f 70 6f 6c 79 09   .........eopoly.
|   3616: 10 03 00 01 03 00 01 03 00 00 b3 6a 73 6f 6e 31   ...........json1
|   3632: 09 13 03 00 01 03 00 01 03 00 00 04 6c 6f 61 64   ............load
|   3648: 09 1f 03 00 01 03 00 01 03 00 00 03 6d 61 78 09   ............max.
|   3664: 1c 02 00 01 02 00 01 02 00 01 05 65 6d 6f 72 79   ...........emory
|   3680: 09 1c 03 00 01 03 00 01 03 00 03 04 73 79 73 35   ............sys5
|   3696: 09 16 03 00 01 03 00 01 03 cc 00 06 6e 6f 63 61   ............noca
|   3712: 73 65 3c 02 01 02 02 00 03 01 02 02 00 03 01 02   se<.............
|   3728: 02 00 03 01 02 02 00 03 01 02 02 00 03 01 02 02   ................
|   3744: 00 03 01 02 02 00 03 01 02 02 00 03 01 02 02 00   ................
|   3760: 03 01 02 02 00 03 01 02 02 00 03 01 02 02 00 00   ................
|   3776: 04 6f 6d 69 74 09 1f 02 00 01 02 00 01 02 00 00   .omit...........
|   3792: 05 72 74 62 65 65 09 19 03 00 01 03 00 01 03 00   .rtbee..........
|   3808: 03 02 69 6d 3c 01 01 02 02 00 03 01 02 02 00 03   ..im<...........
|   3824: 01 02 02 00 03 01 02 02 00 03 01 02 02 00 03 01   ................
|   3840: 02 02 00 03 01 02 02 00 03 01 02 02 00 03 01 02   ................
|   3856: 02 00 03 01 02 02 00 03 01 02 01 00 03 01 02 02   ................
|   3872: 00 00 0a 74 68 72 65 61 64 73 61 66 65 09 22 02   ...threadsafe...
|   3888: 00 01 02 00 02 02 00 00 04 76 74 61 62 09 07 04   .........vtab...
|   3904: 00 01 03 00 01 04 00 00 01 78 b4 01 01 01 01 02   .........x......
|   3920: 00 01 01 01 02 00 01 01 01 02 00 01 01 01 02 00   ................
|   3936: 01 01 01 02 00 01 01 01 02 00 01 01 01 02 00 01   ................
|   3952: 01 01 02 00 01 01 01 02 00 01 01 01 02 00 01 01   ................
|   3968: 01 02 00 01 01 01 02 00 01 01 01 02 00 01 01 01   ................
|   3984: 02 01 01 01 01 02 00 01 01 01 02 00 01 01 01 02   ................
|   4000: 00 01 01 01 02 00 01 01 01 02 00 01 01 01 02 00   ................
|   4016: 01 01 01 02 00 01 01 01 02 00 01 01 01 02 00 01   ................
|   4032: 01 01 02 00 01 01 01 da 00 01 01 01 02 00 01 01   ................
|   4048: 01 02 00 01 01 01 01 ff ff 01 01 02 00 01 01 01   ................
|   4064: 02 00 01 01 01 02 00 01 01 01 02 00 01 01 01 02   ................
|   4080: 00 01 01 01 02 00 01 01 01 02 00 01 01 01 02 00   ................
| page 6 offset 20480
|      0: 0a 00 00 00 02 0f f5 00 0f fb 0f f5 01 00 00 00   ................
|   4080: 00 00 00 00 00 05 04 08 09 01 02 04 04 08 08 09   ................
| page 7 offset 24576
|      0: 01 6f 00 00 00 00 00 00 00 00 00 00 00 00 00 00   .o..............
| end crash-e6e3857edf9b26.db
}]} {}

do_execsql_test 30.1 {
  UPDATE t1 SET b=a;
}

do_catchsql_test 30.2 {
  SELECT (matchinfo(null)) FROM t1 WHERE t1 MATCH 'ee*e*e*e*e*e*e*Re*e*e*e**' 
} {1 {database disk image is malformed}}

#-------------------------------------------------------------------------
#
reset_db
do_execsql_test 31.0 {
CREATE VIRTUAL TABLE t1 USING fts3(a,b,c);
INSERT INTO t1_segdir VALUES(0,0,0,0,'0 592',X'00016dcb048ce6fbd3b2d68bfebf0101020200808080808080808020010202008080808080808080100102020080808080808080800801020200808080808080808004010202008080808080808080020102020080808080808080800101020200808080808080804001020200808080808080802001020200808080808080801001020200808080808080800801020200808080808080800401020200808080808080800201020200808080808080800101020200808080808080400102020080808080808020010202008080808080801001020200808080808080080102020080808080808004010202008080808080800201020200808080808080010102020080808080804001020200808080808020010202008080808080100102020080808080800801020200808080808004010202008080808080020102020080808080800101020200808080804001020200808080802001020200808080801001020200808080800801020200808080800401020200808080800201020200808080800101020200808080400102020080808020010202008080801001020200808080080102020080808004010202008080800201020200808080010102020080804001020200808020010202008080100102020080800801020200808004010202008080020102020080800101020200804001020200802001020200801001020200800801020200800401020200800201020200800101020200400102020020010202001001020200080102020004010202000201020200010102020001010202008080808080808080800101020200');
INSERT INTO t1_segdir VALUES(0,1,0,0,'0 18',X'00026d6d0d8ee6fbd3b2d68bfe7f01020200');
}

do_catchsql_test 31.1 {
  SELECT (matchinfo(t1, c ) ) FROM t1 WHERE t1 MATCH 'M*M*M*M*';
} {1 {database disk image is malformed}}

#-------------------------------------------------------------------------
#
reset_db
do_test 32.0 {
  sqlite3 db {}
  db deserialize [decode_hexdb {
.open --hexdb
| size 24576 pagesize 4096 filename crash-74fdbc96edbc04.db
| page 1 offset 0
|      0: 53 51 4c 69 74 65 20 66 6f 72 6d 61 74 20 33 00   SQLite format 3.
|     16: 10 00 01 01 00 40 20 20 00 00 00 00 00 00 00 00   .....@  ........
|     96: 00 00 00 00 0d 0e b1 00 06 0d a4 00 0f 8d 0f 21   ...............!
|    112: 0e b9 0d c8 0e 7e 0d a4 00 00 00 00 00 00 00 00   .....~..........
|   3488: 00 00 00 00 22 07 06 17 11 11 01 31 74 61 62 6c   ...........1tabl
|   3504: 65 74 32 74 32 07 43 52 45 41 54 45 20 54 41 42   et2t2.CREATE TAB
|   3520: 4c 45 20 74 32 28 78 29 81 33 05 07 17 1f 1f 01   LE t2(x).3......
|   3536: 82 35 74 61 62 6c 65 74 31 5f 73 65 67 64 69 72   .5tablet1_segdir
|   3552: 74 31 5f 73 65 67 64 69 72 05 43 52 45 41 54 45   t1_segdir.CREATE
|   3568: 20 54 41 42 4c 45 20 27 74 31 5f 73 65 67 64 69    TABLE 't1_segdi
|   3584: 72 27 28 6c 65 76 65 6c 20 49 4e 54 45 47 45 52   r'(level INTEGER
|   3600: 2c 69 64 78 20 49 4e 54 45 47 44 52 2c 73 74 61   ,idx INTEGDR,sta
|   3616: 72 74 5f 62 6c 6f 63 6b 20 49 4e 54 45 47 45 52   rt_block INTEGER
|   3632: 2c 6c 65 61 76 65 73 5f 65 6e 64 5f 62 6c 6f 63   ,leaves_end_bloc
|   3648: 6b 20 49 4e 54 45 47 45 52 2c 65 6e 64 5f 62 6c   k INTEGER,end_bl
|   3664: 6f 63 6b 20 49 4e 54 45 47 45 52 2c 72 6f 6f 74   ock INTEGER,root
|   3680: 20 42 4c 4f 42 2c 50 52 49 4d 41 52 59 20 4b 45    BLOB,PRIMARY KE
|   3696: 59 28 6c 65 76 65 6c 2c 20 69 64 78 29 29 31 06   Y(level, idx))1.
|   3712: 06 17 45 1f 01 00 6a 6e 64 65 78 73 71 6c 69 74   ..E...jndexsqlit
|   3728: 65 5f 61 75 74 6f 69 6e 64 65 78 5f 74 31 5f 73   e_autoindex_t1_s
|   3744: 65 67 64 69 72 5f 31 74 31 5f 73 65 67 64 69 72   egdir_1t1_segdir
|   3760: 06 0f c7 00 08 00 00 00 00 66 04 07 17 23 23 01   .........f...##.
|   3776: 81 13 74 61 62 6c 65 74 31 5f 73 65 67 6d 65 6e   ..tablet1_segmen
|   3792: 74 73 74 31 5f 73 65 67 6d 65 6e 74 73 03 43 52   tst1_segments.CR
|   3808: 45 41 54 45 20 54 41 42 4c 45 20 27 74 31 5f 73   EATE TABLE 't1_s
|   3824: 65 67 6d 65 6e 74 73 27 28 62 6c 6f 63 6b 69 64   egments'(blockid
|   3840: 20 49 4e 54 45 47 45 52 20 50 52 49 4d 41 52 5a    INTEGER PRIMARZ
|   3856: 20 4b 45 59 2c 20 62 6c 6f 63 6b 20 42 4c 4f 42    KEY, block BLOB
|   3872: 29 6a 03 07 17 21 21 01 81 1f 74 61 62 6c 65 74   )j...!!...tablet
|   3888: 31 5f 63 6f 6e 74 65 6e 74 74 31 5f 63 6f 6e 74   1_contentt1_cont
|   3904: 65 6e 74 03 43 52 45 41 54 45 20 54 41 42 4c 45   ent.CREATE TABLE
|   3920: 20 27 74 31 5f 63 6f 6e 74 65 6e 74 27 28 64 6f    't1_content'(do
|   3936: 63 69 64 20 49 4e 54 45 47 45 52 20 50 52 49 4d   cid INTEGER PRIM
|   3952: 41 52 59 20 4b 45 59 2c 20 27 63 30 61 27 2c 20   ARY KEY, 'c0a', 
|   3968: 27 63 31 62 27 2c 20 27 63 32 63 27 29 38 02 06   'c1b', 'c2c')8..
|   3984: 17 11 11 08 5f 74 61 62 6c 65 74 31 74 31 43 52   ...._tablet1t1CR
|   4000: 45 41 54 45 20 56 49 52 54 55 41 4c 20 54 41 42   EATE VIRTUAL TAB
|   4016: 4c 45 20 74 31 20 55 53 49 4e 47 20 66 74 73 33   LE t1 USING fts3
|   4032: 28 61 2c 62 2c 63 29 00 00 00 00 00 00 00 00 00   (a,b,c).........
| page 3 offset 8192
|      0: 0d 00 00 00 25 0b 48 00 0f d8 0f af 0f 86 0f 74   ....%.H........t
|     16: 0f 61 0f 4e 0f 2f 0f 0f 0e ef 0e d7 0e be 0e a5   .a.N./..........
|     32: 0e 8d 0e 74 0e 5b 0e 40 0e 24 0e 08 0d ef 0d d5   ...t.[.@.$......
|     48: 0d bb 0d a0 0d 84 0d 68 0d 50 0d 35 0d 1b 0c fb   .......h.P.5....
|     64: 0c da 0c b8 fc 99 0c 78 0c 57 0c 3e 0c 24 0c 0a   .......x.W.>.$..
|     80: 0b 48 00 00 00 00 00 00 00 00 00 00 00 00 00 00   .H..............
|   2880: 00 00 00 00 00 00 00 00 81 3f 25 06 00 82 7f 00   .........?%.....
|   2896: 00 43 4f 4d 50 49 4c 45 52 3d 67 63 63 2d 35 2e   .COMPILER=gcc-5.
|   2912: 34 2e 30 20 32 30 31 36 30 36 30 39 20 44 45 42   4.0 20160609 DEB
|   2928: 55 47 20 45 4e 41 42 4c 45 20 44 42 53 54 7e 54   UG ENABLE DBST~T
|   2944: 20 56 54 41 42 20 45 4e 41 42 4c 45 20 46 54 53    VTAB ENABLE FTS
|   2960: 44 20 45 4e 41 42 4c 45 20 46 54 53 35 20 45 4e   D ENABLE FTS5 EN
|   2976: 41 42 4c 45 20 47 45 4f 50 4f 4c 59 20 45 4e 41   ABLE GEOPOLY ENA
|   2992: 42 4c 45 20 4a 53 4f 4e 31 20 45 4e 41 42 4c 45   BLE JSON1 ENABLE
|   3008: 20 4d 45 4d 53 59 53 35 20 45 4e 41 42 4c 45 20    MEMSYS5 ENABLE 
|   3024: 52 54 52 45 45 20 4d 41 58 20 4d 45 4d 4f 52 59   RTREE MAX MEMORY
|   3040: 3d 35 30 30 30 30 30 30 30 20 4f 4d 49 54 20 4c   =50000000 OMIT L
|   3056: 4f 41 44 20 45 58 54 45 4e 53 49 4f 4e 20 54 48   OAD EXTENSION TH
|   3072: 52 45 41 44 53 41 46 45 3d 30 18 24 05 00 25 0f   READSAFE=0.$..%.
|   3088: 19 54 48 52 45 41 44 54 41 46 45 3d 30 58 42 49   .THREADTAFE=0XBI
|   3104: 4e 41 52 59 18 23 05 00 25 0f 19 54 48 52 45 41   NARY.#..%..THREA
|   3120: 44 53 41 46 45 3d 30 bd 4e 4f 43 41 53 45 17 22   DSAFE=0.NOCASE..
|   3136: 05 00 25 0f 17 54 48 52 45 41 44 53 41 46 45 3d   ..%..THREADSAFE=
|   3152: 30 58 52 54 52 49 4d 1f 21 05 00 33 0f 19 4f 4d   0XRTRIM.!..3..OM
|   3168: 49 54 20 4c 4f 41 44 20 45 58 54 45 4e 53 49 4e   IT LOAD EXTENSIN
|   3184: 4e 58 42 49 4e 41 52 59 1f 20 05 00 33 0f 19 4f   NXBINARY. ..3..O
|   3200: 4d 49 54 20 4c 4f 41 44 20 45 58 54 45 4e 53 49   MIT LOAD EXTENSI
|   3216: 4f 4e 58 4e 4f 43 41 53 45 1e 1f 05 00 33 0f 17   ONXNOCASE....3..
|   3232: 4f 4d 49 54 20 4c 4f 41 44 20 45 58 54 45 4e 53   OMIT LOAD EXTENS
|   3248: 49 4f 4e 58 52 54 52 49 4d 1f 1e 05 00 33 0f 19   IONXRTRIM....3..
|   3264: 4d 41 58 1f 4d 45 4d 4f 52 59 3d 35 30 30 30 30   MAX.MEMORY=50000
|   3280: 30 30 30 58 42 49 4e 41 52 59 1f 1d 05 00 33 0f   000XBINARY....3.
|   3296: 19 4d 41 58 20 4d 45 4d 4f 52 59 3d 35 30 30 30   .MAX MEMORY=5000
|   3312: 30 30 30 30 58 4e 4f 43 41 53 45 1e 1c 05 00 33   0000XNOCASE....3
|   3328: 0f 17 4d 41 58 20 4d 44 4d 4f 52 59 3d 35 30 30   ..MAX MDMORY=500
|   3344: 30 30 30 30 30 58 52 54 52 49 4d 18 1b 05 00 25   00000XRTRIM....%
|   3360: 0f 19 45 4e 41 42 4c 45 20 52 54 52 45 45 58 42   ..ENABLE RTREEXB
|   3376: 49 4e 41 52 59 18 1a 05 00 25 0f 19 45 4e 41 42   INARY....%..ENAB
|   3392: 4c 55 20 52 54 52 45 45 58 4e 4f 43 41 53 45 17   LU RTREEXNOCASE.
|   3408: 19 05 00 25 0f 17 45 4e 41 42 4c 45 20 52 54 52   ...%..ENABLE RTR
|   3424: 45 45 58 52 54 52 49 4d 1a 18 05 00 29 0f 19 45   EEXRTRIM....)..E
|   3440: 4e 41 42 4c 45 20 4d 45 4d 53 59 53 35 58 42 49   NABLE MEMSYS5XBI
|   3456: 4e 41 52 59 1a 17 05 00 29 0f 19 45 4e 41 42 4c   NARY....)..ENABL
|   3472: 45 20 4d 45 4d 53 59 53 35 58 4e 3f 43 41 53 45   E MEMSYS5XN?CASE
|   3488: 19 16 05 00 29 0f 17 45 4e a1 42 4c 45 20 4d 45   ....)..EN.BLE ME
|   3504: 4d 53 59 53 35 58 52 54 52 49 4d 18 15 05 00 25   MSYS5XRTRIM....%
|   3520: 0f 19 45 4e 41 42 4c 45 20 4a 53 4f 4e 31 58 42   ..ENABLE JSON1XB
|   3536: 49 4e 41 52 59 18 14 05 00 25 0f 19 45 4e 41 42   INARY....%..ENAB
|   3552: 4c 45 20 4a 53 4f 4e 31 58 4e 4f 43 41 53 45 17   LE JSON1XNOCASE.
|   3568: 13 05 00 25 0f 17 45 4e 41 42 4c 45 20 4a 53 4f   ...%..ENABLE JSO
|   3584: 4e 31 58 52 54 52 49 4d 1a 12 05 00 29 0f 19 45   N1XRTRIM....)..E
|   3600: 4e 41 42 4c 45 20 47 45 4f 50 5f 4c 59 58 42 49   NABLE GEOP_LYXBI
|   3616: 4e 41 52 59 1a 11 05 00 29 0f 19 45 4e 41 42 4c   NARY....)..ENABL
|   3632: 45 20 47 45 4f 50 4f 4c 59 58 4b bf 43 41 53 45   E GEOPOLYXK.CASE
|   3648: 19 10 05 00 29 0f 17 45 4e 41 42 4c 45 20 47 45   ....)..ENABLE GE
|   3664: 4f 50 4f 4c 59 58 52 54 52 49 4d 17 0f 05 00 23   OPOLYXRTRIM....#
|   3680: 0f 19 45 4e 41 42 4c 55 20 46 54 53 35 58 42 49   ..ENABLU FTS5XBI
|   3696: 4e 4b a2 59 17 0e 05 00 23 0f 19 45 4e 41 42 4c   NK.Y....#..ENABL
|   3712: 45 20 46 54 52 35 58 4e 4f 43 41 53 45 16 0d 05   E FTR5XNOCASE...
|   3728: 00 23 0f 17 45 4e 41 42 4c 45 20 46 54 53 35 58   .#..ENABLE FTS5X
|   3744: 52 54 52 49 4d 17 0b 05 00 23 0f 19 45 4e 41 42   RTRIM....#..ENAB
|   3760: 4c 45 20 46 54 53 34 58 42 49 4e 41 52 59 17 0b   LE FTS4XBINARY..
|   3776: 05 00 23 0f 19 45 4e 41 42 4c 45 20 46 54 53 34   ..#..ENABLE FTS4
|   3792: 58 4e 4f 43 41 53 45 16 0a 05 00 23 0f 17 45 4e   XNOCASE....#..EN
|   3808: 41 42 4c 45 20 46 54 53 34 58 52 54 52 49 4d 1e   ABLE FTS4XRTRIM.
|   3824: 09 05 07 e1 0f 19 45 4e 41 42 4c 45 20 44 42 53   ......ENABLE DBS
|   3840: 54 41 54 20 56 54 41 42 58 42 49 4e 41 52 59 1e   TAT VTABXBINARY.
|   3856: 18 05 00 31 0f 19 45 4e 41 42 4c 45 20 44 42 53   ...1..ENABLE DBS
|   3872: 54 41 54 20 56 54 41 41 18 4e 4f 43 41 53 45 1d   TAT VTAA.NOCASE.
|   3888: 07 05 00 31 0f 17 45 4e 41 42 4c 45 20 44 32 53   ...1..ENABLE D2S
|   3904: 54 41 54 20 56 54 41 42 58 52 54 52 49 4d 11 06   TAT VTABXRTRIM..
|   3920: 05 00 17 0f 19 44 45 42 55 47 58 42 49 4e 41 52   .....DEBUGXBINAR
|   3936: 59 11 05 05 00 17 0f 19 44 45 00 00 00 00 00 00   Y.......DE......
| page 5 offset 16384
|      0: 0d 00 00 00 02 0b a0 00 0c ad 0b a0 01 00 00 00   ................
|   2976: 82 0a 02 08 08 09 08 08 17 84 06 30 20 32 35 33   ...........0 253
|   2992: 00 01 30 04 25 06 1b 00 00 08 32 30 31 36 30 36   ..0.%.....201606
|   3008: 30 38 03 25 07 00 00 01 34 03 25 05 00 00 01 35   08.%....4.%....5
|   3024: 03 25 13 00 01 07 30 30 30 30 30 30 30 03 25 1a   .%....0000000.%.
|   3040: 00 00 08 63 6f 6d 70 69 6c 65 72 03 25 02 00 00   ...compiler.%...
|   3056: 06 64 62 73 74 61 74 03 25 0a 00 01 04 65 62 75   .dbstat.%....ebu
|   3072: 67 03 25 08 00 00 06 65 6e 61 62 6c 65 09 25 09   g.%....enable.%.
|   3088: 05 04 04 04 04 04 00 01 08 78 74 65 6e 73 69 6f   .........xtensio
|   3104: 6e 03 25 1d 00 00 04 66 74 73 34 03 25 0d 00 03   n.%....fts4.%...
|   3120: 01 35 03 25 0f 00 00 03 67 63 63 03 25 03 00 01   .5.%....gcc.%...
|   3136: 06 65 6f 70 6f 6c 79 03 25 11 00 00 05 6a 73 6f   .eopoly.%....jso
|   3152: 6e 31 03 25 13 00 00 04 6c 6f 61 64 03 25 1c 00   n1.%....load.%..
|   3168: 00 03 6d 62 78 03 25 18 00 01 05 65 6d 6f 72 79   ..mbx.%....emory
|   3184: 03 25 19 00 03 04 73 c8 73 35 03 25 15 00 00 04   .%....s.s5.%....
|   3200: 6f 6d 69 74 03 25 1b 00 00 05 72 74 72 65 65 03   omit.%....rtree.
|   3216: 25 17 00 00 0a 74 68 72 65 61 64 73 61 66 65 03   %....threadsafe.
|   3232: 25 1e 00 00 04 76 74 61 62 03 25 0b 00 86 50 01   %....vtab.%...P.
|   3248: 08 08 08 08 08 17 8d 12 30 20 38 33 35 00 01 30   ........0 835..0
|   3264: 12 01 06 00 01 06 00 01 06 00 1f 03 00 01 03 00   ................
|   3280: 01 03 00 00 08 32 30 31 36 30 36 30 39 09 01 07   .....20160609...
|   3296: 00 01 07 00 01 07 00 00 01 34 09 01 05 00 01 05   .........4......
|   3312: 00 01 05 00 00 01 35 09 01 04 00 01 04 00 02 04   ......5.........
|   3328: 00 01 07 30 2f 30 30 30 30 30 09 1c 04 00 01 04   ...0/00000......
|   3344: 00 01 04 00 00 06 62 69 6e 61 72 79 3c 03 01 02   ......binary<...
|   3360: 02 00 03 01 02 02 00 03 01 02 02 00 03 01 02 02   ................
|   3376: 00 03 01 02 02 00 03 01 02 02 00 03 01 02 02 00   ................
|   3392: 03 01 02 02 00 03 01 02 02 00 03 01 02 02 00 03   ................
|   3408: 01 02 02 00 03 01 02 02 00 00 08 63 6f 6d 70 69   ...........compi
|   3424: 6c 65 72 09 01 02 00 01 02 00 01 02 00 00 06 64   ler............d
|   3440: 62 73 74 61 74 09 07 03 00 01 03 00 01 03 00 01   bstat...........
|   3456: 04 65 62 75 67 09 04 02 00 01 02 00 01 02 00 00   .ebug...........
|   3472: 06 65 6e 61 6c 2c 65 3f 07 02 00 01 02 00 01 02   .enal,e?........
|   3488: 00 01 02 00 01 02 00 01 02 00 01 02 00 01 02 00   ................
|   3504: 01 02 00 01 02 00 01 02 00 01 01 ff f1 02 00 01   ................
|   3520: 02 00 01 02 00 01 02 00 f1 02 00 01 02 00 01 4f   ...............O
|   3536: 00 01 02 00 01 02 00 01 08 78 74 65 6e 73 69 6f   .........xtensio
|   3552: 6e 09 1f 04 00 01 04 00 01 04 00 00 04 66 74 73   n............fts
|   3568: 34 09 0a 03 00 01 03 00 00 f3 00 03 01 35 09 0d   4............5..
|   3584: 03 00 01 04 00 01 03 00 00 03 67 63 63 09 01 03   ..........gcc...
|   3600: 00 01 03 00 01 03 00 01 06 65 6f 70 6f 6c 79 09   .........eopoly.
|   3616: 10 03 00 01 03 00 01 03 00 00 05 6a 73 6f 6e 31   ...........json1
|   3632: 09 13 03 00 01 02 ff 01 03 00 00 04 6c 6f 61 63   ............loac
|   3648: 09 1f 03 00 01 03 00 01 03 00 00 03 6d 61 78 09   ............max.
|   3664: 1c 02 00 01 02 00 01 02 00 01 05 64 6d 6f 72 79   ...........dmory
|   3680: 09 1c 03 00 01 03 00 01 03 00 03 04 73 79 73 35   ............sys5
|   3696: 09 16 02 f0 01 03 00 01 03 00 00 06 6e 6f 63 61   ............noca
|   3712: 73 65 3c 02 01 02 02 00 03 01 02 02 00 03 01 02   se<.............
|   3728: 02 00 03 01 02 02 00 03 01 02 02 00 03 01 02 02   ................
|   3744: 00 03 01 02 02 00 03 01 02 02 00 4b 01 02 02 00   ...........K....
|   3760: 03 01 02 02 00 03 01 02 02 00 03 01 02 02 00 00   ................
|   3776: 04 6f 6d 69 74 09 1f 02 00 01 02 00 01 02 00 00   .omit...........
|   3792: 05 72 74 72 65 65 09 19 03 00 01 03 00 01 03 00   .rtree..........
|   3808: 03 02 69 6d 3c 01 01 02 02 00 03 01 02 02 00 03   ..im<...........
|   3824: 01 02 02 00 03 01 02 02 00 03 01 02 02 00 03 01   ................
|   3840: 02 02 00 03 01 02 02 00 03 01 02 02 00 03 01 02   ................
|   3856: 02 00 03 01 02 02 00 03 01 02 02 00 03 01 02 02   ................
|   3872: 00 00 0a 74 68 72 65 61 64 73 61 66 65 09 22 02   ...threadsafe...
|   3888: 00 01 02 00 01 02 00 00 04 76 74 61 62 09 07 04   .........vtab...
|   3904: 00 01 04 00 01 04 00 00 01 78 b4 01 01 01 01 02   .........x......
|   3920: 00 01 f4 01 02 00 01 02 01 02 00 01 01 01 02 ff   ................
|   3936: 01 01 01 02 00 01 01 01 02 00 01 01 01 02 00 01   ................
|   3952: 01 01 02 ae 01 01 01 02 00 01 01 01 02 00 01 01   ................
|   3968: 01 12 00 01 01 01 02 00 01 01 01 02 00 01 01 01   ................
|   3984: 12 00 01 01 01 02 01 01 01 01 02 00 01 01 01 02   ................
|   4000: 00 01 01 01 02 00 01 01 01 02 00 01 01 01 02 00   ................
|   4016: 01 01 01 02 00 01 01 01 02 00 01 01 01 02 00 01   ................
|   4032: 01 01 02 00 01 01 01 02 00 01 01 01 02 00 01 01   ................
|   4048: 01 02 00 01 01 01 02 00 01 76 01 02 00 01 01 01   .........v......
|   4064: 02 00 01 01 01 02 01 01 01 01 02 00 01 01 01 02   ................
|   4080: 00 01 01 01 02 00 01 01 01 02 00 01 01 01 02 00   ................
| page 6 offset 20480
|      0: 0a 00 00 00 02 0f f5 00 0f fb 0f f5 00 00 00 00   ................
|   4080: 00 00 00 00 00 05 04 08 09 01 02 04 04 08 08 09   ................
| end crash-74fdbc96edbc04.db
}]} {}

do_catchsql_test 32.1 {
  UPDATE t1 SET b=quote(zeroblob(6.51158946e+5)) WHERE a MATCH '*t*';
} {1 {database disk image is malformed}}

#do_catchsql_test 32.2 {
#  UPDATE t1 SET b=((- '' )) WHERE a MATCH '0*t';
#} {1 {database disk image is malformed}}

#-------------------------------------------------------------------------
#
ifcapable icu {
  reset_db
  do_catchsql_test 33.0 {
    CREATE VIRTUAL TABLE f USING fts3(a,b,tokenize=icu);
    CREATE TABLE 'f_docsize'(docid INTEGER PRIMARY KEY, size BLOB);
    CREATE TABLE 'f_stat'(id INTEGER PRIMARY KEY, value BLOB);
    INSERT INTO f VALUES (1, '1234');
    INSERT INTO f_stat VALUES (1,x'0000000165656565db6569746565c5c52bc5c5c53e3a003bc502ffffffffc5c5c53e3a003bc502fffffffffb8b2afbfb6565f0740100650000000165656565db6569746565c5c52bc5c5c53e3a003bc502ffffffffc5c5c53e3a003b8b00c5c5c5c5c5bfc5');
    INSERT INTO f(f) VALUES ('merge=198,49');
  } {1 {database disk image is malformed}}
}

#-------------------------------------------------------------------------
#
reset_db
do_execsql_test 34.0 {
  CREATE VIRTUAL TABLE f USING fts3(a,b);
  INSERT INTO f VALUES (1, '1234');
  INSERT INTO f_segdir VALUES (1,255,0,0,'1 255',x'00');
  UPDATE f_segdir SET level = 0 WHERE level IN (
    SELECT level FROM f_segdir LIMIT 1 OFFSET 1
  );
  INSERT INTO f_segdir VALUES (255,249,0,121,'0 0',x'00');
  INSERT INTO f_content VALUES (255,0,x'ff');
  INSERT INTO f_segdir VALUES (1,255,16,0,'1 255',x'00');
}

do_catchsql_test 34.1 {
  UPDATE f SET b = x'00' WHERE b IN (SELECT b FROM f LIMIT 1 OFFSET 0);
} {1 {database disk image is malformed}}

#-------------------------------------------------------------------------
#
reset_db
do_execsql_test 35.0 {
  CREATE VIRTUAL TABLE f USING fts3(a,b);
  INSERT INTO f_segdir VALUES (1,255,0,0,'1 255',x'0001ff000001ff000001ff000001ff000001ff00c5c5c5c5c5c5c5c5c5c5c5c5c5c5c5c5c5c5c5c5c5c5c5c5c5c5bec5c5c5c5c5c5c5c5c5c5c5c5c5c5c5c5c5');
}

do_catchsql_test 35.1 {
  INSERT INTO f(f) VALUES ('integrity-check');
} {1 {database disk image is malformed}}
do_execsql_test 35.2 {
  PRAGMA integrity_check;
} {{malformed inverted index for FTS3 table main.f}}

reset_db
do_catchsql_test 36.0 {
  CREATE VIRTUAL TABLE f USING fts3(a,tokenize=porter);
  CREATE TABLE 'f_stat'(id INTEGER PRIMARY KEY, value BLOB);
  INSERT INTO f VALUES (1);
  INSERT INTO f_stat VALUES (1,x'00000000000101010119013d00ffff0400fa83717b71a69297979701f63d010101010101010101010101190000000000000000fa83717b71a601f63d01010101010101010101010119013d00ffffff0400fa83717b71a69297979701f63d010101010101010101010101190000000000000000fa83717b71a69201f63d010101f63d01010101010101010101010119013d00ffffff0400fa83717b71a6929797010101010101010101010119013d00ffff01f63d01010101010101010101010119013d00ffffff0400fa83717b71a69297979701f63d00fa03ffffffa69297979701f63d010101000000000101010101197e9797976567656565ffa63535354e');
  INSERT INTO f(f) VALUES ('merge=53,216');
} {0 {}}

#-------------------------------------------------------------------------
#
reset_db
do_execsql_test 36.0 {
  CREATE VIRTUAL TABLE f USING fts3(a,b);
  CREATE TABLE 'f_stat'(id INTEGER PRIMARY KEY, value BLOB);
  INSERT INTO f_stat VALUES (1,x'11014101000101c5c5014b010164c5014b010101c50101c5c5010201010101014101000101c5c5014b010101c5014b010101c50101c5c501010100c50101c5c5010101010101e40201010101014101000201010101014101000101010201010101014101000101c5c503b5fefefe3afeffffc5c5c5c50101010101010201010101014101adadadadadadadadadadadad91adadadadadadadad0101c50101c5c501f9ffffffffffffffff0001010102010101010140f5000101c5c5014b010101c50101c5c501010101e6010201010101014101000101c5c5014b010101c50101c5c5010101114b0101c5c50101010a0101020101e60101');
}

do_catchsql_test 36.1 {
  INSERT INTO f(f) VALUES ('merge=59,59');
} {1 {database disk image is malformed}}

#-------------------------------------------------------------------------
#
reset_db
do_execsql_test 37.0 {
  CREATE VIRTUAL TABLE f USING fts3(a,b);
  INSERT INTO f_segdir VALUES (28,0,0,0,'0 0',x'00');
  INSERT INTO f_segdir VALUES (0,241,0,0,'0 0',x'0001000030310000f1');
}

do_catchsql_test 37.1 {
  INSERT INTO f VALUES (0,x'00');
} {1 {database disk image is malformed}}

#-------------------------------------------------------------------------
#
reset_db
do_test 38.0 {
  sqlite3 db {}
  db deserialize [decode_hexdb {
.open --hexdb
| size 24576 pagesize 4096 filename crash-1cc4f8a70485ce.db
| page 1 offset 0
|      0: 53 51 4c 69 74 65 20 66 6f 72 6d 61 74 20 33 00   SQLite format 3.
|     16: 10 00 01 01 00 40 20 20 00 00 00 00 00 00 00 00   .....@  ........
|     96: 00 00 00 00 0d 0e b1 00 06 0d a4 00 0f 8d 0f 21   ...............!
|    112: 0e b9 0d c8 0e 7e 0d a4 00 00 00 00 00 00 00 00   .....~..........
|   3488: 00 00 00 00 22 07 06 17 11 11 01 31 74 61 62 6c   ...........1tabl
|   3504: 65 74 32 74 32 07 43 52 45 41 54 45 20 54 41 42   et2t2.CREATE TAB
|   3520: 4c 45 20 74 32 28 78 29 81 33 05 07 17 1f 1f 01   LE t2(x).3......
|   3536: 82 35 74 61 62 6c 65 74 31 5f 73 65 67 64 69 72   .5tablet1_segdir
|   3552: 74 31 5f 73 65 67 64 69 72 05 43 52 45 41 54 45   t1_segdir.CREATE
|   3568: 20 54 41 42 4c 45 20 27 74 31 5f 73 65 67 64 69    TABLE 't1_segdi
|   3584: 72 27 28 6c 65 76 65 6c 20 49 4e 54 45 47 45 52   r'(level INTEGER
|   3600: 2c 69 64 78 20 49 4e 54 45 47 45 52 2c 73 74 61   ,idx INTEGER,sta
|   3616: 72 74 5f 62 6c 6f 63 6b 20 49 4e 54 45 47 45 52   rt_block INTEGER
|   3632: 2c 6c 65 61 76 65 73 5f 65 6e 64 5f 62 6c 6f 63   ,leaves_end_bloc
|   3648: 6b 20 49 4e 54 45 47 45 52 2c 65 6e 64 5f 62 6c   k INTEGER,end_bl
|   3664: 6f 63 6b 20 49 4e 54 45 47 45 62 2c 72 6f 6f 74   ock INTEGEb,root
|   3680: 20 42 4c 4f 42 2c 50 52 49 4d 41 52 59 20 4b 45    BLOB,PRIMARY KE
|   3696: 59 28 6c 65 76 65 6c 2c 20 69 64 78 29 29 31 06   Y(level, idx))1.
|   3712: 06 17 45 1f 01 00 69 6e 64 65 78 73 71 6c 69 74   ..E...indexsqlit
|   3728: 65 5f 61 75 74 6f 69 6e 64 65 78 5f 74 31 5f 73   e_autoindex_t1_s
|   3744: 65 67 64 69 72 5f 31 74 31 5f 73 65 67 64 69 72   egdir_1t1_segdir
|   3760: 06 0f c7 00 08 00 00 00 00 66 04 07 17 23 23 01   .........f...##.
|   3776: 81 13 74 61 62 6c 65 74 31 5f 73 65 67 6d 65 6e   ..tablet1_segmen
|   3792: 74 73 74 31 5f 73 65 67 6d 65 6e 74 73 04 43 52   tst1_segments.CR
|   3808: 45 41 54 45 20 54 41 42 4c 45 20 27 74 31 5f 73   EATE TABLE 't1_s
|   3824: 65 67 6d 65 6e 74 73 27 28 62 6c 6f 63 6b 69 64   egments'(blockid
|   3840: 20 49 4e 54 45 47 45 52 20 50 52 49 4d 41 52 59    INTEGER PRIMARY
|   3856: 20 4b 45 59 2c 20 62 6c 6f 63 6b 20 42 4c 4f 42    KEY, block BLOB
|   3872: 29 6a 03 07 17 21 21 01 81 1f 74 61 62 6c 65 74   )j...!!...tablet
|   3888: 31 5f 63 6f 6e 74 65 6e 74 74 31 5f 63 6f 6e 74   1_contentt1_cont
|   3904: 65 6e 74 03 43 52 45 41 54 45 20 54 41 42 4c 45   ent.CREATE TABLE
|   3920: 20 27 74 31 5f 63 6f 6e 74 65 6e 74 27 28 64 6f    't1_content'(do
|   3936: 63 69 64 20 49 4e 54 45 47 45 52 20 50 52 49 4d   cid INTEGER PRIM
|   3952: 41 52 59 20 4b 45 59 2c 20 27 63 30 61 27 2c 20   ARY KEY, 'c0a', 
|   3968: 27 63 31 62 27 2c 20 27 63 32 63 27 29 38 02 06   'c1b', 'c2c')8..
|   3984: 17 11 11 08 5f 74 61 62 6c 65 74 31 74 31 43 52   ...._tablet1t1CR
|   4000: 45 41 54 45 20 56 49 52 54 55 41 4c 20 54 41 42   EATE VIRTUAL TAB
|   4016: 4c 45 20 74 31 20 55 53 49 4e 47 20 66 74 73 33   LE t1 USING fts3
|   4032: 28 61 2c 62 2c 63 29 00 00 00 00 00 00 00 00 00   (a,b,c).........
| page 3 offset 8192
|      0: 0d 00 00 00 25 0b 48 00 0f d8 0f af 0f 86 0f 74   ....%.H........t
|     16: 0f 61 0f 4e 0f 2f 0f 0f 0e ef 0e d7 0e be 0e a5   .a.N./..........
|     32: 0e 8d 0e 74 0e 5b 0e 40 0e 24 0e 08 0d ef 00 00   ...t.[.@.$......
|   2880: 00 00 00 00 00 00 00 00 81 3f 25 06 00 82 7e f0   .........?%...~.
|   2896: 00 43 4f 4d 50 49 4c 45 52 3d 67 63 63 2d 35 2e   .COMPILER=gcc-5.
|   2912: 34 23 00 20 42 30 31 36 2f 36 30 39 20 44 45 42   4#. B016/609 DEB
|   2928: 55 47 20 45 4e 41 42 4c 45 20 44 42 53 54 41 54   UG ENABLE DBSTAT
|   2944: 20 56 54 41 42 20 45 4e 42 92 4c 45 20 46 54 53    VTAB ENB.LE FTS
|   2960: 34 20 45 4e 41 42 4c 45 20 46 54 53 35 20 45 4e   4 ENABLE FTS5 EN
|   2976: 41 42 4c 45 20 47 45 4f 50 4f 4c 59 20 45 4e 41   ABLE GEOPOLY ENA
|   2992: 42 5c 45 1f 4a 53 4f 4e 31 20 45 4e 41 42 4c 45   B.E.JSON1 ENABLE
|   3008: 20 4d 45 4d 53 59 53 35 20 45 4e 41 42 4c 45 20    MEMSYS5 ENABLE 
|   3024: 52 54 52 45 45 20 4d 41 58 20 4d 45 4d 4f 52 59   RTREE MAX MEMORY
|   3040: 3d 35 30 30 30 30 30 30 30 20 4f 4d 49 54 20 4c   =50000000 OMIT L
|   3056: 4f 41 44 20 45 58 54 45 4e 53 49 4f 4e 20 54 48   OAD EXTENSION TH
|   3072: 52 45 41 44 53 41 46 45 3d 30 18 24 05 00 25 0f   READSAFE=0.$..%.
|   3088: 19 54 48 52 45 41 44 53 41 46 45 3d 30 58 42 49   .THREADSAFE=0XBI
|   3104: 4e 41 52 59 18 23 05 00 25 0f 19 54 48 52 45 41   NARY.#..%..THREA
|   3120: 44 53 41 46 45 3d 30 88 4e 4f 43 41 53 45 17 22   DSAFE=0.NOCASE..
|   3136: 05 00 25 0f 17 54 48 52 45 41 44 53 41 46 45 3d   ..%..THREADSAFE=
|   3152: 30 58 52 54 52 49 4d 1f 21 05 00 33 0f 19 4f 4d   0XRTRIM.!..3..OM
|   3168: 49 54 20 4c 4f 41 44 20 45 58 54 45 4e 53 49 4f   IT LOAD EXTENSIO
|   3184: 4e 58 42 49 4e 41 52 59 1f 20 05 00 33 0f 19 4f   NXBINARY. ..3..O
|   3200: 4d 49 54 20 4c 4f 41 44 20 45 58 54 45 4e 53 49   MIT LOAD EXTENSI
|   3216: 4f 4e 58 4e 4f 43 41 53 45 1e 1f 05 00 33 0f 17   ONXNOCASE....3..
|   3232: 4f 4d 49 54 20 4c 4f 41 54 20 45 58 54 45 4e 53   OMIT LOAT EXTENS
|   3248: 49 4f 4e 58 52 54 52 49 4d 1f 1e 04 00 33 0f 19   IONXRTRIM....3..
|   3264: 82 41 58 20 4d 45 4d 4f 52 59 3d 35 30 30 30 30   .AX MEMORY=50000
|   3280: 30 30 30 58 42 49 4e 41 52 59 1f 1d 05 00 33 0f   000XBINARY....3.
|   3296: 19 4d 41 58 20 4d 45 4d 4f 52 59 3d 35 30 30 30   .MAX MEMORY=5000
|   3312: 30 30 30 30 58 4e 4f 43 41 53 45 1e 1c 05 00 33   0000XNOCASE....3
|   3328: 0f 17 4d 41 58 20 4d 45 4d fa 52 59 3d 35 30 20   ..MAX MEM.RY=50 
|   3344: 30 30 30 30 30 58 52 54 52 49 4d 18 1b 05 00 25   00000XRTRIM....%
|   3360: 0f 19 45 4e 41 42 4c 45 20 52 54 52 45 45 58 42   ..ENABLE RTREEXB
|   3376: 49 4e 41 52 59 18 1a 05 00 25 0f 19 45 4e 41 42   INARY....%..ENAB
|   3392: 4c 45 20 52 54 52 45 45 58 4e 4f 43 41 53 45 17   LE RTREEXNOCASE.
|   3408: 19 05 00 25 0f 17 45 4e 42 42 4c 45 20 52 54 52   ...%..ENBBLE RTR
|   3424: 45 45 58 52 54 52 49 4d 1a 18 05 00 29 0f 19 45   EEXRTRIM....)..E
|   3440: 4e 41 42 4c 45 20 4d 45 4d 53 59 53 35 58 42 49   NABLE MEMSYS5XBI
|   3456: 4e 41 52 59 1a 17 05 00 29 0f 19 45 4e 41 42 3c   NARY....)..ENAB<
|   3472: 45 20 4d 45 4d 53 59 53 35 58 4e 4f 43 41 53 45   E MEMSYS5XNOCASE
|   3488: 19 16 05 00 29 0f 17 45 4e 41 42 4c 45 20 4d 45   ....)..ENABLE ME
|   3504: 4d 53 59 53 35 58 52 54 52 49 4d 18 15 05 00 25   MSYS5XRTRIM....%
|   3520: 0f 19 45 4e 41 42 4c 45 20 4a 53 4f 4e 31 58 42   ..ENABLE JSON1XB
|   3536: 49 4e 41 52 59 18 14 05 00 25 0f 19 45 4e 41 42   INARY....%..ENAB
|   3552: 4c 45 20 4a 53 4f 4e 31 58 4e 4f 43 41 53 45 17   LE JSON1XNOCASE.
|   3568: 13 05 00 25 0f 17 45 4e 41 42 4c 45 20 4a 53 4f   ...%..ENABLE JSO
|   3584: 4e 31 58 52 54 52 49 4d 95 12 05 00 29 0f 19 45   N1XRTRIM....)..E
|   3600: 4e 31 42 4c 45 20 47 45 4e 50 4f 4c 59 58 42 49   N1BLE GENPOLYXBI
|   3616: 4e 41 52 59 1a 11 05 00 29 0f 19 45 3e f2 1e 4c   NARY....)..E>..L
|   3632: 45 20 47 45 4f 50 4f 4c 59 58 4e 4f 43 41 53 45   E GEOPOLYXNOCASE
|   3648: 19 10 05 00 29 0f 17 45 4e 41 42 4c 45 20 47 45   ....)..ENABLE GE
|   3664: 4f 50 4f 4c 59 58 52 54 52 49 4d 17 0f 05 00 23   OPOLYXRTRIM....#
|   3680: 0f 19 45 4e 41 42 4c 45 20 46 54 53 35 58 42 49   ..ENABLE FTS5XBI
|   3696: 4e 41 52 59 17 0e 05 00 23 0f 19 45 4e 41 42 3c   NARY....#..ENAB<
|   3712: 45 20 46 54 53 35 58 4e 4f 43 41 53 45 16 0d 05   E FTS5XNOCASE...
|   3728: 00 23 0f 17 45 4e 41 42 4c 45 20 46 54 53 35 58   .#..ENABLE FTS5X
|   3744: 5d 24 52 49 4d 17 0c 05 00 23 0f 19 45 4e 41 42   ]$RIM....#..ENAB
|   3760: 4c 45 20 46 54 53 34 58 42 49 4e 41 52 59 17 0b   LE FTS4XBINARY..
|   3776: 05 00 23 0f 19 45 4e 41 42 4c 45 20 46 54 53 35   ..#..ENABLE FTS5
|   3792: 58 4e 4f 43 40 53 45 16 0a 05 00 23 0f 17 45 4e   XNOC@SE....#..EN
|   3808: 41 42 4c 45 20 46 54 53 34 58 52 54 52 49 4d 1e   ABLE FTS4XRTRIM.
|   3824: 09 05 00 31 0f 19 45 4e 41 42 4c 45 20 44 42 53   ...1..ENABLE DBS
|   3840: 54 41 54 20 56 54 41 42 58 42 49 4e 41 52 59 1e   TAT VTABXBINARY.
|   3856: 08 05 00 31 0f 19 45 4e 41 42 4c 45 20 44 42 53   ...1..ENABLE DBS
|   3872: 54 41 54 20 56 54 41 42 58 4e 4f 43 41 53 45 1d   TAT VTABXNOCASE.
|   3888: 07 05 00 31 0f 17 45 4e 41 42 4b 45 20 44 42 53   ...1..ENABKE DBS
|   3904: 54 41 54 20 56 53 41 42 58 52 54 62 49 4d 11 06   TAT VSABXRTbIM..
|   3920: 05 00 17 0f 19 44 45 42 54 47 58 42 49 4e 41 52   .....DEBTGXBINAR
|   3936: 59 11 05 05 00 17 0f 19 44 45 42 55 47 58 4e 4f   Y.......DEBUGXNO
|   3952: 43 41 53 45 10 04 05 00 17 0f 17 44 45 42 55 47   CASE.......DEBUG
|   3968: 68 52 54 52 49 4d 27 03 05 00 43 0f 19 43 4f 4d   hRTRIM'...C..COM
|   3984: 50 49 4c 45 52 3d 67 63 63 2d 35 2e 34 2e 30 20   PILER=gcc-5.4.0 
|   4000: 32 30 31 36 30 36 30 39 58 42 49 4e 41 52 59 27   20160609XBINARY'
|   4016: 02 05 00 43 0f 19 43 4f 4d 50 49 4c 45 52 3d 67   ...C..COMPILER=g
|   4032: 63 63 2d 35 2e 34 2e 30 20 32 30 31 36 30 36 30   cc-5.4.0 2016060
|   4048: 39 58 4f 4f 43 41 53 45 26 01 05 00 43 0f 17 43   9XOOCASE&...C..C
|   4064: 4f 4d 50 49 4c 45 52 3d 67 63 63 2d 35 2e 34 2e   OMPILER=gcc-5.4.
|   4080: 30 20 32 30 31 36 30 36 30 39 58 52 54 52 49 4d   0 20160609XRTRIM
| page 4 offset 12288
|      0: 0d 00 00 00 00 00 00 00 00 00 00 00 00 00 00 00   ................
| page 5 offset 16384
|      0: 0d 00 00 00 02 0b a0 00 0c ad 0b a0 00 00 00 00   ................
|   2976: 82 0a 02 08 08 09 08 08 17 84 06 30 20 32 35 33   ...........0 253
|   2992: 00 01 30 04 25 06 1b 00 00 08 32 30 31 36 8c 36   ..0.%.....2016.6
|   3008: 30 39 03 25 07 00 00 01 34 03 25 05 00 00 01 35   09.%....4.%....5
|   3024: 03 25 04 00 01 07 30 30 30 30 30 30 30 03 25 1a   .%....0000000.%.
|   3040: 00 00 08 63 6f 5d 70 69 6c 65 72 03 25 02 00 00   ...co]piler.%...
|   3056: 06 64 62 73 74 61 74 03 25 0a 00 01 04 65 62 75   .dbstat.%....ebu
|   3072: 67 03 25 08 00 00 06 65 6e 61 62 6c 65 09 25 09   g.%....enable.%.
|   3088: 05 04 04 04 04 04 00 01 08 78 74 65 7e 73 69 6f   .........xte~sio
|   3104: 6e 03 25 1d 00 00 04 66 74 73 34 03 25 0d 00 03   n.%....fts4.%...
|   3120: 01 35 03 25 0f 00 00 03 67 63 63 03 25 03 00 01   .5.%....gcc.%...
|   3136: 06 65 6f 70 7f 6c 79 03 25 11 00 00 05 6a 73 6f   .eop.ly.%....jso
|   3152: 6e 31 03 25 14 00 e8 04 6c 6f 61 64 03 25 1c 00   n1.%....load.%..
|   3168: 00 03 6d 61 78 03 25 18 00 01 05 65 6d 6f 72 79   ..max.%....emory
|   3184: 03 25 19 00 03 04 73 79 73 35 03 25 15 00 00 04   .%....sys5.%....
|   3200: 6f 6d 69 74 03 25 1b 00 00 05 72 74 72 65 65 03   omit.%....rtree.
|   3216: 25 17 00 00 0a 74 68 72 65 61 64 73 61 66 65 03   %....threadsafe.
|   3232: 25 1e 00 00 04 76 74 61 62 03 25 0b 00 86 50 01   %....vtab.%...P.
|   3248: 08 08 08 08 08 17 8d 12 30 20 38 33 35 00 01 30   ........0 835..0
|   3264: 12 01 06 00 01 06 00 01 06 00 1f 03 00 01 03 00   ................
|   3280: 01 03 00 00 08 32 30 31 36 30 36 30 39 09 01 07   .....20160609...
|   3296: 00 01 07 00 01 07 00 00 01 34 09 01 05 00 01 05   .........4......
|   3312: 00 01 05 00 00 01 35 09 01 04 00 01 04 00 01 04   ......5.........
|   3328: 00 01 07 30 30 30 30 30 30 30 09 1c 04 00 01 04   ...0000000......
|   3344: 00 01 04 00 00 06 62 69 6e 61 72 79 3c 03 01 02   ......binary<...
|   3360: 02 00 03 01 02 02 00 03 01 02 02 00 03 01 02 02   ................
|   3376: 00 03 01 02 c2 00 03 01 02 02 00 03 01 04 82 00   ................
|   3392: 03 01 02 02 00 03 01 02 02 00 03 01 02 02 00 03   ................
|   3408: 01 02 02 00 03 01 02 02 00 00 08 63 6f 6d 70 69   ...........compi
|   3424: 6c 65 72 09 01 02 00 01 02 00 01 02 00 00 06 64   ler............d
|   3440: 62 73 74 61 74 09 07 03 00 01 03 00 01 03 00 01   bstat...........
|   3456: 04 65 62 75 67 09 04 02 00 01 02 00 01 02 00 00   .ebug...........
|   3472: 06 65 6e 60 62 6c 65 3f 07 02 00 01 02 92 e1 a4   .en`ble?........
|   3488: ff fc a2 8c 95 b2 3f 01 01 f0 f1 02 00 57 02 00   ......?......W..
|   3504: 01 02 00 01 02 00 01 02 00 01 02 00 01 02 10 01   ................
|   3520: 02 00 01 02 00 01 02 00 01 02 01 01 02 00 01 02   ................
|   3536: 00 01 02 00 00 f2 00 01 08 78 74 65 6e 73 69 6f   .........xtensio
|   3552: 6e 09 1f 04 00 01 04 00 01 04 00 00 04 66 74 73   n............fts
|   3568: 34 09 0a 03 00 01 03 00 01 03 00 03 01 35 09 0d   4............5..
|   3584: 03 00 01 03 00 01 03 00 00 03 67 63 63 09 01 03   ..........gcc...
|   3600: 00 01 03 00 01 03 00 01 06 65 5f 70 6f 6c 79 09   .........e_poly.
|   3616: 10 03 00 01 03 00 01 03 00 00 b3 6a 73 6f 6e 31   ...........json1
|   3632: 09 13 03 00 01 03 00 01 03 00 00 04 6c 6f 61 64   ............load
|   3648: 09 1f 03 00 01 03 00 01 03 00 00 03 6d 61 78 09   ............max.
|   3664: 1c 02 00 01 02 00 01 02 00 01 05 65 6d 6f 72 79   ...........emory
|   3680: 09 1c 03 00 01 03 00 01 03 00 03 04 73 79 73 35   ............sys5
|   3696: 09 16 03 00 01 03 00 01 03 cc 00 06 6e 6f 63 61   ............noca
|   3712: 73 65 3c 02 01 02 02 00 03 01 02 02 00 03 01 02   se<.............
|   3728: 02 00 03 01 02 02 00 03 01 02 02 00 03 01 02 02   ................
|   3744: 00 03 01 02 02 00 03 01 02 02 00 03 01 02 02 00   ................
|   3760: 03 01 02 02 00 03 01 02 02 00 03 01 02 02 00 00   ................
|   3776: 04 6f 6d 69 74 09 1f 02 00 01 02 00 01 02 00 00   .omit...........
|   3792: 05 72 74 62 65 65 09 19 03 00 01 03 00 01 03 00   .rtbee..........
|   3808: 03 02 69 6d 3c 01 01 02 02 00 03 01 02 02 00 03   ..im<...........
|   3824: 01 02 02 00 03 01 02 02 00 03 01 02 02 00 03 01   ................
|   3840: 02 02 00 03 01 02 02 00 03 01 02 02 00 03 01 02   ................
|   3856: 02 00 03 01 02 02 00 03 01 02 01 00 03 01 02 02   ................
|   3872: 00 00 0a 74 68 72 65 61 64 73 61 66 65 09 22 02   ...threadsafe...
|   3888: 00 01 02 00 02 02 00 00 04 76 74 61 62 09 07 04   .........vtab...
|   3904: 00 01 03 00 01 04 00 00 01 78 b4 01 01 01 01 02   .........x......
|   3920: 00 01 01 01 02 00 01 01 01 02 00 01 01 01 02 00   ................
|   3936: 01 01 01 02 00 01 01 01 02 00 01 01 01 02 00 01   ................
|   3952: 01 01 02 00 01 01 01 02 00 01 01 01 02 00 01 01   ................
|   3968: 01 02 00 01 01 01 02 00 01 01 01 02 00 01 01 01   ................
|   3984: 02 01 01 01 01 02 00 01 01 01 02 00 01 01 01 02   ................
|   4000: 00 01 01 01 02 00 01 01 01 02 00 01 01 01 02 00   ................
|   4016: 01 01 01 02 00 01 01 01 02 00 01 01 01 02 00 01   ................
|   4032: 01 01 02 00 01 01 01 da 00 00 f1 01 02 00 01 01   ................
|   4048: 01 02 00 01 01 01 01 ff ff 01 01 02 00 01 01 01   ................
|   4064: 02 00 01 01 01 02 00 01 01 01 02 00 01 01 01 02   ................
|   4080: 00 01 01 01 02 00 01 01 01 02 00 01 01 01 02 00   ................
| page 6 offset 20480
|      0: 0a 00 00 00 02 0f f5 00 0f fb 0f f5 01 00 00 00   ................
|   4080: 00 00 00 00 00 05 04 08 09 01 02 04 04 08 08 09   ................
| end crash-1cc4f8a70485ce.db
}]} {}

do_execsql_test 38.1 {
  UPDATE t1 SET b=a;
}

do_catchsql_test 38.2 {
  SELECT b FROM t1 WHERE a MATCH 'e*e*e*e*e*e*e*e*e*e*e*e*e*e*e*e*'
} {1 {database disk image is malformed}}

#-------------------------------------------------------------------------
reset_db
set saved $sqlite_fts3_enable_parentheses
set sqlite_fts3_enable_parentheses 1
do_execsql_test 39.0 {
  CREATE VIRTUAL TABLE t0 USING fts3(
    col0 INTEGER PRIMARY KEY,
    col1 VARCHAR(8),
    col2 BINARY,
    col3 BINARY
  );
  INSERT INTO t0_content VALUES(1,1,'1234','aaaa','bbbb');
  INSERT INTO t0_segdir VALUES(0,0,0,0,'0 42',X'000131030782000103323334050101010200000461616161050101020200000462626262050101030200');
}

do_test 39.1 {
  catch {
    db eval { SELECT rowid FROM t0 WHERE t0 MATCH '1 NEAR 1' }
  }
} 0

do_test 39.2 {
  catch {
    db eval {
  SELECT matchinfo(t0,'yxy') FROM t0 WHERE t0 MATCH x'2b0a312b0a312a312a2a0b5d0a0b0b0a312a0a0b0b0a312a0b310a392a0b0a27312a2a0b5d0a312a0b310a31315d0b310a312a316d2a0b313b15bceaa50a312a0b0a27312a2a0b5d0a312a0b310a312b0b2a310a312a0b2a0b2a0b2e5d0a0bff313336e34a2a312a0b0a3c310b0a0b4b4b0b4b2a4bec40322b2a0b310a0a312a0a0a0a0a0a0a0a0a0b310a312a2a2a0b5d0a0b0b0a312a0b310a312a0b0a4e4541530b310a5df5ced70a0a0a0a0a4f520a0a0a0a0a0a0a312a0b0a4e4541520b310a5d616161610a0a0a0a4f520a0a0a0a0a0a312b0a312a312a0a0a0a0a0a0a004a0b0a310b220a0b0a310a4a22310a0b0a7e6fe0e0e030e0e0e0e0e01176e02000e0e0e0e0e01131320226310a0b0a310a4a22310a0b0a310a766f8b8b4ee0e0300ae0090909090909090909090909090909090909090909090909090909090909090947aaaa540b09090909090909090909090909090909090909090909090909090909090909fae0e0f2f22164e0e0f273e07fefefef7d6dfafafafa6d6d6d6d';
    }
  }
} 0
set sqlite_fts3_enable_parentheses $saved

#-------------------------------------------------------------------------
reset_db
set saved $sqlite_fts3_enable_parentheses
set sqlite_fts3_enable_parentheses 1

do_execsql_test 40.1 {

  CREATE VIRTUAL TABLE t0 USING fts3(col0 INTEGER PRIMARY KEY, col1, col2 ,col3 );
  INSERT INTO t0_segdir VALUES(0,0,0,0,'0 42',
      X'0001310301020001033233340500010102000004616161bc050101020200000462626262050101030200'
  );
}

do_execsql_test 40.2 {
  SELECT 0==matchinfo(t0,'sx') FROM t0 WHERE t0 MATCH '1* 2 3 4 5 6 OR 1';
} 0

set sqlite_fts3_enable_parentheses $saved

#-------------------------------------------------------------------------
reset_db
do_execsql_test 41.1 {
  CREATE VIRTUAL TABLE t1 USING fts3(a,b,c);
  INSERT INTO t1_segdir VALUES(0,0,0,0,'0 835',X'000130120106000106000106001f030001030001030000083230313630363039090107000107000107000001340901050001050001050000013509010400010400010400010730303030303030091c0400010400010400000662696e6172793c0301020200030102020003010202000301020200030102020003010202000301020200030102020003010202000301020200030102020003010202000008636f3870696c657209010200010200010200000664627374617409070300010300010300010465627567090402000102000102000006656e61626c653f07020001020001020001020001020001020001020001020001020001030001010002020001020001020001020001120001020001020001020001020001020001087874656e73696f6e091f0400010400010400000466747334090a0300010300010400030135090d03000103000103000003676363090103000103000103000106656f706f6c790910030001030001030000056a736f6e310913030001030001030000046c6f6164091f030001030001030000036d6178091c02000102000102000105656d6f7279091c03000103000103000304737973350916030001030001030000066e6f636173653c02010202000301020200030102020003010202000301020200030102020003010202000301020200030102020003010202000301020200030102020000046f6d6974091f020001020001020000057274726565091903000103000103000302696d3c010102020003010202000301020200030102020003010202000301020200030102020003010202000301020200030102020003010202000301020200000a746872656164736166650922020001020001020000047674616209070400010400010400000178b401010101020001010102000101010200010101020001010102000101010200010101020001010102000101010200010101020001010102000101010200010101020001010102000101010200010101020001010102000101010200010101020001010102000101010200010101020001010102000101010200010101020001010102000101010200010101020001010102000101010200010101020001010102000101010200010101020001010102000101010200');
}

do_execsql_test 41.2 {
  SELECT offsets(t1) FROM t1 WHERE t1 MATCH 'rtree ner "json1^enable"';
}

#-------------------------------------------------------------------------
do_execsql_test 42.1 {
  CREATE VIRTUAL TABLE f USING fts3(a, b);
}
do_execsql_test 42.2 {
  INSERT INTO f_segdir VALUES(0,2,1111,0,0,X'00');
  INSERT INTO f_segdir VALUES(0,3,0   ,0,0,X'00013003010200');
}
do_execsql_test 42.3 {
  INSERT INTO f(f) VALUES ('merge=107,2');
}

#-------------------------------------------------------------------------
reset_db
set saved $sqlite_fts3_enable_parentheses
set sqlite_fts3_enable_parentheses 1
do_execsql_test 43.1 {
  CREATE VIRTUAL TABLE def USING fts3(xyz);
  INSERT INTO def_segdir VALUES(0,0,0,0,0, X'0001310301c9000103323334050d81');
} {}

do_execsql_test 43.2 {
  SELECT rowid FROM def WHERE def MATCH '1 NEAR 1'
} {1}

set sqlite_fts3_enable_parentheses $saved

#-------------------------------------------------------------------------
reset_db
do_execsql_test 44.1 {
  CREATE VIRTUAL TABLE t0 USING fts3(col0 INTEGER PRIMARY KEY,col1 VARCHAR(8),col2 BINARY,col3 BINARY);
  INSERT INTO t0_content VALUES(0,NULL,NULL,NULL,NULL);
  INSERT INTO t0_segdir VALUES(0,0,0,0,'0 42',X'00013103010200010332333405010201ba00000461616161050101020200000462626262050101030200');
}

do_execsql_test 44.2 {
  SELECT matchinfo(t0, t0) IS NULL FROM t0 WHERE t0 MATCH '1*'
} {0}

#-------------------------------------------------------------------------
#
reset_db
do_test 45.0 {
  sqlite3 db {}
  db deserialize [decode_hexdb {
.open --hexdb
| size 24576 pagesize 4096 filename crash-65c98512cc9e49.db
| page 1 offset 0
|      0: 53 51 4c 69 74 65 20 66 6f 72 6d 61 74 20 33 00   SQLite format 3.
|     16: 10 00 01 01 00 40 20 20 00 00 00 00 00 00 00 06   .....@  ........
|     96: 00 00 00 00 0d 0e fc 00 06 0d bc 00 0f ca 0f 6c   ...............l
|    112: 0f 04 0e 13 0e c9 0d bc 00 00 00 00 00 00 00 00   ................
|   3504: 00 00 00 00 00 00 00 00 00 00 00 00 55 06 07 17   ............U...
|   3520: 1b 1b 01 81 01 74 61 62 6c 65 78 31 5f 73 74 61   .....tablex1_sta
|   3536: 74 78 31 5f 73 74 61 74 06 43 52 45 41 54 45 20   tx1_stat.CREATE 
|   3552: 54 41 42 4c 45 20 27 78 31 5f 73 74 61 74 27 28   TABLE 'x1_stat'(
|   3568: 69 64 20 49 4e 54 45 47 45 52 20 50 52 49 4d 41   id INTEGER PRIMA
|   3584: 52 59 20 4b 45 59 2c 20 76 61 6c 75 65 20 42 4c   RY KEY, value BL
|   3600: 41 82 29 81 33 04 07 17 1f 1f 01 82 35 74 61 62   A.).3.......5tab
|   3616: 6c 65 78 31 5f 73 65 67 64 69 72 78 31 5f 73 65   lex1_segdirx1_se
|   3632: 67 64 69 72 04 43 52 45 41 54 45 20 54 41 42 4c   gdir.CREATE TABL
|   3648: 45 20 27 78 31 5f 73 65 67 64 69 72 27 28 6c 65   E 'x1_segdir'(le
|   3664: 76 65 6c 20 49 4e 54 45 47 45 52 2c 69 64 78 20   vel INTEGER,idx 
|   3680: 49 4e 54 45 47 45 52 2c 73 74 61 72 74 5f 62 6c   INTEGER,start_bl
|   3696: 6f 63 6b 20 49 4e 54 45 47 45 52 2c 6c 65 61 76   ock INTEGER,leav
|   3712: 65 73 5f 65 6e 64 5f 62 6c 6f 63 6b 20 49 4e 54   es_end_block INT
|   3728: 45 47 45 52 2c 65 6e 64 5f 62 6c 6f 63 6b 20 49   EGER,end_block I
|   3744: 4e 54 45 47 45 52 2c 72 6f 6f 74 20 42 4c 4f 42   NTEGER,root BLOB
|   3760: 2c 50 52 49 4d 41 52 59 20 4b 45 59 28 6c 65 76   ,PRIMARY KEY(lev
|   3776: 65 6c 2c 20 69 64 78 29 29 31 05 06 17 45 1f 01   el, idx))1...E..
|   3792: 00 69 6e 64 65 78 73 71 6c 69 74 65 5f 61 75 74   .indexsqlite_aut
|   3808: 6f 69 6e 64 65 78 5f 78 31 5f 73 65 67 64 69 72   oindex_x1_segdir
|   3824: 5f 31 78 31 5f 73 65 67 64 69 72 05 00 00 00 08   _1x1_segdir.....
|   3840: 60 00 00 00 66 03 07 17 23 23 01 81 13 74 61 62   `...f...##...tab
|   3856: 6c 65 78 31 5f 73 65 67 6d 65 6e 74 73 78 31 5f   lex1_segmentsx1_
|   3872: 73 65 67 6d 65 6e 74 73 03 43 52 45 41 54 45 20   segments.CREATE 
|   3888: 54 41 42 4c 45 20 27 78 31 5f 73 65 67 6d 65 6e   TABLE 'x1_segmen
|   3904: 74 73 27 28 62 6c 6f 63 6b 69 64 20 49 4e 54 45   ts'(blockid INTE
|   3920: 47 45 52 20 50 52 49 4d 41 52 59 20 4b 45 59 2c   GER PRIMARY KEY,
|   3936: 20 62 6c 6f 63 6b 20 42 4c 4f 42 29 5c 02 07 17    block BLOB)....
|   3952: 21 21 01 81 03 74 61 62 6c 65 78 31 5f 63 6f 6e   !!...tablex1_con
|   3968: 74 65 6e 74 78 31 5f 63 6f 6e 74 65 6e 74 02 43   tentx1_content.C
|   3984: 52 45 41 54 45 20 54 41 42 4c 45 20 27 78 31 5f   REATE TABLE 'x1_
|   4000: 63 6f 6e 74 65 6e 74 27 28 64 6f 63 69 64 20 49   content'(docid I
|   4016: 4e 54 45 47 45 52 20 50 52 49 4d 41 52 59 20 4b   NTEGER PRIMARY K
|   4032: 45 59 2c 20 27 63 30 78 27 29 34 01 06 17 11 11   EY, 'c0x')4.....
|   4048: 08 57 74 61 62 6c 65 78 31 78 31 43 52 45 41 54   .Wtablex1x1CREAT
|   4064: 45 20 56 49 52 54 55 41 4c 20 54 41 42 4c 45 20   E VIRTUAL TABLE 
|   4080: 78 31 20 55 53 49 4e 47 20 66 74 73 33 28 78 29   x1 USING fts3(x)
| page 2 offset 4096
|      0: 0d 00 00 00 11 0f 77 f0 0f f8 0f f0 0f e8 0f e0   ......w.........
|     16: 0f d8 0f d0 0f c8 0f c0 00 00 00 00 00 00 00 00   ................
|   3952: 00 00 00 00 00 00 00 00 06 11 03 00 13 77 78 79   .............wxy
|   3968: 06 10 03 00 13 74 75 76 06 0f 03 00 13 71 33 73   .....tuv.....q3s
|   3984: 06 0e 03 00 13 6e 6f 70 06 0d 03 00 13 6b 6c 6d   .....nop.....klm
|   4000: 06 0c 03 04 c3 68 69 6a 06 0b 03 00 13 65 66 67   .....hij.....efg
|   4016: 06 0a 03 00 13 62 63 64 06 09 03 00 13 79 7a 61   .....bcd.....yza
|   4032: 06 08 03 00 13 76 77 78 06 07 03 00 13 73 74 75   .....vwx.....stu
|   4048: 06 06 03 00 13 70 71 72 06 05 03 00 13 6d 6e 6f   .....pqr.....mno
|   4064: 06 03 03 00 13 6a 6b 6c 06 03 03 00 13 67 68 69   .....jkl.....ghi
|   4080: 06 02 02 00 03 64 65 66 06 01 03 00 13 61 52 63   .....def.....aRc
| page 3 offset 8192
|      0: 0d 00 00 00 03 0f a7 00 0f b5 0f a7 0f fa 01 00   ................
|   4000: 00 00 00 00 00 00 00 0c 02 03 00 1e 00 03 6b 6c   ..............kl
|   4016: 6d 03 0d 02 00 43 01 04 00 81 0a 00 03 61 62 63   m....C.......abc
|   4032: 03 0b 32 00 00 03 62 63 64 03 0a 02 00 00 03 64   ..2...bcd......d
|   4048: 69 26 03 02 02 00 00 03 65 66 67 03 0b 02 00 00   i&......efg.....
|   4064: 03 67 68 69 03 03 02 00 00 03 68 69 6a 03 0c 02   .ghi......hij...
|   4080: 00 00 03 6a 6a 2c 03 04 02 00 03 81 00 03 00 00   ...jj,..........
| page 4 offset 12288
|      0: 0d 0f 3a 00 05 0f 25 00 0f 9e 0f 88 0f 43 0f 25   ..:...%......C.%
|     16: 0f 72 00 00 00 00 00 00 00 00 00 00 00 00 00 00   .r..............
|   3856: 00 00 00 00 00 00 00 00 00 56 01 08 08 13 1e 03   .........V......
|   3872: 30 20 39 00 03 13 05 07 08 08 18 08 13 1e 30 20   0 9...........0 
|   3888: 39 00 03 77 78 79 03 11 02 00 0f 6c 00 09 01 08   9..wxy.....l....
|   3904: 08 15 54 27 04 07 09 01 08 08 15 42 02 30 20 33   ..T'.......B.0 3
|   3920: 36 00 03 6e 6f 70 03 0e 02 00 00 03 71 72 73 03   6..nop......qrs.
|   3936: 0f 02 00 00 03 74 75 76 03 10 02 00 0f cf b1 06   .....tuv........
|   3952: 01 08 14 06 07 01 08 09 01 1b 14 02 02 31 32 38   .............128
|   3968: 20 2d 37 32 10 01 01 6b 14 03 07 09 09 08 08 15    -72...k........
|   3984: 1e 30 20 33 36 00 03 79 7a 61 03 09 02 00 2f 02   .0 36..yza..../.
|   4000: 07 09 08 08 08 15 54 30 20 33 36 00 03 6d 6e 6f   ......T0 36..mno
|   4016: 03 05 02 00 00 03 70 71 72 03 06 02 00 00 03 73   ......pqr......s
|   4032: 74 75 03 07 02 00 00 03 76 77 78 03 08 02 00 00   tu......vwx.....
|   4048: 00 00 4a 08 08 08 15 54 30 20 33 36 00 03 61 62   ..J....T0 36..ab
|   4064: 63 03 01 02 00 00 03 64 65 66 03 02 02 00 00 03   c......def......
|   4080: 67 68 69 03 03 67 00 00 03 6a 6b 6c 03 04 02 00   ghi..g...jkl....
| page 5 offset 16384
|      0: 0a 0f e7 00 05 0f da 00 0f e1 0f fa 0f f4 0f ed   ................
|     16: 0f da 0f 00 00 00 00 00 00 00 00 00 00 00 00 00   ................
|   4048: 00 00 00 00 00 00 00 1a 01 03 06 04 01 08 01 02   ................
|   4064: 06 05 04 08 08 01 05 00 00 00 06 01 03 06 04 09   ................
|   4080: 02 01 02 04 05 04 09 09 01 03 05 04 09 08 01 02   ................
| page 6 offset 20480
|      0: 0d 00 10 00 01 0f f9 00 0f f9 00 00 00 00 00 00   ................
|   4080: 00 00 00 00 00 00 00 00 00 05 01 03 00 10 01 03   ................
| end crash-65c98512cc9e49.db
}]} {}

do_catchsql_test 45.2 {
  INSERT INTO x1(x1) VALUES( 'merge=1' )
} {1 {database disk image is malformed}}

#-------------------------------------------------------------------------
reset_db
set saved $sqlite_fts3_enable_parentheses
set sqlite_fts3_enable_parentheses 1
do_execsql_test 46.1 {
  CREATE VIRTUAL TABLE t0 USING fts3(a INTEGER PRIMARY KEY,b,c,d);
  INSERT INTO t0_segdir VALUES(0,0,0,0,'0 42',X'0001310301c9000103323334050d8000f200000461616161050101020200000462626262050101030200');
} {}

do_catchsql_test 46.2 {
  SELECT * FROM t0
    WHERE t0 MATCH x'2b0a312b0a312a312a2a0b5d0a0b0b0a312a0a0b0b0a312a0b310a392a0b0a27312a2a0b5d0a312a0b310a31315d0b310a312a316d2a0b313b15bceaa50a312a0b0a27312a2a0b5d0a312a0b310a312b0b2a310a312a0b2a0b2a0b2e5d0a0bff313336e34a2a312a0b0a3c310b0a0b4b4b0b4b2a4bec40322b2a0b310a0a312a0a0a0a0a0a0a0a0a0b310a312a2a2a0b5d0a0b0b0a312a0b310a312a0b0a4e4541530b310a5df5ced70a0a0a0a0a4f520a0a0a0a0a0a0a312a0b0a4e4541520b310a5d616161610a0a0a0a4f520a0a0a0a0a0a312b0a312a312a0a0a0a0a0a0a004a0b0a310b220a0b0a310a4a22310a0b0a7e6fe0e0e030e0e0e0e0e01176e02000e0e0e0e0e01131320226310a0b0a310a4a22310a0b0a310a766f8b8b4ee0e0300ae0090909090909090909090909090909090909090909090909090909090909090947aaaa540b09090909090909090909090909090909090909090909090909090909090909fae0e0f2f22164e0e0f273e07fefefef7d6dfafafafa6d6d6d6d';
} {1 {database disk image is malformed}}

set sqlite_fts3_enable_parentheses $saved
extra_schema_checks 1

#-------------------------------------------------------------------------
reset_db
do_execsql_test 47.1 {
  CREATE VIRTUAL TABLE t1 USING fts3(a,b,c);
}
do_execsql_test 47.2 {
  INSERT INTO t1_segdir VALUES(0,0,0,0,0,X'000130120106000106000106001f030001030001030000083230313630363039090107000107000107000001340901050001050001050000013509010400010400010400010730303030303030091c0400010400010400000662696e6172793c0301020200030102020003010202000301020200030102020003010202000301020200030102020003010202000301020200030102020003010202000008636f6d70696c657209010200010200010200000664627374617409070300010300010300010465627567090402000102000102000006656e61626c653f07020001020001020001020001020001020001020001020001020001020001020001020001010001020001020001020001020001020001020001020001020001087874656e73696f6e091f0400010400010400000466747334090a0300010300010300030135090d03000103000103000003676363090103000103000103000106656f706f6c790910030001030001030000056a736f6e310913030001030001030000046c6f6164091f030001030001030000036d6178091c02000102000102000105656d6f7279091c03000103000103000304737973350916030001030001030000066e6f636173653c02010202000301020200030102020003010202000301020200030102020003010202000301020200030102020003010202000301020200030102020000046f6d6974091f020001020001020000057274726565091903000103000103000302696d3c01010202000301020200030102020003010202000301020200030102020003010202000301a202000301020200030102020003010202000301020200000a746872656164736166650922020001020001020000047674616209070400010400010400000178b401010101020001010102000101010200010101020001010102000101010200010101020001010102000101010200010101020001010102000101010200010101020001010102000101010200010101020001010102000101010200010101020001010102000101010200010101020001010102000101010200010101020001010102000101010200010101020001010102000101010200010101020001010102000101010200010101020001010102000101010200');
  INSERT INTO t1_segdir VALUES(0,1,0,0,0,X'0001300425061b000008323031363036303903250700000134032505000001350325040001073030303030303003251a000008636f6d70696c657203250200000664627374617403250a00010465627567032508000006656e61626c650925090504040404040001087874656e73696f6e03251d0000046674733403250d0003013503250f000003676363032503000106656f706f6c790325110000056a736f6e310325130000046c6f616403251c0000036d6178032518000105656d6f7279032519000304737973350325150000046f6d697403251b000005727472656503251700000a7468726561647361666503251e0000047674616333250b00');
}

do_catchsql_test 47.3 {
  SELECT matchinfo(t1) FROM t1 WHERE t1 MATCH '"json1 enable"';
} {1 {database disk image is malformed}}

#-------------------------------------------------------------------------
#
reset_db
do_test 48.0 {
  sqlite3 db {}
  db deserialize [decode_hexdb {
.open --hexdb
| size 20480 pagesize 4096 filename sql038051.txt.db
| page 1 offset 0
|      0: 53 51 4c 69 74 65 20 66 6f 72 6d 61 74 20 33 00   SQLite format 3.
|     16: 10 00 01 01 00 40 20 20 00 00 00 00 00 00 00 00   .....@  ........
|     96: 00 00 00 00 0d 0e fc 00 05 0e 13 00 0f ca 0f 6c   ...............l
|    112: 0f 04 0e 13 0e c9 00 00 00 00 00 00 00 00 00 00   ................
|   3600: 00 00 00 81 33 04 07 17 1f 1f 01 82 35 74 61 62   ....3.......5tab
|   3616: 6c 65 78 31 5f 73 65 67 64 69 72 78 31 5f 73 65   lex1_segdirx1_se
|   3632: 67 64 69 72 04 43 52 45 41 54 45 20 54 41 42 4c   gdir.CREATE TABL
|   3648: 45 20 27 78 31 5f 73 65 67 64 69 72 27 28 6c 65   E 'x1_segdir'(le
|   3664: 76 65 6c 20 49 4e 54 45 47 45 52 2c 69 64 78 20   vel INTEGER,idx 
|   3680: 49 4e 54 45 47 45 52 2c 73 74 61 72 74 5f 62 6c   INTEGER,start_bl
|   3696: 6f 63 6b 20 49 4e 54 45 47 45 52 2c 6c 65 61 76   ock INTEGER,leav
|   3712: 65 73 5f 65 6e 64 5f 62 6c 6f 63 6b 20 49 4e 54   es_end_block INT
|   3728: 45 47 45 52 2c 65 6e 64 5f 62 6c 6f 63 6b 20 49   EGER,end_block I
|   3744: 4e 54 45 47 45 52 2c 72 6f 6f 74 20 42 4c 4f 42   NTEGER,root BLOB
|   3760: 2c 50 52 49 4d 41 52 59 20 4b 45 59 28 6c 65 76   ,PRIMARY KEY(lev
|   3776: 65 6c 2c 20 69 64 78 29 29 31 05 06 17 45 1f 01   el, idx))1...E..
|   3792: 00 69 6e 64 65 78 73 71 6c 69 74 65 5f 61 75 74   .indexsqlite_aut
|   3808: 6f 69 6e 64 65 78 5f 78 31 5f 73 65 67 64 69 72   oindex_x1_segdir
|   3824: 5f 31 78 31 5f 73 65 67 64 69 72 05 00 00 00 08   _1x1_segdir.....
|   3840: 00 00 00 00 66 03 07 17 23 23 01 81 13 74 61 62   ....f...##...tab
|   3856: 6c 65 78 31 5f 73 65 67 6d 65 6e 74 73 78 31 5f   lex1_segmentsx1_
|   3872: 73 65 67 6d 65 6e 74 73 03 43 52 45 41 54 45 20   segments.CREATE 
|   3888: 54 41 42 4c 45 20 27 78 31 5f 73 65 67 6d 65 6e   TABLE 'x1_segmen
|   3904: 74 73 27 28 62 6c 6f 63 6b 69 64 20 49 4e 54 45   ts'(blockid INTE
|   3920: 47 45 52 20 50 52 49 4d 41 52 59 20 4b 45 59 2c   GER PRIMARY KEY,
|   3936: 20 62 6c 6f 63 6b 20 42 4c 4f 42 29 5c 02 07 17    block BLOB)....
|   3952: 21 21 01 81 03 74 61 62 6c 65 78 31 5f 63 6f 6e   !!...tablex1_con
|   3968: 74 65 6e 74 78 31 5f 63 6f 6e 74 65 6e 74 02 43   tentx1_content.C
|   3984: 52 45 41 54 45 20 54 41 42 4c 45 20 27 78 31 5f   REATE TABLE 'x1_
|   4000: 63 6f 6e 74 65 6e 74 27 28 64 6f 63 69 64 20 49   content'(docid I
|   4016: 4e 54 45 47 45 52 20 50 52 49 4d 41 52 59 20 4b   NTEGER PRIMARY K
|   4032: 45 59 2c 20 27 63 30 78 27 29 34 01 06 17 11 11   EY, 'c0x')4.....
|   4048: 08 57 74 61 62 6c 65 78 31 78 31 43 52 45 41 54   .Wtablex1x1CREAT
|   4064: 45 20 56 49 52 54 55 41 4c 20 54 41 42 4c 45 20   E VIRTUAL TABLE 
|   4080: 78 31 20 55 53 49 4e 47 20 66 74 73 33 28 78 29   x1 USING fts3(x)
| page 2 offset 4096
|      0: 0d 00 00 00 00 00 00 00 00 00 00 00 00 00 00 00   ................
|   3920: 00 00 00 2e 04 03 00 63 62 72 61 69 6e 73 74 65   .......cbrainste
|   3936: 6d 20 62 72 61 69 6e 73 74 65 6d 73 20 62 72 61   m brainstems bra
|   3952: 69 6e 73 74 6f 72 6d 20 62 72 61 69 6e 73 74 6f   instorm brainsto
|   3968: 72 6d 73 2b 03 03 00 5d 62 72 61 69 6e 20 62 72   rms+...]brain br
|   3984: 61 69 6e 63 68 69 6c 64 20 62 72 61 69 6e 65 64   ainchild brained
|   4000: 20 62 72 61 69 6e 69 6e 67 20 62 72 61 69 6e 73    braining brains
|   4016: 26 02 03 00 53 62 72 61 67 73 20 62 72 61 69 64   &...Sbrags braid
|   4032: 20 62 72 61 69 64 65 64 20 62 72 61 69 64 69 6e    braided braidin
|   4048: 67 20 62 72 61 69 64 73 26 01 03 00 53 62 72 61   g braids&...Sbra
|   4064: 65 73 20 62 72 61 67 20 62 72 61 67 67 65 64 20   es brag bragged 
|   4080: 62 72 61 c3 67 65 72 20 62 72 61 67 67 69 6e 67   bra.ger bragging
| page 3 offset 8192
|      0: 0d 00 00 00 00 01 00 00 00 00 00 00 00 00 00 00   ................
| page 4 offset 12288
|      0: 0d 00 00 00 04 0f 20 00 0f c8 0f 90 0f 54 0f 20   ...... ......T. 
|   3872: 32 04 07 08 01 08 08 15 58 03 30 20 33 38 00 09   2.......X.0 38..
|   3888: 62 72 61 69 6e 73 74 65 6d 03 04 02 00 09 01 73   brainstem......s
|   3904: 03 04 03 00 07 03 6f 72 6d 03 04 04 00 0a 01 73   ......orm......s
|   3920: 03 04 05 00 3a 03 07 08 01 08 08 15 68 02 30 20   ....:.......h.0 
|   3936: 34 36 00 05 62 72 61 69 6e 03 03 02 00 05 05 63   46..brain......c
|   3952: 68 69 6c 64 03 03 03 00 05 02 65 64 03 03 04 00   hild......ed....
|   3968: 05 03 69 6e 67 03 03 05 00 05 01 73 03 03 06 00   ..ing......s....
|   3984: 36 02 07 08 09 08 08 15 62 30 20 34 33 00 05 62   6.......b0 43..b
|   4000: 72 61 67 73 03 02 02 00 03 02 69 64 03 02 03 00   rags......id....
|   4016: 05 02 65 64 03 02 04 00 05 03 69 6e 67 03 02 05   ..ed......ing...
|   4032: 00 05 01 73 03 02 06 00 36 01 07 08 08 08 08 15   ...s....6.......
|   4048: 62 30 20 34 33 00 05 62 72 61 65 73 03 01 02 00   b0 43..braes....
|   4064: 03 01 68 03 01 03 00 04 03 67 65 74 03 01 04 00   ..h......get....
|   4080: 06 01 72 03 01 05 00 05 03 69 6e 67 03 01 06 00   ..r......ing....
| page 5 offset 16384
|      0: 0a 00 00 00 04 0f e7 00 0f fb 0f f5 0f ee 0f e7   ................
|   4064: 00 00 00 00 00 00 00 06 04 08 01 01 03 04 06 04   ................
|   4080: 08 01 01 02 03 05 04 08 09 01 02 04 04 08 08 09   ................
| end sql038051.txt.db
}]} {}

do_catchsql_test 48.1 {
  INSERT INTO x1(x1) VALUES('nodesize=24'),('merge=3,4');
  INSERT INTO x1(x1) VALUES( 'merge=3,4' ),('merge=3,4');
} {1 {database disk image is malformed}}

#-------------------------------------------------------------------------
#
reset_db
do_test 49.0 {
  sqlite3 db {}
  db deserialize [decode_hexdb {
.open --hexdb
| size 28672 pagesize 4096 filename crash-58821b8eae6883.db
| page 1 offset 0
|      0: 53 51 4c 69 74 65 20 66 6f 72 6d 61 74 20 33 00   SQLite format 3.
|     16: 10 00 01 01 00 40 20 20 00 00 00 00 00 00 00 07   .....@  ........
|     32: 00 00 00 00 00 00 00 00 00 00 00 06 00 00 00 04   ................
|     96: 00 00 00 00 0d 0e ef 00 07 0d 4d 00 0f bd 0f 5f   ..........M...._
|    112: 0e f7 0e 06 0e bc 0d a4 0d 4d 00 00 00 00 00 00   .........M......
|   3392: 00 00 00 00 00 00 00 00 00 00 00 00 00 55 07 07   .............U..
|   3408: 17 1b 1b 01 81 01 74 61 62 6c 65 74 31 5f 73 74   ......tablet1_st
|   3424: 61 74 74 31 5f 73 74 61 74 07 43 52 45 41 54 45   att1_stat.CREATE
|   3440: 20 54 41 42 4c 45 20 27 74 31 5f 73 74 61 74 27    TABLE 't1_stat'
|   3456: 28 69 64 20 49 4e 54 45 47 45 52 20 50 52 49 4d   (id INTEGER PRIM
|   3472: 41 52 59 20 4b 45 59 2c 20 76 61 6c 75 65 20 42   ARY KEY, value B
|   3488: 4c 4f 42 29 60 06 07 17 21 21 01 81 0b 74 61 62   LOB)`...!!...tab
|   3504: 6c 65 74 31 5f 64 6f 63 73 69 7a 65 74 31 5f 64   let1_docsizet1_d
|   3520: 6f 63 73 69 7a 65 06 43 52 45 41 54 45 20 54 41   ocsize.CREATE TA
|   3536: 42 4c 45 20 27 74 31 5f 64 6f 63 73 69 7a 65 27   BLE 't1_docsize'
|   3552: 28 64 6f 63 69 64 20 49 4e 54 45 47 45 52 20 50   (docid INTEGER P
|   3568: 52 49 4d 41 52 59 20 4b 45 59 2c 20 73 69 7a 65   RIMARY KEY, size
|   3584: 20 42 4c 4f 42 29 81 33 04 07 17 1f 1f 01 82 35    BLOB).3.......5
|   3600: 74 61 62 6c 65 74 31 5f 73 65 67 64 69 72 74 31   tablet1_segdirt1
|   3616: 5f 73 65 67 64 69 72 04 43 52 45 41 54 45 20 54   _segdir.CREATE T
|   3632: 41 42 4c 45 20 27 74 31 5f 73 65 67 64 69 72 27   ABLE 't1_segdir'
|   3648: 28 6c 65 76 65 6c 20 49 4e 54 45 47 45 52 2c 69   (level INTEGER,i
|   3664: 64 78 20 49 4e 54 45 47 45 52 2c 73 74 61 72 74   dx INTEGER,start
|   3680: 5f 62 6c 6f 63 6b 20 49 4e 54 45 47 45 52 2c 6c   _block INTEGER,l
|   3696: 65 61 76 65 73 5f 65 6e 64 5f 62 6c 6f 63 6b 20   eaves_end_block 
|   3712: 49 4e 54 45 47 45 52 2c 65 6e 64 5f 62 6c 6f 63   INTEGER,end_bloc
|   3728: 6b 20 49 4e 54 45 47 45 52 2c 72 6f 6f 74 20 42   k INTEGER,root B
|   3744: 4c 4f 42 2c 50 52 49 4d 41 52 59 20 4b 45 59 28   LOB,PRIMARY KEY(
|   3760: 6c 65 76 65 6c 2c 20 69 64 78 29 29 31 05 06 17   level, idx))1...
|   3776: 45 1f 01 00 69 6e 64 65 78 73 71 6c 69 74 65 5f   E...indexsqlite_
|   3792: 61 75 74 6f 69 6e 64 65 78 5f 74 31 5f 73 65 67   autoindex_t1_seg
|   3808: 64 69 72 5f 31 74 31 5f 73 65 67 64 69 72 05 00   dir_1t1_segdir..
|   3824: 00 00 08 00 00 00 00 66 03 07 17 23 23 01 81 13   .......f...##...
|   3840: 74 61 62 6c 65 74 31 5f 73 65 67 6d 65 6e 74 73   tablet1_segments
|   3856: 74 31 5f 73 65 67 6d 65 6e 74 73 03 43 52 45 41   t1_segments.CREA
|   3872: 54 45 20 54 41 42 4c 45 20 27 74 31 5f 73 65 67   TE TABLE 't1_seg
|   3888: 6d 65 6e 74 73 27 28 62 6c 6f 63 6b 69 64 20 49   ments'(blockid I
|   3904: 4e 54 45 47 45 52 20 f9 52 49 4d 41 52 59 20 4b   NTEGER .RIMARY K
|   3920: 45 59 2c 20 62 6c 6f 63 6b 20 42 4c 4f 42 29 5c   EY, block BLOB).
|   3936: 02 07 17 21 21 01 81 03 74 61 62 6c 65 74 31 5f   ...!!...tablet1_
|   3952: 63 6f 6e 74 65 6e 74 74 31 5f 63 6f 6e 74 65 6e   contentt1_conten
|   3968: 74 02 43 52 45 41 54 45 20 54 41 42 4c 45 20 27   t.CREATE TABLE '
|   3984: 74 31 5f 63 6f 6e 74 65 6e 74 27 28 64 6f 63 69   t1_content'(doci
|   4000: 64 20 49 4e 54 45 47 45 52 20 50 52 49 4d 41 52   d INTEGER PRIMAR
|   4016: 59 20 4b 45 59 2c 20 27 63 30 61 27 29 41 01 06   Y KEY, 'c0a')A..
|   4032: 17 11 11 08 71 74 61 62 6c 65 74 31 74 31 43 52   ....qtablet1t1CR
|   4048: 45 41 54 45 20 56 49 52 54 55 41 4c 20 54 41 42   EATE VIRTUAL TAB
|   4064: 4c 45 20 74 31 20 55 53 49 4e 47 20 66 74 73 34   LE t1 USING fts4
|   4080: 28 61 2c 70 72 65 66 69 78 3d 27 32 2c 32 27 29   (a,prefix='2,2')
| page 2 offset 4096
|      0: 0d 00 00 00 08 0e 1f 00 0f c4 0f 7c 0f 34 0f 07   ...........|.4..
|     16: 0e c3 0e 97 0e 00 00 00 00 00 00 00 00 00 00 00   ................
|   3600: 00 00 00 00 00 00 00 00 00 00 00 00 00 00 00 42   ...............B
|   3616: 08 04 00 81 09 73 75 6e 74 20 69 6e 20 63 75 6c   .....sunt in cul
|   3632: 70 61 20 71 75 69 20 6f 66 66 69 63 69 61 20 64   pa qui officia d
|   3648: 65 73 65 72 75 6e 74 20 6d 6f 6c 6c 69 74 20 61   eserunt mollit a
|   3664: 6e 69 6d 20 69 64 20 65 73 74 20 6c 61 62 6f 72   nim id est labor
|   3680: 75 6d 2e 32 07 03 00 6b 45 78 63 65 70 74 65 75   um.2...kExcepteu
|   3696: 72 20 73 69 6e 74 20 6f 63 63 61 65 63 61 74 20   r sint occaecat 
|   3712: 63 75 70 69 64 61 74 61 74 20 6e 6f 6e 20 70 72   cupidatat non pr
|   3728: 6f 69 64 65 6e 74 2c 2a 06 03 00 5b 63 69 6c 6c   oident,*...[cill
|   3744: 75 6d 20 64 6f 6c 6f 72 65 20 65 75 20 66 75 67   um dolore eu fug
|   3760: 69 61 74 20 6e 75 6c 6c 61 20 70 61 72 69 61 74   iat nulla pariat
|   3776: 75 72 2e 42 05 04 00 81 09 44 75 69 73 20 61 75   ur.B.....Duis au
|   3792: 74 65 20 69 72 75 72 65 20 64 6f 6c 6f 72 20 69   te irure dolor i
|   3808: 6e 20 72 65 70 72 65 68 65 6e 64 65 72 69 74 20   n reprehenderit 
|   3824: 69 6e 20 76 6f 6c 75 70 74 61 74 65 20 76 65 6c   in voluptate vel
|   3840: 69 74 20 65 73 73 65 2b 04 03 00 5d 6e 69 73 69   it esse+...]nisi
|   3856: 20 75 74 20 61 6c 69 71 75 69 70 20 65 78 20 65    ut aliquip ex e
|   3872: 61 20 63 6f 6d 6d 6f 64 6f 20 63 6f 6e 73 65 71   a commodo conseq
|   3888: 75 61 74 2e 46 03 04 00 81 11 55 74 20 65 6e 69   uat.F.....Ut eni
|   3904: 6d 20 61 64 20 6d 69 6e 69 6d 20 76 65 6e 69 61   m ad minim venia
|   3920: 6d 2c 20 71 75 69 73 20 6e 6f 73 74 72 75 64 20   m, quis nostrud 
|   3936: 65 78 65 72 63 69 74 61 74 69 6f 6e 20 75 6c 6c   exercitation ull
|   3952: 61 6d 63 6f 20 6c 61 62 6f 72 69 73 46 02 04 00   amco laborisF...
|   3968: 81 11 73 65 64 20 64 6f 20 65 69 75 73 6d 6f 64   ..sed do eiusmod
|   3984: 20 74 65 6d 70 6f 72 20 69 6e 63 69 64 69 64 75    tempor incididu
|   4000: 6e 74 20 75 74 20 6c 61 62 6f 72 65 20 65 74 20   nt ut labore et 
|   4016: 64 6f 6c 6f 72 65 20 6d 61 67 6e 61 20 61 6c 69   dolore magna ali
|   4032: 71 75 61 2e 3a 01 03 00 7b 4c 6f 72 65 6d 20 69   qua.:....Lorem i
|   4048: 70 73 75 6d 20 64 6f 6c 6f 72 20 73 69 74 20 61   psum dolor sit a
|   4064: 6d 65 74 2c 20 63 6f 6e 73 65 63 74 65 74 75 72   met, consectetur
|   4080: 20 61 64 69 70 69 73 63 69 6e 67 20 65 00 01 00    adipiscing e...
| page 4 offset 12288
|      0: 0d 00 00 00 03 0a a6 00 0d 57 0c 4a 0a a6 00 00   .........W.J....
|   2720: 00 00 00 00 00 00 83 21 03 08 02 08 08 08 17 86   .......!........
|   2736: 30 08 00 30 20 34 30 32 00 02 61 64 06 01 08 00   0..0 402..ad....
|   2752: 02 04 00 01 01 6c 06 02 0c 00 02 04 00 01 01 6d   .....l.........m
|   2768: 03 01 06 00 01 01 6e 03 08 09 00 01 01 75 03 05   ......n......u..
|   2784: 03 00 00 02 63 69 03 06 02 00 01 01 6f 07 01 07   ....ci......o...
|   2800: 00 03 07 03 00 01 01 75 06 07 05 00 01 04 00 00   .......u........
|   2816: 02 64 65 03 08 07 00 01 01 6f 0d 01 04 00 01 03   .de......o......
|   2832: 09 00 03 05 00 01 03 00 01 01 75 03 05 02 00 00   ..........u.....
|   2848: 02 65 61 03 04 06 00 01 01 69 03 02 04 00 01 01   .ea......i......
|   2864: 6c 03 01 09 00 01 01 6e 03 03 03 00 01 01 73 06   l......n......s.
|   2880: 05 0b 00 03 0b 00 01 01 74 03 02 09 00 01 01 75   ........t......u
|   2896: 03 06 04 00 01 01 78 09 03 09 00 01 05 00 03 02   ......x.........
|   2912: 00 00 02 66 75 03 06 05 00 00 02 69 64 03 08 0a   ...fu......id...
|   2928: 00 01 01 6e 0a 02 06 00 03 06 04 00 03 03 00 01   ...n............
|   2944: 01 70 03 01 03 00 01 01 72 03 05 04 00 00 02 6c   .p......r......l
|   2960: 61 09 02 08 00 01 0b 00 05 0c 00 01 01 6f 03 01   a............o..
|   2976: 02 00 00 02 6d 61 03 02 0b 00 01 01 69 03 03 05   ....ma......i...
|   2992: 00 01 01 6f 03 08 08 00 00 02 6e 69 03 04 02 00   ...o......ni....
|   3008: 01 01 6f 06 03 08 00 04 06 00 01 01 75 03 06 06   ..o.........u...
|   3024: 00 00 02 6f 63 03 07 04 00 01 01 66 03 08 06 00   ...oc......f....
|   3040: 00 02 70 61 03 06 07 00 01 01 72 03 07 07 00 00   ..pa......r.....
|   3056: 02 71 75 06 03 07 00 05 05 00 00 02 72 65 03 05   .qu.........re..
|   3072: 07 00 00 02 73 65 03 02 02 00 01 01 69 06 01 05   ....se......i...
|   3088: 00 06 03 00 01 01 75 03 08 02 00 00 02 74 65 03   ......u......te.
|   3104: 02 05 00 00 02 75 6c 03 03 0a 00 01 01 74 09 02   .....ul......t..
|   3120: 07 00 01 02 00 01 03 00 00 02 76 65 06 03 06 00   ..........ve....
|   3136: 02 0a 00 01 01 6f 03 05 09 00 82 0a 02 08 02 08   .....o..........
|   3152: 08 08 17 84 02 04 00 30 20 32 35 31 00 01 61 13   .......0 251..a.
|   3168: 01 06 04 00 01 0c 00 01 04 00 01 04 00 01 03 00   ................
|   3184: 03 09 00 00 01 63 10 01 07 00 03 07 03 00 02 02   .....c..........
|   3200: 00 01 05 00 01 04 00 00 01 64 11 01 04 00 01 03   .........d......
|   3216: 09 00 03 02 05 00 01 03 00 02 07 00 00 01 65 1b   ..............e.
|   3232: 01 09 00 01 04 07 00 01 03 08 00 01 05 03 00 01   ................
|   3248: 0b 00 01 04 00 01 02 00 01 0b 00 00 01 66 03 06   .............f..
|   3264: 05 00 00 01 69 0f 01 03 00 01 06 00 03 04 04 04   ....i...........
|   3280: 00 03 03 09 00 00 01 6c 0c 01 02 00 01 08 00 01   .......l........
|   3296: 0b 00 05 0c 00 00 01 6d 09 02 0b 00 01 05 00 05   .......m........
|   3312: 08 00 00 01 6e 0c 03 08 00 01 02 00 02 06 00 01   ....n...........
|   3328: 06 00 00 01 6f 06 07 04 00 01 06 00 00 01 70 06   ....o.........p.
|   3344: 06 07 00 01 07 00 00 01 71 06 03 07 00 05 05 00   ........q.......
|   3360: 00 01 72 03 05 07 00 00 01 73 0c 01 05 00 01 02   ..r......s......
|   3376: 00 05 03 00 01 02 00 00 01 74 03 02 05 00 00 01   .........t......
|   3392: 75 0a 02 07 00 01 02 0a 00 01 03 00 00 01 76 07   u.............v.
|   3408: 03 06 00 02 09 03 00 85 26 01 08 08 08 08 08 17   ........&.......
|   3424: 8a 3e 30 20 36 36 35 00 02 61 65 03 03 04 00 02   .>0 665..ae.....
|   3440: 08 69 70 69 73 63 69 6e 67 03 01 08 00 01 05 6c   .ipiscing......l
|   3456: 69 71 75 61 03 02 0c 00 05 02 69 70 03 04 04 00   iqua......ip....
|   3472: 01 03 6d 65 74 03 01 06 00 01 03 6e 69 6d 03 08   ..met......nim..
|   3488: 09 00 01 03 75 74 65 03 05 03 00 00 06 63 69 6c   ....ute......cil
|   3504: 6c 75 6d 03 06 02 00 01 06 6f 6d 6d 6f 64 6f 03   lum......ommodo.
|   3520: 04 07 00 02 09 6e 73 65 63 74 65 74 b5 72 03 01   .....nsectet.r..
|   3536: 07 00 05 04 71 75 61 74 03 04 08 00 01 04 75 6c   ....quat......ul
|   3552: 70 61 03 08 04 00 02 07 70 69 64 61 74 61 74 03   pa......pidatat.
|   3568: 07 05 00 00 08 64 65 73 65 72 75 6e 74 03 08 07   .....deserunt...
|   3584: 00 01 01 6f 03 02 03 00 02 03 6c 6f 72 06 01 04   ...o......lor...
|   3600: 00 04 05 00 05 01 65 06 02 0a 00 04 03 00 01 03   ......e.........
|   3616: 75 69 73 03 05 02 00 00 02 65 61 03 04 06 00 01   uis......ea.....
|   3632: 06 69 75 73 6d 6f 64 03 02 04 00 01 03 6c 69 74   .iusmod......lit
|   3648: 03 01 09 00 01 03 6e 69 6d 03 03 03 00 01 03 73   ......nim......s
|   3664: 73 65 03 05 0b 00 02 01 74 03 08 0b 00 01 01 74   se......t......t
|   3680: 03 02 09 00 01 01 75 03 06 04 00 01 01 78 03 04   ......u......x..
|   3696: 05 00 02 07 63 65 70 74 65 75 72 03 07 02 00 02   ....cepteur.....
|   3712: 0a 65 72 63 69 74 61 74 69 6f 6e 03 03 09 00 00   .ercitation.....
|   3728: 06 66 75 67 69 61 74 03 06 05 00 00 02 69 64 03   .fugiat......id.
|   3744: 08 0a 00 01 01 6e 07 05 06 04 00 03 03 00 02 08   .....n..........
|   3760: 63 69 64 69 64 75 6e 74 03 02 06 00 01 04 70 73   cididunt......ps
|   3776: 75 6d 03 01 03 00 01 04 72 75 72 65 03 05 04 00   um......rure....
|   3792: 00 06 6c 61 62 6f 72 65 03 02 08 00 05 02 69 73   ..labore......is
|   3808: 03 03 0b 00 05 02 75 6d 03 08 0c 00 01 04 6f 72   ......um......or
|   3824: 65 6d 03 01 02 00 00 05 6d 61 67 6e 61 03 02 0b   em......magna...
|   3840: 00 01 04 69 6e 69 6d 03 03 05 00 01 05 6f 6c 6c   ...inim......oll
|   3856: 69 74 03 08 08 00 00 04 6e 69 73 69 03 04 02 00   it......nisi....
|   3872: 01 02 6f 6e 03 07 06 00 02 05 73 74 72 75 64 03   ..on......strud.
|   3888: 03 08 00 01 04 75 6c 6c 61 03 06 06 00 00 08 6f   .....ulla......o
|   3904: 63 63 61 65 63 61 74 03 07 04 00 01 06 66 66 69   ccaecat......ffi
|   3920: 63 69 61 03 08 06 00 00 08 70 61 72 69 61 74 75   cia......pariatu
|   3936: 72 03 06 07 00 01 07 72 6f 69 64 65 6e 74 03 07   r......roident..
|   3952: 07 00 00 03 71 75 69 03 08 05 00 03 01 73 03 03   ....qui......s..
|   3968: 07 00 00 0d 72 65 70 72 65 68 65 6e 64 65 72 69   ....reprehenderi
|   3984: 74 03 05 07 00 00 03 73 65 64 03 02 02 00 01 03   t......sed......
|   4000: 69 6e 74 03 07 03 00 02 01 74 03 01 05 00 01 03   int......t......
|   4016: 75 6e 74 03 08 02 00 00 06 74 65 6d 70 6f 72 03   unt......tempor.
|   4032: 02 05 00 00 07 75 6c 6c 61 6d 63 6f 03 03 0a 00   .....ullamco....
|   4048: 01 01 74 09 02 07 00 01 02 00 01 03 00 00 05 76   ..t............v
|   4064: 65 6c 69 74 03 05 0a 00 02 04 6e 69 61 6d 03 03   elit......niam..
|   4080: 06 00 01 08 6f 6c 75 70 74 61 74 65 03 05 09 00   ....oluptate....
| page 5 offset 16384
|      0: 0a 00 00 00 03 0f eb 00 0f fb 0f f3 0f eb 00 00   ................
|   4064: 00 00 00 00 00 00 00 00 00 00 00 07 04 02 08 01   ................
|   4080: 08 00 03 07 04 02 08 01 04 00 02 04 04 08 08 09   ................
| page 6 offset 20480
|      0: 0d 00 00 00 08 0f d0 00 0f fa 0f f4 0f ee 0f e8   ................
|     16: 0f e2 0f dc 0f d6 0f d0 00 00 00 00 00 00 00 00   ................
|   4048: 04 08 03 00 0e 0b 04 07 03 00 0e 06 04 06 03 00   ................
|   4064: 0e 06 04 05 03 00 0e 0a 04 04 03 00 0e 07 04 03   ................
|   4080: 03 00 0e 0a 04 02 03 00 0e 0b 04 01 03 00 0e 08   ................
| page 7 offset 24576
|      0: 0d 00 00 00 01 0f f7 00 0f f7 00 00 00 00 01 00   ................
|   4080: 00 00 00 00 00 00 00 07 00 03 00 14 08 45 b5 03   .............E..
| end crash-58821b8eae6883.db
}]} {}

do_catchsql_test 49.1 {
  SAVEPOINT one;
  DELETE FROM t1 WHERE t1 MATCH 'c*';
  SELECT matchinfo(t1,'pcx') IS NULL FROM t1 WHERE t1 MATCH 'f*e*';
} {0 0}

#-------------------------------------------------------------------------
#
reset_db
do_test 50.0 {
  sqlite3 db {}
  db deserialize [decode_hexdb {
.open --hexdb
| size 28672 pagesize 4096 filename crash-14ab65782c9c45.db
| page 1 offset 0
|      0: 53 51 4c 69 74 65 20 66 6f 72 6d 61 74 20 33 00   SQLite format 3.
|     16: 10 00 01 01 00 40 20 20 00 00 00 00 00 00 00 07   .....@  ........
|     32: 00 00 00 02 00 00 00 01 00 00 00 00 00 00 00 00   ................
|     96: 00 00 00 00 0d 0e b1 00 06 0d a4 00 0f 8d 0f 21   ...............!
|    112: 0e b9 0d c8 0e 7e 0d a4 00 00 00 00 00 00 00 00   .....~..........
|   3488: 00 00 00 00 22 07 06 17 11 11 01 31 74 61 62 6c   ...........1tabl
|   3504: 65 74 32 74 32 07 43 52 45 41 54 45 20 54 41 42   et2t2.CREATE TAB
|   3520: 4c 45 20 74 32 28 78 29 81 33 05 07 17 1f 1f 01   LE t2(x).3......
|   3536: 82 35 74 61 62 6c 65 74 31 5f 73 65 67 64 69 72   .5tablet1_segdir
|   3552: 74 31 5f 73 65 67 64 69 72 05 43 52 45 41 54 45   t1_segdir.CREATE
|   3568: 20 54 41 42 4c 45 20 27 74 31 5f 73 65 67 64 69    TABLE 't1_segdi
|   3584: 72 27 28 6c 65 76 65 6c 20 49 4e 54 45 47 45 52   r'(level INTEGER
|   3600: 2c 69 64 78 20 49 4e 54 45 47 45 52 2c 73 74 61   ,idx INTEGER,sta
|   3616: 72 74 5f 62 6c 6f 63 6b 20 49 4e 54 45 47 45 52   rt_block INTEGER
|   3632: 2c 6c 65 61 76 65 73 5f 65 6e 64 5f 62 6c 6f 63   ,leaves_end_bloc
|   3648: 6b 20 49 4e 54 45 47 45 52 2c 65 6e 64 5f 62 6c   k INTEGER,end_bl
|   3664: 6f 63 6b 20 49 4e 54 45 47 45 52 2c 72 6f 6f 74   ock INTEGER,root
|   3680: 20 42 4c 4f 42 2c 50 52 49 4d 41 52 59 20 4b 45    BLOB,PRIMARY KE
|   3696: 59 28 6c 65 76 65 6c 2c 20 69 64 78 29 29 31 06   Y(level, idx))1.
|   3712: 06 17 45 1f 01 00 69 6e 64 65 78 73 71 6c 69 74   ..E...indexsqlit
|   3728: 65 5f 61 75 74 6f 69 6e 64 65 78 5f 74 31 5f 73   e_autoindex_t1_s
|   3744: 65 67 64 69 72 5f 31 74 31 5f 73 65 68 64 69 72   egdir_1t1_sehdir
|   3760: 06 0f c7 00 08 00 00 00 00 66 04 07 17 23 23 01   .........f...##.
|   3776: 81 13 74 61 62 6c 65 74 31 5f 73 65 67 6d 65 6e   ..tablet1_segmen
|   3792: 74 73 74 31 5f 73 65 67 6d 65 6e 74 73 04 43 52   tst1_segments.CR
|   3808: 45 41 54 45 20 54 41 42 4c 45 20 27 74 31 5f 73   EATE TABLE 't1_s
|   3824: 65 67 6d 65 6e 74 73 27 28 62 6c 6f 63 6b 69 64   egments'(blockid
|   3840: 20 49 4e 54 45 47 45 52 20 50 52 49 4d 41 52 59    INTEGER PRIMARY
|   3856: 20 4b 45 59 2c 20 62 6c 6f 63 6b 20 42 4c 4f 42    KEY, block BLOB
|   3872: 29 6a 03 07 17 21 21 01 81 1f 74 61 62 6c 65 74   )j...!!...tablet
|   3888: 31 5f 63 6f 6e 74 65 6e 74 74 31 5f 63 6f 6e 74   1_contentt1_cont
|   3904: 65 6e 74 03 43 52 45 41 54 45 20 54 41 42 4c 45   ent.CREATE TABLE
|   3920: 20 27 74 31 5f 63 6f 6e 74 65 6e 74 27 28 64 6f    't1_content'(do
|   3936: 63 69 64 20 49 4e 54 45 47 45 52 20 50 52 49 4d   cid INTEGER PRIM
|   3952: 41 52 59 20 4b 45 59 2c 20 27 63 30 61 27 2c 20   ARY KEY, 'c0a', 
|   3968: 27 62 31 62 27 2c 20 27 63 32 63 27 29 38 02 06   'b1b', 'c2c')8..
|   3984: 17 11 11 08 5f 74 61 62 6c 65 74 31 74 31 43 52   ...._tablet1t1CR
|   4000: 45 41 54 45 20 56 49 52 54 55 41 4c 20 54 41 42   EATE VIRTUAL TAB
|   4016: 4c 45 20 74 31 20 55 53 49 4e 47 20 66 74 73 33   LE t1 USING fts3
|   4032: 28 61 2c 62 2c 63 29 00 00 00 00 00 00 00 00 00   (a,b,c).........
| page 3 offset 8192
|      0: 0d 00 00 00 25 0b 48 00 0f d8 0f af 0f 86 0f 74   ....%.H........t
|     16: 0f 61 0f 4e 0f 2f 0f 0f 0e ef 0e d7 0e be 0e a5   .a.N./..........
|     32: 0e 8d 0e 74 0e 5b 0e 40 0e 24 0e 08 0d ef 0d d5   ...t.[.@.$......
|     48: 0d bb 0d a0 0d 84 0d 00 00 00 00 00 00 00 00 00   ................
|   2880: 00 00 00 00 00 00 00 00 81 f9 25 06 00 82 7f 00   ..........%.....
|   2896: 00 43 4f 4d 50 49 4c 45 52 3d 67 63 63 2d 35 2e   .COMPILER=gcc-5.
|   2912: 34 2e 30 20 32 30 31 36 30 36 30 39 20 44 45 42   4.0 20160609 DEB
|   2928: 55 47 20 45 4e 41 42 4c 45 20 44 42 53 54 41 54   UG ENABLE DBSTAT
|   2944: 20 56 54 41 42 20 45 4e 41 42 4c 45 20 46 54 53    VTAB ENABLE FTS
|   2960: 34 20 45 4e 41 42 4c 45 20 46 54 53 35 20 45 4e   4 ENABLE FTS5 EN
|   2976: 41 42 4c 45 20 47 45 4f 50 4f 4c 59 20 45 4e 41   ABLE GEOPOLY ENA
|   2992: 42 4c 45 20 4a 53 4f 4e 31 20 45 4e 41 42 4c 45   BLE JSON1 ENABLE
|   3008: 20 4d 45 4d 53 59 53 35 20 45 4e 41 42 4c 45 20    MEMSYS5 ENABLE 
|   3024: 52 54 52 45 45 20 4d 41 58 20 4d 45 4d 4f 52 59   RTREE MAX MEMORY
|   3040: 3d 37 a0 30 30 30 30 f2 30 20 4f 4d 49 54 20 4c   =7.0000.0 OMIT L
|   3056: 4f 41 44 20 45 58 54 45 4e 53 49 4f 4e 20 54 48   OAD EXTENSION TH
|   3072: 52 45 41 44 53 41 46 45 3d 30 18 24 05 00 25 0f   READSAFE=0.$..%.
|   3088: 19 54 48 52 45 41 44 53 41 46 45 3d 30 58 42 49   .THREADSAFE=0XBI
|   3104: 4e 41 52 59 18 23 05 00 25 0f 19 54 48 52 45 41   NARY.#..%..THREA
|   3120: 44 53 41 46 45 3d 30 58 4e 4f 43 41 53 45 17 22   DSAFE=0XNOCASE..
|   3136: 05 00 25 0f 17 54 48 52 45 41 54 53 41 46 45 3d   ..%..THREATSAFE=
|   3152: 30 58 52 54 52 49 4d 1f 21 05 00 33 0f 19 4f 4d   0XRTRIM.!..3..OM
|   3168: 49 54 20 5c 4f 41 44 20 45 58 54 45 4e 53 49 4f   IT .OAD EXTENSIO
|   3184: 4e 58 42 49 4e 41 52 59 1f 20 05 00 33 0f 19 4f   NXBINARY. ..3..O
|   3200: 4d 49 54 20 4c 4f 41 44 20 45 58 54 45 4e 53 49   MIT LOAD EXTENSI
|   3216: 4f 4e 58 4e 4f 43 41 53 46 1e 1f 05 00 33 0f 17   ONXNOCASF....3..
|   3232: 4f 4d 49 54 20 4c 4f 41 44 20 45 58 54 45 4e 53   OMIT LOAD EXTENS
|   3248: 49 4f 4e 58 52 44 52 49 4d 1f 1e 05 00 33 0f 19   IONXRDRIM....3..
|   3264: 4d 41 68 20 4d 45 4d 4f 52 59 3d 35 30 30 30 30   MAh MEMORY=50000
|   3280: 30 30 30 58 42 49 4e 41 52 59 1f 1d 05 00 33 0f   000XBINARY....3.
|   3296: 19 4d 41 58 20 4d 45 4d 4f 52 59 3d 35 30 30 30   .MAX MEMORY=5000
|   3312: 30 30 30 30 58 4e 4f 43 41 53 45 1e 1c 05 00 33   0000XNOCASE....3
|   3328: 0f 16 4d 41 58 20 4d 45 4d 4f 52 59 3d 35 30 30   ..MAX MEMORY=500
|   3344: 30 30 30 30 30 58 52 54 52 49 4d 18 1b 05 00 25   00000XRTRIM....%
|   3360: 0f 19 45 4e 41 42 4c 45 20 52 54 52 45 45 58 42   ..ENABLE RTREEXB
|   3376: 49 4e 41 52 59 18 1a 05 00 25 0f 19 45 4e 41 42   INARY....%..ENAB
|   3392: 4c 45 20 52 54 52 45 45 58 4e 4f 43 41 53 45 17   LE RTREEXNOCASE.
|   3408: 19 05 00 25 0f 17 45 4e 41 42 4c 45 20 52 54 52   ...%..ENABLE RTR
|   3424: 45 45 58 52 54 52 49 4d 1a 18 05 00 29 0f 19 45   EEXRTRIM....)..E
|   3440: 4e 41 42 4c 45 20 4d 45 43 53 59 53 35 58 42 49   NABLE MECSYS5XBI
|   3456: 4e 41 52 59 1a 17 05 00 29 0f 19 45 4e 41 42 4c   NARY....)..ENABL
|   3472: 45 20 4d 45 4d 53 59 53 35 58 4e 4f 43 41 53 45   E MEMSYS5XNOCASE
|   3488: 19 16 05 00 29 0f 17 45 4e 41 42 4c 45 20 4d 45   ....)..ENABLE ME
|   3504: 4d 53 59 53 35 58 52 54 52 49 4d 18 15 05 00 25   MSYS5XRTRIM....%
|   3520: 0f 19 45 4e 41 42 4c 45 20 4a 53 4f 4e 31 58 42   ..ENABLE JSON1XB
|   3536: 49 4e 41 52 59 18 14 05 00 25 0f 19 45 4e 41 42   INARY....%..ENAB
|   3552: 4c 45 20 4a 53 4f 4e 31 58 4e 4f 43 41 53 45 17   LE JSON1XNOCASE.
|   3568: 13 05 00 25 0f 17 45 4e 41 42 4c 45 20 4a 53 4f   ...%..ENABLE JSO
|   3584: 4e 31 58 52 54 52 49 4d 1a 12 05 00 29 0f 19 45   N1XRTRIM....)..E
|   3600: 4e 41 42 4c 45 20 47 45 4f 50 4f 4c 59 58 42 49   NABLE GEOPOLYXBI
|   3616: 4e 41 52 59 1a 11 05 00 29 0f 19 45 4e 41 42 4c   NARY....)..ENABL
|   3632: 45 20 47 45 4f 50 4f 4c 59 58 4e 4f 43 41 53 45   E GEOPOLYXNOCASE
|   3648: 19 10 05 00 29 0f 17 45 4e 41 42 4c 45 20 47 45   ....)..ENABLE GE
|   3664: 4f 50 4f 4c 59 58 52 54 52 49 4d 17 0f 05 00 23   OPOLYXRTRIM....#
|   3680: 0f 19 45 4e 41 42 4c 45 20 46 54 53 35 58 42 49   ..ENABLE FTS5XBI
|   3696: 4e 41 52 59 17 0e 05 00 23 0f 19 45 4e 41 42 4c   NARY....#..ENABL
|   3712: 45 20 46 54 53 35 58 4e 4f 43 41 53 45 16 0d 05   E FTS5XNOCASE...
|   3728: 00 23 0f 17 45 4e 41 42 4c 45 20 46 54 53 35 58   .#..ENABLE FTS5X
|   3744: 52 54 52 49 4d 17 0c 05 00 23 0f 19 45 4e 41 42   RTRIM....#..ENAB
|   3760: 4c 45 20 46 54 53 34 58 42 49 4e 41 52 59 17 0b   LE FTS4XBINARY..
|   3776: 05 00 23 0f 19 45 4e 41 42 4c 45 20 46 54 53 34   ..#..ENABLE FTS4
|   3792: 58 4e 4f 43 41 53 45 16 0a 05 00 23 0f 17 45 4e   XNOCASE....#..EN
|   3808: 41 42 4c 46 20 46 54 53 34 58 52 54 52 49 4d 1e   ABLF FTS4XRTRIM.
|   3824: 09 05 00 31 0f 19 45 4e 41 42 4c 45 20 44 42 53   ...1..ENABLE DBS
|   3840: 54 41 54 20 56 54 41 42 58 42 49 4e 41 52 59 1e   TAT VTABXBINARY.
|   3856: 08 05 00 31 0f 19 45 4e 41 42 4c 45 20 44 42 53   ...1..ENABLE DBS
|   3872: 55 41 54 20 56 54 41 42 58 4e 4f 43 41 53 45 1d   UAT VTABXNOCASE.
|   3888: 07 05 00 31 0f 17 45 4e 41 42 4c 45 20 44 42 53   ...1..ENABLE DBS
|   3904: 54 41 54 20 56 54 41 42 58 52 54 52 49 4d 11 06   TAT VTABXRTRIM..
|   3920: 05 00 17 0f 19 44 45 42 55 47 58 42 49 4e 41 52   .....DEBUGXBINAR
|   3936: 59 11 05 05 00 17 0f 19 44 45 42 55 47 58 4e 4f   Y.......DEBUGXNO
|   3952: 43 41 53 45 10 04 05 00 17 0f 17 44 45 42 55 47   CASE.......DEBUG
|   3968: 58 52 54 52 49 4d 27 03 05 00 43 0f 19 43 4f 4d   XRTRIM'...C..COM
|   3984: 50 49 4c 45 52 3d 67 63 63 2d 35 2e 34 2e 30 20   PILER=gcc-5.4.0 
|   4000: 32 30 31 36 30 36 30 39 58 42 49 4e 41 52 59 27   20160609XBINARY'
|   4016: 02 05 00 43 0f 19 43 4f 4d 50 49 4c 45 52 3d 67   ...C..COMPILER=g
|   4032: 63 63 2d 35 2e 34 2e 30 20 32 30 31 36 30 36 30   cc-5.4.0 2016060
|   4048: 39 58 4e 4f 43 41 53 45 00 00 00 00 00 00 00 00   9XNOCASE........
| page 5 offset 16384
|      0: 0d 00 00 00 02 0b a0 00 0c ad 0b a0 00 00 00 00   ................
|   2976: 82 0a 02 08 08 09 08 08 17 84 06 30 20 32 35 33   ...........0 253
|   2992: 00 01 30 04 25 06 1b 00 00 08 32 30 31 36 30 36   ..0.%.....201606
|   3008: 30 39 03 25 07 00 00 01 34 03 25 05 00 00 01 35   09.%....4.%....5
|   3024: 03 25 04 00 01 07 30 30 30 30 30 30 30 03 25 1a   .%....0000000.%.
|   3040: 00 00 08 63 6f 6d 70 69 6c 65 72 03 25 02 00 00   ...compiler.%...
|   3056: 06 64 62 73 74 61 74 03 25 0a 00 01 04 65 62 75   .dbstat.%....ebu
|   3072: 67 03 25 08 00 00 06 65 6e 61 62 6c 65 09 25 09   g.%....enable.%.
|   3088: 05 04 04 04 04 04 00 01 08 78 74 65 6e 73 69 6f   .........xtensio
|   3104: 6e 03 25 1d 00 00 04 66 74 73 34 03 25 0d 00 03   n.%....fts4.%...
|   3120: 01 35 03 25 0f 00 00 03 67 63 63 03 25 03 00 01   .5.%....gcc.%...
|   3136: 06 65 6f 70 6f 6c 79 03 25 11 00 00 05 6a 73 6f   .eopoly.%....jso
|   3152: 6e 31 03 25 13 00 00 04 6c 6f 61 64 03 25 1c 00   n1.%....load.%..
|   3168: 00 03 6d 61 78 03 25 18 00 01 05 65 6d 6f 72 79   ..max.%....emory
|   3184: 03 25 19 00 03 04 73 79 73 35 03 25 15 00 00 04   .%....sys5.%....
|   3200: 6f 6d 69 74 03 25 1b 00 00 05 72 74 72 65 65 03   omit.%....rtree.
|   3216: 25 17 00 00 0a 74 68 72 65 61 64 73 61 66 65 03   %....threadsafe.
|   3232: 25 1e 00 00 04 76 74 61 62 03 25 0b 00 86 50 01   %....vtab.%...P.
|   3248: 08 08 08 08 08 17 8d 12 30 20 38 33 35 00 01 30   ........0 835..0
|   3264: 12 01 06 00 01 06 00 01 06 00 1f 03 00 01 03 00   ................
|   3280: 01 03 00 00 08 32 30 31 36 30 36 30 39 09 01 07   .....20160609...
|   3296: 00 01 07 00 01 07 00 00 01 34 09 01 05 00 01 05   .........4......
|   3312: 00 01 05 00 00 01 35 09 01 04 00 01 04 00 01 04   ......5.........
|   3328: 00 01 07 30 30 30 30 30 30 30 09 1c 04 00 01 04   ...0000000......
|   3344: 00 01 04 00 00 06 62 69 6e 61 72 79 3c 03 01 02   ......binary<...
|   3360: 02 00 03 01 02 02 00 03 01 02 02 00 03 01 02 02   ................
|   3376: 00 03 01 02 02 00 03 01 02 02 00 03 01 02 02 00   ................
|   3392: 03 01 02 02 00 03 01 02 02 00 03 01 02 02 00 03   ................
|   3408: 01 02 02 00 03 01 02 02 00 00 08 63 6f 38 70 69   ...........co8pi
|   3424: 6c 65 72 09 01 02 00 01 02 00 01 02 00 00 06 64   ler............d
|   3440: 52 73 74 61 74 09 07 03 00 01 03 00 01 03 00 01   Rstat...........
|   3456: 04 65 62 75 67 09 04 02 00 01 02 00 01 02 00 00   .ebug...........
|   3472: 06 65 6e 61 62 6c 65 3f 07 02 00 01 02 00 01 01   .enable?........
|   3488: ff f1 02 00 01 02 00 01 02 00 01 02 00 01 02 00   ................
|   3504: 01 02 00 01 03 00 01 01 00 02 02 00 01 02 00 01   ................
|   3520: 02 00 01 02 00 01 12 00 01 02 00 01 02 00 01 02   ................
|   3536: 00 01 02 00 01 02 00 01 08 78 74 65 6e 73 69 6f   .........xtensio
|   3552: 6e 09 1f 04 00 01 04 00 01 04 00 00 04 66 74 73   n............fts
|   3568: 34 09 0a 03 00 01 03 00 01 04 00 03 01 35 09 0d   4............5..
|   3584: 03 00 01 03 00 01 03 00 00 03 67 63 63 09 01 03   ..........gcc...
|   3600: 00 01 03 0b 01 13 00 01 06 65 6f 70 6f 6c 79 09   .........eopoly.
|   3616: 10 03 00 01 03 00 01 03 00 00 05 6a 83 6f 6e 31   ...........j.on1
|   3632: 09 13 03 00 01 03 00 01 03 00 00 04 6c 6f 61 64   ............load
|   3648: 09 1f 03 00 01 03 00 01 03 00 00 03 6d 61 78 09   ............max.
|   3664: 1c 02 00 01 02 00 01 02 00 01 05 65 6d 6f 72 79   ...........emory
|   3680: 09 1c 03 00 01 03 00 01 03 00 03 04 73 79 73 35   ............sys5
|   3696: 09 16 03 00 01 03 00 01 03 00 00 06 6e 6f 63 61   ............noca
|   3712: 73 65 3c 02 01 02 02 00 03 01 02 02 00 03 01 02   se<.............
|   3728: 02 00 03 01 02 02 00 03 01 02 02 00 03 01 02 02   ................
|   3744: 00 03 01 02 02 00 03 01 02 02 00 03 01 02 02 00   ................
|   3760: 03 01 02 02 00 03 01 02 02 00 03 01 02 02 00 00   ................
|   3776: 04 6f 6d 69 74 09 1f 02 00 01 02 00 01 02 00 00   .omit...........
|   3792: 05 72 74 72 65 65 09 19 03 00 01 03 00 01 03 00   .rtree..........
|   3808: 03 02 69 6d 3c 01 01 02 02 00 03 01 02 02 00 03   ..im<...........
|   3824: 01 02 02 00 03 01 02 02 00 03 01 02 02 00 03 01   ................
|   3840: 02 02 00 03 01 02 02 00 03 01 02 02 00 03 01 02   ................
|   3856: 02 00 03 01 02 02 00 03 01 02 02 00 03 01 02 02   ................
|   3872: 00 00 0a 74 68 72 65 61 64 73 61 66 65 09 22 02   ...threadsafe...
|   3888: 00 01 02 00 01 02 00 00 04 76 74 61 62 09 07 04   .........vtab...
|   3904: 00 01 04 00 01 04 00 00 01 78 b4 01 01 01 01 02   .........x......
|   3920: 00 01 01 01 02 00 01 01 01 02 00 01 01 01 02 00   ................
|   3936: 01 01 01 02 00 01 01 01 02 00 01 01 01 02 00 01   ................
|   3952: 01 01 02 00 01 01 01 02 00 01 01 01 02 00 01 01   ................
|   3968: 01 02 00 01 01 01 02 00 01 01 01 02 00 01 01 01   ................
|   3984: 02 00 01 01 01 02 00 01 01 01 02 00 01 01 01 02   ................
|   4000: 00 01 01 01 02 00 01 01 01 02 00 01 01 01 02 00   ................
|   4016: 01 01 01 02 00 01 01 01 02 00 01 01 01 02 00 01   ................
|   4032: 01 01 02 00 01 01 01 02 00 01 01 01 02 00 01 01   ................
|   4048: 01 02 00 01 01 01 02 00 01 01 01 02 00 01 01 01   ................
|   4064: 02 00 01 01 01 02 00 01 01 01 02 00 01 01 01 02   ................
|   4080: 00 01 01 01 02 00 01 01 01 02 00 01 01 01 02 00   ................
| page 6 offset 20480
|      0: 0a 00 00 00 02 0f f5 00 0f fb 0f f5 00 00 00 00   ................
|   4080: 00 00 00 00 00 05 04 08 09 01 02 04 04 08 08 09   ................
| page 7 offset 24576
|      0: 0d 00 00 00 05 0f b8 00 0f f4 0f 00 00 00 00 00   ................
|   4016: 00 00 00 00 00 00 00 00 0d 05 02 23 61 75 74 6f   ...........#auto
|   4032: 6d 65 72 67 65 3d 35 0d 04 02 23 6d 65 72 67 65   merge=5...#merge
|   4048: 3d 31 30 30 2c 38 11 03 02 2b 69 6e 74 65 67 72   =100,8...+integr
|   4064: 69 74 79 2d 63 68 65 63 6b 09 02 02 00 00 00 00   ity-check.......
| end crash-14ab65782c9c45.db
}]} {}

do_execsql_test 50.1 {
  SELECT NULL FROM t1 WHERE t1 MATCH '"^enable"'
} {
  {} {} {} {} {} {} {} {} {} {} {} {} {} {} {} {} {} {}
}

#-------------------------------------------------------------------------
#
reset_db
do_test 51.0 {
  sqlite3 db {}
  db deserialize [decode_hexdb {
.open --hexdb
| size 28672 pagesize 4096 filename crash-11cf359576eb28.db
| page 1 offset 0
|      0: 53 51 4c 69 74 65 20 66 6f 72 6d 61 74 20 33 00   SQLite format 3.
|     16: 10 00 01 01 00 40 20 20 00 00 00 00 00 00 00 07   .....@  ........
|     32: 00 00 00 02 00 00 00 01 00 00 00 07 00 00 00 04   ................
|     96: 00 00 00 00 0d 0e b1 00 06 0d a4 00 0f 8d 0f 21   ...............!
|    112: 0e b9 0d c8 0e 7e 0d a4 0d a4 00 00 00 00 00 00   .....~..........
|   3488: 00 00 00 00 22 07 06 17 11 11 01 31 74 61 62 6c   ...........1tabl
|   3504: 65 74 32 74 32 07 43 52 45 41 54 45 20 54 41 42   et2t2.CREATE TAB
|   3520: 4c 45 20 74 32 28 78 29 81 33 05 07 17 1f 1f 01   LE t2(x).3......
|   3536: 82 35 74 61 62 6c 65 74 31 5f 73 65 67 64 69 72   .5tablet1_segdir
|   3552: 74 31 5f 73 65 67 64 69 72 05 43 52 45 41 54 45   t1_segdir.CREATE
|   3568: 20 54 41 42 4c 45 20 27 74 31 5f 73 65 67 64 69    TABLE 't1_segdi
|   3584: 72 27 28 6c 65 76 65 6c 20 49 4e 54 45 47 45 52   r'(level INTEGER
|   3600: 2c 69 64 78 20 49 4e 54 45 47 45 52 2c 73 74 61   ,idx INTEGER,sta
|   3616: 72 74 5f 62 6c 6f 63 6b 20 49 4e 54 45 47 45 52   rt_block INTEGER
|   3632: 2c 6c 65 61 76 65 73 5f 65 6e 64 5f 62 6c 6f 63   ,leaves_end_bloc
|   3648: 6b 20 49 4e 54 45 47 45 52 2c 65 6e 64 5f 62 6c   k INTEGER,end_bl
|   3664: 6f 63 6b 20 49 4e 54 45 47 45 52 2c 72 6f 6f 74   ock INTEGER,root
|   3680: 20 42 4c 4f 42 2c 50 52 49 4d 41 52 59 20 4b 45    BLOB,PRIMARY KE
|   3696: 59 28 6c 65 76 65 6c 2c 20 69 64 78 29 29 31 06   Y(level, idx))1.
|   3712: 06 17 45 1f 01 00 69 6e 64 65 78 73 71 6c 69 74   ..E...indexsqlit
|   3728: 65 5f 61 75 74 6f 69 6e 64 65 78 5f 74 31 5f 73   e_autoindex_t1_s
|   3744: 65 67 64 69 72 5f 31 74 31 5f 73 65 67 64 69 72   egdir_1t1_segdir
|   3760: 06 0f c7 00 08 00 00 00 00 66 04 07 17 23 23 01   .........f...##.
|   3776: 81 13 74 61 62 6c 65 74 31 5f 73 65 67 6d 65 6e   ..tablet1_segmen
|   3792: 74 73 74 31 5f 73 65 67 6d 65 6e 74 73 04 43 52   tst1_segments.CR
|   3808: 45 41 54 45 20 54 41 42 4c 45 20 27 74 31 5f 73   EATE TABLE 't1_s
|   3824: 65 67 6d 65 6e 74 73 27 28 62 6c 6f 63 6b 69 64   egments'(blockid
|   3840: 20 49 4e 54 45 47 45 52 20 50 51 49 4d 41 52 59    INTEGER PQIMARY
|   3856: 20 4b 45 59 2c 20 62 6c 6f 63 6b 20 42 4c 4f 42    KEY, block BLOB
|   3872: 29 6a 03 07 17 21 21 01 81 1f 74 61 62 6c 65 74   )j...!!...tablet
|   3888: 31 5f 63 6f 6e 74 65 6e 74 74 31 5f 63 6f 6e 74   1_contentt1_cont
|   3904: 65 6e 74 03 43 52 45 41 54 45 20 54 41 42 4c 45   ent.CREATE TABLE
|   3920: 20 27 74 31 5f 63 6f 6e 74 65 6e 74 27 28 64 6f    't1_content'(do
|   3936: 63 69 64 20 49 4e 54 45 47 45 52 20 50 52 49 4d   cid INTEGER PRIM
|   3952: 41 52 59 20 4b 45 59 2c 20 27 63 30 61 27 2c 20   ARY KEY, 'c0a', 
|   3968: 27 63 31 62 27 2c 20 27 63 32 63 27 29 38 02 06   'c1b', 'c2c')8..
|   3984: 17 11 11 08 5f 74 61 62 6c 65 74 31 74 31 43 52   ...._tablet1t1CR
|   4000: 45 41 54 45 20 56 49 52 54 55 41 4c 20 54 41 42   EATE VIRTUAL TAB
|   4016: 4c 45 20 74 31 20 55 53 49 4e 47 20 66 74 73 33   LE t1 USING fts3
|   4032: 28 61 2c 62 2c 63 29 00 00 00 00 00 00 00 00 00   (a,b,c).........
| page 3 offset 8192
|      0: 0d 00 00 00 25 0b 48 00 0f d8 0f af 0f 86 0f 74   ....%.H........t
|     16: 0f 61 0f 4e 0f 2f 0f 0f 0e ef 0e d7 0e be 0e a5   .a.N./..........
|     32: 0e 8d 0e 74 0e 5b 0e 40 0e 24 0e 08 0d ef 0d d5   ...t.[.@.$......
|     48: 0d bb 0d a0 0d 84 0d 68 0d 4f 0d 35 0d 1b 0c fb   .......h.O.5....
|     64: 0c da 0c b9 0c 99 0c 78 0c 57 0c 3e 0c 24 0c 0a   .......x.W.>.$..
|     80: 0b 48 00 00 00 00 00 00 00 00 00 00 00 00 00 00   .H..............
|   2880: 00 00 00 00 00 00 00 00 81 3f 25 06 00 82 7f 00   .........?%.....
|   2896: 00 43 4f 4d 50 49 4c 45 52 3d 67 63 63 2d 35 2e   .COMPILER=gcc-5.
|   2912: 34 2e 30 20 32 30 31 36 30 36 30 39 20 44 45 42   4.0 20160609 DEB
|   2928: 55 47 20 45 4e 41 42 4c 45 20 44 42 53 54 41 54   UG ENABLE DBSTAT
|   2944: 20 56 54 41 42 20 45 4e 41 42 4c 45 20 46 54 53    VTAB ENABLE FTS
|   2960: 34 20 45 4e 41 42 4c 45 20 46 54 53 35 20 45 4e   4 ENABLE FTS5 EN
|   2976: 41 42 4c 45 20 47 45 4f 59 0f 4c 59 20 45 4e 41   ABLE GEOY.LY ENA
|   2992: 42 4c 45 20 4a 53 4f 4e 31 20 45 4e 41 42 4c 45   BLE JSON1 ENABLE
|   3008: 20 4d 45 4d 53 59 53 35 20 45 4e 41 42 4c 45 20    MEMSYS5 ENABLE 
|   3024: 52 54 52 45 45 20 4d 41 58 20 4d 45 4d 4f 52 59   RTREE MAX MEMORY
|   3040: 3d 35 30 30 30 30 30 30 30 20 4f 4d 49 54 20 4d   =50000000 OMIT M
|   3056: 4f 41 44 20 45 58 54 45 4e 53 49 4f 4e 20 54 48   OAD EXTENSION TH
|   3072: 52 45 41 44 53 41 46 45 3d 30 18 24 05 00 25 0f   READSAFE=0.$..%.
|   3088: 19 54 48 52 45 41 44 53 41 46 45 3d 30 58 42 49   .THREADSAFE=0XBI
|   3104: 4e 41 52 59 18 23 05 00 25 0f 19 54 48 52 45 41   NARY.#..%..THREA
|   3120: 44 53 41 46 45 3d 30 58 4e 4f 43 41 53 45 17 22   DSAFE=0XNOCASE..
|   3136: 05 00 25 0f 17 54 48 52 45 41 44 53 41 46 45 3d   ..%..THREADSAFE=
|   3152: 30 58 52 54 52 49 4d 1f 21 05 00 33 0f 19 4f 4d   0XRTRIM.!..3..OM
|   3168: 49 54 20 4c 4f 41 44 20 45 58 54 45 4e 53 49 4f   IT LOAD EXTENSIO
|   3184: 4e 58 42 49 4e 41 52 59 1f 20 05 00 33 0f 19 4f   NXBINARY. ..3..O
|   3200: 4d 49 54 20 4c 4f 41 44 20 45 58 54 45 4e 53 49   MIT LOAD EXTENSI
|   3216: 4f 4e 58 4e 4f 43 41 53 45 1e 1f 05 00 33 0f 17   ONXNOCASE....3..
|   3232: 4f 4d 49 54 20 4c 4f 41 44 20 45 58 54 45 4e 53   OMIT LOAD EXTENS
|   3248: 49 4f 4e 58 52 54 52 49 4d 1f 1e 05 00 33 0f 19   IONXRTRIM....3..
|   3264: 4d 41 58 20 4d 45 4d 4f 52 59 3d 35 30 30 30 30   MAX MEMORY=50000
|   3280: 30 30 30 58 42 49 4e 41 52 59 1f 1d 05 00 33 0f   000XBINARY....3.
|   3296: 19 4d 41 58 20 4d 45 4d 4f 52 59 3d 35 30 30 30   .MAX MEMORY=5000
|   3312: 30 30 30 30 58 4e 4f 43 41 53 45 1e 1c 05 00 33   0000XNOCASE....3
|   3328: 0f 17 4d 41 58 20 4d 45 4d 4f 52 59 3d 35 30 30   ..MAX MEMORY=500
|   3344: 30 30 30 30 30 58 52 54 52 49 4d 18 1b 05 00 25   00000XRTRIM....%
|   3360: 0f 19 45 4e 41 42 4c 45 20 52 54 52 45 45 58 42   ..ENABLE RTREEXB
|   3376: 49 4e 41 52 59 18 1a 05 00 25 0f 19 45 4e 41 42   INARY....%..ENAB
|   3392: 4c 45 20 52 54 52 45 45 58 4e 4f 43 41 53 45 17   LE RTREEXNOCASE.
|   3408: 19 05 00 25 0f 17 45 4e 41 42 4c 45 20 52 54 52   ...%..ENABLE RTR
|   3424: 45 45 58 52 54 52 49 4d 1a 18 05 00 29 0f 19 45   EEXRTRIM....)..E
|   3440: 4e 41 42 4c 45 20 4d 45 4d 53 59 53 35 58 42 49   NABLE MEMSYS5XBI
|   3456: 4e 41 52 59 1a 17 05 00 29 0f 19 45 4e 41 42 4c   NARY....)..ENABL
|   3472: 45 20 4d 45 4d 53 59 53 35 58 4e 4f 43 41 53 45   E MEMSYS5XNOCASE
|   3488: 19 16 05 00 29 0f 17 45 4e 41 42 4c 45 20 4d 45   ....)..ENABLE ME
|   3504: 4d 53 59 53 35 58 52 54 52 49 4d 18 15 05 00 25   MSYS5XRTRIM....%
|   3520: 0f 19 45 4e 41 42 4c 45 20 4a 53 4f 4e 31 58 42   ..ENABLE JSON1XB
|   3536: 49 4e 41 52 59 18 14 05 00 25 0f 19 45 4e 41 42   INARY....%..ENAB
|   3552: 4c 45 20 4a 53 4f 4e 31 58 4e 4f 43 41 53 45 17   LE JSON1XNOCASE.
|   3568: 13 05 00 25 0f 17 45 4e 41 42 4c 45 20 4a 53 4f   ...%..ENABLE JSO
|   3584: 4e 31 58 52 54 52 49 4d 1a 12 05 00 29 0f 19 45   N1XRTRIM....)..E
|   3600: 4e 41 42 4c 45 20 47 45 4f 50 4f 4c 59 58 42 49   NABLE GEOPOLYXBI
|   3616: 4e 41 52 59 1a 11 05 00 29 0f 19 45 4e 41 42 4c   NARY....)..ENABL
|   3632: 45 20 47 45 4f 50 4f 4c 59 58 4e 4f 43 41 53 45   E GEOPOLYXNOCASE
|   3648: 19 10 05 00 29 0f 17 45 4e 41 42 4c 45 20 47 45   ....)..ENABLE GE
|   3664: 4f 50 4f 4c 59 58 52 54 52 49 4d 17 0f 05 00 23   OPOLYXRTRIM....#
|   3680: 0f 19 45 4e 41 42 4c 45 20 46 54 53 35 58 42 49   ..ENABLE FTS5XBI
|   3696: 4e 41 52 59 17 0e 05 00 23 0f 19 45 4e 41 42 4c   NARY....#..ENABL
|   3712: 45 20 46 54 53 35 58 4e 4f 43 41 53 45 16 0d 05   E FTS5XNOCASE...
|   3728: 00 23 0f 17 45 4e 41 42 4c 45 20 46 54 53 35 58   .#..ENABLE FTS5X
|   3744: 52 54 52 49 4d 17 0c 05 00 23 0f 19 45 4e 41 42   RTRIM....#..ENAB
|   3760: 4c 45 20 46 54 53 34 58 42 49 4e 41 52 59 17 0b   LE FTS4XBINARY..
|   3776: 05 00 23 0f 19 45 4e 41 42 4c 45 20 46 54 53 34   ..#..ENABLE FTS4
|   3792: 58 4e 4f 43 41 53 45 16 0a 05 00 23 0f 17 45 4e   XNOCASE....#..EN
|   3808: 41 42 4c 45 20 46 54 53 34 58 52 54 52 49 4d 1e   ABLE FTS4XRTRIM.
|   3824: 09 05 00 31 0f 19 45 4e 41 42 4c 45 20 44 42 53   ...1..ENABLE DBS
|   3840: 54 41 54 20 56 54 41 42 58 42 49 4e 41 52 59 1e   TAT VTABXBINARY.
|   3856: 08 05 00 31 0f 19 45 4e 41 42 4c 45 20 44 42 53   ...1..ENABLE DBS
|   3872: 54 41 54 20 56 54 41 42 58 4e 4f 43 41 53 45 1d   TAT VTABXNOCASE.
|   3888: 07 05 00 31 0f 17 45 4e 41 42 4c 45 20 44 42 53   ...1..ENABLE DBS
|   3904: 54 41 54 20 56 54 41 42 58 52 54 52 49 4d 11 06   TAT VTABXRTRIM..
|   3920: 05 00 17 0f 19 44 45 42 55 47 58 42 49 4e 41 52   .....DEBUGXBINAR
|   3936: 59 11 05 05 00 17 0f 19 44 45 42 55 47 58 4e 4f   Y.......DEBUGXNO
|   3952: 43 41 53 45 10 04 05 00 17 0f 17 44 45 42 55 47   CASE.......DEBUG
|   3968: 58 52 54 52 49 4d 27 03 05 00 43 10 19 43 4f 4d   XRTRIM'...C..COM
|   3984: 50 49 4c 45 52 3d 67 63 63 2d 35 2e 34 2e 30 20   PILER=gcc-5.4.0 
|   4000: 32 30 31 36 30 36 30 39 58 42 49 4e 41 52 59 27   20160609XBINARY'
|   4016: 02 05 00 43 0f 19 43 4f 4d 50 49 4c 45 52 3d 67   ...C..COMPILER=g
|   4032: 63 63 2d 35 2e 34 2e 30 20 32 30 31 36 30 36 30   cc-5.4.0 2016060
|   4048: 39 58 4e 4f 43 41 53 45 26 01 05 00 43 0f 17 43   9XNOCASE&...C..C
|   4064: 4f 4d 50 49 4c 45 52 3d 67 63 63 2d 35 2e 34 2e   OMPILER=gcc-5.4.
|   4080: 30 20 32 30 31 36 30 36 30 39 58 52 54 52 49 4d   0 20160609XRTRIM
| page 4 offset 12288
|      0: 0d 00 00 00 00 10 00 00 00 00 00 00 00 00 00 00   ................
| page 5 offset 16384
|      0: 0d 00 00 00 02 0b a0 00 0c ad 0b a0 00 00 00 00   ................
|   2976: 82 0a 02 08 08 09 08 08 17 84 06 30 20 32 35 33   ...........0 253
|   2992: 00 01 30 04 25 06 1b 00 00 08 32 30 31 36 30 36   ..0.%.....201606
|   3008: 30 39 03 25 07 00 00 01 34 03 25 05 00 00 01 35   09.%....4.%....5
|   3024: 03 25 04 00 01 07 30 30 30 30 30 30 30 03 25 1a   .%....0000000.%.
|   3040: 00 00 08 63 6f 6d 70 69 6c 65 72 03 25 02 00 00   ...compiler.%...
|   3056: 06 64 62 73 74 61 74 03 25 0a 00 01 04 65 62 75   .dbstat.%....ebu
|   3072: 67 03 25 08 00 00 06 65 6e 61 62 6c 65 09 25 09   g.%....enable.%.
|   3088: 05 04 04 04 04 04 00 01 08 78 74 65 6e 73 69 6f   .........xtensio
|   3104: 6e 03 25 1d 00 00 04 66 74 73 34 03 25 0d 00 03   n.%....fts4.%...
|   3120: 01 35 03 25 0f 00 00 03 67 63 63 03 25 03 00 01   .5.%....gcc.%...
|   3136: 06 65 6f 70 6f 6c 79 03 25 11 00 00 05 6a 73 6f   .eopoly.%....jso
|   3152: 6e 31 03 25 13 00 00 04 6c 6f 61 64 03 25 1c 00   n1.%....load.%..
|   3168: 00 03 6d 61 78 03 25 18 00 01 05 65 6d 6f 72 79   ..max.%....emory
|   3184: 03 25 19 00 03 04 73 79 73 35 03 25 15 00 00 04   .%....sys5.%....
|   3200: 6f 6d 69 74 03 25 1b 00 00 05 72 74 72 65 65 03   omit.%....rtree.
|   3216: 25 17 00 00 0a 74 68 72 65 61 64 73 61 66 65 03   %....threadsafe.
|   3232: 25 1e 00 00 04 76 74 61 62 03 25 0b 00 86 50 01   %....vtab.%...P.
|   3248: 08 08 08 08 08 17 8d 12 30 20 38 33 35 00 01 30   ........0 835..0
|   3264: 12 01 06 00 01 06 00 01 06 00 1f 03 00 01 03 00   ................
|   3280: 01 03 00 00 08 32 30 31 36 30 36 30 39 09 01 07   .....20160609...
|   3296: 00 01 07 00 01 07 00 00 01 34 09 01 05 00 01 05   .........4......
|   3312: 00 01 05 00 00 01 35 09 01 04 00 01 04 00 01 04   ......5.........
|   3328: 00 01 07 30 30 30 30 30 30 30 09 1c 04 00 01 04   ...0000000......
|   3344: 00 01 04 00 00 06 62 69 6e 61 72 79 3c 03 01 02   ......binary<...
|   3360: 02 00 03 01 02 02 00 03 01 02 02 00 03 01 02 02   ................
|   3376: 00 03 01 02 02 00 03 01 02 02 00 03 01 02 02 5f   ..............._
|   3392: 03 01 02 02 00 03 01 02 02 00 03 01 02 02 00 03   ................
|   3408: 01 02 02 00 03 01 02 02 00 00 08 63 6f 6d 70 69   ...........compi
|   3424: 6c 65 72 09 01 02 00 01 02 00 01 02 00 00 06 64   ler............d
|   3440: 62 73 74 61 74 09 07 03 00 01 03 00 01 03 00 01   bstat...........
|   3456: 04 65 62 75 67 09 04 02 00 01 02 00 01 02 00 00   .ebug...........
|   3472: 06 65 6e 61 62 6c 65 3f 07 02 00 01 02 00 01 02   .enable?........
|   3488: 00 01 02 00 01 02 00 01 02 00 01 02 00 01 02 00   ................
|   3504: 01 02 00 01 02 00 01 02 00 01 02 00 01 02 00 01   ................
|   3520: 02 00 01 01 00 01 02 00 01 02 00 01 02 00 01 02   ................
|   3536: 00 01 02 00 01 02 00 01 08 78 74 65 6e 73 69 6f   .........xtensio
|   3552: 6e 09 1f 04 00 01 04 00 01 04 00 00 04 66 74 73   n............fts
|   3568: 34 09 0a 03 00 01 03 00 01 03 00 03 01 35 09 0d   4............5..
|   3584: 03 00 01 03 00 01 03 00 00 03 67 63 63 09 01 03   ..........gcc...
|   3600: 00 01 03 00 01 03 00 01 06 65 6f 70 6f 6c 79 09   .........eopoly.
|   3616: 10 03 00 01 03 00 01 03 00 00 05 6a 73 6f 6e 31   ...........json1
|   3632: 09 13 03 00 01 03 00 01 03 00 00 04 6c 6f 61 64   ............load
|   3648: 09 1f 03 00 01 03 00 01 03 00 00 03 6d 61 78 09   ............max.
|   3664: 1c 02 00 01 02 00 01 02 00 01 05 65 6d 6f 72 79   ...........emory
|   3680: 09 1c 03 00 01 03 00 01 03 00 03 04 73 79 73 35   ............sys5
|   3696: 09 16 03 00 01 03 00 01 03 00 00 06 6e 6f 63 61   ............noca
|   3712: 73 65 3c 02 01 02 02 00 03 01 02 02 00 03 01 02   se<.............
|   3728: 02 00 03 01 02 02 00 03 01 02 02 00 03 01 02 02   ................
|   3744: 00 03 01 02 02 00 03 01 02 02 00 03 01 02 02 00   ................
|   3760: 03 01 02 02 00 03 01 02 02 00 03 01 02 02 00 00   ................
|   3776: 04 6f 6d 69 74 09 1f 02 00 01 02 00 01 02 00 00   .omit...........
|   3792: 05 72 74 72 65 65 09 19 03 00 01 03 00 01 03 00   .rtree..........
|   3808: 03 02 69 6d 3c 01 01 02 02 00 03 01 02 02 00 03   ..im<...........
|   3824: 01 02 02 00 03 01 02 02 00 03 01 02 02 00 03 01   ................
|   3840: 02 02 00 03 01 02 02 00 03 01 02 02 00 03 01 02   ................
|   3856: 02 00 03 01 02 02 00 03 01 02 02 00 03 01 02 02   ................
|   3872: 00 00 0a 74 68 72 65 61 64 73 61 66 65 09 22 02   ...threadsafe...
|   3888: 00 01 02 00 01 02 00 00 04 76 74 61 62 09 07 04   .........vtab...
|   3904: 00 01 04 00 01 04 00 00 01 78 b4 01 01 01 01 02   .........x......
|   3920: 00 01 01 01 02 00 01 01 01 02 00 01 01 01 02 00   ................
|   3936: 01 01 01 02 00 01 01 01 02 00 01 01 01 02 00 01   ................
|   3952: 01 01 03 00 01 01 01 02 00 01 01 01 02 00 01 01   ................
|   3968: 01 02 00 01 01 01 02 00 01 01 01 02 00 01 01 01   ................
|   3984: 02 00 01 01 01 02 00 01 01 01 02 00 01 01 01 02   ................
|   4000: 00 01 01 01 02 00 01 01 01 02 00 01 01 01 02 00   ................
|   4016: 01 01 01 02 00 01 01 01 02 00 01 01 01 02 00 01   ................
|   4032: 01 01 02 00 01 01 01 02 00 01 01 01 02 00 01 01   ................
|   4048: 01 02 00 01 01 01 02 00 01 01 01 02 00 01 01 01   ................
|   4064: 02 00 01 01 01 02 00 01 01 01 02 00 01 01 01 02   ................
|   4080: 00 01 01 01 02 00 01 01 01 02 00 01 01 01 02 00   ................
| page 6 offset 20480
|      0: 0a 00 00 00 02 0f f5 00 0f fb 0f f5 00 00 00 00   ................
|   4080: 00 00 00 00 00 05 04 08 09 01 02 04 04 08 08 09   ................
| page 7 offset 24576
|      0: 0d 00 00 00 05 0f b8 00 0f f4 0f e9 0f d6 00 00   ................
|   4016: 00 00 00 00 00 00 00 00 0d 05 02 23 61 75 74 6f   ...........#auto
|   4032: 6d 65 72 67 65 3d 35 0d 04 02 23 6d 65 72 67 65   merge=5...#merge
|   4048: 3d 31 30 30 2c 38 11 03 02 2b 69 6e 74 65 67 72   =100,8...+integr
|   4064: 69 74 79 2d 63 68 65 63 6b 09 02 02 1b 72 65 62   ity-check....reb
|   4080: 75 69 6c 64 0a 01 02 1d 6f 70 74 69 6d 69 7a 65   uild....optimize
| end crash-11cf359576eb28.db
}]} {}

set saved $sqlite_fts3_enable_parentheses
set sqlite_fts3_enable_parentheses 1
do_catchsql_test 51.1 {
  SELECT 'xyzzy',offsets(t1) FROM t1 WHERE t1 MATCH 'rtree OR json1''rtree NEAR "json1 enable"';
} {1 {database disk image is malformed}}
set sqlite_fts3_enable_parentheses $saved

#-------------------------------------------------------------------------
#
set saved $sqlite_fts3_enable_parentheses
set sqlite_fts3_enable_parentheses 1
reset_db
do_test 52.0 {
  sqlite3 db {}
  db deserialize [decode_hexdb {
.open --hexdb
| size 28672 pagesize 4096 filename crash-fd33f4b1c8348b.db
| page 1 offset 0
|      0: 53 51 4c 69 74 65 20 66 6f 72 6d 61 74 20 33 00   SQLite format 3.
|     16: 10 00 01 01 00 40 20 20 00 00 00 92 00 00 00 07   .....@  ........
|     32: 00 00 00 00 00 00 00 00 00 00 00 07 00 00 00 04   ................
|     96: 00 00 00 00 0d 0e ef 00 08 0d 13 00 0f bd 0f 5f   ..............._
|    112: 0e f7 0e 06 0e bc 0d a4 0d 4d 0d 13 00 00 00 00   .........M......
|   3344: 00 00 00 38 08 06 17 11 11 08 5f 74 61 62 6c 65   ...8......_table
|   3360: 74 32 74 32 43 52 45 41 54 45 20 56 49 52 54 55   t2t2CREATE VIRTU
|   3376: 41 4c 20 54 41 42 4c 45 20 74 32 20 55 53 49 4e   AL TABLE t2 USIN
|   3392: 47 20 66 74 73 34 61 75 78 28 74 31 29 55 07 07   G fts4aux(t1)U..
|   3408: 17 1b 1b 01 81 01 74 61 62 6c 65 74 31 5f 73 74   ......tablet1_st
|   3424: 61 74 74 31 5f 73 74 61 74 07 43 52 45 41 54 45   att1_stat.CREATE
|   3440: 20 54 41 42 4c 45 20 27 74 31 5f 73 74 61 74 27    TABLE 't1_stat'
|   3456: 28 69 64 20 49 4e 54 45 47 45 52 20 50 52 49 4d   (id INTEGER PRIM
|   3472: 41 52 59 20 4b 45 59 2c 20 76 61 6c 75 65 20 42   ARY KEY, value B
|   3488: 4c 4f 42 29 60 06 07 17 21 21 01 81 0b 74 61 62   LOB)`...!!...tab
|   3504: 6c 65 74 31 5f 64 6f 63 73 69 7a 65 74 31 5f 64   let1_docsizet1_d
|   3520: 6f 63 73 69 7a 65 06 43 52 45 41 54 45 20 54 41   ocsize.CREATE TA
|   3536: 42 4c 45 20 27 74 31 5f 64 6f 63 73 69 7a 65 27   BLE 't1_docsize'
|   3552: 28 64 6f 63 69 64 20 49 4e 54 45 47 45 52 20 50   (docid INTEGER P
|   3568: 52 49 4d 41 52 59 20 4b 45 59 2c 20 73 69 7a 65   RIMARY KEY, size
|   3584: 20 42 4c 4f 42 29 81 33 04 07 17 1f 1f 01 82 35    BLOB).3.......5
|   3600: 74 61 62 6c 65 74 31 5f 73 65 67 64 69 72 74 31   tablet1_segdirt1
|   3616: 5f 73 65 67 64 69 72 04 43 52 45 41 54 45 20 54   _segdir.CREATE T
|   3632: 41 42 4c 45 20 27 74 31 5f 73 65 67 64 69 72 27   ABLE 't1_segdir'
|   3648: 28 6c 65 76 65 6c 20 49 4e 54 45 47 45 52 2c 69   (level INTEGER,i
|   3664: 64 78 20 49 4e 64 45 47 45 52 2c 73 74 61 72 74   dx INdEGER,start
|   3680: 5f 62 6c 6f 63 6b 20 49 4e 54 45 47 45 52 2c 6c   _block INTEGER,l
|   3696: 65 61 76 65 73 5f 65 6e 64 5f 62 6c 6f 63 6b 20   eaves_end_block 
|   3712: 49 4e 54 45 47 45 52 2c 65 6e 64 5f 62 6c 6f 63   INTEGER,end_bloc
|   3728: 6b 20 49 4e 54 45 47 45 52 2c 72 6f 6f 74 20 42   k INTEGER,root B
|   3744: 4c 4f 42 2c 50 52 49 4d 41 52 59 20 4b 45 59 28   LOB,PRIMARY KEY(
|   3760: 6c 65 76 65 6c 2c 20 69 64 78 29 29 31 05 06 17   level, idx))1...
|   3776: 45 1f 01 00 69 6e 64 65 78 73 71 6c 69 74 65 5f   E...indexsqlite_
|   3792: 61 75 74 6f 69 6e 64 65 78 5f 74 31 5f 73 65 67   autoindex_t1_seg
|   3808: 64 69 72 5f 31 74 31 5f 73 65 67 64 69 72 05 00   dir_1t1_segdir..
|   3824: 00 00 08 00 00 00 00 66 03 07 17 23 23 01 81 13   .......f...##...
|   3840: 74 61 62 6c 65 74 31 5f 73 65 67 6d 65 6e 74 73   tablet1_segments
|   3856: 74 31 5f 73 65 67 6d 65 6e 74 73 03 43 52 45 41   t1_segments.CREA
|   3872: 54 45 20 54 41 42 4c 45 20 27 74 31 5f 73 65 67   TE TABLE 't1_seg
|   3888: 6d 65 6e 74 73 27 28 62 6c 6f 63 6b 69 64 20 49   ments'(blockid I
|   3904: 4e 54 45 47 45 52 20 50 52 49 4d 41 52 59 20 4b   NTEGER PRIMARY K
|   3920: 45 59 2c 20 62 6c 6f 63 6b 20 42 4c 4f 42 29 5c   EY, block BLOB).
|   3936: 02 07 17 21 21 01 81 03 74 61 62 6c 65 74 31 5f   ...!!...tablet1_
|   3952: 63 6f 6e 74 65 6e 74 74 31 5f 63 6f 6e 74 65 6e   contentt1_conten
|   3968: 74 02 43 52 45 41 54 45 20 54 41 42 4c 45 20 27   t.CREATE TABLE '
|   3984: 74 31 5f 63 6f 6e 74 65 6e 74 27 28 64 6f 63 69   t1_content'(doci
|   4000: 64 20 49 4e 54 45 47 45 52 e6 50 52 49 4d 41 52   d INTEGER.PRIMAR
|   4016: 59 20 4b 45 59 2c 20 27 63 30 61 27 29 41 01 06   Y KEY, 'c0a')A..
|   4032: 17 11 11 08 71 74 61 62 6c 65 74 31 74 31 43 52   ....qtablet1t1CR
|   4048: 45 41 54 45 20 56 49 52 54 55 41 4c 20 54 41 42   EATE VIRTUAL TAB
|   4064: 4c 45 20 74 31 20 55 53 49 4e 47 20 66 74 73 34   LE t1 USING fts4
|   4080: 28 61 2c 70 72 65 66 69 78 3d 27 31 2c 32 27 29   (a,prefix='1,2')
| page 2 offset 4096
|      0: 0d 00 00 00 08 0e 22 00 0f c4 0f 00 00 00 00 00   ................
|   3616: 00 00 42 08 04 00 81 09 73 75 6e 74 20 69 6e 20   ..B.....sunt in 
|   3632: 63 75 6c 70 61 20 71 75 69 20 6f 66 66 69 63 69   culpa qui offici
|   3648: 61 20 64 65 73 65 72 75 6e 74 20 6d 6f 6c 6c 69   a deserunt molli
|   3664: 74 20 61 6e 69 6d 20 69 64 20 65 73 74 20 7c 61   t anim id est |a
|   3680: 62 6f 72 75 6d 2e 32 07 03 00 6b 45 78 63 65 70   borum.2...kExcep
|   3696: 74 65 75 72 20 73 69 6e 74 20 6f 63 63 61 65 63   teur sint occaec
|   3712: 61 74 20 63 75 70 69 64 61 74 61 74 20 6e 6f 6e   at cupidatat non
|   3728: 20 70 72 6f 69 64 65 6e 74 2c 29 06 03 00 59 63    proident,)...Yc
|   3744: 69 6c 6c 75 6d 20 64 6f 6c 6f 72 65 20 65 20 66   illum dolore e f
|   3760: 75 67 69 61 74 20 6e 75 6c 6c 61 20 70 61 72 69   ugiat nulla pari
|   3776: 61 74 75 72 2e 42 05 04 00 81 09 44 75 69 73 20   atur.B.....Duis 
|   3792: 61 75 74 65 20 69 72 75 72 65 20 64 6f 6c 6f 72   aute irure dolor
|   3808: 20 69 6e 20 72 65 60 72 65 68 65 6e 64 65 72 69    in re`rehenderi
|   3824: 74 20 69 6e 20 76 70 6c 75 70 74 61 74 65 20 76   t in vpluptate v
|   3840: 65 6c 69 72 c0 65 73 73 65 29 04 03 00 59 6e 69   elir.esse)...Yni
|   3856: 73 6a 20 75 74 20 61 6c 69 71 75 69 70 20 65 20   sj ut aliquip e 
|   3872: 65 20 63 6f 6d 6d 6f 64 6f 20 63 6f 6e 73 65 71   e commodo conseq
|   3888: 75 61 74 2e 46 03 04 00 29 11 55 74 20 65 6e 69   uat.F...).Ut eni
|   3904: 6d 20 61 64 20 6d 69 6e 69 6d 20 76 65 6e 69 61   m ad minim venia
|   3920: 6d 2c 20 71 75 69 73 20 6e 6f 73 74 72 75 64 20   m, quis nostrud 
|   3936: 65 78 65 72 63 69 7a 71 74 69 6f 6e 20 75 6c 6c   exercizqtion ull
|   3952: 61 6d 63 6f 20 6c 61 62 6f 72 69 73 46 02 04 00   amco laborisF...
|   3968: 81 11 73 65 64 20 64 6f 20 65 69 75 73 6d 6f 64   ..sed do eiusmod
|   3984: 20 74 65 6d 70 6f 72 20 69 6e 63 69 64 69 64 75    tempor incididu
|   4000: 6e 74 20 75 74 20 6c 61 62 6f 72 65 20 65 74 20   nt ut labore et 
|   4016: 64 6f 6c 6f 72 65 20 6d 61 67 6e 61 20 61 6c 69   dolore magna ali
|   4032: 71 75 61 2e 3a 01 03 00 7b 4c 6f 72 65 6d 20 69   qua.:....Lorem i
|   4048: 72 63 75 6d 20 64 6f 6c 6f 72 20 73 69 74 20 61   rcum dolor sit a
|   4064: 6d 65 74 2c 20 63 6f 6e 78 65 63 74 65 64 75 72   met, conxectedur
|   4080: 20 61 64 69 70 69 73 00 00 00 00 00 00 00 00 00    adipis.........
| page 4 offset 12288
|      0: 0d 00 00 00 03 0a c1 00 0d 61 0c 54 0a c1 00 00   .........a.T....
|   2752: 00 83 10 03 08 02 08 08 08 17 86 0e 08 00 30 20   ..............0 
|   2768: 33 38 35 00 02 61 64 06 01 08 00 02 04 00 01 01   385..ad.........
|   2784: 6c 06 02 0c 00 02 04 00 01 01 6d 03 01 06 10 01   l.........m.....
|   2800: 01 6e 03 08 09 00 01 01 75 03 05 03 00 00 02 63   .n......u......c
|   2816: 69 03 06 02 00 01 01 6f 07 01 07 00 03 07 03 00   i......o........
|   2832: 01 01 75 06 75 05 00 01 04 00 00 02 64 65 03 08   ..u.u.......de..
|   2848: 07 00 01 01 6f 0d 01 04 00 01 03 09 00 03 05 00   ....o...........
|   2864: 01 03 00 01 01 75 03 05 02 00 00 02 65 69 03 02   .....u......ei..
|   2880: 04 00 01 01 6c 03 01 44 00 01 01 6e 03 03 03 00   ....l..D...n....
|   2896: 01 01 73 06 05 0b 00 03 0b 00 01 01 74 03 02 09   ..s.........t...
|   2912: 00 01 01 78 06 03 09 00 04 02 00 00 02 66 75 03   ...x.........fu.
|   2928: 06 05 00 00 02 69 64 03 08 0a 00 01 01 6e 0a 02   .....id......n..
|   2944: 06 00 03 06 04 00 03 03 00 01 01 70 03 01 03 00   ...........p....
|   2960: 01 01 72 03 05 04 00 00 02 6c 61 09 02 08 00 01   ..r......la.....
|   2976: 0b 00 05 0c 00 01 01 6f 03 01 02 00 00 02 6d 61   .......o......ma
|   2992: 03 02 0b 00 01 01 69 03 03 05 00 01 01 6f 03 08   ......i......o..
|   3008: 08 00 00 02 6e 69 03 04 02 00 01 01 6f 06 03 08   ....ni......o...
|   3024: 00 04 06 00 01 01 75 03 06 06 00 00 02 6f 63 03   ......u......oc.
|   3040: 07 04 00 01 01 66 03 08 06 00 00 02 70 61 03 06   .....f......pa..
|   3056: 07 00 01 11 72 03 07 07 00 00 02 71 75 06 03 07   ....r......qu...
|   3072: 00 05 05 00 00 02 72 65 03 05 07 00 00 02 73 65   ......re......se
|   3088: 03 02 02 00 01 01 69 06 01 05 00 06 03 00 01 01   ......i.........
|   3104: 75 03 08 02 00 00 02 74 65 03 02 05 00 00 02 75   u......te......u
|   3120: 6c 13 03 0a 00 01 01 74 09 02 07 00 01 02 00 01   l......t........
|   3136: 02 ff ff 02 76 65 06 03 06 00 02 0a 00 01 01 6f   ....ve.........o
|   3152: 03 05 09 00 82 0a 02 08 02 08 08 08 17 84 02 04   ................
|   3168: 00 30 20 32 35 31 00 01 61 13 01 06 04 00 01 0c   .0 251..a.......
|   3184: 00 01 04 00 01 04 00 01 03 00 03 09 00 00 01 63   ...............c
|   3200: 10 01 07 00 03 07 03 00 02 02 00 01 05 00 01 04   ................
|   3216: 00 00 01 64 11 01 04 00 01 03 09 00 03 02 05 00   ...d............
|   3232: 01 03 00 02 07 00 00 01 65 1b 01 09 00 01 04 07   ........e.......
|   3248: 00 01 03 08 00 01 05 03 00 01 1c eb 01 04 00 01   ................
|   3264: 0e 80 01 0b 00 00 01 66 03 06 05 00 00 01 69 0f   .......f......i.
|   3280: 01 03 00 01 06 0b 23 04 04 04 00 03 03 09 00 00   ......#.........
|   3296: 01 6c 0c 01 02 00 01 08 00 01 0b 00 05 0c 00 00   .l..............
|   3312: 01 6d 09 02 0b 00 01 05 00 05 08 00 00 01 6e 0c   .m............n.
|   3328: 03 08 00 01 02 00 02 06 00 01 06 00 00 01 6f 06   ..............o.
|   3344: 07 04 00 01 06 00 00 01 70 06 06 07 00 01 07 00   ........p.......
|   3360: 00 01 71 06 03 07 00 05 05 00 00 01 72 03 05 07   ..q.........r...
|   3376: 00 00 02 73 0c 01 05 00 01 02 00 05 03 00 01 02   ...s............
|   3392: 00 00 01 74 03 02 05 00 00 01 75 0a 02 07 00 01   ...t......u.....
|   3408: 02 0a 00 01 03 00 00 01 76 07 03 06 00 02 09 03   ........v.......
|   3424: 00 85 1c 01 08 08 08 08 08 17 8a 2a 30 20 36 35   ...........*0 65
|   3440: 35 00 02 61 64 03 03 04 00 02 08 69 70 69 73 63   5..ad......ipisc
|   3456: 69 6e 67 03 01 08 00 01 05 6c 69 71 75 61 03 02   ing......liqua..
|   3472: 0c 00 05 02 69 70 03 04 04 00 01 03 6d 65 74 03   ....ip......met.
|   3488: 01 06 00 01 03 6e 69 6d 03 08 09 00 01 03 75 74   .....nim......ut
|   3504: 65 03 05 03 00 00 06 63 69 6c 6c 75 6d 03 06 02   e......cillum...
|   3520: 00 01 06 6f 6d 6d 6f 64 6f 03 04 07 00 02 09 6e   ...ommodo......n
|   3536: 73 65 63 74 65 74 75 72 03 01 07 00 05 04 71 75   sectetur......qu
|   3552: 61 73 03 04 08 00 01 04 75 6c 70 61 03 08 04 00   as......ulpa....
|   3568: 02 07 70 69 64 61 74 61 74 03 07 05 00 00 08 64   ..pidatat......d
|   3584: 65 73 65 72 75 6e 74 03 08 07 00 01 01 6f 03 09   eserunt......o..
|   3600: b3 00 02 03 6c 6f 72 06 01 04 00 04 05 00 05 01   ....lor.........
|   3616: 65 06 02 0a 00 04 03 00 01 03 75 69 73 03 05 02   e.........uis...
|   3632: 00 00 01 65 07 04 05 03 00 02 04 00 01 06 69 75   ...e..........iu
|   3648: 73 6d 6f 64 03 02 04 00 01 03 6c 69 74 03 01 09   smod......lit...
|   3664: 00 01 03 6e 69 6d 03 03 03 00 01 03 73 73 65 03   ...nim......sse.
|   3680: 05 0b 00 02 01 74 03 08 0b 00 01 01 74 03 02 09   .....t......t...
|   3696: 00 01 08 78 63 65 70 64 65 75 72 03 07 02 00 02   ...xcepdeur.....
|   3712: 0a 65 72 63 69 74 61 74 69 6f 6e 03 03 09 00 00   .ercitation.....
|   3728: 06 66 75 67 69 61 74 03 06 05 00 00 02 69 64 03   .fugiat......id.
|   3744: 08 0a 00 01 01 6e 07 05 06 04 00 03 03 00 02 08   .....n..........
|   3760: 63 69 64 69 64 75 6e 74 03 02 06 00 01 04 70 73   cididunt......ps
|   3776: 75 6c f3 01 03 00 01 04 72 75 72 65 03 05 04 00   ul......rure....
|   3792: 00 06 6c 61 62 6f 72 65 03 02 08 00 05 02 69 73   ..labore......is
|   3808: 03 03 0b 00 05 02 75 6d 03 08 0c 00 01 04 6f 72   ......um......or
|   3824: 65 6d 03 01 02 00 00 05 6d 61 67 6e 61 03 02 0b   em......magna...
|   3840: 00 01 04 69 6e 69 6d 03 03 05 00 01 05 6f 6c 6c   ...inim......oll
|   3856: 69 74 03 08 08 00 00 04 6e 69 73 69 03 04 02 00   it......nisi....
|   3872: 01 02 6f 6e 03 07 06 00 02 05 73 74 72 75 64 03   ..on......strud.
|   3888: 03 08 00 01 04 75 6c 6c 61 03 06 06 00 00 08 6f   .....ulla......o
|   3904: 63 63 61 65 63 61 74 03 07 04 00 01 06 66 66 69   ccaecat......ffi
|   3920: 63 69 61 03 08 06 00 00 08 70 61 72 69 61 74 75   cia......pariatu
|   3936: 72 03 06 07 00 01 07 72 6f 69 64 65 6e 74 03 07   r......roident..
|   3952: 07 00 00 03 71 75 69 03 08 15 00 03 01 73 03 03   ....qui......s..
|   3968: 07 00 00 0d 72 65 70 72 65 68 65 6e 64 65 72 69   ....reprehenderi
|   3984: 74 03 05 07 00 00 03 73 65 64 03 02 01 ff ff f0   t......sed......
|   4000: b9 6e 74 03 07 03 00 02 01 74 03 01 05 00 01 03   .nt......t......
|   4016: 75 6e 74 03 08 02 00 00 06 74 65 6d 70 6f 72 03   unt......tempor.
|   4032: 02 05 00 00 07 75 6c 6c 61 6d 63 6f 03 03 0a 00   .....ullamco....
|   4048: 01 01 74 09 02 07 00 01 02 00 01 03 00 00 05 76   ..t............v
|   4064: 65 6c 69 74 03 05 0a 00 02 04 6e 69 61 6d 03 03   elit......niam..
|   4080: 06 00 01 08 6f 6c 75 70 74 61 74 65 03 05 09 00   ....oluptate....
| page 5 offset 16384
|      0: 0a 00 00 00 03 0f eb 00 0f fb 0f f3 00 00 00 00   ................
|   4064: 00 00 00 00 00 00 00 00 00 00 00 07 04 02 08 01   ................
|   4080: 08 00 03 07 04 02 08 01 04 00 02 04 04 08 08 09   ................
| page 6 offset 20480
|      0: 0d 00 00 00 00 00 01 00 00 00 00 00 00 00 00 00   ................
|   4048: 04 08 03 00 0e 0b 04 07 03 00 0e 06 04 06 03 00   ................
|   4064: 0e 06 04 05 03 00 0e 0a 04 04 03 00 0e 07 04 03   ................
|   4080: 03 00 0d fa 04 02 03 00 0e 0b 04 00 00 00 00 00   ................
| page 7 offset 24576
|   4080: 00 00 00 00 00 00 00 07 00 03 00 00 00 00 00 00   ................
| end crash-fd33f4b1c8348b.db
}]} {}

do_catchsql_test 52.1 {
  SELECT * FROM t1, t2;
} {1 {database disk image is malformed}}

#-------------------------------------------------------------------------
#
reset_db
do_test 53.0 {
  sqlite3 db {}
  db deserialize [decode_hexdb {
.open --hexdb
| size 8192 pagesize 1024 filename crash-7bc.txt.db
| page 1 offset 0
|      0: 53 51 4c 69 74 65 20 66 6f 72 6d 61 74 20 33 00   SQLite format 3.
|     16: 04 00 01 01 00 40 20 20 00 00 00 00 00 00 00 08   .....@  ........
|     32: 00 00 00 00 00 00 00 00 00 00 00 06 00 00 00 04   ................
|     48: 00 00 00 00 00 00 00 00 00 00 00 01 00 00 00 00   ................
|     96: 00 00 00 00 0d 02 f3 00 07 01 51 00 03 c8 03 63   ..........Q....c
|    112: 02 fb 02 0a 02 c0 01 a8 01 51 00 00 00 00 00 00   .........Q......
|    336: 00 55 07 07 17 1b 1b 01 81 01 74 61 62 6c 65 74   .U........tablet
|    352: 31 5f 73 74 61 74 74 31 5f 73 74 61 74 07 43 52   1_statt1_stat.CR
|    368: 45 41 54 45 20 54 41 42 4c 45 20 27 74 31 5f 73   EATE TABLE 't1_s
|    384: 74 61 74 27 28 69 64 20 49 4e 54 45 47 45 52 20   tat'(id INTEGER 
|    400: 50 52 49 4d 41 52 59 20 4b 45 59 2c 20 76 61 6c   PRIMARY KEY, val
|    416: 75 65 20 42 4c 4f 42 29 60 06 07 17 21 21 01 81   ue BLOB)`...!!..
|    432: 0b 74 61 62 6c 65 74 31 5f 64 6f 63 73 69 7a 65   .tablet1_docsize
|    448: 74 31 5f 64 6f 63 73 69 7a 65 06 43 52 45 41 54   t1_docsize.CREAT
|    464: 45 20 54 41 42 4c 45 20 27 74 31 5f 64 6f 63 73   E TABLE 't1_docs
|    480: 69 7a 65 27 28 64 6f 63 69 64 20 49 4e 54 45 47   ize'(docid INTEG
|    496: 45 52 20 50 52 49 4d 41 52 59 20 4b 45 59 2c 20   ER PRIMARY KEY, 
|    512: 73 69 7a 65 20 42 4c 4f 42 29 81 33 04 07 17 1f   size BLOB).3....
|    528: 1f 01 82 35 74 61 62 6c 65 74 31 5f 73 65 67 64   ...5tablet1_segd
|    544: 69 72 74 31 5f 73 65 67 64 69 72 04 43 52 45 41   irt1_segdir.CREA
|    560: 54 45 20 54 41 42 4c 45 20 27 74 31 5f 73 65 67   TE TABLE 't1_seg
|    576: 64 69 72 27 28 6c 65 76 65 6c 20 49 4e 54 45 47   dir'(level INTEG
|    592: 45 52 2c 69 64 78 20 49 4e 54 45 47 45 52 2c 73   ER,idx INTEGER,s
|    608: 74 61 72 74 5f 62 6c 6f 63 6b 20 49 4e 54 45 47   tart_block INTEG
|    624: 45 52 2c 6c 65 61 76 65 73 5f 65 6e 64 5f 62 6c   ER,leaves_end_bl
|    640: 6f 63 6b 20 49 4e 54 45 47 45 52 2c 65 6e 64 5f   ock INTEGER,end_
|    656: 62 6c 6f 63 6b 20 49 4e 54 45 47 45 52 2c 72 6f   block INTEGER,ro
|    672: 6f 74 20 42 4c 4f 42 2c 50 52 49 4d 41 52 59 20   ot BLOB,PRIMARY 
|    688: 4b 45 59 28 6c 65 76 65 6c 2c 20 69 64 78 29 29   KEY(level, idx))
|    704: 31 05 06 17 45 1f 01 00 69 6e 64 65 78 73 71 6c   1...E...indexsql
|    720: 69 74 65 5f 61 75 74 6f 69 6e 64 65 78 5f 74 31   ite_autoindex_t1
|    736: 5f 73 65 67 64 69 72 5f 31 74 31 5f 73 65 67 64   _segdir_1t1_segd
|    752: 69 72 05 00 00 00 08 00 00 00 00 66 03 07 17 23   ir.........f...#
|    768: 23 01 81 13 74 61 62 6c 65 74 31 5f 73 65 67 6d   #...tablet1_segm
|    784: 65 6e 74 73 74 31 5f 73 65 67 6d 65 6e 74 73 03   entst1_segments.
|    800: 43 52 45 41 54 45 20 54 41 42 4c 45 20 27 74 31   CREATE TABLE 't1
|    816: 5f 73 65 67 6d 65 6e 74 73 27 28 62 6c 6f 63 6b   _segments'(block
|    832: 69 64 20 49 4e 53 45 47 45 52 20 50 52 49 4d 41   id INSEGER PRIMA
|    848: 52 59 20 4b 45 59 2c 20 62 6c 6f 63 6b 20 42 4c   RY KEY, block BL
|    864: 4f 42 29 63 02 07 17 21 21 01 81 11 74 61 62 6c   OB)c...!!...tabl
|    880: 65 74 31 5f 63 6f 6e 74 65 6e 74 74 31 5f 63 6f   et1_contentt1_co
|    896: 6e 74 65 6e 74 02 43 52 45 41 54 45 20 54 41 42   ntent.CREATE TAB
|    912: 4c 45 20 27 74 31 5f 63 6f 6e 74 65 6e 74 27 28   LE 't1_content'(
|    928: 64 6f 63 69 64 20 49 4e 54 45 47 45 52 20 50 52   docid INTEGER PR
|    944: 49 4d 41 52 59 20 4b 45 59 2c 20 27 63 30 30 27   IMARY KEY, 'c00'
|    960: 2c 20 27 63 31 62 27 29 36 01 06 17 11 11 08 5b   , 'c1b')6......[
|    976: 74 61 62 6c 65 74 31 74 31 43 52 45 41 54 45 20   tablet1t1CREATE 
|    992: 56 49 52 54 55 41 4c 20 54 41 42 4c 45 20 74 31   VIRTUAL TABLE t1
|   1008: 20 55 53 49 4e 47 20 66 74 73 34 28 30 2c 62 29    USING fts4(0,b)
| page 2 offset 1024
|      0: 0d 00 00 00 03 00 0f 00 00 23 00 16 00 0f 00 05   .........#......
|     16: 03 04 00 08 0f 61 0b 02 04 00 08 1b 41 54 45 20   .....a......ATE 
|     32: 32 3a 50 87 5a 01 05 00 08 8f 37 66 30 30 30 30   2:P.Z.....7f0000
|     48: 30 30 30 30 30 30 30 30 30 30 30 30 30 30 30 30   0000000000000000
|     64: 30 30 30 30 30 30 30 30 30 30 30 30 30 30 30 30   0000000000000000
|     80: 30 30 30 30 30 30 30 30 30 30 30 30 30 30 30 30   0000000000000000
|     96: 30 30 30 30 30 30 30 30 30 30 30 30 30 30 30 30   0000000000000000
|    112: 30 30 30 30 30 30 30 30 30 30 30 30 30 30 30 30   0000000000000000
|    128: 30 30 30 30 30 30 30 30 30 30 30 30 30 30 30 30   0000000000000000
|    144: 30 30 30 30 30 30 30 30 30 30 30 30 30 30 30 30   0000000000000000
|    160: 30 30 30 30 30 30 30 30 30 30 30 30 30 30 30 30   0000000000000000
|    176: 30 30 30 30 30 30 30 30 30 30 30 30 30 30 30 30   0000000000000000
|    192: 30 30 30 30 30 30 30 30 30 30 30 30 30 30 30 30   0000000000000000
|    208: 30 30 30 30 30 30 30 30 30 30 30 30 30 30 30 30   0000000000000000
|    224: 30 30 30 30 30 30 30 30 30 30 30 30 30 30 30 30   0000000000000000
|    240: 30 30 30 30 30 30 30 30 30 30 30 30 30 30 30 30   0000000000000000
|    256: 30 30 30 30 30 30 30 30 30 30 30 30 30 30 30 30   0000000000000000
|    272: 30 30 30 30 30 30 30 30 30 30 30 30 30 30 30 30   0000000000000000
|    288: 30 30 30 30 30 30 30 30 30 30 30 30 30 30 30 30   0000000000000000
|    304: 30 30 30 30 30 30 30 30 30 30 30 30 30 30 30 30   0000000000000000
|    320: 30 30 30 30 30 30 30 30 30 30 30 30 30 30 30 30   0000000000000000
|    336: 30 30 30 30 30 30 30 30 30 30 30 30 30 30 30 30   0000000000000000
|    352: 30 30 30 30 30 30 30 30 30 30 30 30 30 30 30 30   0000000000000000
|    368: 30 30 30 30 30 30 30 30 30 30 30 30 30 30 30 30   0000000000000000
|    384: 30 30 30 30 30 30 30 30 30 30 30 30 30 30 30 30   0000000000000000
|    400: 30 30 30 30 30 30 30 30 30 30 30 30 30 30 30 30   0000000000000000
|    416: 30 30 30 30 30 30 30 30 30 30 30 30 30 30 30 30   0000000000000000
|    432: 30 30 30 30 30 30 30 30 30 30 30 30 30 30 30 30   0000000000000000
|    448: 30 30 30 30 30 30 30 30 30 30 30 30 30 30 30 30   0000000000000000
|    464: 30 30 30 30 30 30 30 30 30 30 30 30 30 30 30 30   0000000000000000
|    480: 30 30 30 30 30 30 30 30 30 30 30 30 30 30 30 30   0000000000000000
|    496: 30 40 30 30 30 30 30 30 30 30 30 30 30 30 30 30   0@00000000000000
|    512: 30 30 30 30 30 30 30 30 30 30 30 30 30 30 30 30   0000000000000000
|    528: 30 30 30 30 30 30 30 30 30 30 30 30 30 30 30 30   0000000000000000
|    544: 30 30 30 30 30 30 30 30 30 30 30 30 30 30 30 30   0000000000000000
|    560: 30 30 30 30 30 30 30 30 30 30 30 30 30 30 30 30   0000000000000000
|    576: 30 30 30 30 30 30 30 30 30 30 30 30 30 30 30 30   0000000000000000
|    592: 30 30 30 30 30 30 30 30 30 30 30 30 30 30 30 30   0000000000000000
|    608: 30 30 30 30 30 30 30 30 30 30 30 30 30 30 30 30   0000000000000000
|    624: 30 30 30 30 30 30 30 30 30 30 30 30 30 30 30 30   0000000000000000
|    640: 30 30 30 30 30 30 30 30 30 30 30 30 30 30 30 30   0000000000000000
|    656: 30 30 30 30 30 30 30 30 30 30 30 30 30 30 30 30   0000000000000000
|    672: 30 30 30 30 30 30 30 30 30 30 30 30 30 30 30 30   0000000000000000
|    688: 30 30 30 30 30 30 30 30 30 30 30 30 30 30 30 30   0000000000000000
|    704: 30 30 30 30 30 30 30 30 30 30 30 30 30 30 30 30   0000000000000000
|    720: 30 30 30 30 30 30 30 30 30 30 30 30 30 30 30 30   0000000000000000
|    736: 30 30 30 30 30 30 30 30 30 30 30 30 30 30 30 30   0000000000000000
|    752: 30 30 30 30 30 30 30 30 30 30 30 30 30 30 30 30   0000000000000000
|    768: 30 30 30 30 30 30 30 30 30 30 30 30 30 30 30 30   0000000000000000
|    784: 30 30 30 30 30 30 30 30 30 30 30 30 30 30 30 30   0000000000000000
|    800: 30 30 30 30 30 30 30 30 30 30 30 30 30 30 30 30   0000000000000000
|    816: 30 30 30 30 30 30 30 30 30 30 30 30 30 30 30 30   0000000000000000
|    832: 30 30 30 30 30 30 30 30 30 30 30 30 30 30 30 30   0000000000000000
|    848: 30 30 30 30 30 30 30 30 30 30 30 30 30 30 30 30   0000000000000000
|    864: 30 30 30 30 30 30 30 30 30 30 30 30 30 30 30 30   0000000000000000
|    880: 30 30 30 30 30 30 30 30 30 30 30 30 30 30 30 30   0000000000000000
|    896: 30 30 30 30 30 30 30 30 30 30 30 30 30 30 30 30   0000000000000000
|    912: 30 30 30 30 30 30 30 30 30 30 30 30 30 30 30 30   0000000000000000
|    928: 30 30 30 30 30 30 30 30 30 30 30 30 30 30 30 30   0000000000000000
|    944: 30 30 30 30 30 30 30 30 30 30 30 30 30 30 30 30   0000000000000000
|    960: 30 30 30 30 30 30 30 30 30 30 30 30 30 30 30 30   0000000000000000
|    976: 30 30 30 30 30 30 30 30 30 30 30 30 30 30 30 30   0000000000000000
|    992: 30 30 30 30 30 30 30 30 30 30 30 30 30 30 30 30   0000000000000000
|   1008: 30 30 30 30 30 30 30 30 30 30 30 30 30 30 30 30   0000000000000000
| page 3 offset 2048
|      0: 0d 00 00 00 02 03 86 00 03 f4 03 86 00 00 00 00   ................
|    896: 00 00 00 00 00 00 87 62 02 04 00 8f 48 00 d5 07   .......b....H...
|    912: 66 30 30 30 30 30 30 30 30 30 30 30 30 30 30 30   f000000000000000
|    928: 30 30 30 30 3a 30 30 30 30 30 30 30 30 30 30 30   0000:00000000000
|    944: 30 30 30 30 30 30 30 30 30 30 30 30 30 30 30 30   0000000000000000
|    960: 30 30 30 30 30 30 30 30 30 30 30 30 30 30 30 30   0000000000000000
|    976: 30 30 30 30 30 30 30 30 30 30 30 30 30 30 30 30   0000000000000000
|    992: 30 30 30 30 30 30 30 30 30 30 30 30 30 30 30 30   0000000000000000
|   1008: 00 00 00 08 0a 01 03 00 1a 00 01 30 03 01 02 00   ...........0....
| page 4 offset 3072
|      0: 0d 00 00 00 03 03 9e 00 03 ed 03 bc 03 9e 00 00   ................
|    912: 00 00 00 00 00 00 00 00 00 00 00 00 00 00 1c 03   ................
|    928: 07 08 01 08 08 15 2c 02 30 20 31 36 00 01 30 03   ......,.0 16..0.
|    944: 03 02 00 00 01 61 05 03 01 01 02 00 2f 02 07 08   .....a....../...
|    960: 09 08 08 15 54 30 20 33 36 00 01 30 03 02 02 00   ....T0 36..0....
|    976: 00 01 32 05 02 01 01 03 00 00 03 61 74 65 05 02   ..2........ate..
|    992: 01 01 02 00 00 01 70 05 02 01 01 04 00 11 01 07   ......p.........
|   1008: 08 08 09 01 17 14 02 32 20 39 39 37 01 01 01 66   .......2 997...f
| page 5 offset 4096
|      0: 0a 00 00 00 03 03 ee 00 03 fb 03 f5 03 ee 00 00   ................
|    992: 00 00 00 00 00 00 00 00 00 00 00 00 00 00 06 04   ................
|   1008: 08 01 01 02 03 05 04 08 09 01 02 04 04 08 08 09   ................
| page 6 offset 5120
|      0: 0d 00 00 00 03 03 eb 00 00 00 00 00 00 00 00 00   ................
|    992: 00 00 00 00 00 00 00 00 00 00 00 05 03 03 00 10   ................
|   1008: 01 01 05 02 03 00 10 01 03 05 01 03 00 10 01 01   ................
| page 7 offset 6144
|      0: 0d 00 00 00 01 03 f6 00 03 f6 00 00 00 00 00 00   ................
|   1008: 00 00 00 00 00 00 08 00 03 00 16 03 08 c5 e0 07   ................
| page 8 offset 7168
|      0: 00 00 00 00 30 30 30 30 30 30 30 30 30 30 30 30   ....000000000000
|     16: 30 30 30 30 30 30 30 30 30 30 30 30 30 30 30 30   0000000000000000
|     32: 30 30 30 30 30 30 30 30 30 30 30 30 30 bc 30 30   0000000000000.00
|     48: 30 30 30 30 30 30 30 30 30 30 30 30 30 30 30 30   0000000000000000
|     64: 30 30 30 30 30 30 30 30 30 30 30 30 30 30 30 30   0000000000000000
|     80: 30 30 30 30 30 30 30 30 30 30 30 30 30 30 30 30   0000000000000000
|     96: 30 30 30 30 30 30 30 30 30 30 30 30 30 30 30 30   0000000000000000
|    112: 30 30 30 30 30 30 30 30 30 30 30 30 30 30 30 30   0000000000000000
|    128: 30 30 30 30 30 30 30 30 30 30 30 30 30 30 30 30   0000000000000000
|    144: 30 30 30 30 30 30 30 30 30 30 30 30 30 30 30 30   0000000000000000
|    160: 30 30 30 30 30 30 30 30 30 30 30 30 30 30 30 30   0000000000000000
|    176: 30 30 30 30 30 30 30 30 30 30 30 30 30 30 30 30   0000000000000000
|    192: 30 30 30 30 30 30 30 30 30 30 30 30 30 30 c0 30   00000000000000.0
|    208: 30 30 30 30 30 30 30 30 30 30 30 30 30 30 30 30   0000000000000000
|    224: 30 30 30 30 30 30 30 30 30 30 30 30 30 30 30 30   0000000000000000
|    240: 30 30 30 30 30 30 30 30 30 30 30 30 30 30 30 30   0000000000000000
|    256: 30 30 30 30 30 30 30 30 30 30 30 30 30 30 30 30   0000000000000000
|    272: 30 30 30 30 30 30 30 30 30 30 30 30 30 30 30 30   0000000000000000
|    288: 30 30 30 30 30 30 30 30 30 30 30 30 30 30 30 30   0000000000000000
|    304: 30 30 30 30 30 30 30 30 30 30 30 30 30 30 30 30   0000000000000000
|    320: 30 30 30 30 30 30 30 30 30 30 30 30 30 30 30 30   0000000000000000
|    336: 30 30 30 30 30 30 30 30 30 30 30 30 30 30 30 30   0000000000000000
|    352: 30 30 30 30 30 30 30 30 30 30 30 30 30 30 30 30   0000000000000000
|    368: 30 30 30 30 30 30 30 30 30 30 30 30 30 30 30 30   0000000000000000
|    384: 30 30 30 30 30 30 30 30 30 30 30 30 30 30 30 30   0000000000000000
|    400: 30 30 30 30 30 30 30 30 30 30 30 30 30 30 30 30   0000000000000000
|    416: 30 30 30 30 30 30 30 30 30 30 30 30 30 30 30 30   0000000000000000
|    432: 30 30 30 30 30 30 30 30 30 30 30 30 30 30 30 30   0000000000000000
|    448: 30 30 30 30 30 30 30 30 30 30 30 30 30 30 30 30   0000000000000000
|    464: 30 30 30 30 30 30 30 30 30 30 30 30 30 30 30 30   0000000000000000
|    480: 30 30 30 30 30 30 30 30 30 30 30 30 30 30 30 30   0000000000000000
|    496: 30 30 30 30 30 30 30 30 30 30 30 40 30 30 30 30   00000000000@0000
|    512: 30 30 30 30 30 30 30 30 30 30 30 30 30 30 30 30   0000000000000000
|    528: 30 30 30 30 30 30 30 30 30 30 30 30 30 30 30 30   0000000000000000
|    544: 30 30 30 30 30 30 30 30 30 30 30 30 30 30 30 30   0000000000000000
|    560: 30 30 30 30 30 30 30 30 30 30 30 30 30 30 30 30   0000000000000000
|    576: 30 30 30 30 30 30 30 30 30 30 30 30 30 30 30 30   0000000000000000
|    592: 30 30 30 30 30 30 30 30 30 30 30 30 30 30 30 30   0000000000000000
|    608: 30 30 30 30 30 30 30 30 30 30 30 30 30 30 30 30   0000000000000000
|    624: 30 30 30 30 30 30 30 30 30 30 30 30 30 30 30 30   0000000000000000
|    640: 30 30 30 30 30 30 30 30 30 30 30 30 30 30 30 30   0000000000000000
|    656: 30 30 30 30 30 30 30 30 30 30 30 30 30 30 30 30   0000000000000000
|    672: 30 30 30 30 30 30 30 30 30 30 30 30 30 30 30 30   0000000000000000
|    688: 30 30 30 30 30 30 30 30 30 30 30 30 30 30 30 30   0000000000000000
|    704: 30 30 30 30 30 30 30 30 30 30 30 30 30 30 30 30   0000000000000000
|    720: 30 30 30 30 30 30 30 30 30 30 30 30 30 30 30 30   0000000000000000
|    736: 30 30 30 30 30 30 30 30 30 30 30 30 30 30 30 30   0000000000000000
|    752: 30 30 30 30 30 30 30 30 30 30 30 30 30 30 30 30   0000000000000000
|    768: 30 30 30 30 30 30 30 30 30 30 30 30 30 30 30 30   0000000000000000
|    784: 30 30 30 30 30 30 30 30 30 30 30 30 30 30 30 30   0000000000000000
|    800: 30 30 30 30 30 30 30 30 30 30 30 30 30 30 30 30   0000000000000000
|    816: 30 30 30 30 30 30 30 30 30 30 30 30 30 30 30 30   0000000000000000
|    832: 30 30 30 30 30 30 30 30 30 30 30 30 30 30 30 30   0000000000000000
|    848: 30 30 30 30 30 30 30 30 30 30 30 30 30 30 30 30   0000000000000000
|    864: 30 30 30 30 30 30 30 30 30 30 30 30 30 30 30 30   0000000000000000
|    880: 30 30 30 30 30 30 30 30 30 05 01 00 00 00 00 00   000000000.......
| end crash-7bc.txt.db
}]} {}

do_execsql_test 53.1 {
  SELECT*FROM t1 WHERE t1 MATCH'ATE"0"OR"2D:P"""ATE"0"OR"2:P"""';
} {0 {ATE 2:P}}
set sqlite_fts3_enable_parentheses $saved

#-------------------------------------------------------------------------
#
reset_db
do_test 54.0 {
  sqlite3 db {}
  db deserialize [decode_hexdb {
.open --hexdb
| size 8192 pagesize 1024 filename crash-365.txt.db
| page 1 offset 0
|      0: 53 51 4c 69 74 65 20 66 6f 72 6d 61 74 20 33 00   SQLite format 3.
|     16: 04 00 01 01 00 40 20 20 00 00 00 00 00 00 00 08   .....@  ........
|     32: 00 00 00 00 00 00 00 00 00 00 00 06 00 00 00 04   ................
|     96: 00 00 00 00 0d 02 f3 00 07 01 51 00 03 c8 03 63   ..........Q....c
|    112: 02 fb 02 0a 02 c0 01 a8 01 51 00 00 00 00 00 00   .........Q......
|    336: 00 55 07 07 17 1b 1b 01 81 01 74 61 62 6c 65 74   .U........tablet
|    352: 31 5f 73 74 61 74 74 31 5f 73 74 61 74 07 43 52   1_statt1_stat.CR
|    368: 45 41 54 45 20 54 41 42 4c 45 20 27 74 31 5f 73   EATE TABLE 't1_s
|    384: 74 61 74 27 28 69 64 20 49 4e 54 45 47 45 52 20   tat'(id INTEGER 
|    400: 50 52 49 4d 41 52 59 20 4b 45 59 2c 20 76 61 6c   PRIMARY KEY, val
|    416: 75 65 20 42 4c 4f 42 29 60 06 07 17 21 21 01 81   ue BLOB)`...!!..
|    432: 0b 74 61 62 6c 65 74 31 5f 64 6f 63 73 69 7a 65   .tablet1_docsize
|    448: 74 31 5f 64 6f 63 73 69 7a 65 06 43 52 45 41 54   t1_docsize.CREAT
|    464: 45 20 54 41 42 4c 45 20 27 74 31 5f 64 6f 63 73   E TABLE 't1_docs
|    480: 69 7a 65 27 28 64 6f 63 69 64 20 49 4e 54 45 47   ize'(docid INTEG
|    496: 45 52 20 50 52 49 4d 41 52 59 20 4b 45 59 2c 20   ER PRIMARY KEY, 
|    512: 73 69 7a 65 20 42 4c 4f 42 29 81 33 04 07 17 1f   size BLOB).3....
|    528: 1f 01 82 35 74 61 62 6c 65 74 31 5f 73 65 67 64   ...5tablet1_segd
|    544: 69 72 74 31 5f 73 65 67 64 69 72 04 43 52 45 41   irt1_segdir.CREA
|    560: 54 45 20 54 41 42 4c 45 20 27 74 31 5f 73 65 67   TE TABLE 't1_seg
|    576: 64 69 72 27 28 6c 65 76 65 6c 20 49 4e 54 45 47   dir'(level INTEG
|    592: 45 52 2c 69 64 78 20 49 4e 54 45 47 45 52 2c 73   ER,idx INTEGER,s
|    608: 74 61 72 74 5f 62 6c 6f 63 6b 20 49 4e 54 45 47   tart_block INTEG
|    624: 45 52 2c 6c 65 61 76 65 73 5f 65 6e 64 5f 62 6c   ER,leaves_end_bl
|    640: 6f 63 6b 20 49 4e 54 45 47 45 52 2c 65 6e 64 5f   ock INTEGER,end_
|    656: 62 6c 6f 63 6b 20 49 4e 54 45 47 45 52 2c 72 6f   block INTEGER,ro
|    672: 6f 74 20 42 4c 4f 42 2c 50 52 49 4d 41 52 59 20   ot BLOB,PRIMARY 
|    688: 4b 45 59 28 6c 65 76 65 6c 2c 20 69 64 78 29 29   KEY(level, idx))
|    704: 31 05 06 17 45 1f 01 00 69 6e 64 65 78 73 71 6c   1...E...indexsql
|    720: 69 74 65 5f 61 75 74 6f 69 6e 64 65 78 5f 74 31   ite_autoindex_t1
|    736: 5f 73 65 67 64 69 72 5f 31 74 31 5f 73 65 67 64   _segdir_1t1_segd
|    752: 69 72 05 00 00 00 08 00 00 00 00 66 03 07 17 23   ir.........f...#
|    768: 23 01 81 13 74 61 62 6c 65 74 31 5f 73 65 67 6d   #...tablet1_segm
|    784: 65 6e 74 73 74 31 5f 73 65 67 6d 65 6e 74 73 03   entst1_segments.
|    800: 43 52 45 41 54 45 20 54 41 42 4c 45 20 27 74 31   CREATE TABLE 't1
|    816: 5f 73 65 67 6d 65 6e 74 73 27 28 62 6c 6f 63 6b   _segments'(block
|    832: 69 64 20 49 4e 54 45 47 45 52 20 50 52 49 4d 41   id INTEGER PRIMA
|    848: 52 59 20 4b 45 59 2c 20 62 6c 6f 63 6b 20 42 4c   RY KEY, block BL
|    864: 4f 42 29 63 02 07 17 21 21 01 81 11 74 61 62 6c   OB)c...!!...tabl
|    880: 65 74 31 5f 63 6f 6e 74 65 6e 74 74 31 5f 63 6f   et1_contentt1_co
|    896: 6e 74 65 6e 74 02 43 52 45 41 54 45 20 54 41 42   ntent.CREATE TAB
|    912: 4c 45 20 27 74 31 5f 63 6f 6e 74 65 6e 74 27 28   LE 't1_content'(
|    928: 64 6f 63 69 64 20 49 4e 54 45 47 45 52 20 50 52   docid INTEGER PR
|    944: 49 4d 41 52 59 20 4b 45 59 2c 20 27 63 30 30 27   IMARY KEY, 'c00'
|    960: 2c 20 27 63 31 62 27 29 36 01 06 17 11 11 08 5b   , 'c1b')6......[
|    976: 74 61 62 6c 65 74 31 74 31 43 52 45 41 54 45 20   tablet1t1CREATE 
|    992: 56 49 52 54 55 41 4c 20 54 41 42 4c 45 20 74 31   VIRTUAL TABLE t1
|   1008: 20 55 53 49 4e 47 20 66 74 73 34 28 30 2c 62 29    USING fts4(0,b)
| page 2 offset 1024
|      0: 0d 00 00 00 03 00 0f 00 00 23 00 16 00 0f 00 05   .........#......
|     16: 03 04 00 08 0f 61 0b 02 04 00 08 1b 41 54 45 20   .....a......ATE 
|     32: 32 3a 50 87 5a 01 05 00 08 8f 37 66 30 30 30 30   2:P.Z.....7f0000
|     48: 30 30 30 30 30 30 30 30 30 30 30 30 30 30 30 30   0000000000000000
|     64: 30 30 30 30 30 30 30 30 30 30 30 30 30 30 30 30   0000000000000000
|     80: 30 30 30 30 30 30 30 30 30 30 30 30 30 30 30 30   0000000000000000
|     96: 30 30 30 30 30 30 30 30 30 30 30 30 30 30 30 30   0000000000000000
|    112: 30 30 30 30 30 30 30 30 30 30 30 30 30 30 30 30   0000000000000000
|    128: 30 30 30 30 30 30 30 30 30 30 30 30 30 30 30 30   0000000000000000
|    144: 30 30 30 30 30 30 30 30 30 30 30 30 30 30 30 30   0000000000000000
|    160: 30 30 30 30 30 30 30 30 30 30 30 30 30 30 30 30   0000000000000000
|    176: 30 30 30 30 30 30 30 30 30 30 30 30 30 30 30 30   0000000000000000
|    192: 30 30 30 30 30 30 30 30 30 30 30 30 30 30 30 30   0000000000000000
|    208: 30 30 30 30 30 30 30 30 30 30 30 30 30 30 30 30   0000000000000000
|    224: 30 30 30 30 30 30 30 30 30 30 30 30 30 30 30 30   0000000000000000
|    240: 30 30 30 30 30 30 30 30 30 30 30 30 30 30 30 30   0000000000000000
|    256: 30 30 30 30 30 30 30 30 30 30 30 30 30 30 30 30   0000000000000000
|    272: 30 30 30 30 30 30 30 30 30 30 30 30 30 30 30 30   0000000000000000
|    288: 30 30 30 30 30 30 30 30 30 30 30 30 30 30 30 30   0000000000000000
|    304: 30 30 30 30 30 30 30 30 30 30 30 30 30 30 30 30   0000000000000000
|    320: 30 30 30 30 30 30 30 30 30 30 30 30 30 30 30 30   0000000000000000
|    336: 30 30 30 30 30 30 30 30 30 30 30 30 30 30 30 30   0000000000000000
|    352: 30 30 30 30 30 30 30 30 30 30 30 30 30 30 30 30   0000000000000000
|    368: 30 30 30 30 30 30 30 30 30 30 30 30 30 30 30 30   0000000000000000
|    384: 30 30 30 30 30 30 30 30 30 30 30 30 30 30 30 30   0000000000000000
|    400: 30 30 30 30 30 30 30 30 30 30 30 30 30 30 30 30   0000000000000000
|    416: 30 30 30 30 30 30 30 30 30 30 30 30 30 30 30 30   0000000000000000
|    432: 30 30 30 30 30 30 30 30 30 30 30 30 30 30 30 30   0000000000000000
|    448: 30 30 30 30 30 30 30 30 30 30 30 30 30 30 30 30   0000000000000000
|    464: 30 30 30 30 30 30 30 30 30 30 30 30 30 30 30 30   0000000000000000
|    480: 30 30 30 30 30 30 30 30 30 30 30 30 30 30 30 30   0000000000000000
|    496: 30 30 30 30 30 30 30 30 30 30 30 30 30 30 30 30   0000000000000000
|    512: 30 30 30 30 30 30 30 30 30 30 30 30 30 30 30 30   0000000000000000
|    528: 30 30 30 30 30 30 30 30 30 30 30 30 30 30 30 30   0000000000000000
|    544: 30 30 30 30 30 30 30 30 30 30 30 30 30 30 30 30   0000000000000000
|    560: 30 30 30 30 30 30 30 30 30 30 30 30 30 30 30 30   0000000000000000
|    576: 30 30 30 30 30 30 30 30 30 30 30 30 30 30 30 30   0000000000000000
|    592: 30 30 30 30 30 30 30 30 30 30 30 30 30 30 30 30   0000000000000000
|    608: 30 30 30 30 30 30 30 30 30 30 30 30 30 30 30 30   0000000000000000
|    624: 30 30 30 30 30 30 30 30 30 30 1b 30 30 30 30 30   0000000000.00000
|    640: 30 30 30 30 30 30 30 30 30 30 30 30 30 30 30 30   0000000000000000
|    656: 30 30 30 30 30 30 30 30 30 30 30 30 30 30 30 30   0000000000000000
|    672: 30 30 30 30 30 30 30 30 30 30 30 30 30 30 30 30   0000000000000000
|    688: 30 30 30 30 30 30 30 30 2f 30 30 30 30 30 30 30   00000000/0000000
|    704: 30 30 30 30 30 30 30 30 30 30 30 30 30 30 30 30   0000000000000000
|    720: 30 30 30 30 30 30 30 30 30 30 30 30 30 30 30 30   0000000000000000
|    736: 30 30 30 30 30 30 30 30 30 30 30 30 30 30 30 30   0000000000000000
|    752: 30 30 30 30 30 30 30 30 30 30 30 30 30 30 30 30   0000000000000000
|    768: 30 30 30 30 30 30 30 30 30 30 30 30 30 30 30 30   0000000000000000
|    784: 30 30 30 30 30 30 30 30 30 30 30 30 30 30 30 30   0000000000000000
|    800: 30 30 30 30 30 30 30 30 30 30 30 30 30 30 30 30   0000000000000000
|    816: 30 30 30 30 30 30 30 30 30 30 30 30 30 30 30 30   0000000000000000
|    832: 30 30 30 30 30 30 30 30 30 30 30 30 30 30 30 30   0000000000000000
|    848: 30 30 30 30 30 30 30 30 30 30 30 30 30 30 30 30   0000000000000000
|    864: 30 30 30 30 30 30 30 30 30 30 30 30 30 30 30 30   0000000000000000
|    880: 30 30 30 30 30 30 30 30 30 30 30 30 30 30 30 30   0000000000000000
|    896: 30 30 30 30 30 30 30 30 30 30 30 30 30 30 30 30   0000000000000000
|    912: 30 30 30 30 30 30 30 30 30 30 30 30 30 30 30 30   0000000000000000
|    928: 30 30 30 30 30 30 30 30 30 30 30 30 30 30 30 30   0000000000000000
|    944: 30 30 30 30 30 30 30 30 30 30 30 30 30 30 30 30   0000000000000000
|    960: 30 30 30 30 30 30 30 30 30 30 30 30 30 30 30 30   0000000000000000
|    976: 30 30 30 30 30 30 30 30 30 30 30 30 30 30 30 30   0000000000000000
|    992: 30 30 30 30 30 30 30 30 30 30 30 30 30 30 30 30   0000000000000000
|   1008: 30 30 30 30 30 30 30 30 30 30 30 30 30 30 30 30   0000000000000000
| page 3 offset 2048
|      0: 0d 00 00 00 02 03 86 00 03 f4 03 86 00 00 00 00   ................
|    896: 00 00 00 00 00 00 87 62 02 04 00 8f 48 00 d5 07   .......b....H...
|    912: 66 30 30 30 30 30 30 30 30 30 30 30 30 30 30 30   f000000000000000
|    928: 30 30 30 30 30 30 30 30 30 30 30 30 30 30 30 30   0000000000000000
|    944: 30 30 30 30 30 30 30 30 30 30 30 30 30 30 30 30   0000000000000000
|    960: 30 30 30 30 30 30 30 30 30 30 30 30 30 30 30 30   0000000000000000
|    976: 30 30 30 30 30 30 30 30 30 30 30 30 30 30 30 30   0000000000000000
|    992: 30 30 30 30 30 30 30 30 30 30 30 30 30 30 30 30   0000000000000000
|   1008: 00 00 00 08 0a 01 03 00 1a 00 01 30 03 01 02 00   ...........0....
| page 4 offset 3072
|      0: 0d 00 00 00 03 03 9e 00 03 ed 03 bc 03 9e 00 01   ................
|    912: 00 00 00 00 00 00 00 00 00 00 00 00 00 00 1c 03   ................
|    928: 07 08 01 08 08 15 2c 02 30 20 31 36 00 01 30 03   ......,.0 16..0.
|    944: 03 02 00 00 01 61 05 03 01 01 02 00 2f 02 07 08   .....a....../...
|    960: 09 08 08 15 54 30 20 33 36 00 01 30 03 02 02 00   ....T0 36..0....
|    976: 00 01 32 05 02 01 01 03 00 00 03 61 74 65 05 02   ..2........ate..
|    992: 01 01 02 00 00 01 70 05 02 01 01 04 00 11 01 07   ......p.........
|   1008: 08 08 09 01 17 14 02 32 20 39 39 37 01 01 01 66   .......2 997...f
| page 5 offset 4096
|      0: 0a 00 00 00 03 03 ee 00 03 fb 03 f5 03 ee 00 00   ................
|    992: 00 00 00 00 00 00 00 00 00 00 00 00 00 00 06 04   ................
|   1008: 08 01 01 02 03 05 04 08 09 01 02 04 04 08 08 09   ................
| page 6 offset 5120
|      0: 0d 00 00 00 03 03 eb 00 03 f9 03 f2 00 00 00 00   ................
|    992: 00 00 00 00 00 00 00 00 00 00 00 05 03 03 00 10   ................
|   1008: 01 01 05 02 03 00 10 01 03 05 01 03 00 10 01 01   ................
| page 7 offset 6144
|      0: 0d 00 00 00 01 03 f6 00 03 f6 00 00 00 00 00 00   ................
|   1008: 00 00 00 00 00 00 08 00 03 00 16 03 03 05 e0 07   ................
| page 8 offset 7168
|      0: 00 00 00 00 30 30 30 30 30 30 30 30 30 30 30 30   ....000000000000
|     16: 30 30 30 30 30 30 30 30 30 30 30 30 30 30 30 30   0000000000000000
|     32: 30 30 30 30 30 30 30 30 30 30 30 30 30 30 30 30   0000000000000000
|     48: 30 30 30 30 30 30 30 30 30 30 30 30 30 30 30 30   0000000000000000
|     64: 30 30 30 30 30 30 30 30 30 30 30 30 30 30 30 30   0000000000000000
|     80: 30 30 30 30 30 30 30 30 30 30 30 30 30 30 30 30   0000000000000000
|     96: 30 30 30 30 30 30 30 30 30 30 30 30 30 30 30 30   0000000000000000
|    112: 30 30 30 30 30 30 30 30 30 30 30 30 30 30 30 30   0000000000000000
|    128: 30 30 30 30 30 30 30 30 30 30 30 30 30 30 30 30   0000000000000000
|    144: 30 30 30 30 30 30 30 30 30 30 30 30 30 30 30 30   0000000000000000
|    160: 30 30 30 30 30 30 30 30 30 30 30 30 30 30 30 30   0000000000000000
|    176: 30 30 30 30 30 30 30 30 30 30 30 30 30 30 30 30   0000000000000000
|    192: 30 30 30 30 30 30 30 30 30 30 30 30 30 30 30 30   0000000000000000
|    208: 30 30 30 30 30 30 30 30 30 30 30 30 30 30 30 30   0000000000000000
|    224: 30 30 30 30 30 30 30 30 30 30 30 30 30 30 30 30   0000000000000000
|    240: 30 30 30 30 30 30 30 30 30 30 30 30 30 30 30 30   0000000000000000
|    256: 30 30 30 30 30 2f 30 30 30 30 30 30 30 30 30 30   00000/0000000000
|    272: 30 30 30 30 30 30 30 30 30 30 30 30 30 30 30 30   0000000000000000
|    288: 30 30 30 30 30 30 30 30 30 30 30 30 30 30 30 30   0000000000000000
|    304: 30 30 30 30 30 30 30 30 30 30 30 30 30 30 30 30   0000000000000000
|    320: 30 30 30 30 30 30 30 30 30 30 30 30 30 30 30 30   0000000000000000
|    336: 30 30 30 30 30 30 30 30 30 30 30 30 30 30 30 30   0000000000000000
|    352: 30 30 30 30 30 30 30 30 30 30 30 30 30 30 30 30   0000000000000000
|    368: 30 30 30 30 30 30 30 30 30 30 30 30 30 30 30 30   0000000000000000
|    384: 30 30 30 30 30 30 30 30 30 30 30 30 30 30 30 30   0000000000000000
|    400: 30 30 30 30 30 30 30 30 30 30 30 30 30 30 30 30   0000000000000000
|    416: 30 30 30 30 30 30 30 30 30 30 30 30 30 30 30 30   0000000000000000
|    432: 30 30 30 30 30 30 30 30 30 30 30 30 30 30 30 30   0000000000000000
|    448: 30 30 30 30 30 30 30 30 30 30 30 30 30 30 30 30   0000000000000000
|    464: 30 30 30 30 30 30 30 30 30 30 30 30 30 30 30 30   0000000000000000
|    480: 30 30 30 30 30 30 30 30 30 30 30 30 30 30 30 30   0000000000000000
|    496: 30 30 30 30 30 30 30 30 30 30 30 30 30 30 30 30   0000000000000000
|    512: 30 30 30 30 30 30 30 30 30 30 30 30 30 30 30 30   0000000000000000
|    528: 30 30 30 30 30 30 30 30 30 30 30 30 30 30 30 30   0000000000000000
|    544: 30 30 30 30 30 30 30 30 30 30 30 30 30 30 30 30   0000000000000000
|    560: 30 30 30 30 30 30 30 30 30 30 30 30 30 30 30 30   0000000000000000
|    576: 30 30 30 30 30 30 30 30 30 30 30 30 30 30 30 30   0000000000000000
|    592: 30 30 30 30 30 30 30 30 30 30 30 30 30 30 30 30   0000000000000000
|    608: 30 30 30 30 30 30 30 30 30 30 30 30 30 30 30 30   0000000000000000
|    624: 30 30 30 30 30 30 30 30 30 30 30 30 30 30 30 30   0000000000000000
|    640: 30 30 30 30 30 30 30 30 30 30 30 30 30 30 30 30   0000000000000000
|    656: 30 30 30 30 30 30 30 30 30 30 30 30 30 30 30 30   0000000000000000
|    672: 30 30 30 30 30 30 30 30 30 30 30 30 30 30 30 30   0000000000000000
|    688: 30 30 30 30 30 30 30 30 30 30 30 30 30 30 30 30   0000000000000000
|    704: 30 30 30 30 30 30 30 30 30 30 30 30 30 30 30 30   0000000000000000
|    720: 30 30 30 30 30 30 30 30 30 30 30 30 30 30 30 30   0000000000000000
|    736: 30 30 30 30 30 30 30 30 30 30 30 30 30 30 30 30   0000000000000000
|    752: 30 30 30 30 30 30 30 30 30 30 30 30 30 30 30 30   0000000000000000
|    768: 30 30 30 30 30 30 30 30 30 30 30 30 30 30 30 30   0000000000000000
|    784: 30 30 30 30 30 30 30 30 30 30 30 30 30 30 30 30   0000000000000000
|    800: 30 30 30 30 30 30 30 30 30 30 30 30 30 30 30 30   0000000000000000
|    816: 30 30 30 30 30 30 30 30 30 30 30 30 30 30 30 30   0000000000000000
|    832: 30 30 30 30 30 30 30 30 30 30 30 30 30 30 30 30   0000000000000000
|    848: 30 30 30 30 30 30 30 30 30 30 30 30 30 30 30 30   0000000000000000
|    864: 30 30 30 30 30 30 30 30 30 30 30 30 30 30 30 30   0000000000000000
|    880: 30 30 30 30 30 30 30 30 30 05 01 01 01 02 00 00   000000000.......
| end crash-365.txt.db
}]} {}

do_execsql_test 54.1 {
  SELECT rowid, quote(matchinfo(t1,'pcxybspcxybs')) FROM t1 WHERE t1 MATCH'ATE"0"OR"2:P"""';
}

finish_test
