# 2015 Apr 24
#
# The author disclaims copyright to this source code.  In place of
# a legal notice, here is a blessing:
#
#    May you do good and not evil.
#    May you find forgiveness for yourself and forgive others.
#    May you share freely, never taking more than you give.
#
#***********************************************************************
#
# This file tests that FTS5 handles corrupt databases (i.e. internal
# inconsistencies in the backing tables) correctly. In this case 
# "correctly" means without crashing.
#

source [file join [file dirname [info script]] fts5_common.tcl]
set testprefix fts5corrupt3

# If SQLITE_ENABLE_FTS5 is not defined, omit this file.
ifcapable !fts5 {
  finish_test
  return
}
sqlite3_fts5_may_be_corrupt 1
database_may_be_corrupt

proc create_t1 {} {
  expr srand(0)
  db func rnddoc fts5_rnddoc
  db eval {
    CREATE VIRTUAL TABLE t1 USING fts5(x);
    INSERT INTO t1(t1, rank) VALUES('pgsz', 64);
    WITH ii(i) AS (SELECT 1 UNION SELECT i+1 FROM ii WHERE i<100)
      INSERT INTO t1 SELECT rnddoc(10) FROM ii;
  }
}

# Create a simple FTS5 table containing 100 documents. Each document 
# contains 10 terms, each of which start with the character "x".
#
do_test 1.0 { create_t1 } {}

do_test 1.1 {
  # Pick out the rowid of the right-most b-tree leaf in the new segment.
  set rowid [db one {
    SELECT max(rowid) FROM t1_data WHERE ((rowid>>31) & 0x0F)==1
  }]
  set L [db one {SELECT length(block) FROM t1_data WHERE rowid = $rowid}]
  set {} {}
} {} 

sqlite3_db_config db DEFENSIVE 0
for {set i 0} {$i < $L} {incr i} {
  do_test 1.2.$i {
    catchsql {
      BEGIN;
      UPDATE t1_data SET block = substr(block, 1, $i) WHERE id = $rowid;
      INSERT INTO t1(t1) VALUES('integrity-check');
    }
  } {1 {database disk image is malformed}}
  catchsql ROLLBACK
}
 
#-------------------------------------------------------------------------
# Test that trailing bytes appended to the averages record are ignored.
#
do_execsql_test 2.1 {
  CREATE VIRTUAL TABLE t2 USING fts5(x);
  INSERT INTO t2 VALUES(rnddoc(10));
  INSERT INTO t2 VALUES(rnddoc(10));
  SELECT length(block) FROM t2_data WHERE id=1;
} {2}
do_execsql_test 2.2 {
  UPDATE t2_data SET block = block || 'abcd' WHERE id=1;
  SELECT length(block) FROM t2_data WHERE id=1;
} {6}
do_execsql_test 2.2 {
  INSERT INTO t2 VALUES(rnddoc(10));
  SELECT length(block) FROM t2_data WHERE id=1;
} {2}


#-------------------------------------------------------------------------
# Test that missing leaf pages are recognized as corruption.
#
reset_db
do_test 3.0 { create_t1 } {}
sqlite3_db_config db DEFENSIVE 0

do_execsql_test 3.1 {
  SELECT count(*) FROM t1_data;
} {105}

proc do_3_test {tn} {
  set i 0
  foreach ::rowid [db eval "SELECT rowid FROM t1_data WHERE rowid>100"] {
    incr i
    do_test $tn.$i {
      db eval BEGIN
      db eval {DELETE FROM t1_data WHERE rowid = $::rowid}
      list [
        catch { db eval {SELECT rowid FROM t1 WHERE t1 MATCH 'x*'} } msg
      ] $msg
    } {/.*fts5: corruption.*/}
    catch { db eval ROLLBACK }
  }
}

do_3_test 3.2

do_execsql_test 3.3 {
  INSERT INTO t1(t1, rank) VALUES('pgsz', 32);
  INSERT INTO t1 SELECT x FROM t1;
  INSERT INTO t1(t1) VALUES('optimize');
} {}

do_3_test 3.4

do_test 3.5 {
  execsql { 
    DELETE FROM t1;
    INSERT INTO t1(t1, rank) VALUES('pgsz', 40);
  }
  for {set i 0} {$i < 1000} {incr i} {
    set rnd [expr int(rand() * 1000)]
    set doc [string repeat "x$rnd " [expr int(rand() * 3) + 1]]
    execsql { INSERT INTO t1(rowid, x) VALUES($i, $doc) }
  }
} {}

do_3_test 3.6

do_test 3.7 {
  execsql {
    INSERT INTO t1(t1, rank) VALUES('pgsz', 40);
    INSERT INTO t1 SELECT x FROM t1;
    INSERT INTO t1(t1) VALUES('optimize');
  }
} {}

do_3_test 3.8

do_test 3.9 {
  execsql { 
    DELETE FROM t1;
    INSERT INTO t1(t1, rank) VALUES('pgsz', 32);
  }
  for {set i 0} {$i < 100} {incr i} {
    set rnd [expr int(rand() * 100)]
    set doc "x[string repeat $rnd 20]"
    execsql { INSERT INTO t1(rowid, x) VALUES($i, $doc) }
  }
} {}

do_3_test 3.10

#-------------------------------------------------------------------------
# Test that segments that end unexpectedly are identified as corruption.
#
reset_db
sqlite3_db_config db DEFENSIVE 0
do_test 4.0 {
  execsql { 
    CREATE VIRTUAL TABLE t1 USING fts5(x);
    INSERT INTO t1(t1, rank) VALUES('pgsz', 32);
  }
  for {set i 0} {$i < 100} {incr i} {
    set rnd [expr int(rand() * 100)]
    set doc "x[string repeat $rnd 20]"
    execsql { INSERT INTO t1(rowid, x) VALUES($i, $doc) }
  }
  execsql { INSERT INTO t1(t1) VALUES('optimize') }
} {}

set nErr 0
for {set i 1} {1} {incr i} {
  set struct [db one {SELECT block FROM t1_data WHERE id=10}]
  binary scan $struct c* var
  set end [lindex $var end]
  if {$end<=$i} break
  lset var end [expr $end - $i]
  set struct [binary format c* $var]

  db close
  sqlite3 db test.db
  sqlite3_db_config db DEFENSIVE 0

  db eval {
    BEGIN;
    UPDATE t1_data SET block = $struct WHERE id=10;
  }
  do_test 4.1.$i {
    incr nErr [catch { db eval { SELECT rowid FROM t1 WHERE t1 MATCH 'x*' } }]
    set {} {}
  } {}
  catch { db eval ROLLBACK }
}
do_test 4.1.x { expr $nErr>45 } 1

#-------------------------------------------------------------------------
#

# The first argument passed to this command must be a binary blob 
# containing an FTS5 leaf page. This command returns a copy of this
# blob, with the pgidx of the leaf page replaced by a single varint
# containing value $iVal.
#
proc rewrite_pgidx {blob iVal} {
  binary scan $blob SS off1 szLeaf
  if {$iVal<0 || $iVal>=128} {
    error "$iVal out of range!"
  } else {
    set pgidx [binary format c $iVal]
  }

  binary format a${szLeaf}a* $blob $pgidx
}

reset_db
do_execsql_test 5.1 {
  CREATE VIRTUAL TABLE x1 USING fts5(x);
  INSERT INTO x1(x1, rank) VALUES('pgsz', 40);
  BEGIN;
  INSERT INTO x1 VALUES('xaaa xabb xccc xcdd xeee xeff xggg xghh xiii xijj');
  INSERT INTO x1 SELECT x FROM x1;
  INSERT INTO x1 SELECT x FROM x1;
  INSERT INTO x1 SELECT x FROM x1;
  INSERT INTO x1 SELECT x FROM x1;
  INSERT INTO x1(x1) VALUES('optimize');
  COMMIT;
}

#db eval { SELECT fts5_decode(id, block) b from x1_data } { puts $b }
#
db func rewrite_pgidx rewrite_pgidx  
set i 0
foreach rowid [db eval {SELECT rowid FROM x1_data WHERE rowid>100}] {
  foreach val {2 100} {
    do_test 5.2.$val.[incr i] {
      catchsql {
        BEGIN;
        UPDATE x1_data SET block=rewrite_pgidx(block, $val) WHERE id=$rowid;
        SELECT rowid FROM x1 WHERE x1 MATCH 'xa*';
        SELECT rowid FROM x1 WHERE x1 MATCH 'xb*';
        SELECT rowid FROM x1 WHERE x1 MATCH 'xc*';
        SELECT rowid FROM x1 WHERE x1 MATCH 'xd*';
        SELECT rowid FROM x1 WHERE x1 MATCH 'xe*';
        SELECT rowid FROM x1 WHERE x1 MATCH 'xf*';
        SELECT rowid FROM x1 WHERE x1 MATCH 'xg*';
        SELECT rowid FROM x1 WHERE x1 MATCH 'xh*';
        SELECT rowid FROM x1 WHERE x1 MATCH 'xi*';
      }
      set {} {}
    } {}
    catch { db eval ROLLBACK }
  }
}

#------------------------------------------------------------------------
#
reset_db
sqlite3_db_config db DEFENSIVE 0
do_execsql_test 6.1.0 {
  CREATE VIRTUAL TABLE t1 USING fts5(a);
  INSERT INTO t1 VALUES('bbbbb ccccc');
  SELECT quote(block) FROM t1_data WHERE rowid>100;
} {X'000000180630626262626201020201056363636363010203040A'}
do_execsql_test 6.1.1 {
  UPDATE t1_data SET block = 
  X'000000180630626262626201020201056161616161010203040A'
  WHERE rowid>100;
}
do_catchsql_test 6.1.2 {
  INSERT INTO t1(t1) VALUES('integrity-check');
} {/.*fts5: corruption.*/}

#-------
reset_db
sqlite3_db_config db DEFENSIVE 0
do_execsql_test 6.2.0 {
  CREATE VIRTUAL TABLE t1 USING fts5(a);
  INSERT INTO t1(t1, rank) VALUES('pgsz', 32);
  INSERT INTO t1 VALUES('aa bb cc dd ee');
  SELECT pgno, quote(term) FROM t1_idx;
} {2 X'' 4 X'3064'}
do_execsql_test 6.2.1 {
  UPDATE t1_idx SET term = X'3065' WHERE pgno=4;
}
do_catchsql_test 6.2.2 {
  INSERT INTO t1(t1) VALUES('integrity-check');
} {/.*fts5: corruption.*/}

#-------
reset_db
sqlite3_db_config db DEFENSIVE 0
do_execsql_test 6.3.0 {
  CREATE VIRTUAL TABLE t1 USING fts5(a);
  INSERT INTO t1 VALUES('abc abcdef abcdefghi');
  SELECT quote(block) FROM t1_data WHERE id>100;
}    {X'0000001C043061626301020204036465660102030703676869010204040808'}
do_execsql_test 6.3.1 {
  BEGIN;
    UPDATE t1_data SET block = 
      X'0000001C043061626301020204036465660102035003676869010204040808'
      ------------------------------------------^^---------------------
    WHERE id>100;
}
do_catchsql_test 6.3.2 {
  INSERT INTO t1(t1) VALUES('integrity-check');
} {/.*fts5: corruption.*/}
do_execsql_test 6.3.3 {
  ROLLBACK;
  BEGIN;
    UPDATE t1_data SET block = 
      X'0000001C043061626301020204036465660102030750676869010204040808'
      --------------------------------------------^^-------------------
    WHERE id>100;
}
do_catchsql_test 6.3.3 {
  INSERT INTO t1(t1) VALUES('integrity-check');
} {/.*fts5: corruption.*/}
do_execsql_test 6.3.4 {
  ROLLBACK;
  BEGIN;
    UPDATE t1_data SET block = 
      X'0000001C043061626301020204036465660102030707676869010204040850'
      --------------------------------------------------------------^^-
    WHERE id>100;
}
do_catchsql_test 6.3.5 {
  INSERT INTO t1(t1) VALUES('integrity-check');
} {/.*fts5: corruption.*/}
do_execsql_test 6.3.6 {
  ROLLBACK;
  BEGIN;
    UPDATE t1_data SET block = 
      X'0000001C503061626301020204036465660102030707676869010204040808'
      ----------^^-----------------------------------------------------
    WHERE id>100;
}
do_catchsql_test 6.3.5 {
  INSERT INTO t1(t1) VALUES('integrity-check');
} {/.*fts5: corruption.*/}


#------------------------------------------------------------------------
#
reset_db
proc rnddoc {n} {
  set map [list a b c d]
  set doc [list]
  for {set i 0} {$i < $n} {incr i} {
    lappend doc "x[lindex $map [expr int(rand()*4)]]"
  }
  set doc
}

db func rnddoc rnddoc
do_test 7.0 {
  execsql {
    CREATE VIRTUAL TABLE t5 USING fts5(x);
    INSERT INTO t5 VALUES( rnddoc(10000) );
    INSERT INTO t5 VALUES( rnddoc(10000) );
    INSERT INTO t5 VALUES( rnddoc(10000) );
    INSERT INTO t5 VALUES( rnddoc(10000) );
    INSERT INTO t5(t5) VALUES('optimize');
  }
} {}

sqlite3_db_config db DEFENSIVE 0
do_test 7.1 {
  foreach i [db eval { SELECT rowid FROM t5_data WHERE rowid>100 }] {
    db eval BEGIN  
    db eval {DELETE FROM t5_data WHERE rowid = $i}
    set r [catchsql { INSERT INTO t5(t5) VALUES('integrity-check')} ]
    if {![string match {*fts5: corruption*} $r]} { error $r }
    db eval ROLLBACK  
  }
} {}

#------------------------------------------------------------------------
# Corruption within the structure record.
#
reset_db
do_execsql_test 8.1 {
  CREATE VIRTUAL TABLE t1 USING fts5(x, y);
  INSERT INTO t1 VALUES('one', 'two');
}

sqlite3_db_config db DEFENSIVE 0
do_test 9.1.1 {
  set    blob "12345678"    ;# cookie
  append blob "0105"        ;# 1 level, total of 5 segments
  append blob "06"          ;# write counter
  append blob "0002"        ;# first level has 0 segments merging, 2 other.
  append blob "450108"      ;# first segment
  execsql "REPLACE INTO t1_data VALUES(10, X'$blob')"
} {}
do_catchsql_test 9.1.2 {
  SELECT * FROM t1('one AND two');
} {/.*fts5: corrupt.*/}

do_test 9.2.1 {
  set    blob "12345678"    ;# cookie
  append blob "0205"        ;# 2 levels, total of 5 segments
  append blob "06"          ;# write counter
  append blob "0001"        ;# first level has 0 segments merging, 1 other.
  append blob "450108"      ;# first segment
  execsql "REPLACE INTO t1_data VALUES(10, X'$blob')"
} {}
do_catchsql_test 9.2.2 {
  SELECT * FROM t1('one AND two');
} {/.*fts5: corrupt.*/}

#-------------------------------------------------------------------------
reset_db
do_test 10.0 {
  sqlite3 db {}
  db deserialize [decode_hexdb {
| size 32768 pagesize 4096 filename c9.db
| page 1 offset 0
|      0: 53 51 4c 69 74 65 20 66 6f 72 6d 61 74 20 33 00   SQLite format 3.
|     16: 10 00 01 01 00 40 20 20 00 00 00 00 00 00 00 07   .....@  ........
|     32: 00 00 00 00 00 00 00 00 00 00 00 07 00 00 00 04   ................
|     48: 00 00 00 00 00 00 00 00 00 00 00 01 00 00 00 00   ................
|     96: 00 00 00 00 0d 00 00 00 07 0d d2 00 0f c4 0f 6d   ...............m
|    112: 0f 02 0e ab 0e 4e 0d f6 0d d2 00 00 00 00 00 00   .....N..........
|   3536: 00 00 22 07 06 17 11 11 01 31 74 61 62 6c 65 74   .........1tablet
|   3552: 32 74 32 07 43 52 45 41 54 45 20 54 41 42 4c 45   2t2.CREATE TABLE
|   3568: 20 74 32 28 78 29 56 06 06 17 1f 1f 01 7d 74 61    t2(x)V.......ta
|   3584: 62 6c 65 74 31 5f 63 6f 6e 66 69 67 74 31 5f 63   blet1_configt1_c
|   3600: 6f 6e 66 69 67 06 43 52 45 41 54 45 20 54 41 42   onfig.CREATE TAB
|   3616: 4c 45 20 27 74 31 5f 63 6f 6e 66 69 67 27 28 6b   LE 't1_config'(k
|   3632: 20 50 52 49 4d 41 52 59 20 4b 45 59 2c 20 76 29    PRIMARY KEY, v)
|   3648: 20 57 49 54 48 4f 55 54 20 52 4f 57 49 44 5b 05    WITHOUT ROWID[.
|   3664: 07 17 21 21 01 81 01 74 61 62 6c 65 74 31 5f 64   ..!!...tablet1_d
|   3680: 6f 63 73 69 7a 65 74 31 5f 64 6f 63 73 69 7a 65   ocsizet1_docsize
|   3696: 05 43 52 45 41 54 45 20 54 41 42 4c 45 20 27 74   .CREATE TABLE 't
|   3712: 31 5f 64 6f 63 73 69 7a 65 27 28 69 64 20 49 4e   1_docsize'(id IN
|   3728: 54 45 47 45 52 20 50 52 49 4d 41 52 59 20 4b 45   TEGER PRIMARY KE
|   3744: 59 2c 20 73 7a 20 42 4c 4f 42 29 55 04 06 17 21   Y, sz BLOB)U...!
|   3760: 21 01 77 74 61 62 6c 65 74 31 5f 63 6f 6e 74 65   !.wtablet1_conte
|   3776: 6e 74 74 31 5f 63 6f 6e 74 65 6e 74 04 43 52 45   ntt1_content.CRE
|   3792: 41 54 45 20 54 41 42 4c 45 20 27 74 31 5f 63 6f   ATE TABLE 't1_co
|   3808: 6e 74 65 6e 74 27 28 69 64 20 49 4e 54 45 47 45   ntent'(id INTEGE
|   3824: 52 20 50 52 49 4d 41 52 59 20 4b 45 59 2c 20 63   R PRIMARY KEY, c
|   3840: 30 29 69 03 07 17 19 19 01 81 2d 74 61 62 6c 65   0)i.......-table
|   3856: 74 31 5f 69 64 78 74 31 5f 69 64 78 03 43 52 45   t1_idxt1_idx.CRE
|   3872: 41 54 45 20 54 41 42 4c 45 20 27 74 31 5f 69 64   ATE TABLE 't1_id
|   3888: 78 27 28 73 65 67 69 64 2c 20 74 65 72 6d 2c 20   x'(segid, term, 
|   3904: 70 67 6e 6f 2c 20 50 52 49 4d 41 52 59 20 4b 45   pgno, PRIMARY KE
|   3920: 59 28 73 65 67 69 64 2c 20 74 65 72 6d 29 29 20   Y(segid, term)) 
|   3936: 57 49 54 48 4f 55 54 20 52 4f 57 49 44 55 02 07   WITHOUT ROWIDU..
|   3952: 17 1b 1b 01 81 01 74 61 62 6c 65 74 31 5f 64 61   ......tablet1_da
|   3968: 74 61 74 31 5f 64 61 74 61 02 43 52 45 41 54 45   tat1_data.CREATE
|   3984: 20 54 41 42 4c 45 20 27 74 31 5f 64 61 74 61 27    TABLE 't1_data'
|   4000: 28 69 64 20 49 4e 54 45 47 45 52 20 50 52 49 4d   (id INTEGER PRIM
|   4016: 41 52 59 20 4b 45 59 2c 20 62 6c 6f 63 6b 20 42   ARY KEY, block B
|   4032: 4c 4f 42 29 3a 01 06 17 11 11 08 63 74 61 62 6c   LOB):......ctabl
|   4048: 65 74 31 74 31 43 52 45 41 54 45 20 56 49 52 54   et1t1CREATE VIRT
|   4064: 55 41 4c 20 54 41 42 4c 45 20 74 31 20 55 53 49   UAL TABLE t1 USI
|   4080: 4e 47 20 66 74 73 35 28 63 6f 6e 74 65 6e 74 29   NG fts5(content)
| page 2 offset 4096
|      0: 0d 00 00 00 03 0f bd 00 0f e8 0f ef 0f bd 00 00   ................
|   4016: 00 00 00 00 00 00 00 00 00 00 00 00 00 24 84 80   .............$..
|   4032: 80 80 80 01 03 00 4e 00 00 00 1e 06 30 61 62 61   ......N.....0aba
|   4048: 63 6b 01 02 02 04 02 66 74 02 06 36 b0 a0 10 21   ck.....ft..6...!
|   4064: d6 f7 07 46 96 d6 97 a6 05 01 03 00 10 03 03 0f   ...F............
|   4080: 0a 03 00 24 00 00 00 00 01 01 01 00 01 01 01 01   ...$............
| page 3 offset 8192
|      0: 0a 00 00 00 01 0f fa 00 0f fa 00 00 00 00 00 00   ................
|   4080: 00 00 00 00 00 00 00 00 00 00 05 04 09 0c 01 02   ................
| page 4 offset 12288
|      0: 0d 00 00 00 03 0f e0 00 0f f6 0f ec 0f e0 00 00   ................
|   4064: 0a 03 03 00 1b 61 62 61 6e 64 6f 6e 08 02 03 00   .....abandon....
|   4080: 17 61 62 61 66 74 08 01 03 00 17 61 62 61 63 6b   .abaft.....aback
| page 5 offset 16384
|      0: 0d 00 00 00 03 0f ee 00 0f fa 0f f4 0f ee 00 00   ................
|   4064: 00 00 00 00 00 00 00 00 00 00 00 00 00 00 04 03   ................
|   4080: 03 00 0e 01 04 02 03 00 0e 01 04 01 03 00 0e 01   ................
| page 6 offset 20480
|      0: 0a 00 00 00 01 0f f4 00 0f f4 00 00 00 00 00 00   ................
|   4080: 00 00 00 00 0b 03 1b 01 76 65 72 73 69 6f 6e 04   ........version.
| page 7 offset 24576
|      0: 0d 00 00 00 03 0f d6 00 0f f4 0f e1 0f d6 00 00   ................
|   4048: 00 00 00 00 00 00 09 03 02 1b 72 65 62 75 69 6c   ..........rebuil
|   4064: 64 11 02 02 2b 69 6e 74 65 67 72 69 74 79 2d 63   d...+integrity-c
|   4080: 68 65 62 6c 65 74 31 74 31 43 52 45 41 54 45 20   heblet1t1CREATE 
| page 8 offset 28672
|      0: 56 49 52 54 55 41 4c 20 54 41 42 4c 45 20 74 31   VIRTUAL TABLE t1
|     16: 20 55 53 49 4e 47 20 66 74 73 35 28 63 6f 6e 74    USING fts5(cont
|     32: 65 6e 74 29 0d 00 00 00 03 0f bd 00 0f e8 0f ef   ent)............
|     48: 0f bd 00 00 00 00 00 00 00 00 00 00 00 00 00 00   ................
| end c9.db
  }]
} {}
do_catchsql_test 10.1 {
  SELECT * FROM t1 WHERE t1 MATCH 'abandon';
} {/.*fts5: corrupt.*/}

#-------------------------------------------------------------------------
#
reset_db
do_test 11.0 {
  sqlite3 db {}
  db deserialize [decode_hexdb {
| size 28672 pagesize 4096 filename c10b.db
| page 1 offset 0
|      0: 53 51 4c 69 74 65 20 66 6f 72 6d 61 74 20 33 00   SQLite format 3.
|     16: 10 00 01 01 00 40 20 20 00 00 00 01 00 00 00 07   .....@  ........
|     32: 00 00 00 00 00 00 00 00 00 00 00 01 00 00 00 00   ................
|     48: 00 00 00 00 00 00 00 01 00 00 00 00 00 00 00 00   ................
|     80: 00 00 00 00 00 00 00 00 00 00 00 00 00 00 00 01   ................
|     96: 00 2e 30 38 0d 00 00 00 07 0d d2 00 0f c4 0f 6d   ..08...........m
|    112: 0f 02 0e ab 0e 4e 0d f6 0d d2 00 00 00 00 00 00   .....N..........
|   3536: 00 00 22 07 06 17 11 11 01 31 74 61 62 6c 65 74   .........1tablet
|   3552: 32 74 32 07 43 52 45 41 54 45 20 54 41 42 4c 45   2t2.CREATE TABLE
|   3568: 20 74 32 28 78 29 56 06 06 17 1f 1f 01 7d 74 61    t2(x)V.......ta
|   3584: 62 6c 65 74 31 5f 63 6f 6e 66 69 67 74 31 5f 63   blet1_configt1_c
|   3600: 6f 6e 66 69 67 06 43 52 45 41 54 45 20 54 41 42   onfig.CREATE TAB
|   3616: 4c 45 20 27 74 31 5f 63 6f 6e 66 69 67 27 28 6b   LE 't1_config'(k
|   3632: 20 50 52 49 4d 41 52 59 20 4b 45 59 2c 20 76 29    PRIMARY KEY, v)
|   3648: 20 57 49 54 48 4f 55 54 20 52 4f 57 49 44 5b 05    WITHOUT ROWID[.
|   3664: 07 17 21 21 01 81 01 74 61 62 6c 65 74 31 5f 64   ..!!...tablet1_d
|   3680: 6f 63 73 69 7a 65 74 31 5f 64 6f 63 73 69 7a 65   ocsizet1_docsize
|   3696: 05 43 52 45 41 54 45 20 54 41 42 4c 45 20 27 74   .CREATE TABLE 't
|   3712: 31 5f 64 6f 63 73 69 7a 65 27 28 69 64 20 49 4e   1_docsize'(id IN
|   3728: 54 45 47 45 52 20 50 52 49 4d 41 52 59 20 4b 45   TEGER PRIMARY KE
|   3744: 59 2c 20 73 7a 20 42 4c 4f 42 29 55 04 06 17 21   Y, sz BLOB)U...!
|   3760: 21 01 77 74 61 62 6c 65 74 31 5f 63 6f 6e 74 65   !.wtablet1_conte
|   3776: 6e 74 74 31 5f 63 6f 6e 74 65 6e 74 04 43 52 45   ntt1_content.CRE
|   3792: 41 54 45 20 54 41 42 4c 45 20 27 74 31 5f 63 6f   ATE TABLE 't1_co
|   3808: 6e 74 65 6e 74 27 28 69 64 20 49 4e 54 45 47 45   ntent'(id INTEGE
|   3824: 52 20 50 52 49 4d 41 52 59 20 4b 45 59 2c 20 63   R PRIMARY KEY, c
|   3840: 30 29 69 03 07 17 19 19 01 81 2d 74 61 62 6c 65   0)i.......-table
|   3856: 74 31 5f 69 64 78 74 31 5f 69 64 78 03 43 52 45   t1_idxt1_idx.CRE
|   3872: 41 54 45 20 54 41 42 4c 45 20 27 74 31 5f 69 64   ATE TABLE 't1_id
|   3888: 78 27 28 73 65 67 69 64 2c 20 74 65 72 6d 2c 20   x'(segid, term, 
|   3904: 70 67 6e 6f 2c 20 50 52 49 4d 41 52 59 20 4b 45   pgno, PRIMARY KE
|   3920: 59 28 73 65 67 69 64 2c 20 74 65 72 6d 29 29 20   Y(segid, term)) 
|   3936: 57 49 54 48 4f 55 54 20 52 4f 57 49 44 55 02 07   WITHOUT ROWIDU..
|   3952: 17 1b 1b 01 81 01 74 61 62 6c 65 74 31 5f 64 61   ......tablet1_da
|   3968: 74 61 74 31 5f 64 61 74 61 02 43 52 45 41 54 45   tat1_data.CREATE
|   3984: 20 54 41 42 4c 45 20 27 74 31 5f 64 61 74 61 27    TABLE 't1_data'
|   4000: 28 69 64 20 49 4e 54 45 47 45 52 20 50 52 44 d9   (id INTEGER PRD.
|   4016: 41 52 59 20 4b 45 59 2c 20 62 6c 6f 63 6b 20 42   ARY KEY, block B
|   4032: 4c 4f 42 29 3a 01 06 17 11 11 08 63 74 61 62 6c   LOB):......ctabl
|   4048: 65 74 31 74 31 43 52 45 41 54 45 20 56 49 52 54   et1t1CREATE VIRT
|   4064: 55 41 4c 20 54 41 42 4c 45 20 74 31 20 55 53 49   UAL TABLE t1 USI
|   4080: 4e 47 20 66 74 73 35 28 63 6f 6e 74 65 6e 74 29   NG fts5(content)
| page 2 offset 4096
|      0: 0d 00 00 00 06 0f 59 00 0f e8 0f ef 0f bd 0f b0   ......Y.........
|     16: 0f 73 0f 59 00 00 00 00 00 00 00 00 00 00 00 00   .s.Y............
|   3920: 00 00 00 00 00 00 00 00 00 13 84 80 80 80 80 04   ................
|   3936: 03 01 2a 0a 00 00 00 00 01 02 02 00 02 01 01 01   ..*.............
|   3952: 02 01 01 36 84 80 80 80 80 03 03 05 66 00 40 00   ...6........f.@.
|   3968: 00 00 01 00 00 00 29 07 30 61 63 74 69 76 65 04   ......).0active.
|   3984: 02 02 02 03 74 6f 6d 06 02 02 05 02 69 63 07 02   ....tom.....ic..
|   4000: 02 01 06 62 6f 6f 6d 65 72 05 02 02 04 0b 08 07   ...boomer.......
|   4016: 06 84 80 80 80 80 02 03 01 10 01 07 07 24 84 80   .............$..
|   4032: 80 80 80 01 03 00 4e 00 00 00 1e 06 30 61 62 61   ......N.....0aba
|   4048: 63 6b 01 02 02 04 02 66 74 02 02 02 04 04 6e 64   ck.....ft.....nd
|   4064: 6f 6e 03 02 02 04 0a 07 05 01 03 00 10 03 03 0f   on..............
|   4080: 0a 03 00 24 00 00 00 00 01 01 01 00 01 01 01 01   ...$............
| page 3 offset 8192
|      0: 0a 00 00 00 02 0f f3 00 0f fa 0f f3 00 00 00 00   ................
|   4080: 00 00 00 06 04 01 0c 01 02 02 05 04 09 0c 01 02   ................
| page 4 offset 12288
|      0: 0d 00 00 00 07 0f b6 00 0f f6 0f ec 0f e0 0f d5   ................
|     16: 0f ca 0f c1 0f b6 00 00 00 00 00 00 00 00 00 00   ................
|   4016: 00 00 00 00 00 00 09 07 03 00 19 61 74 6f 6d 69   ...........atomi
|   4032: 63 07 06 03 00 15 61 74 6f 6d 09 05 03 00 19 62   c.....atom.....b
|   4048: 6f 6f 6d 65 72 09 04 03 00 19 61 63 74 69 76 65   oomer.....active
|   4064: 0a 03 03 00 1b 61 62 61 6e 64 6f 6e 08 02 03 00   .....abandon....
|   4080: 17 61 62 61 66 74 08 01 03 00 17 61 62 61 63 6b   .abaft.....aback
| page 5 offset 16384
|      0: 0d 00 00 00 07 0f d6 00 0f fa 0f f4 0f ee 0f e8   ................
|     16: 0f e2 0f dc 0f d6 00 00 00 00 00 00 00 00 00 00   ................
|   4048: 00 00 00 00 00 00 04 07 03 00 0e 01 04 06 03 00   ................
|   4064: 0e 01 04 05 03 00 0e 01 04 04 03 00 0e 01 04 03   ................
|   4080: 03 00 0e 01 04 02 03 00 0e 01 04 01 03 00 0e 01   ................
| page 6 offset 20480
|      0: 0a 00 00 00 01 0f f4 00 0f f4 00 00 00 00 00 00   ................
|   4080: 00 00 00 00 0b 03 1b 01 76 65 72 73 69 6f 6e 04   ........version.
| page 7 offset 24576
|      0: 0d 00 00 00 03 0f d6 00 0f f4 0f e1 0f d6 00 00   ................
|   4048: 00 00 00 00 00 00 09 03 02 1b 72 65 62 75 69 6c   ..........rebuil
|   4064: 64 11 02 02 2b 69 6e 74 65 67 72 69 74 79 2d 63   d...+integrity-c
|   4080: 68 65 63 6b 0a 01 02 1d 6f 70 74 69 6d 69 7a 65   heck....optimize
| end c10b.db
}]} {}

# This returns SQLITE_CONSTRAINT instead of SQLITE_CORRUPT. The problem is
# that the corrupted structure-record leads fts5 to try to use a segment-id
# that is already in use. This is caught by the PRIMARY KEY constraint on
# the %_idx table.
#
do_catchsql_test 11.1 {
  UPDATE t1 SET content='abc' WHERE content='boomer';
} {1 {constraint failed}}

#-------------------------------------------------------------------------
#
reset_db
do_test 12.0 {
  sqlite3 db {}
  db deserialize [decode_hexdb {
| size 28672 pagesize 4096 filename c2.db
| page 1 offset 0
|      0: 53 51 4c 69 74 65 20 66 6f 72 6d 61 74 20 33 00   SQLite format 3.
|     16: 10 00 01 01 00 40 20 20 00 00 00 00 00 00 00 07   .....@  ........
|     32: 00 00 00 00 00 00 00 00 00 00 00 07 00 00 00 00   ................
|     48: 00 00 00 00 00 00 00 01 00 00 00 00 00 00 00 00   ................
|     96: 00 00 00 00 0d 00 00 00 07 0d d2 00 0f c4 0f 6d   ...............m
|    112: 0f 02 0e ab 0e 4e 0d f6 0d d2 00 00 00 00 00 00   .....N..........
|   3536: 00 00 22 07 06 17 11 11 01 31 74 61 62 6c 65 74   .........1tablet
|   3552: 32 74 32 07 43 52 45 41 54 45 20 54 41 42 4c 45   2t2.CREATE TABLE
|   3568: 20 74 32 28 78 29 56 06 06 17 1f 1f 01 7d 74 61    t2(x)V.......ta
|   3584: 62 6c 65 74 31 5f 63 6f 6e 66 69 67 74 31 5f 63   blet1_configt1_c
|   3600: 6f 6e 66 69 67 06 43 52 45 41 54 45 20 54 41 42   onfig.CREATE TAB
|   3616: 4c 45 20 27 74 31 5f 63 6f 6e 66 69 67 27 28 6b   LE 't1_config'(k
|   3632: 20 50 52 49 4d 41 52 59 20 4b 45 59 2c 20 76 29    PRIMARY KEY, v)
|   3648: 20 57 49 54 48 4f 55 54 20 52 4f 57 49 44 5b 05    WITHOUT ROWID[.
|   3664: 07 17 21 21 01 81 01 74 61 62 6c 65 74 31 5f 64   ..!!...tablet1_d
|   3680: 6f 63 73 69 7a 65 74 31 5f 64 6f 63 73 69 7a 65   ocsizet1_docsize
|   3696: 05 43 52 45 41 54 45 20 54 41 42 4c 45 20 27 74   .CREATE TABLE 't
|   3712: 31 5f 64 6f 63 73 69 7a 65 27 28 69 64 20 49 4e   1_docsize'(id IN
|   3728: 54 45 47 45 52 20 50 52 49 4d 41 52 59 20 4b 45   TEGER PRIMARY KE
|   3744: 59 2c 20 73 7a 20 42 4c 4f 42 29 55 04 06 17 21   Y, sz BLOB)U...!
|   3760: 21 01 77 74 61 62 6c 65 74 31 5f 63 6f 6e 74 65   !.wtablet1_conte
|   3776: 6e 74 74 31 5f 63 6f 6e 74 65 6e 74 04 43 52 45   ntt1_content.CRE
|   3792: 41 54 45 20 54 41 42 4c 45 20 27 74 31 5f 63 6f   ATE TABLE 't1_co
|   3808: 6e 74 65 6e 74 27 28 69 64 20 49 4e 54 45 47 45   ntent'(id INTEGE
|   3824: 52 20 50 52 49 4d 41 52 59 20 4b 45 59 2c 20 63   R PRIMARY KEY, c
|   3840: 30 29 69 03 07 17 19 19 01 81 2d 74 61 62 6c 65   0)i.......-table
|   3856: 74 31 5f 69 64 78 74 31 5f 69 64 78 03 43 52 45   t1_idxt1_idx.CRE
|   3872: 41 54 45 20 54 41 42 4c 45 20 27 74 31 5f 69 64   ATE TABLE 't1_id
|   3888: 78 27 28 73 65 67 69 64 2c 20 74 65 72 6d 2c 20   x'(segid, term, 
|   3904: 70 67 6e 6f 2c 20 50 52 49 4d 41 52 59 20 4b 45   pgno, PRIMARY KE
|   3920: 59 28 73 65 67 69 64 2c 20 74 65 72 6d 29 29 20   Y(segid, term)) 
|   3936: 57 49 54 48 4f 55 54 20 52 4f 57 49 44 55 02 07   WITHOUT ROWIDU..
|   3952: 17 1b 1b 01 81 01 74 61 62 6c 65 74 31 5f 64 61   ......tablet1_da
|   3968: 74 61 74 31 5f 64 61 74 61 02 43 52 45 41 54 45   tat1_data.CREATE
|   3984: 20 54 41 42 4c 45 20 27 74 31 5f 64 61 74 61 27    TABLE 't1_data'
|   4000: 28 69 64 20 49 4e 54 45 47 45 52 20 50 52 49 4d   (id INTEGER PRIM
|   4016: 41 52 59 20 4b 45 59 2c 20 62 6c 6f 63 6b 20 42   ARY KEY, block B
|   4032: 4c 4f 42 29 3a 01 06 17 11 11 08 63 74 61 62 6c   LOB):......ctabl
|   4048: 65 74 31 74 31 43 52 45 41 54 45 20 56 49 52 54   et1t1CREATE VIRT
|   4064: 55 41 4c 20 54 41 42 4c 45 20 74 31 20 55 53 49   UAL TABLE t1 USI
|   4080: 4e 47 20 66 74 73 35 28 63 6f 6e 74 65 6e 74 29   NG fts5(content)
| page 2 offset 4096
|      0: 0d 00 00 00 03 0f bd 00 0f d8 0f ef 0f bd 00 00   ................
|   4016: 00 00 00 00 00 00 00 00 00 00 00 00 00 24 84 80   .............$..
|   4032: 80 80 80 01 03 00 4e 00 00 00 1e 06 30 61 62 61   ......N.....0aba
|   4048: 63 6b 01 02 02 04 02 66 74 02 02 02 04 04 6e 64   ck.....ft.....nd
|   4064: 6f 6e 03 02 02 04 0a 07 05 01 03 00 10 03 03 0f   on..............
|   4080: 0a 03 00 24 00 00 00 00 01 01 01 20 01 01 01 01   ...$....... ....
| page 3 offset 8192
|      0: 0a 00 00 00 01 0f fa 00 0f fa 00 00 00 00 00 00   ................
|   4080: 00 00 00 00 00 00 00 00 00 00 05 04 09 0c 01 02   ................
| page 4 offset 12288
|      0: 0d 00 00 00 03 0f e0 00 0f f6 0f ec 0f e0 3f e0   ..............?.
|     16: a0 30 30 01 b6 16 26 16 e6 46 f6 e0 80 20 30 01   .00...&..F... 0.
|     32: 76 16 26 16 67 40 80 10 30 01 76 16 26 16 36 b0   v.&.g@..0.v.&.6.
|     48: d0 00 00 00 30 fe e0 00 ff a0 ff 40 fe 00 00 00   ....0......@....
| page 5 offset 16384
|   4064: 00 00 00 00 00 00 00 00 00 00 00 00 00 00 04 03   ................
|   4080: 03 00 0e 01 04 02 03 00 0e 01 04 01 03 00 0e 01   ................
| page 6 offset 20480
|      0: 0a 00 00 00 01 0f f4 00 0f f4 00 00 00 00 00 00   ................
|   4080: 00 00 00 00 0b 03 1b 01 76 65 72 73 69 6f 6e 04   ........version.
| page 7 offset 24576
|      0: 0d 00 00 00 03 0f d6 00 0f f4 0f e1 0f d6 00 00   ................
|   4048: 00 00 00 00 00 00 09 03 02 1b 72 65 62 75 69 6c   ..........rebuil
|   4064: 64 11 02 02 2b 69 6e 74 65 67 72 69 74 79 2d 63   d...+integrity-c
|   4080: 68 65 63 6b 0a 01 02 1d 6f 70 74 69 6d 69 7a 65   heck....optimize
| end c2.db
}]} {}

do_catchsql_test 12.1 {
  SELECT * FROM t1 WHERE t1 MATCH 'abandon';
} {/.*fts5: corrupt.*/}

do_catchsql_test 12.2 {
  INSERT INTO t1(t1, rank) VALUES('merge', 500);
} {/.*fts5: corrupt.*/}

#-------------------------------------------------------------------------
#
reset_db
do_test 13.0 {
  sqlite3 db {}
  db deserialize [decode_hexdb {
| size 28672 pagesize 4096 filename c13.db
| page 1 offset 0
|      0: 53 51 4c 69 74 65 20 66 6f 72 6d 61 74 20 33 00   SQLite format 3.
|     16: 10 00 01 01 00 40 20 20 00 00 00 00 00 00 00 07   .....@  ........
|     32: 00 00 00 00 00 00 00 00 00 00 00 07 00 00 00 04   ................
|     48: 00 00 00 00 00 00 00 00 00 00 00 01 00 00 00 00   ................
|     96: 00 00 00 00 0d 00 00 00 07 0d d2 00 0f c4 0f 6d   ...............m
|    112: 0f 02 0e ab 0e 4e 0d f6 0d d2 00 00 00 00 00 00   .....N..........
|   3536: 00 00 22 07 06 17 11 11 01 31 74 61 62 6c 65 74   .........1tablet
|   3552: 32 74 32 07 43 52 45 41 54 45 20 54 41 42 4c 45   2t2.CREATE TABLE
|   3568: 20 74 32 28 78 29 56 06 06 17 1f 1f 01 7d 74 61    t2(x)V.......ta
|   3584: 62 6c 65 74 31 5f 63 6f 6e 66 69 67 74 31 5f 63   blet1_configt1_c
|   3600: 6f 6e 66 69 67 06 43 52 45 41 54 45 20 54 41 42   onfig.CREATE TAB
|   3616: 4c 45 20 27 74 31 5f 63 6f 6e 66 69 67 27 28 6b   LE 't1_config'(k
|   3632: 20 50 52 49 4d 41 52 59 20 4b 45 59 2c 20 76 29    PRIMARY KEY, v)
|   3648: 20 57 49 54 48 4f 55 54 20 52 4f 57 49 44 5b 05    WITHOUT ROWID[.
|   3664: 07 17 21 21 01 81 01 74 61 62 6c 65 74 31 5f 64   ..!!...tablet1_d
|   3680: 6f 63 73 69 7a 65 74 31 5f 64 6f 63 73 69 7a 65   ocsizet1_docsize
|   3696: 05 43 52 45 41 54 45 20 54 41 42 4c 45 20 27 74   .CREATE TABLE 't
|   3712: 31 5f 64 6f 63 73 69 7a 65 27 28 69 64 20 49 4e   1_docsize'(id IN
|   3728: 54 45 47 45 52 20 50 52 49 4d 41 52 59 20 4b 45   TEGER PRIMARY KE
|   3744: 59 2c 20 73 7a 20 42 4c 4f 42 29 55 04 06 17 21   Y, sz BLOB)U...!
|   3760: 21 01 77 74 61 62 6c 65 74 31 5f 63 6f 6e 74 65   !.wtablet1_conte
|   3776: 6e 74 74 31 5f 63 6f 6e 74 65 6e 74 04 43 52 45   ntt1_content.CRE
|   3792: 41 54 45 20 54 41 42 4c 45 20 27 74 31 5f 63 6f   ATE TABLE 't1_co
|   3808: 6e 74 65 6e 74 27 28 69 64 20 49 4e 54 45 47 45   ntent'(id INTEGE
|   3824: 52 20 50 52 49 4d 41 52 59 20 4b 45 59 2c 20 63   R PRIMARY KEY, c
|   3840: 30 29 69 03 07 17 19 19 01 81 2d 74 61 62 6c 65   0)i.......-table
|   3856: 74 31 5f 69 64 78 74 31 5f 69 64 78 03 43 52 45   t1_idxt1_idx.CRE
|   3872: 41 54 45 20 54 41 42 4c 45 20 27 74 31 4f 69 64   ATE TABLE 't1Oid
|   3888: 78 27 28 73 65 67 69 64 2c 20 74 65 72 6d 2c 20   x'(segid, term, 
|   3904: 70 67 6e 6f 2c 20 50 52 49 4d 41 52 59 20 4b 45   pgno, PRIMARY KE
|   3920: 59 28 73 65 67 69 64 2c 20 74 65 72 6d 29 29 20   Y(segid, term)) 
|   3936: 57 49 54 48 4f 55 54 20 52 4f 57 49 44 55 02 07   WITHOUT ROWIDU..
|   3952: 17 1b 1b 01 81 01 74 61 62 6c 65 74 31 5f 64 61   ......tablet1_da
|   3968: 74 61 74 31 5f 64 61 74 61 02 43 52 45 41 54 45   tat1_data.CREATE
|   3984: 20 54 41 42 4c 45 20 27 74 31 5f 64 61 74 61 27    TABLE 't1_data'
|   4000: 28 69 64 20 49 4e 54 45 47 45 52 20 50 52 49 4d   (id INTEGER PRIM
|   4016: 41 52 59 20 4b 45 59 2c 20 62 6c 6f 63 6b 20 42   ARY KEY, block B
|   4032: 4c 4f 42 29 3a 01 06 17 11 11 08 63 74 61 62 6c   LOB):......ctabl
|   4048: 65 74 31 74 31 43 52 45 41 54 45 20 56 49 52 54   et1t1CREATE VIRT
|   4064: 55 41 4c 20 54 41 42 4c 45 20 74 31 20 55 53 49   UAL TABLE t1 USI
|   4080: 4e 47 20 66 74 73 35 28 63 6f 6e 74 65 6e 74 29   NG fts5(content)
| page 2 offset 4096
|      0: 0d 00 00 00 03 0f bd 00 0f e8 0f ef 0f bd 00 00   ................
|   4016: 00 00 00 00 00 00 00 00 00 00 00 00 00 24 84 80   .............$..
|   4032: 80 80 80 01 03 00 4e 00 00 00 1e 06 30 61 62 61   ......N.....0aba
|   4048: 63 6b 01 02 02 04 02 66 74 02 02 02 04 04 6e 64   ck.....ft.....nd
|   4064: 6f 6e 03 02 02 04 0a 07 05 01 03 00 10 03 03 0f   on..............
|   4080: 0a 03 00 24 00 eb 00 00 00 01 01 01 00 01 01 01   ...$............
| page 3 offset 8192
|      0: 01 0a 00 00 00 01 0f fa 00 0f fa 00 00 00 00 00   ................
|   4080: 00 00 00 00 00 00 00 00 00 00 05 04 09 0c 01 02   ................
| page 4 offset 12288
|      0: 0d 00 00 00 03 0f e0 00 0f f6 0f ec 0f e0 00 00   ................
|   4064: 0a 03 03 00 1b 61 62 61 6e 64 6f 6e 08 02 03 00   .....abandon....
|   4080: 17 61 62 61 66 74 08 01 03 00 17 61 62 61 63 6b   .abaft.....aback
| page 5 offset 16384
|      0: 0d 00 00 00 03 0f ee 00 0f fa 0f f2 0f ee 00 00   ................
|   4064: 00 00 00 00 00 00 00 00 00 00 00 00 00 00 04 03   ................
|   4080: 03 00 0e 01 04 02 03 00 0e 01 04 01 03 00 0e 01   ................
| page 6 offset 20480
|      0: 0a 00 00 00 01 0f f4 00 0f f4 00 00 00 00 00 00   ................
|   4080: 00 00 00 00 0b 03 1b 01 76 65 72 73 69 6f 6e 04   ........version.
| page 7 offset 24576
|      0: 0d 00 00 00 03 0f d6 00 0f f4 0f e1 0f d6 00 00   ................
|   4048: 00 00 00 00 00 00 09 03 02 1b 72 65 62 75 69 6c   ..........rebuil
|   4064: 64 11 02 02 2b 69 6e 74 65 67 72 69 74 79 2d 63   d...+integrity-c
|   4080: 68 65 63 6b 0a 01 02 1d 6f 70 74 69 6d 69 7a 65   heck....optimize
| end c13.db
SELECT * FROM t1 WHERE t1 MATCH 'abandon';
}]} {}

do_catchsql_test 13.1 {
  SELECT * FROM t1 WHERE t1 MATCH 'abandon'; 
} {/*malformed database schema*/}

#-------------------------------------------------------------------------
reset_db
do_test 14.0 {
  sqlite3 db {}
  db deserialize [decode_hexdb {
| size 28672 pagesize 4096 filename c14b.db
| page 1 offset 0
|      0: 53 51 4c 69 74 65 20 66 6f 72 6d 61 74 20 33 00   SQLite format 3.
|     16: 10 00 01 01 00 40 20 20 00 00 00 01 00 00 00 07   .....@  ........
|     32: 00 00 00 00 00 00 00 00 00 00 00 01 00 00 00 00   ................
|     48: 00 00 00 00 00 00 00 01 00 00 00 00 00 00 00 00   ................
|     80: 00 00 00 00 00 00 00 00 00 00 00 00 00 00 00 01   ................
|     96: 00 2e 30 38 0d 00 00 00 07 0d d2 00 0f c4 0f 6d   ..08...........m
|    112: 0f 02 0e ab 0e 4e 0d f6 0d d2 00 00 00 00 00 00   .....N..........
|   3536: 00 00 22 07 06 17 11 11 01 31 74 61 62 6c 65 74   .........1tablet
|   3552: 32 74 32 07 43 52 45 41 54 45 20 54 41 42 4c 45   2t2.CREATE TABLE
|   3568: 20 74 32 28 78 29 56 06 06 17 1f 1f 01 7d 74 61    t2(x)V.......ta
|   3584: 62 6c 65 74 31 5f 63 6f 6e 66 69 67 74 31 5f 63   blet1_configt1_c
|   3600: 6f 6e 66 69 67 06 43 52 45 41 54 45 20 54 41 42   onfig.CREATE TAB
|   3616: 4c 45 20 27 74 31 5f 63 6f 6e 66 69 67 27 28 6b   LE 't1_config'(k
|   3632: 20 50 52 49 4d 41 52 59 20 4b 45 59 2c 20 76 29    PRIMARY KEY, v)
|   3648: 20 57 49 54 48 4f 55 54 20 52 4f 57 49 44 5b 05    WITHOUT ROWID[.
|   3664: 07 17 21 21 01 81 01 74 61 62 6c 65 74 31 5f 64   ..!!...tablet1_d
|   3680: 6f 63 73 69 7a 65 74 31 5f 64 6f 63 73 69 7a 65   ocsizet1_docsize
|   3696: 05 43 52 45 41 54 45 20 54 41 42 4c 45 20 27 74   .CREATE TABLE 't
|   3712: 31 5f 64 6f 63 73 69 7a 65 27 28 69 64 20 49 4e   1_docsize'(id IN
|   3728: 54 45 47 45 52 20 50 52 49 4d 41 52 59 20 4b 45   TEGER PRIMARY KE
|   3744: 59 2c 20 73 7a 20 42 4c 4f 42 29 55 04 06 17 21   Y, sz BLOB)U...!
|   3760: 21 01 77 74 61 62 6c 65 74 31 5f 63 6f 6e 74 65   !.wtablet1_conte
|   3776: 6e 74 74 31 5f 63 6f 6e 74 65 6e 74 04 43 52 45   ntt1_content.CRE
|   3792: 41 54 45 20 54 41 42 4c 45 20 27 74 31 5f 63 6f   ATE TABLE 't1_co
|   3808: 6e 74 65 6e 74 27 28 69 64 20 49 4e 54 45 47 45   ntent'(id INTEGE
|   3824: 52 20 50 52 49 4d 41 52 59 20 4b 45 59 2c 20 63   R PRIMARY KEY, c
|   3840: 30 29 69 03 07 17 19 19 01 81 2d 74 61 62 6c 65   0)i.......-table
|   3856: 74 31 5f 69 64 78 74 31 5f 69 64 78 03 43 52 45   t1_idxt1_idx.CRE
|   3872: 41 54 45 20 54 41 42 4c 45 20 27 74 31 5f 69 64   ATE TABLE 't1_id
|   3888: 78 27 28 73 65 67 69 64 2c 20 74 65 72 6d 2c 20   x'(segid, term, 
|   3904: 70 67 6e 6f 2c 20 50 52 49 4d 41 52 59 20 4b 45   pgno, PRIMARY KE
|   3920: 59 28 73 65 67 69 64 2c 20 74 65 72 6d 29 29 20   Y(segid, term)) 
|   3936: 57 49 54 48 4f 55 54 20 52 4f 57 49 44 55 02 07   WITHOUT ROWIDU..
|   3952: 17 1b 1b 01 81 01 74 61 62 6c 65 74 31 5f 64 61   ......tablet1_da
|   3968: 74 61 74 31 5f 64 61 74 61 02 43 52 45 41 54 45   tat1_data.CREATE
|   3984: 20 54 41 42 4c 45 20 27 74 31 5f 64 61 74 61 27    TABLE 't1_data'
|   4000: 28 69 64 20 49 4e 54 45 47 45 52 20 50 52 49 4d   (id INTEGER PRIM
|   4016: 41 52 59 20 4b 45 59 2c 20 62 6c 6f 63 6b 20 42   ARY KEY, block B
|   4032: 4c 4f 42 29 3a 01 06 17 11 11 08 63 74 61 62 6c   LOB):......ctabl
|   4048: 65 74 31 74 31 43 52 45 41 54 45 20 56 49 52 54   et1t1CREATE VIRT
|   4064: 55 41 4c 20 54 41 42 4c 45 20 74 31 20 55 53 49   UAL TABLE t1 USI
|   4080: 4e 47 20 66 74 73 35 28 63 6f 6e 74 65 6e 74 29   NG fts5(content)
| page 2 offset 4096
|      0: 0d 0f ef 00 04 0f 18 00 0f e8 0f 18 0f bd 0f 2c   ...............,
|   3856: 00 00 00 00 00 00 00 00 12 0a 03 00 2a 00 00 00   ............*...
|   3872: 00 01 02 02 00 02 01 01 01 02 01 01 81 09 88 80   ................
|   3888: 80 80 80 01 04 00 82 16 00 00 00 79 06 30 61 62   ...........y.0ab
|   3904: 61 63 6b 08 02 07 04 04 6e 64 6f 6e 08 02 05 02   ack.....ndon....
|   3920: 05 63 74 69 76 65 04 02 02 04 02 0b 02 04 6c 70   .ctive........lp
|   3936: 68 61 08 04 02 0a 02 03 74 6b 6d 06 02 02 03 02   ha......tkm.....
|   3952: 6f 6d 08 02 09 05 02 69 63 07 02 02 01 06 62 61   om.....ic.....ba
|   3968: 63 6b 75 70 08 02 04 02 05 6f 6f 6d 65 72 05 02   ckup.....oomer..
|   3984: 02 01 0c 63 68 61 6e 6e 65 62 6f 6f 6d 65 72 08   ...channeboomer.
|   4000: 02 08 07 01 6c 08 02 03 01 04 74 65 73 74 08 02   ....l.....test..
|   4016: 06 04 0a 09 0d 0a 08 07 07 0b 0a 11 06 24 84 80   .............$..
|   4032: 80 80 80 01 03 00 4e 00 00 00 1e 06 30 61 62 61   ......N.....0aba
|   4048: 63 6b 01 02 02 04 02 66 74 02 02 02 04 04 6e 64   ck.....ft.....nd
|   4064: 6f 6e 03 02 02 03 9a 07 05 01 03 00 10 08 11 00   on..............
|   4080: 00 00 11 24 00 00 00 00 01 01 01 00 01 01 01 01   ...$............
| page 3 offset 8192
|      0: 0a 00 00 00 02 0f f3 00 0f fa 0f f3 00 00 00 00   ................
|   4080: 00 00 00 06 04 01 0c 01 02 02 05 04 09 0c 01 02   ................
| page 4 offset 12288
|      0: 0d 00 00 00 08 0f 6a 00 0f f6 0f ec 0f e0 0f d5   ......j.........
|     16: 0f ca 0f c1 0f b6 0f 6a 00 00 00 00 00 00 00 00   .......j........
|   3936: 00 00 00 00 00 00 00 00 00 00 4a 08 04 00 81 19   ..........J.....
|   3952: 61 6c 70 68 61 20 63 68 61 6e 6e 65 6c 20 62 61   alpha channel ba
|   3968: 63 6b 75 70 20 61 62 61 6e 64 6f 6e 20 74 65 73   ckup abandon tes
|   3984: 74 20 61 62 61 63 6b 20 63 68 61 6e 6e 65 62 6f   t aback channebo
|   4000: 6f 6d 65 72 20 61 74 6f 6d 20 61 6c 70 68 61 20   omer atom alpha 
|   4016: 61 63 74 69 76 65 09 07 03 00 19 61 74 6f 6d 69   active.....atomi
|   4032: 63 07 06 03 00 15 61 74 6b 6d 09 05 03 00 19 62   c.....atkm.....b
|   4048: 6f 6f 6d 65 72 09 04 03 00 19 61 63 74 69 76 65   oomer.....active
|   4064: 0a 03 03 00 1b 61 62 61 6e 64 6f 6e 08 02 03 00   .....abandon....
|   4080: 17 61 62 61 66 74 08 01 03 00 17 61 62 61 63 6b   .abaft.....aback
| page 5 offset 16384
|      0: 0d 00 00 00 08 0f d0 00 0f fa 0f f4 0f ee 0f e8   ................
|     16: 0f e2 0f dc 0f d6 0f d0 00 00 00 00 00 00 00 00   ................
|   4048: 04 08 03 00 0e 0a 04 07 03 00 0e 01 04 06 03 00   ................
|   4064: 0e 01 04 05 03 00 0e 01 04 04 03 00 0e 01 04 03   ................
|   4080: 03 00 0e 01 04 02 03 00 0e 01 04 01 03 00 0e 01   ................
| page 6 offset 20480
|      0: 0a 00 00 00 01 0f f4 00 0f f4 00 00 00 00 00 00   ................
|   4080: 00 00 00 00 0b 03 1b 01 76 65 72 73 69 6f 6e 04   ........version.
| page 7 offset 24576
|      0: 0d 00 00 00 03 0f d6 00 0f f4 0f e1 0f d6 00 00   ................
|   4048: 00 00 00 00 00 00 09 03 02 1b 72 65 62 75 69 6c   ..........rebuil
|   4064: 64 11 02 02 2b 69 6e 74 65 67 72 69 74 79 2d 63   d...+integrity-c
|   4080: 68 65 63 6b 0a 01 02 1d 6f 70 74 69 6d 69 7a 65   heck....optimize
| end c14b.db
}]} {}

do_catchsql_test 14.1 {
  INSERT INTO t1(t1) VALUES('optimize');
} {/.*fts5: corrupt.*/}

#---------------------------------------------------------------------------
#
reset_db
do_test 15.0 {
  sqlite3 db {}
  db deserialize [decode_hexdb {
| size 32768 pagesize 4096 filename c16.db
| page 1 offset 0
|      0: 53 51 4c 69 74 65 20 66 6f 72 6d 61 74 20 33 00   SQLite format 3.
|     16: 10 00 01 01 00 40 20 20 00 00 00 00 00 00 00 07   .....@  ........
|     32: 00 00 00 00 00 00 00 00 00 00 00 07 00 00 00 00   ................
|     48: 00 00 00 00 00 00 00 01 00 00 00 00 00 00 00 00   ................
|     96: 00 00 00 00 0d 00 00 00 07 0d d2 00 0f c4 0f 6d   ...............m
|    112: 0f 02 0e ab 0e 4e 0d f6 0d d2 00 00 00 00 00 00   .....N..........
|   3536: 00 00 22 07 06 17 11 11 01 31 74 61 62 6c 65 74   .........1tablet
|   3552: 32 74 32 07 43 52 45 41 54 45 20 54 41 42 4c 45   2t2.CREATE TABLE
|   3568: 20 74 32 28 78 29 56 06 06 17 1f 1f 01 7d 74 61    t2(x)V.......ta
|   3584: 62 6c 65 74 31 5f 63 6f 6e 66 69 67 74 31 5f 63   blet1_configt1_c
|   3600: 6f 6e 66 69 67 06 43 52 45 41 54 45 20 54 41 42   onfig.CREATE TAB
|   3616: 4c 45 20 27 74 31 5f 63 6f 6e 66 69 67 27 28 6b   LE 't1_config'(k
|   3632: 20 50 52 49 4d 41 52 59 20 4b 45 59 2c 20 76 29    PRIMARY KEY, v)
|   3648: 20 57 49 54 48 4f 55 54 20 52 4f 57 49 44 5b 05    WITHOUT ROWID[.
|   3664: 07 17 21 21 01 81 01 74 61 62 6c 00 0f f6 0f ec   ..!!...tabl.....
|   3680: 0f e0 73 69 7a 65 74 31 5f 64 6f 63 73 69 7a 65   ..sizet1_docsize
|   3696: 05 43 52 45 41 54 45 20 54 41 42 4c 45 20 27 74   .CREATE TABLE 't
|   3712: 31 5f 64 6f 63 73 69 7a 65 27 28 69 64 20 49 4e   1_docsize'(id IN
|   3728: 54 45 47 45 52 20 50 52 49 4d 41 52 59 20 4b 45   TEGER PRIMARY KE
|   3744: 59 2c 20 73 7a 20 42 4c 4f 42 29 55 04 06 17 21   Y, sz BLOB)U...!
|   3760: 21 01 77 74 61 62 6c 65 74 31 5f 63 6f 6e 74 65   !.wtablet1_conte
|   3776: 6e 74 74 31 5f 63 6f 6e 74 65 6e 74 04 43 52 45   ntt1_content.CRE
|   3792: 41 54 45 20 54 41 42 4c 45 20 27 74 31 5f 63 6f   ATE TABLE 't1_co
|   3808: 6e 74 65 6e 74 27 28 69 64 20 49 4e 54 45 47 45   ntent'(id INTEGE
|   3824: 52 20 50 52 49 4d 41 52 59 20 4b 45 59 2c 20 63   R PRIMARY KEY, c
|   3840: 30 29 69 03 07 17 19 19 01 81 2d 74 61 62 6c 65   0)i.......-table
|   3856: 74 31 5f 69 64 78 74 31 5f 69 64 78 03 43 52 45   t1_idxt1_idx.CRE
|   3872: 41 54 45 20 54 41 42 4c 45 20 27 74 31 5f 69 64   ATE TABLE 't1_id
|   3888: 78 27 28 73 65 67 69 64 2c 20 74 65 72 6d 2c 20   x'(segid, term, 
|   3904: 70 67 6e 6f 2c 20 50 52 49 4d 41 52 59 20 4b 45   pgno, PRIMARY KE
|   3920: 59 28 73 65 67 69 64 2c 20 74 65 72 6d 29 29 20   Y(segid, term)) 
|   3936: 57 49 54 48 4f 55 54 20 52 4f 57 49 44 55 02 07   WITHOUT ROWIDU..
|   3952: 17 1b 1b 01 81 01 74 61 62 6c 65 74 31 5f 64 61   ......tablet1_da
|   3968: 74 61 74 31 5f 64 61 74 61 02 43 52 45 41 54 45   tat1_data.CREATE
|   3984: 20 54 41 42 4c 45 20 27 74 31 5f 64 61 74 61 27    TABLE 't1_data'
|   4000: 28 69 64 20 49 4e 54 45 47 45 52 20 50 52 49 4d   (id INTEGER PRIM
|   4016: 41 52 59 20 4b 45 59 2c 20 62 6c 6f 63 6b 20 42   ARY KEY, block B
|   4032: 4c 4f 42 29 3a 01 06 17 11 11 08 63 74 61 62 6c   LOB):......ctabl
|   4048: 65 74 31 74 31 43 52 45 41 54 45 20 56 49 52 54   et1t1CREATE VIRT
|   4064: 55 41 4c 20 54 41 42 4c 45 20 74 31 20 55 53 49   UAL TABLE t1 USI
|   4080: 4e 47 20 66 74 73 35 28 63 6f 6e 74 65 6e 74 29   NG fts5(content)
| page 2 offset 4096
|      0: 0d 00 00 00 03 0f bd 00 0f e8 0f ef 0f bd 00 00   ................
|   4016: 00 00 00 00 00 00 00 00 00 00 00 00 00 24 84 80   .............$..
|   4032: 80 80 80 01 03 00 4e 00 00 00 1e 06 30 61 62 61   ......N.....0aba
|   4048: 63 6b 01 02 02 04 02 66 74 00 02 22 04 04 6e 64   ck.....ft.....nd
|   4064: 6f 6e 04 67 90 38 2a 07 05 01 03 00 10 03 03 0f   on.g.8*.........
|   4080: 0a 03 00 24 00 00 00 00 01 01 01 00 01 01 01 01   ...$............
| page 3 offset 8192
|      0: 0a 00 00 00 01 0f fa 00 0f fa 00 00 00 00 00 00   ................
|   4080: 00 00 00 00 00 00 00 00 00 00 05 04 09 0c 01 02   ................
| page 4 offset 12288
|      0: 0d 00 00 00 03 0f e0 00 0f f6 0f ec 0f e0 00 00   ................
|   4064: 0a 03 03 00 1b 61 62 61 6e 64 6f 6e 08 02 03 00   .....abandon....
|   4080: 17 61 62 61 66 74 08 01 03 00 17 61 62 61 63 6b   .abaft.....aback
| page 5 offset 16384
|      0: 0d 00 00 00 03 0f ee 00 0f fa 0f f4 0f ee 00 00   ................
|   4064: 00 00 00 00 00 00 00 00 00 00 00 00 00 00 04 03   ................
|   4080: 03 00 0e 01 04 02 03 00 0e 01 04 01 03 00 0e 01   ................
| page 6 offset 20480
|      0: 0a 00 00 00 01 0f f4 00 0f f4 00 00 00 00 00 00   ................
|   4080: 00 00 00 00 0b 03 1b 01 76 65 72 73 69 6f 6e 04   ........version.
| page 7 offset 24576
|      0: 0d 00 00 00 03 0f d6 00 0f f4 0f e1 0f d6 00 00   ................
|   4048: 00 00 00 00 00 00 09 03 02 1b 72 65 62 75 69 6c   ..........rebuil
|   4064: 64 11 02 02 2b 69 6e 74 65 67 72 69 74 79 2d 63   d...+integrity-c
|   4080: 68 65 63 6b 0a 01 02 1d 6f 70 74 69 6d 69 7a 65   heck....optimize
| page 8 offset 28672
|      0: 03 07 17 19 19 01 81 2d 74 61 62 6c 65 74 31 5f   .......-tablet1_
|     16: 69 64 78 74 31 5f 69 64 78 03 43 52 45 41 54 45   idxt1_idx.CREATE
|     32: 20 54 41 42 4c 45 20 27 74 31 5f 66 17 42 03 30    TABLE 't1_f.B.0
|     48: 01 00 00 10 10 04 02 02 00 00 00 00 00 00 00 00   ................
|     64: 70 00 00 00 00 00 00 00 00 00 00 00 70 00 00 00   p...........p...
| end c16.db
}]} {}

do_catchsql_test 15.1 {
  INSERT INTO t1(t1) VALUES('integrity-check');
} {/*malformed database schema*/}

#---------------------------------------------------------------------------
#
reset_db
do_test 16.0 {
  sqlite3 db {}
  db deserialize [decode_hexdb {
| size 28672 pagesize 4096 filename c17.db
| page 1 offset 0
|      0: 53 51 4c 69 74 65 20 66 6f 72 6d 61 74 20 33 00   SQLite format 3.
|     16: 10 00 01 01 00 40 20 20 00 00 00 00 00 00 00 07   .....@  ........
|     32: 00 00 00 00 00 00 00 00 00 00 00 07 00 00 00 00   ................
|     48: 00 00 00 00 00 00 00 01 00 00 00 00 00 00 00 00   ................
|     96: 00 00 00 00 0d 00 00 00 07 0d d2 00 0f c4 0f 6d   ...............m
|    112: 0f 02 0e ab 0e 4e 0d f6 0d d2 00 00 00 00 00 00   .....N..........
|   3536: 00 00 22 07 06 17 11 11 01 31 74 61 62 6c 65 74   .........1tablet
|   3552: 32 74 32 07 43 52 45 41 54 45 20 54 41 42 4c 45   2t2.CREATE TABLE
|   3568: 20 74 32 28 78 29 56 06 06 17 1f 1f 01 7d 74 61    t2(x)V.......ta
|   3584: 62 6c 65 74 31 5f 63 6f 6e 66 69 67 74 31 5f 63   blet1_configt1_c
|   3600: 6f 6e 66 69 67 06 43 52 45 41 54 45 20 54 41 42   onfig.CREATE TAB
|   3616: 4c 45 20 27 74 31 5f 63 6f 6e 66 69 67 27 28 6b   LE 't1_config'(k
|   3632: 20 50 52 49 4d 41 52 59 20 4b 45 59 2c 20 76 29    PRIMARY KEY, v)
|   3648: 20 57 49 54 48 4f 55 54 20 52 4f 57 49 44 5b 05    WITHOUT ROWID[.
|   3664: 07 17 21 21 01 81 01 74 61 62 6c 65 74 31 5f 64   ..!!...tablet1_d
|   3680: 6f 63 73 69 7a 65 74 31 5f 64 6f 63 73 69 7a 65   ocsizet1_docsize
|   3696: 05 43 52 45 41 54 45 20 54 41 42 4c 45 20 27 74   .CREATE TABLE 't
|   3712: 31 5f 64 6f 63 73 69 7a 65 27 28 69 64 20 49 4e   1_docsize'(id IN
|   3728: 54 45 47 45 52 20 50 52 49 4d 41 52 59 20 4b 45   TEGER PRIMARY KE
|   3744: 59 2c 20 73 7a 20 42 4c 4f 42 29 55 04 06 17 21   Y, sz BLOB)U...!
|   3760: 21 01 77 74 61 62 6c 65 74 31 5f 63 6f 6e 74 65   !.wtablet1_conte
|   3776: 6e 74 74 31 5f 63 6f 6e 74 65 6e 74 04 43 52 45   ntt1_content.CRE
|   3792: 41 54 45 20 54 41 42 4c 45 20 27 74 31 5f 63 6f   ATE TABLE 't1_co
|   3808: 6e 74 65 6e 74 27 28 69 64 20 49 4e 54 45 47 45   ntent'(id INTEGE
|   3824: 52 20 50 52 49 4d 41 52 59 20 4b 45 59 2c 20 63   R PRIMARY KEY, c
|   3840: 30 29 69 03 07 17 19 19 01 81 2d 74 61 62 6c 65   0)i.......-table
|   3856: 74 31 5f 69 64 78 74 31 5f 69 64 78 03 43 52 45   t1_idxt1_idx.CRE
|   3872: 41 54 45 20 54 41 42 4c 45 20 27 74 31 5f 69 64   ATE TABLE 't1_id
|   3888: 78 27 28 73 65 67 69 64 2c 20 74 65 72 6d 2c 20   x'(segid, term, 
|   3904: 70 67 6e 6f 2c 20 50 52 49 4d 41 52 59 20 4b 45   pgno, PRIMARY KE
|   3920: 59 28 73 65 67 69 64 2c 20 74 65 72 6d 29 29 20   Y(segid, term)) 
|   3936: 57 49 54 48 4f 55 54 20 52 4f 57 49 44 55 02 07   WITHOUT ROWIDU..
|   3952: 17 1b 1b 01 81 01 74 61 62 6c 65 74 31 5f 64 61   ......tablet1_da
|   3968: 74 61 74 31 5f 64 61 74 61 02 43 52 45 41 54 45   tat1_data.CREATE
|   3984: 20 54 41 42 4c 45 20 27 74 31 5f 64 61 74 61 27    TABLE 't1_data'
|   4000: 28 69 64 20 49 4e 54 45 47 45 52 20 50 52 49 4d   (id INTEGER PRIM
|   4016: 41 52 59 20 4b 45 59 2c 20 62 6c 6f 63 6b 20 42   ARY KEY, block B
|   4032: 4c 4f 42 29 3a 01 06 17 11 11 08 63 74 61 62 6c   LOB):......ctabl
|   4048: 65 74 31 74 31 43 52 45 41 54 45 20 56 49 52 54   et1t1CREATE VIRT
|   4064: 55 41 4c 20 54 41 42 4c 45 20 74 31 20 55 53 49   UAL TABLE t1 USI
|   4080: 4e 47 20 66 74 73 35 28 63 6f 6e 74 65 6e 74 29   NG fts5(content)
| page 2 offset 4096
|      0: 0d 00 00 00 03 0f bd 00 0f e8 0f ef 0f bd 00 00   ................
|   4016: 00 00 00 00 00 00 00 00 00 00 00 00 00 24 84 80   .............$..
|   4032: 80 80 80 01 03 00 4e 00 00 00 1e 06 30 61 62 61   ......N.....0aba
|   4048: 63 6b 01 02 02 04 02 66 74 00 02 22 04 04 6e 64   ck.....ft.....nd
|   4064: 6f 6e 03 02 02 04 0a 07 05 01 03 00 10 03 03 0f   on..............
|   4080: 0a 03 00 24 00 00 00 00 01 01 01 00 01 01 41 01   ...$..........A.
| page 3 offset 8192
|      0: 0a 00 00 00 01 0f fa 00 0f fa 00 00 00 00 00 00   ................
|   4080: 00 00 00 00 00 00 00 00 00 00 05 04 09 0c 01 02   ................
| page 4 offset 12288
|      0: 0d 00 00 00 03 0f e0 00 0f f6 0f ec 0f e0 00 00   ................
|   4064: 0a 03 03 00 1b 61 62 61 6e 64 6f 6e 08 02 03 00   .....abandon....
|   4080: 17 61 62 61 66 74 08 01 03 00 17 61 62 61 63 6b   .abaft.....aback
| page 5 offset 16384
|      0: 0d 00 00 00 03 0f ee 00 0f fa 0f f4 0f ee 00 00   ................
|   4064: 00 00 00 00 00 00 00 00 00 00 00 00 00 00 04 03   ................
|   4080: 03 00 0e 01 04 02 03 00 0e 01 04 01 03 00 0e 01   ................
| page 6 offset 20480
|      0: 0a 00 00 00 01 0f f4 00 0f f4 00 00 00 00 00 00   ................
|   4080: 00 00 00 00 0b 03 1b 01 76 65 72 73 69 6f 6e 04   ........version.
| page 7 offset 24576
|      0: 0d 00 00 00 03 0f d6 00 0f f4 0f e1 0f d6 00 00   ................
|   4048: 00 00 00 00 00 00 09 03 02 1b 72 65 62 75 69 6c   ..........rebuil
|   4064: 64 11 02 02 2b 69 6e 74 65 67 72 69 74 79 2d 63   d...+integrity-c
|   4080: 68 65 63 6b 0a 01 02 1d 6f 70 74 69 6d 69 7a 65   heck....optimize
| end c17.db
}]} {}

do_catchsql_test 16.1 {
INSERT INTO t1(t1) VALUES('integrity-check');
} {/.*fts5: corrupt.*/}

#--------------------------------------------------------------------------
reset_db
do_test 17.0 {
  sqlite3 db {}
  db deserialize [decode_hexdb {
| size 28672 pagesize 4096 filename c18.db
| page 1 offset 0
|      0: 53 51 4c 69 74 65 20 66 6f 72 6d 61 74 20 33 00   SQLite format 3.
|     16: 10 00 01 01 00 40 20 20 00 00 00 00 00 00 00 07   .....@  ........
|     32: 00 00 00 00 00 00 00 00 00 00 00 07 00 00 00 00   ................
|     48: 00 00 00 00 00 00 00 01 00 00 00 00 00 00 00 00   ................
|     96: 00 00 00 00 0d 00 00 00 07 0d d2 00 0f c4 0f 6d   ...............m
|    112: 0f 02 0e ab 0e 4e 0d f6 0d d2 00 00 00 00 00 00   .....N..........
|   3536: 00 00 22 07 06 17 11 11 01 31 74 61 62 6c 65 74   .........1tablet
|   3552: 32 74 32 07 43 52 45 41 54 45 20 54 41 42 4c 45   2t2.CREATE TABLE
|   3568: 20 74 32 28 78 29 56 06 06 17 1f 1f 01 7d 74 61    t2(x)V.......ta
|   3584: 62 6c 65 74 31 5f 63 6f 6e 66 69 67 74 31 5f 63   blet1_configt1_c
|   3600: 6f 6e 66 69 67 06 43 52 45 41 54 45 20 54 41 42   onfig.CREATE TAB
|   3616: 4c 45 20 27 74 31 5f 63 6f 6e 66 69 67 27 28 6b   LE 't1_config'(k
|   3632: 20 50 52 49 4d 41 52 59 20 4b 45 59 2c 20 76 29    PRIMARY KEY, v)
|   3648: 20 57 49 54 48 4f 55 54 20 52 4f 57 49 44 5b 05    WITHOUT ROWID[.
|   3664: 07 17 21 21 01 81 01 74 61 62 6c 65 74 31 5f 64   ..!!...tablet1_d
|   3680: 6f 63 73 69 7a 65 74 31 5f 64 6f 63 73 69 7a 65   ocsizet1_docsize
|   3696: 05 43 52 45 41 54 45 20 54 41 42 4c 45 20 27 74   .CREATE TABLE 't
|   3712: 31 5f 64 6f 63 73 69 7a 65 27 28 69 64 20 49 4e   1_docsize'(id IN
|   3728: 54 45 47 45 52 20 50 52 49 4d 41 52 59 20 4b 45   TEGER PRIMARY KE
|   3744: 59 2c 20 73 7a 20 42 4c 4f 42 29 55 04 06 17 21   Y, sz BLOB)U...!
|   3760: 21 01 77 74 61 62 6c 65 74 31 5f 63 6f 6e 74 65   !.wtablet1_conte
|   3776: 6e 74 74 31 5f 63 6f 6e 74 65 6e 74 04 43 52 45   ntt1_content.CRE
|   3792: 41 54 45 20 54 41 42 4c 45 20 27 74 31 5f 63 6f   ATE TABLE 't1_co
|   3808: 6e 74 65 6e 74 27 28 69 64 20 49 4e 54 45 47 45   ntent'(id INTEGE
|   3824: 52 20 50 52 49 4d 41 52 59 20 4b 45 59 2c 20 63   R PRIMARY KEY, c
|   3840: 30 29 69 03 07 17 19 19 01 81 2d 74 61 62 6c 65   0)i.......-table
|   3856: 74 31 5f 69 64 78 74 31 5f 69 64 78 03 43 52 45   t1_idxt1_idx.CRE
|   3872: 41 54 45 20 54 41 42 4c 45 20 27 74 31 5f 69 64   ATE TABLE 't1_id
|   3888: 78 27 28 73 65 67 69 64 2c 20 74 65 72 6d 2c 20   x'(segid, term, 
|   3904: 70 67 6e 6f 2c 20 50 52 49 4d 41 52 59 20 4b 45   pgno, PRIMARY KE
|   3920: 59 28 73 65 67 69 64 2c 20 74 65 72 6d 29 29 20   Y(segid, term)) 
|   3936: 57 49 54 48 4f 55 54 20 52 4f 57 49 44 55 02 07   WITHOUT ROWIDU..
|   3952: 17 1b 1b 01 81 01 74 61 62 6c 65 74 31 5f 64 61   ......tablet1_da
|   3968: 74 61 74 31 5f 64 61 74 61 02 43 52 45 41 54 45   tat1_data.CREATE
|   3984: 20 54 41 42 4c 45 20 27 74 31 5f 64 61 74 61 27    TABLE 't1_data'
|   4000: 28 69 64 20 49 4e 54 45 47 45 52 20 50 52 49 4d   (id INTEGER PRIM
|   4016: 41 52 59 20 4b 45 59 2c 20 62 6c 6f 63 6b 20 42   ARY KEY, block B
|   4032: 4c 4f 42 29 3a 01 06 17 11 11 08 63 74 61 62 6c   LOB):......ctabl
|   4048: 65 74 31 74 31 43 52 45 41 54 45 20 56 49 52 54   et1t1CREATE VIRT
|   4064: 55 41 4c 20 54 41 42 4c 45 20 74 31 20 55 53 49   UAL TABLE t1 USI
|   4080: 4e 47 20 66 74 73 35 28 63 6f 6e 74 65 6e 74 29   NG fts5(content)
| page 2 offset 4096
|      0: 0d 00 00 00 03 0f bd 00 0f e8 0f ef 0f bd 00 00   ................
|   4016: 00 00 00 00 00 00 00 00 00 00 00 00 00 24 84 80   .............$..
|   4032: 80 80 80 01 03 00 4e 00 00 00 1e 06 30 61 62 61   ......N.....0aba
|   4048: 63 6b 01 02 02 04 02 66 74 00 02 22 04 04 6e 64   ck.....ft.....nd
|   4064: 6f 6e 03 02 02 04 0a 07 05 01 03 00 10 03 03 0f   on..............
|   4080: 0a 03 00 24 00 00 0a aa aa aa aa aa aa aa aa aa   ...$............
| page 3 offset 8192
|      0: aa aa aa aa aa aa aa aa aa aa aa aa aa aa aa aa   ................
|     16: aa aa aa aa aa aa aa aa 00 00 10 10 10 00 10 10   ................
|     32: 10 10 a0 00 00 00 10 ff a0 00 ff 52 05 64 95 25   ...........R.d.%
|     48: 45 54 14 c2 05 44 14 24 c4 52 07 43 12 05 55 34   ET...D.$.R.C..U4
|     64: 94 e4 72 06 67 47 33 52 86 36 f6 e7 46 56 e7 42   ..r.gG3R.6..FV.B
|     80: 90 d0 00 00 00 30 fb d0 00 fe 80 fe f0 fb 00 00   .....0..........
|   4080: 00 00 00 00 00 00 00 00 00 00 05 04 09 0c 01 02   ................
| page 4 offset 12288
|      0: 0d 00 00 00 03 0f e0 00 0f f6 0f ec 0f e0 00 00   ................
|   4064: 0a 03 03 00 1b 61 62 61 6e 64 6f 6e 08 02 03 00   .....abandon....
|   4080: 17 61 62 61 66 74 08 01 03 00 17 61 62 61 63 6b   .abaft.....aback
| page 5 offset 16384
|      0: 0d 00 00 00 03 0f ee 00 0f fa 0f f4 0f ee 00 00   ................
|   4064: 00 00 00 00 00 00 00 00 00 00 00 00 00 00 04 03   ................
|   4080: 03 00 0e 01 04 02 03 00 0e 01 04 01 03 00 0e 01   ................
| page 6 offset 20480
|      0: 0a 00 00 00 01 0f f4 00 0f f4 00 00 00 00 00 00   ................
|   4080: 00 00 00 00 0b 03 1b 01 76 65 72 73 69 6f 6e 04   ........version.
| page 7 offset 24576
|      0: 0d 00 00 00 03 0f d6 00 0f f4 0f e1 0f d6 00 00   ................
|   4048: 00 00 00 00 00 00 09 03 02 1b 72 65 62 75 69 6c   ..........rebuil
|   4064: 64 11 02 02 2b 69 6e 74 65 67 72 69 74 79 2d 63   d...+integrity-c
|   4080: 68 65 63 6b 0a 01 02 1d 6f 70 74 69 6d 69 7a 65   heck....optimize
| end c18.db
}]} {}

do_catchsql_test 17.1 {
  SELECT * FROM t1 WHERE t1 MATCH 'abandon';
} {/.*fts5: corrupt.*/}

#--------------------------------------------------------------------------
reset_db
do_test 18.0 {
  sqlite3 db {}
  db deserialize [decode_hexdb {
| size 28672 pagesize 4096 filename c19b.db
| page 1 offset 0
|      0: 53 51 4c 69 74 65 20 66 6f 72 6d 61 74 20 33 00   SQLite format 3.
|     16: 10 00 01 01 00 40 20 20 00 00 00 01 00 00 00 07   .....@  ........
|     32: 00 00 00 00 00 00 00 00 00 00 00 01 00 00 00 00   ................
|     48: 00 00 00 00 00 00 00 01 00 00 00 00 00 00 00 00   ................
|     80: 00 00 00 00 00 00 00 00 00 00 00 00 00 00 00 01   ................
|     96: 00 2e 30 38 0d 00 00 00 07 0d d2 00 0f c4 0f 6d   ..08...........m
|    112: 0f 02 0e ab 0e 4e 0d f6 0d d2 00 00 00 00 00 00   .....N..........
|   3536: 00 00 22 07 06 17 11 11 01 31 74 61 62 6c 65 74   .........1tablet
|   3552: 32 74 32 07 43 52 45 41 54 45 20 54 41 42 4c 45   2t2.CREATE TABLE
|   3568: 20 74 32 28 78 29 56 06 06 17 1f 1f 01 7d 74 61    t2(x)V.......ta
|   3584: 62 6c 65 74 31 5f 63 6f 6e 66 69 67 74 31 5f 63   blet1_configt1_c
|   3600: 6f 6e 66 69 67 06 43 52 45 41 54 45 20 54 41 42   onfig.CREATE TAB
|   3616: 4c 45 20 27 74 31 5f 63 6f 6e 66 69 67 27 28 6b   LE 't1_config'(k
|   3632: 20 50 52 49 4d 41 52 59 20 4b 45 59 2c 20 76 29    PRIMARY KEY, v)
|   3648: 20 57 49 54 48 4f 55 54 20 52 4f 57 49 44 5b 05    WITHOUT ROWID[.
|   3664: 07 17 21 21 01 81 01 74 61 62 6c 65 74 31 5f 64   ..!!...tablet1_d
|   3680: 6f 63 73 69 7a 65 74 31 5f 64 6f 63 73 69 7a 65   ocsizet1_docsize
|   3696: 05 43 52 45 41 54 45 20 54 41 42 4c 45 20 27 74   .CREATE TABLE 't
|   3712: 31 5f 64 6f 63 73 69 7a 65 27 28 69 64 20 49 4e   1_docsize'(id IN
|   3728: 54 45 47 45 52 20 50 52 49 4d 41 52 59 20 4b 45   TEGER PRIMARY KE
|   3744: 59 2c 20 73 7a 20 42 4c 4f 42 29 55 04 06 17 21   Y, sz BLOB)U...!
|   3760: 21 01 77 74 61 62 6c 65 74 31 5f 63 6f 6e 74 65   !.wtablet1_conte
|   3776: 6e 74 74 31 5f 63 6f 6e 74 65 6e 74 04 43 52 45   ntt1_content.CRE
|   3792: 41 54 45 20 54 41 42 4c 45 20 27 74 31 5f 63 6f   ATE TABLE 't1_co
|   3808: 6e 74 65 6e 74 27 28 69 64 20 49 4e 54 45 47 45   ntent'(id INTEGE
|   3824: 52 20 50 52 49 4d 41 52 59 20 4b 45 59 2c 20 63   R PRIMARY KEY, c
|   3840: 30 29 69 03 07 17 19 19 01 81 2d 74 61 62 6c 65   0)i.......-table
|   3856: 74 31 5f 69 64 78 74 31 5f 69 64 78 03 43 52 45   t1_idxt1_idx.CRE
|   3872: 41 54 45 20 54 41 42 4c 45 20 27 74 31 5f 69 64   ATE TABLE 't1_id
|   3888: 78 27 28 73 65 67 69 64 2c 20 74 65 72 6d 2c 20   x'(segid, term, 
|   3904: 70 67 6e 6f 2c 20 50 52 49 4d 41 52 59 20 4b 45   pgno, PRIMARY KE
|   3920: 59 28 73 65 67 69 64 2c 20 74 65 72 6d 29 29 20   Y(segid, term)) 
|   3936: 57 49 54 48 4f 55 54 20 52 4f 57 49 44 55 02 07   WITHOUT ROWIDU..
|   3952: 17 1b 1b 01 81 01 74 61 62 6c 65 74 31 5f 64 61   ......tablet1_da
|   3968: 74 61 74 31 5f 64 61 74 61 02 43 52 45 41 54 45   tat1_data.CREATE
|   3984: 20 54 41 42 4c 45 20 27 74 31 5f 64 61 74 61 27    TABLE 't1_data'
|   4000: 28 69 64 20 49 4e 54 45 47 45 52 20 50 52 49 4d   (id INTEGER PRIM
|   4016: 41 52 59 20 4b 45 59 2c 20 62 6c 6f 63 6b 20 42   ARY KEY, block B
|   4032: 4c 4f 42 29 3a 01 06 17 11 11 08 63 74 61 62 6c   LOB):......ctabl
|   4048: 65 74 31 74 31 43 52 45 41 54 45 20 56 49 52 54   et1t1CREATE VIRT
|   4064: 55 41 4c 20 54 41 42 4c 45 20 74 31 20 55 53 49   UAL TABLE t1 USI
|   4080: 4e 47 20 66 74 73 35 28 63 6f 6e 74 65 6e 74 29   NG fts5(content)
| page 2 offset 4096
|      0: 0d 09 a6 00 06 09 22 00 0f e8 09 22 0f bd 0f 2c   ...............,
|     16: 09 bd 09 3c 00 00 00 00 00 00 00 00 00 00 00 00   ...<............
|   2336: 00 00 18 0a 03 00 36 00 00 00 00 01 04 04 00 04   ......6.........
|   2352: 01 01 01 02 01 01 03 01 01 04 01 01 63 90 80 80   ............c...
|   2368: 80 80 01 04 00 81 4a 00 00 00 56 06 30 61 62 61   ......J...V.0aba
|   2384: 63 6b 08 01 04 04 6e 64 6f 6e 03 01 05 01 02 05   ck....ndon......
|   2400: 63 74 69 76 65 08 01 02 04 6c 70 68 61 08 01 02   ctive....lpha...
|   2416: 03 74 6f 6d 08 01 01 06 62 61 63 6b 75 70 08 01   .tom....backup..
|   2432: 01 0c 63 68 61 6e 6e 65 62 6f 6f 6d 65 72 08 01   ..channeboomer..
|   2448: 07 01 6c 08 01 01 04 74 65 73 74 08 01 04 09 0a   ..l....test.....
|   2464: 09 08 07 0a 10 05 0f 18 00 17 30 00 00 00 00 01   ..........0.....
|   2480: 03 03 00 03 01 01 01 02 01 01 03 01 01 8a 53 8c   ..............S.
|   2496: 80 80 80 80 01 04 00 95 2a 00 00 05 35 0d 30 30   ........*...5.00
|   2512: 31 30 66 66 61 30 30 30 66 66 61 05 02 1c 02 49   10ffa000ffa....I
|   2528: 33 34 33 35 32 34 35 34 31 35 34 34 35 32 30 35   3435245415445205
|   2544: 34 34 31 34 32 34 63 34 35 32 30 32 37 37 34 33   441424c452027743
|   2560: 31 35 66 36 39 36 34 37 38 32 37 32 38 37 33 36   15f6964782728736
|   2576: 35 36 37 36 39 36 34 32 63 32 30 37 34 36 35 37   56769642c2074657
|   2592: 32 36 64 32 63 32 30 37 30 05 02 12 02 3b 36 31   26d2c2070....;61
|   2608: 37 32 31 32 31 30 31 37 37 37 34 36 31 36 32 35   7212101777461625
|   2624: 63 36 35 37 34 33 31 35 66 36 33 36 66 36 65 37   c6574315f636f6e7
|   2640: 34 36 35 36 65 37 34 37 34 33 31 35 66 36 33 36   4656e7474315f636
|   2656: 66 36 65 37 34 36 35 36 65 05 04 07 07 01 04 31   f6e74656e......1
|   2672: 66 62 64 05 02 19 01 44 32 34 38 34 38 30 38 30   fbd....D24848080
|   2688: 38 30 38 30 30 31 30 33 30 30 34 65 30 30 30 30   80800103004e0000
|   2704: 30 30 31 65 30 36 33 30 36 31 36 32 36 31 36 33   001e063061626163
|   2720: 36 62 30 31 30 32 30 32 30 34 30 32 36 36 37 34   6b01020204026674
|   2736: 30 32 30 32 30 32 30 34 30 34 36 65 05 02 1a 02   02020204046e....
|   2752: 03 66 65 72 05 02 1d 01 28 33 65 37 34 36 35 36   .fer....(3e74656
|   2768: 65 37 34 32 39 30 64 30 30 30 30 30 30 30 33 30   e74290d000000030
|   2784: 66 62 64 30 30 30 66 65 38 30 66 65 66 30 66 62   fbd000fe80fef0fb
|   2800: 64 05 02 18 01 4a 34 31 35 32 35 39 32 30 34 62   d....J415259204b
|   2816: 34 35 35 39 32 63 32 30 36 32 36 63 36 66 36 33   45592c20626c6f63
|   2832: 36 62 32 30 34 32 34 63 34 66 34 32 32 39 33 61   6b20424c4f42293a
|   2848: 30 31 30 36 31 37 31 31 31 31 30 38 36 33 37 34   0106171111086374
|   2864: 36 31 36 32 36 63 36 35 37 34 33 31 37 34 33 31   61626c6574317431
|   2880: 05 02 16 02 49 33 35 32 34 35 34 31 35 34 34 35   ....I35245415445
|   2896: 32 30 35 36 34 39 35 32 35 34 35 35 34 31 34 63   205649525455414c
|   2912: 32 30 35 34 34 31 34 32 34 63 34 35 32 30 37 34   205441424c452074
|   2928: 33 31 6f 30 35 35 35 33 34 39 34 65 34 37 32 30   31o05553494e4720
|   2944: 36 36 37 34 37 33 33 35 32 38 36 33 36 66 05 02   6674733528636f..
|   2960: 17 02 49 35 32 30 35 34 34 31 34 32 34 63 34 35   ..I5205441424c45
|   2976: 32 30 32 37 37 34 33 31 35 66 36 33 36 66 36 65   202774315f636f6e
|   2992: 37 34 36 35 36 65 37 34 32 37 32 38 36 39 36 34   74656e7427286964
|   3008: 32 30 34 39 34 65 35 34 34 35 34 37 34 35 35 32   20494e5445474552
|   3024: 32 30 35 30 35 32 34 39 34 64 34 31 05 02 0e 44   205052494d41...D
|   3040: 29 62 30 35 30 37 31 37 32 31 32 31 30 31 38 31   )b05071721210181
|   3056: 30 31 37 34 36 31 36 32 36 63 36 35 37 34 33 31   017461626c657431
|   3072: 35 66 36 34 36 66 36 33 37 33 05 02 09 01 4a 35   5f646f6373....J5
|   3088: 32 34 35 34 31 35 34 34 35 32 30 35 34 34 31 34   2454154452054414
|   3104: 32 34 63 34 35 32 30 32 37 37 34 33 31 35 66 36   24c45202774315f6
|   3120: 34 36 31 37 34 36 31 32 37 32 38 36 39 36 34 32   4617461272869642
|   3136: 30 34 39 34 65 35 34 34 35 34 37 34 35 35 32 32   0494e54454745522
|   3152: 30 35 30 35 32 34 39 34 64 05 02 15 03 3a 35 39   05052494d....:59
|   3168: 32 30 34 62 34 35 35 39 32 63 32 30 36 33 33 30   204b45592c206330
|   3184: 32 39 36 39 30 33 30 37 31 37 31 39 31 39 30 31   2969030717191901
|   3200: 38 31 32 64 37 34 36 31 36 32 36 63 36 35 37 34   812d7461626c6574
|   3216: 33 31 35 66 36 39 79 79 05 02 0f 02 49 34 32 30   315f69yy....I420
|   3232: 35 32 34 66 35 37 34 39 34 34 35 35 30 32 30 37   524f574944550207
|   3248: 31 37 31 62 31 62 30 31 38 31 30 31 37 34 36 31   171b1b0181017461
|   3264: 36 32 36 63 36 37 37 34 33 31 35 66 36 34 36 31   626c6774315f6461
|   3280: 37 34 36 31 37 34 33 31 35 66 36 34 36 31 37 34   746174315f646174
|   3296: 36 31 30 32 34 33 05 02 14 02 07 66 36 39 36 34   610243.....f6964
|   3312: 37 38 05 02 11 01 4a 36 34 36 66 36 65 30 33 30   78....J646f6e030
|   3328: 32 30 32 30 34 30 61 30 37 30 35 30 31 30 33 30   202040a070501030
|   3344: 30 31 30 30 33 30 33 30 66 30 61 30 33 30 30 32   01003030f0a03002
|   3360: 34 30 30 30 30 30 30 30 30 30 31 30 31 30 31 30   4000000000101010
|   3376: 30 30 31 30 31 30 31 30 31 30 61 30 30 30 30 30   0010101010a00000
|   3392: 30 05 02 1b 02 49 35 32 37 32 38 36 39 36 34 32   0....I5272869642
|   3408: 30 34 39 34 65 35 34 34 35 34 37 34 35 35 32 32   0494e54454745522
|   3424: 30 35 30 35 32 34 39 34 64 34 31 35 32 35 39 32   05052494d4152592
|   3440: 30 34 62 34 35 35 39 32 63 32 30 37 33 37 61 32   04b45592c20737a2
|   3456: 30 34 32 34 63 34 66 34 32 32 39 35 35 30 34 05   0424c4f42295504.
|   3472: 04 06 07 02 49 37 36 65 36 66 32 63 32 30 35 30   ....I76e6f2c2050
|   3488: 35 32 34 39 34 64 34 31 35 32 35 39 32 30 34 62   52494d415259204b
|   3504: 34 35 35 39 32 38 37 33 36 35 36 37 36 39 36 34   4559287365676964
|   3520: 32 63 32 30 37 34 36 35 37 32 36 64 32 39 32 39   2c207465726d2929
|   3536: 32 30 35 37 34 39 35 34 34 38 34 66 35 35 05 02   20574954484f55..
|   3552: 13 02 49 39 37 61 36 35 37 34 33 31 35 66 36 34   ..I97a6574315f64
|   3568: 36 66 36 33 37 33 36 39 37 61 36 35 30 35 34 33   6f6373697a650543
|   3584: 35 32 34 35 34 31 35 34 34 35 32 30 35 34 34 31   5245415445205441
|   3600: 34 32 34 63 34 35 32 30 32 37 37 34 33 31 35 66   424c45202774315f
|   3616: 36 34 36 66 36 33 37 33 36 39 37 61 05 04 05 07   646f6373697a....
|   3632: 01 0e 37 34 30 34 34 33 35 32 34 35 34 31 35 34   ..74044352454154
|   3648: 05 04 08 07 02 49 36 32 39 32 30 35 37 34 39 35   .....I6292057495
|   3664: 34 34 38 34 66 35 35 35 34 32 30 35 32 34 66 35   4484f555420524f5
|   3680: 37 34 39 34 34 35 62 30 35 30 37 31 37 32 31 32   749445b050717212
|   3696: 31 30 31 38 31 30 31 37 34 36 31 36 32 36 63 36   10181017461626c6
|   3712: 35 37 34 33 31 35 66 36 34 36 66 36 33 37 33 05   574315f646f6373.
|   3728: 02 04 01 06 62 61 63 6b 75 70 05 02 1e 02 05 65   ....backup.....e
|   3744: 61 6d 65 72 05 02 02 02 05 6f 6f 6d 65 72 05 01   amer.....oomer..
|   3760: 02 40 75 6d 6d 32 34 63 34 35 32 30 32 37 37 34   .@umm24c45202774
|   3776: 33 31 35 66 36 33 36 66 36 65 36 36 36 39 36 37   315f636f6e666967
|   3792: 32 37 32 38 36 62 32 30 35 30 35 32 34 39 34 64   27286b205052494d
|   3808: 34 31 35 32 35 39 32 30 34 62 34 35 35 39 32 63   415259204b45592c
|   3824: 32 30 05 02 03 01 04 79 65 6b 72 05 02 10 04 11   20.....yekr.....
|   3840: 4e 41 09 49 08 2d 4f 4e 4e 2e 4f 3f 4e 0c 4f 4f   NA.I.-ONN.O?N.OO
|   3856: 4e 4f 14 4e 0b 0a 09 45 0f ef 00 14 2a 00 00 00   NO.N...E....*...
|   3872: 00 01 02 02 00 02 01 01 01 02 01 01 81 09 88 80   ................
|   3888: 80 80 80 01 04 00 82 16 00 00 00 79 06 30 61 62   ...........y.0ab
|   3904: 61 63 6b 08 02 07 04 04 6e 64 6f 6e 08 02 05 02   ack.....ndon....
|   3920: 05 63 74 69 76 65 04 02 02 04 02 0b 02 04 6c 70   .ctive........lp
|   3936: 68 61 08 04 02 0a 02 03 74 6b 6d 06 02 02 03 02   ha......tkm.....
|   3952: 6f 6d 08 02 09 05 02 69 63 07 02 02 01 06 62 61   om.....ic.....ba
|   3968: 63 6b 75 70 08 02 04 02 05 6f 6f 6d 65 72 05 02   ckup.....oomer..
|   3984: 02 01 0c 63 68 61 6e 6e 65 62 6f 6f 6d 65 72 08   ...channeboomer.
|   4000: 02 08 07 01 6c 08 02 03 01 04 74 65 73 74 08 02   ....l.....test..
|   4016: 06 04 0a 09 0d 0a 08 07 07 0b 0a 11 06 24 84 80   .............$..
|   4032: 80 80 80 01 03 00 4e 00 00 00 1e 06 30 61 62 61   ......N.....0aba
|   4048: 63 6b 01 08 02 04 02 66 74 00 02 22 04 04 6e 64   ck.....ft.....nd
|   4064: 6f 6e 03 02 02 04 0a 07 05 01 03 00 10 06 22 00   on..............
|   4080: 00 00 11 24 00 00 00 00 01 01 01 00 01 01 01 01   ...$............
| page 3 offset 8192
|      0: 0a 00 00 00 04 0f e5 00 0f fa 0f f3 0f ec 0f e5   ................
|   4064: 00 00 00 00 00 06 04 01 0c 01 04 02 06 04 01 0c   ................
|   4080: 01 03 02 06 04 01 0c 01 02 02 05 04 09 0c 01 02   ................
| page 4 offset 12288
|      0: 0d 0f 68 00 06 08 98 00 0f f6 0f ec 0f d5 08 98   ..h.............
|     16: 0f c1 0f b6 0f 68 0f 68 00 00 00 00 00 00 00 00   .....h.h........
|   2192: 00 00 00 00 00 00 00 00 8d 4d 05 04 00 9b 1f 62   .........M.....b
|   2208: 65 61 6d 65 72 20 62 75 6d 6d 32 34 63 34 35 32   eamer bumm24c452
|   2224: 30 32 37 37 34 33 31 35 66 36 33 36 66 36 65 36   02774315f636f6e6
|   2240: 36 36 39 36 37 32 37 32 38 36 62 32 30 35 30 35   6696727286b20505
|   2256: 32 34 39 34 64 34 31 35 32 35 39 32 30 34 62 34   2494d415259204b4
|   2272: 35 35 39 32 63 32 30 0a 37 36 32 39 32 30 35 37   5592c20.76292057
|   2288: 34 39 35 34 34 38 34 66 35 35 35 34 32 30 35 32   4954484f55542052
|   2304: 34 66 35 37 34 39 34 34 35 62 30 35 30 37 31 37   4f5749445b050717
|   2320: 32 31 32 31 30 31 38 31 30 31 37 34 36 31 36 32   2121018101746162
|   2336: 36 63 36 35 37 34 33 31 35 66 36 34 36 66 36 33   6c6574315f646f63
|   2352: 37 33 0a 36 39 37 61 36 35 37 34 33 31 35 66 36   73.697a6574315f6
|   2368: 34 36 66 36 33 37 33 36 39 37 61 36 35 30 35 34   46f6373697a65054
|   2384: 33 35 32 34 35 34 31 35 34 34 35 32 30 35 34 34   3524541544520544
|   2400: 31 34 32 34 63 34 35 32 30 32 37 37 34 33 31 35   1424c45202774315
|   2416: 66 36 34 36 66 36 33 37 33 36 39 37 61 0a 36 35   f646f6373697a.65
|   2432: 32 37 32 38 36 39 36 34 32 30 34 39 34 65 35 34   2728696420494e54
|   2448: 34 35 34 37 34 35 35 32 32 30 35 30 35 32 34 39   4547455220505249
|   2464: 34 64 34 31 35 32 35 39 32 30 34 62 34 35 35 39   4d415259204b4559
|   2480: 32 63 32 30 37 33 37 61 32 30 34 32 34 63 34 66   2c20737a20424c4f
|   2496: 34 32 32 39 35 35 30 34 0a 30 36 31 37 32 31 32   42295504.0617212
|   2512: 31 30 31 37 37 37 34 36 31 36 32 35 63 36 35 37   101777461625c657
|   2528: 34 33 31 35 66 36 33 36 66 36 65 37 34 36 35 36   4315f636f6e74656
|   2544: 65 37 34 37 34 33 31 35 66 36 33 36 66 36 65 37   e7474315f636f6e7
|   2560: 34 36 35 36 65 0b 0b 0b 0b 0b 0b 0b 0b 0b 0b 0b   4656e...........
|   2576: 0b 0b 0b 0b 0b 0b 0b 0b 0b 0b 0b 0b 0b 0b 0b 0b   ................
|   2592: 0b 0b 0b 0b 0b 0b 0b 0b 0b 0b 0b 0b 0b 0b 0b 0b   ................
|   2608: 0b 0b 0b 0b 0b 0b 0b 0b 0b 0b 0b 0b 0b 0b 0b 0b   ................
|   2624: 0b 0b 0b 0b 0b 0b 0b 0b 0b 0b 0b 0b 0b 0b 0b 0b   ................
|   2640: 0b 0b 0b 0b 0b 0b 0b 0b 0b 0b 0b 0b 0b 0b 0b 0b   ................
|   2656: 0b 0b 0b 0b 0b 0b 0b 0b 0b 0b 0b 0b 0b 37 34 30   .............740
|   2672: 34 34 33 35 32 34 35 34 31 35 34 0a 34 35 32 30   44352454154.4520
|   2688: 35 34 34 31 34 32 34 63 34 35 32 30 32 37 37 34   5441424c45202774
|   2704: 33 31 35 66 36 33 36 66 36 65 37 34 36 35 36 65   315f636f6e74656e
|   2720: 37 34 32 37 32 38 36 39 36 34 32 30 34 39 34 65   742728696420494e
|   2736: 35 34 34 35 34 37 34 35 35 32 32 30 35 30 35 62   544547455220505b
|   2752: 30 35 30 37 31 37 32 31 32 31 30 31 38 31 30 31   0507172121018101
|   2768: 37 34 36 31 36 32 36 63 36 35 37 34 33 31 35 66   7461626c6574315f
|   2784: 36 34 36 66 36 33 37 33 0a 36 39 37 61 36 35 37   646f6373.697a657
|   2800: 34 33 31 35 66 36 34 36 66 36 33 37 33 36 39 37   4315f646f6373697
|   2816: 61 36 35 30 35 34 33 35 32 34 35 34 31 35 34 34   a650543524541544
|   2832: 35 32 30 35 34 34 31 34 32 34 63 34 35 32 30 32   5205441424c45202
|   2848: 37 37 34 33 31 35 66 36 34 36 66 36 33 37 33 36   774315f646f63736
|   2864: 39 37 61 0a 36 35 32 37 32 38 36 39 36 34 32 30   97a.652728696420
|   2880: 34 39 34 65 35 34 34 35 34 37 34 35 35 32 32 30   494e544547455220
|   2896: 35 30 35 32 34 39 34 64 34 31 35 32 35 39 32 30   5052494d41525920
|   2912: 34 62 34 35 35 39 32 63 32 30 37 33 37 61 32 30   4b45592c20737a20
|   2928: 34 32 34 63 34 66 34 32 32 39 35 35 30 34 0a 30   424c4f42295504.0
|   2944: 36 31 37 32 31 32 31 30 31 37 37 37 34 36 31 36   6172121017774616
|   2960: 32 35 63 36 35 37 34 33 31 35 66 36 33 36 66 36   25c6574315f636f6
|   2976: 65 37 34 36 35 36 65 37 34 37 34 33 31 35 66 36   e74656e7474315f6
|   2992: 33 36 66 36 65 37 34 36 35 36 65 0b 0b 0b 0b 0b   36f6e74656e.....
|   3008: 0b 0b 0b 0b 0b 0b 0b 0b 0b 0b 0b 0b 0b 0b 0b 0b   ................
|   3024: 0b 0b 0b 0b 0b 0b 0b 0b 0b 0b 0b 0b 0b 0b 0b 0b   ................
|   3040: 0b 0b 0b 0b 0b 0b 0b 0b 0b 0b 0b 0b 0b 0b 0b 0b   ................
|   3056: 0b 0b 0b 0b 0b 0b 0b 0b 0b 0b 0b 0b 0b 0b 0b 0b   ................
|   3072: 0b 0b 0b 0b 0b 0b 0b 0b 0b 0b 0b 0b 0b 0b 0b 0b   ................
|   3088: 0b 0b 0b 0b 0b 0b 0b 0b 0b 0b 0b 0b 0b 0b 0b 0b   ................
|   3104: 0b 0b 0b 37 34 30 34 34 33 35 32 34 35 34 31 35   ...7404435245415
|   3120: 34 0a 34 35 32 30 35 34 34 31 34 32 34 63 34 35   4.45205441424c45
|   3136: 32 30 32 37 37 34 33 31 35 66 36 33 36 66 36 65   202774315f636f6e
|   3152: 37 34 36 35 36 65 37 34 32 37 32 38 36 39 36 34   74656e7427286964
|   3168: 32 30 34 39 34 65 35 34 34 35 34 37 34 35 35 32   20494e5445474552
|   3184: 32 30 35 30 35 32 34 39 34 64 34 31 0a 35 32 35   205052494d41.525
|   3200: 39 32 30 34 62 34 35 35 39 32 63 32 30 36 33 33   9204b45592c20633
|   3216: 30 32 39 36 39 30 33 30 37 31 37 31 39 31 39 30   0296903071719190
|   3232: 31 38 31 32 64 37 34 36 31 36 32 36 63 36 35 37   1812d7461626c657
|   3248: 34 33 31 35 66 36 39 c3 bf c3 bf 7e c3 bf c3 89   4315f69....~....
|   3264: 4b 52 c2 81 35 66 36 39 36 34 37 38 0a 30 33 34   KR..5f696478.034
|   3280: 33 35 32 34 35 34 31 35 34 34 35 32 30 35 34 34   3524541544520544
|   3296: 31 34 32 34 63 34 35 32 30 32 37 37 34 33 31 35   1424c45202774315
|   3312: 66 36 39 36 34 37 38 32 37 32 38 37 33 36 35 36   f696478272873656
|   3328: 37 36 39 36 34 32 63 32 30 37 34 36 35 37 32 36   769642c207465726
|   3344: 64 32 63 32 30 37 30 0a 36 37 36 65 36 66 32 63   d2c2070.676e6f2c
|   3360: 32 30 35 30 35 32 34 39 34 64 34 31 35 32 35 39   205052494d415259
|   3376: 32 30 34 62 34 35 35 39 32 38 37 33 36 35 36 37   204b455928736567
|   3392: 36 39 36 34 32 63 32 30 37 34 36 35 37 32 36 64   69642c207465726d
|   3408: 32 39 32 39 32 30 35 37 34 39 35 34 34 38 34 66   292920574954484f
|   3424: 35 35 0a 35 34 32 30 35 32 34 66 35 37 34 39 34   55.5420524f57494
|   3440: 34 35 35 30 32 30 37 31 37 31 62 31 62 30 31 38   4550207171b1b018
|   3456: 31 30 31 37 34 36 31 36 32 36 63 36 37 37 34 33   1017461626c67743
|   3472: 31 35 66 36 34 36 31 37 34 36 31 37 34 33 31 35   15f6461746174315
|   3488: 66 36 34 36 31 37 34 36 31 30 32 34 33 0a 35 32   f646174610243.52
|   3504: 34 35 34 31 35 34 34 35 32 30 35 34 34 31 34 32   4541544520544142
|   3520: 34 63 34 35 32 30 32 37 37 34 33 31 35 66 36 34   4c45202774315f64
|   3536: 36 31 37 34 36 31 32 37 32 38 36 39 36 34 32 30   6174612728696420
|   3552: 34 39 34 65 35 34 34 35 34 37 34 35 35 32 32 30   494e544547455220
|   3568: 35 30 35 32 34 39 34 64 0a 34 31 35 32 35 39 32   5052494d.4152592
|   3584: 30 34 62 34 35 35 39 32 63 32 30 36 32 36 63 36   04b45592c20626c6
|   3600: 66 36 33 36 62 32 30 34 32 34 63 34 66 34 32 32   f636b20424c4f422
|   3616: 39 33 61 30 31 30 36 31 37 31 31 31 31 30 38 36   93a0106171111086
|   3632: 33 37 34 36 31 36 32 36 63 36 35 37 34 33 31 37   37461626c6574317
|   3648: 34 33 31 0a 34 33 35 32 34 35 34 31 35 34 34 35   431.435245415445
|   3664: 32 30 35 36 34 39 35 32 35 34 35 35 34 31 34 63   205649525455414c
|   3680: 32 30 35 34 34 31 34 32 34 63 34 35 32 30 37 34   205441424c452074
|   3696: 33 31 c3 94 30 35 35 35 33 34 39 34 65 34 37 32   31..05553494e472
|   3712: 30 36 36 37 34 37 33 33 35 32 38 36 33 36 66 0a   06674733528636f.
|   3728: 33 65 37 34 36 35 36 65 37 34 32 39 30 64 30 30   3e74656e74290d00
|   3744: 30 30 30 30 30 33 30 66 62 64 30 30 30 66 65 38   0000030fbd000fe8
|   3760: 30 66 65 66 30 66 62 64 0a 5b 31 66 62 64 5d 32   0fef0fbd.[1fbd]2
|   3776: 34 38 34 38 30 38 30 38 30 38 30 30 31 30 33 30   4848080808001030
|   3792: 30 34 65 30 30 30 30 30 30 31 65 30 36 33 30 36   04e0000001e06306
|   3808: 31 36 32 36 31 36 33 36 62 30 31 30 32 30 32 30   16261636b0102020
|   3824: 34 30 32 36 36 37 34 30 32 30 32 30 32 30 34 30   4026674020202040
|   3840: 34 36 65 0a 36 34 36 66 36 65 30 33 30 32 30 32   46e.646f6e030202
|   3856: 30 34 30 61 30 37 30 35 30 31 30 33 30 30 31 30   040a070501030010
|   3872: 30 33 30 33 30 66 30 61 30 33 30 30 32 34 30 30   03030f0a03002400
|   3888: 30 30 30 30 30 30 30 31 30 31 30 31 30 30 30 31   0000000101010001
|   3904: 30 31 30 31 30 31 30 61 30 30 30 30 30 30 0a 30   0101010a000000.0
|   3920: 31 30 66 66 61 30 30 30 66 66 61 0a 5b 32 66 65   10ffa000ffa.[2fe
|   3936: 72 20 62 61 63 6b 75 70 0f ca 00 4e 81 1d 61 6c   r backup...N..al
|   3952: 70 68 61 20 63 68 61 6e 6e 65 6c 20 c2 af 62 61   pha channel ..ba
|   3968: 63 6b 75 70 20 61 62 61 6e 64 6f 6e 20 74 65 73   ckup abandon tes
|   3984: 74 20 61 62 61 63 6b 20 63 68 61 6e 6e 65 62 6f   t aback channebo
|   4000: 6f 6d 65 72 20 61 74 6f 6d 20 61 6c 70 68 61 20   omer atom alpha 
|   4016: 61 63 74 69 76 65 09 07 03 00 19 61 74 6f 6d 69   active.....atomi
|   4032: 63 07 06 03 00 15 61 74 6b 6d 0f e0 00 0b 19 62   c.....atkm.....b
|   4048: 6f 6f 6d 65 72 09 04 03 00 19 61 63 74 69 76 65   oomer.....active
|   4064: 00 00 00 0c 1b 61 62 61 6e 64 6f 6e 08 02 03 00   .....abandon....
|   4080: 17 61 66 21 66 74 08 01 03 00 17 61 62 61 63 6b   .af!ft.....aback
| page 5 offset 16384
|      0: 0d 0f ee 00 06 0f d6 00 0f fa 0f f4 0f e8 0f e2   ................
|     16: 0f dc 0f d6 0f d0 0f d0 00 00 00 00 00 00 00 00   ................
|   4048: 0f ee 00 06 0e 0a 04 07 03 00 0e 01 04 06 03 00   ................
|   4064: 0e 01 04 05 03 00 0e 1d 04 04 03 00 0e 01 00 00   ................
|   4080: 00 06 0e 01 04 02 03 00 0e 01 04 01 03 00 0e 01   ................
| page 6 offset 20480
|      0: 0a 00 00 00 01 0f f4 00 0f f4 00 00 00 00 00 00   ................
|   4080: 00 00 00 00 0b 03 1b 01 76 65 72 73 69 6f 6e 04   ........version.
| page 7 offset 24576
|      0: 0d 00 00 00 03 0f d6 00 0f f4 0f e1 0f d6 00 00   ................
|   4048: 00 00 00 00 00 00 09 03 02 1b 72 65 62 75 69 6c   ..........rebuil
|   4064: 64 11 02 02 2b 69 6e 74 65 67 72 69 74 79 2d 63   d...+integrity-c
|   4080: 68 65 63 6b 0a 01 02 1d 6f 70 74 69 6d 69 7a 65   heck....optimize
| end c19b.db
}]} {}

do_catchsql_test 18.1 {
  INSERT INTO t1(t1) VALUES('optimize');
} {/.*fts5: corrupt.*/}

#--------------------------------------------------------------------------
reset_db
do_test 19.0 {
  sqlite3 db {}
  db deserialize [decode_hexdb {
| size 28672 pagesize 4096 filename c20b.db
| page 1 offset 0
|      0: 53 51 4c 69 74 65 20 66 6f 72 6d 61 74 20 33 00   SQLite format 3.
|     16: 10 00 01 01 00 40 20 20 00 00 00 01 00 00 00 07   .....@  ........
|     32: 00 00 00 00 00 00 00 00 00 00 00 01 00 00 00 00   ................
|     48: 00 00 00 00 00 00 00 01 00 00 00 00 00 00 00 00   ................
|     80: 00 00 00 00 00 00 00 00 00 00 00 00 00 00 00 01   ................
|     96: 00 2e 30 38 0d 00 00 00 07 0d d2 00 0f c4 0f 6d   ..08...........m
|    112: 0f 02 0e ab 0e 4e 0d f6 0d d2 00 00 00 00 00 00   .....N..........
|   3536: 00 00 22 07 06 17 11 11 01 31 74 61 62 6c 65 74   .........1tablet
|   3552: 32 74 32 07 43 52 45 41 54 45 20 54 41 42 4c 45   2t2.CREATE TABLE
|   3568: 20 74 32 28 78 29 56 06 06 17 1f 1f 01 7d 74 61    t2(x)V.......ta
|   3584: 62 6c 65 74 31 5f 63 6f 6e 66 69 67 74 31 5f 63   blet1_configt1_c
|   3600: 6f 6e 66 69 67 06 43 52 45 41 54 45 20 54 41 42   onfig.CREATE TAB
|   3616: 4c 45 20 27 74 31 5f 63 6f 6e 66 69 67 27 28 6b   LE 't1_config'(k
|   3632: 20 50 52 49 4d 41 52 59 20 4b 45 59 2c 20 76 29    PRIMARY KEY, v)
|   3648: 20 57 49 54 48 4f 55 54 20 52 4f 57 49 44 5b 05    WITHOUT ROWID[.
|   3664: 07 17 21 21 01 81 01 74 61 62 6c 65 74 31 5f 64   ..!!...tablet1_d
|   3680: 6f 63 73 69 7a 65 74 31 5f 64 6f 63 73 69 7a 65   ocsizet1_docsize
|   3696: 05 43 52 45 41 54 45 20 54 41 42 4c 45 20 27 74   .CREATE TABLE 't
|   3712: 31 5f 64 6f 63 73 69 7a 65 27 28 69 64 20 49 4e   1_docsize'(id IN
|   3728: 54 45 47 45 52 20 50 52 49 4d 41 52 59 20 4b 45   TEGER PRIMARY KE
|   3744: 59 2c 20 73 7a 20 42 4c 4f 42 29 55 04 06 17 21   Y, sz BLOB)U...!
|   3760: 21 01 77 74 61 62 6c 65 74 31 5f 63 6f 6e 74 65   !.wtablet1_conte
|   3776: 6e 74 74 31 5f 63 6f 6e 74 65 6e 74 04 43 52 45   ntt1_content.CRE
|   3792: 41 54 45 20 54 41 42 4c 45 20 27 74 31 5f 63 6f   ATE TABLE 't1_co
|   3808: 6e 74 65 6e 74 27 28 69 64 20 49 4e 54 45 47 45   ntent'(id INTEGE
|   3824: 52 20 50 52 49 4d 41 52 59 20 4b 45 59 2c 20 63   R PRIMARY KEY, c
|   3840: 30 29 69 03 07 17 19 19 01 81 2d 74 61 62 6c 65   0)i.......-table
|   3856: 74 31 5f 69 64 78 74 31 5f 69 64 78 03 43 52 45   t1_idxt1_idx.CRE
|   3872: 41 54 45 20 54 41 42 4c 45 20 27 74 31 5f 69 64   ATE TABLE 't1_id
|   3888: 78 27 28 73 65 67 69 64 2c 20 74 65 72 6d 2c 20   x'(segid, term, 
|   3904: 70 67 6e 6f 2c 20 50 52 49 4d 41 52 59 20 4b 45   pgno, PRIMARY KE
|   3920: 59 28 73 65 67 69 64 2c 20 74 65 72 6d 29 29 20   Y(segid, term)) 
|   3936: 57 49 54 48 4f 55 54 20 52 4f 57 49 44 55 02 07   WITHOUT ROWIDU..
|   3952: 17 1b 1b 01 81 01 74 61 62 6c 65 74 31 5f 64 61   ......tablet1_da
|   3968: 74 61 74 31 5f 64 61 74 61 02 43 52 45 41 54 45   tat1_data.CREATE
|   3984: 20 54 41 42 4c 45 20 27 74 31 5f 64 61 74 61 27    TABLE 't1_data'
|   4000: 28 69 64 20 49 4e 54 45 47 45 52 20 50 52 49 4d   (id INTEGER PRIM
|   4016: 41 52 59 20 4b 45 59 2c 20 62 6c 6f 63 6b 20 42   ARY KEY, block B
|   4032: 4c 4f 42 29 3a 01 06 17 11 11 08 63 74 61 62 6c   LOB):......ctabl
|   4048: 65 74 31 74 31 43 52 45 41 54 45 20 56 49 52 54   et1t1CREATE VIRT
|   4064: 55 41 4c 20 54 41 42 4c 45 20 74 31 20 55 53 49   UAL TABLE t1 USI
|   4080: 4e 47 20 66 74 73 35 28 63 6f 6e 74 65 6e 74 29   NG fts5(content)
| page 2 offset 4096
|      0: 0d 0f 20 00 05 0e a0 00 0f e8 0e a0 0f bd 0f 34   .. ............4
|     16: 0e b7 00 00 00 00 00 00 00 00 00 00 00 00 00 00   ................
|   3744: 15 0a 03 00 30 00 00 00 00 01 03 03 00 03 01 01   ....0...........
|   3760: 01 02 01 01 03 01 01 62 8c 80 80 80 80 01 04 00   .......b........
|   3776: 81 48 00 00 00 55 06 30 61 62 61 63 6b 08 01 04   .H...U.0aback...
|   3792: 04 6e 64 6f 6e 03 01 05 01 02 05 63 74 69 76 65   .ndon......ctive
|   3808: 08 01 02 04 6c 70 68 61 08 01 02 03 74 6f 6d 08   ....lpha....tom.
|   3824: 01 01 06 62 61 63 6b 75 70 08 01 02 05 6f 6f 6d   ...backup....oom
|   3840: 65 72 08 01 01 07 63 68 61 6e 6e 65 6c 08 01 01   er....channel...
|   3856: 04 74 65 73 74 08 01 04 09 0a 09 08 07 0a 09 0b   .test...........
|   3872: 0f ef 00 14 2a 00 00 00 00 01 02 02 00 02 01 01   ....*...........
|   3888: 01 02 01 01 81 01 88 80 80 80 80 01 04 00 82 06   ................
|   3904: 00 00 00 72 06 30 61 62 61 63 6b 08 02 07 04 04   ...r.0aback.....
|   3920: 6e 64 6f 6e 08 02 05 02 05 63 74 69 76 65 04 02   ndon.....ctive..
|   3936: 02 04 02 0b 02 04 6c 70 68 61 08 04 02 0a 02 03   ......lpha......
|   3952: 74 6f 6d 06 02 02 02 02 09 05 02 69 63 07 02 02   tom........ic...
|   3968: 01 06 62 61 63 6b 75 70 08 02 04 02 05 6f 6f 66   ..backup.....oof
|   3984: 65 72 05 02 02 04 03 6d 65 72 08 02 08 01 07 63   er.....mer.....c
|   4000: 68 61 6e 6e 65 6c 08 02 03 01 04 74 65 73 74 08   hannel.....test.
|   4016: 02 06 04 0a 09 0d 0a 0b 07 0b 0a 08 0c 24 84 80   .............$..
|   4032: 80 80 80 01 03 00 4e 00 00 00 1e 06 30 61 62 61   ......N.....0aba
|   4048: 63 6b 01 02 66 04 00 22 74 00 02 22 04 04 6e 64   ck..f...t.....nd
|   4064: 6f 6e 03 02 02 04 0a 07 05 01 03 00 10 06 06 00   on..............
|   4080: 00 00 11 24 00 00 00 00 01 01 01 00 01 01 01 01   ...$............
| page 3 offset 8192
|      0: 0a 00 00 00 03 0f ec 00 0f fa 0f f3 0f ec 00 00   ................
|   4064: 00 00 00 00 00 00 00 00 00 00 00 00 06 04 01 0c   ................
|   4080: 01 03 02 06 04 01 0c 01 02 02 05 04 09 0c 01 02   ................
| page 4 offset 12288
|      0: 0d 0f e0 00 06 0f b6 00 0f f6 0f ec 0f d5 0f ca   ................
|     16: 0f c1 0f b6 0f 70 0f 70 00 00 00 00 00 00 00 00   .....p.p........
|   3952: 0f e0 00 46 81 0d 61 6c 70 68 61 20 63 68 61 6e   ...F..alpha chan
|   3968: 6e 65 6c 20 62 61 63 6b 75 70 20 61 62 61 6e 64   nel backup aband
|   3984: 6f 6e 20 74 65 73 74 20 61 62 61 63 6b 20 62 6f   on test aback bo
|   4000: 6f 6d 65 72 20 61 74 6f 6d 20 61 6c 70 68 61 20   omer atom alpha 
|   4016: 61 63 74 69 76 65 09 07 03 00 19 61 74 6f 6d 69   active.....atomi
|   4032: 63 07 06 03 00 15 61 74 6f 6d 09 05 03 00 19 62   c.....atom.....b
|   4048: 6f 6f 66 65 72 09 04 03 00 19 61 63 74 69 76 65   oofer.....active
|   4064: 00 00 00 0c 1b 61 62 61 6e 64 6f 6e 08 02 03 00   .....abandon....
|   4080: 17 61 62 61 66 74 08 01 03 00 17 61 62 61 63 6b   .abaft.....aback
| page 5 offset 16384
|      0: 0d 0f ee 00 06 0f d6 00 0f fa 0f f4 0f e8 0f e2   ................
|     16: 0f dc 0f d6 0f d0 0f d0 00 00 00 00 00 00 00 00   ................
|   4048: 0f ee 00 06 0e 0a 04 07 03 00 0e 01 04 06 03 00   ................
|   4064: 0e 01 04 05 03 00 0e 01 04 04 03 00 0e 01 00 00   ................
|   4080: 00 06 0e 01 04 02 03 00 0e 01 04 01 03 00 0e 01   ................
| page 6 offset 20480
|      0: 0a 00 00 00 01 0f f4 00 0f f4 00 00 00 00 00 00   ................
|   4080: 00 00 00 00 0b 03 1b 01 76 65 72 73 69 6f 6e 04   ........version.
| page 7 offset 24576
|      0: 0d 00 00 00 03 0f d6 00 0f f4 0f e1 0f d6 00 00   ................
|   4048: 00 00 00 00 00 00 09 03 02 1b 72 65 62 75 69 6c   ..........rebuil
|   4064: 64 11 02 02 2b 69 6e 74 65 67 72 69 74 79 2d 63   d...+integrity-c
|   4080: 86 65 63 6b 0a 01 02 1d 6f 70 74 69 6d 69 7a 65   .eck....optimize
| end c20b.db
}]} {}

do_catchsql_test 19.1 {
  INSERT INTO t1(t1) VALUES('optimize');
} {/.*fts5: corrupt.*/}

#--------------------------------------------------------------------------
reset_db
do_test 20.0 {
  sqlite3 db {}
  db deserialize [decode_hexdb {
| size 28672 pagesize 4096 filename crash-cf347c523f793c.db
| page 1 offset 0
|      0: 53 51 4c 69 74 65 20 66 6f 72 6d 61 74 20 33 00   SQLite format 3.
|     16: 10 00 01 01 00 40 20 20 00 00 00 00 00 00 00 07   .....@  ........
|     32: 00 00 00 00 00 00 00 00 00 00 00 07 00 00 00 00   ................
|     48: 00 00 00 00 00 00 00 01 00 00 00 00 00 00 00 00   ................
|     96: 00 00 00 00 0d 00 00 00 07 0d d2 00 0f c4 0f 6d   ...............m
|    112: 0f 02 0e ab 0e 4e 0d f6 0d d2 00 00 00 00 00 00   .....N..........
|   3536: 00 00 22 07 06 17 11 11 01 31 74 61 62 6c 65 74   .........1tablet
|   3552: 32 74 32 07 43 52 45 41 54 45 20 54 41 42 4c 45   2t2.CREATE TABLE
|   3568: 20 74 32 28 78 29 56 06 06 17 1f 1f 01 7d 74 61    t2(x)V.......ta
|   3584: 62 6c 65 74 31 5f 63 6f 6e 66 69 67 74 31 5f 63   blet1_configt1_c
|   3600: 6f 6e 66 69 67 06 43 52 45 41 54 45 20 54 41 42   onfig.CREATE TAB
|   3616: 4c 45 20 27 74 31 5f 63 6f 6e 66 69 67 27 28 6b   LE 't1_config'(k
|   3632: 20 50 52 49 4d 41 52 59 20 4b 45 59 2c 20 76 29    PRIMARY KEY, v)
|   3648: 20 57 49 54 48 4f 55 54 20 52 4f 57 49 44 5b 05    WITHOUT ROWID[.
|   3664: 07 17 21 21 01 81 01 74 61 62 6c 65 74 31 5f 64   ..!!...tablet1_d
|   3680: 6f 63 73 69 7a 65 74 31 5f 64 6f 63 73 69 7a 65   ocsizet1_docsize
|   3696: 05 43 52 45 41 54 45 20 54 41 42 4c 45 20 27 74   .CREATE TABLE 't
|   3712: 31 5f 64 6f 63 73 69 7a 65 27 28 69 64 20 49 4e   1_docsize'(id IN
|   3728: 54 45 47 45 52 20 50 52 49 4d 41 52 59 20 4b 45   TEGER PRIMARY KE
|   3744: 59 2c 20 73 7a 20 42 4c 4f 42 29 55 04 06 17 21   Y, sz BLOB)U...!
|   3760: 21 01 77 74 61 62 6c 65 74 31 5f 63 6f 6e 74 65   !.wtablet1_conte
|   3776: 6e 74 74 31 5f 63 6f 6e 74 65 6e 74 04 43 52 45   ntt1_content.CRE
|   3792: 41 54 45 20 54 41 42 4c 45 20 27 74 31 5f 63 6f   ATE TABLE 't1_co
|   3808: 6e 74 65 6e 74 27 28 69 64 20 49 4e 54 45 47 45   ntent'(id INTEGE
|   3824: 52 20 50 52 49 4d 41 52 59 20 4b 45 59 2c 20 63   R PRIMARY KEY, c
|   3840: 30 29 69 03 07 17 19 19 01 81 2d 74 61 62 6c 65   0)i.......-table
|   3856: 74 31 5f 69 64 78 74 31 5f 69 64 78 03 43 52 45   t1_idxt1_idx.CRE
|   3872: 41 54 45 20 54 41 42 4c 45 20 27 74 31 5f 69 64   ATE TABLE 't1_id
|   3888: 78 27 28 73 65 67 69 64 2c 20 74 65 72 6d 2c 20   x'(segid, term, 
|   3904: 70 67 6e 6f 2c 20 50 52 49 4d 41 52 59 20 4b 45   pgno, PRIMARY KE
|   3920: 59 28 73 65 67 69 64 2c 20 74 65 72 6d 29 29 20   Y(segid, term)) 
|   3936: 57 49 54 48 4f 55 54 20 52 4f 57 49 44 55 02 07   WITHOUT ROWIDU..
|   3952: 17 1b 1b 01 81 01 74 61 62 6c 65 74 31 5f 64 61   ......tablet1_da
|   3968: 74 61 74 31 5f 64 61 74 61 02 43 52 45 41 54 45   tat1_data.CREATE
|   3984: 20 54 41 42 4c 45 20 27 74 31 5f 64 61 74 61 27    TABLE 't1_data'
|   4000: 28 69 64 20 49 4e 54 45 47 45 52 20 50 52 49 4d   (id INTEGER PRIM
|   4016: 41 52 59 20 4b 45 59 2c 20 62 6c 6f 63 6b 20 42   ARY KEY, block B
|   4032: 4c 4f 42 29 3a 01 06 17 11 11 08 63 74 61 62 6c   LOB):......ctabl
|   4048: 65 74 31 74 31 43 52 45 41 54 45 20 56 49 52 54   et1t1CREATE VIRT
|   4064: 55 41 4c 20 54 41 42 4c 45 20 74 31 20 55 53 49   UAL TABLE t1 USI
|   4080: 4e 47 20 66 74 73 35 28 63 6f 6e 74 65 6e 74 29   NG fts5(content)
| page 2 offset 4096
|      0: 0d 00 00 00 03 0f bd 00 0f e8 0f ef 0f bd 00 00   ................
|   4016: 00 00 00 00 00 00 00 00 00 00 00 00 00 24 84 80   .............$..
|   4032: 80 80 80 01 03 00 4e 00 00 00 1e 06 30 61 62 61   ......N.....0aba
|   4048: 63 6b 01 02 02 04 02 66 74 02 02 02 04 04 6e 64   ck.....ft.....nd
|   4064: 6f 6e 03 02 02 04 0a 07 05 01 03 00 10 03 03 0f   on..............
|   4080: 0a 03 00 24 00 00 00 0e ee ee ee ee ee ee ee ee   ...$............
| page 3 offset 8192
|      0: ee ee ee ee ee ee ee ee ee ee ee ee ee ee ee ee   ................
|     16: ee ee ee ee ee ee ee ee ee ee ee ee ee ee ee ee   ................
|     32: ee ee ee ee ee ee ee ee ee ee ee ee 00 10 10 10   ................
|     48: 00 10 10 10 10 a0 00 00 00 10 ff a0 00 ff 00 00   ................
|   4080: 00 00 00 00 00 00 00 00 00 00 05 04 09 0c 01 02   ................
| page 4 offset 12288
|      0: 0d 00 00 00 03 0f e0 00 0f f6 0f ec 0f e0 00 00   ................
|   4064: 0a 03 03 00 1b 61 62 61 6e 64 6f 6e 08 02 03 00   .....abandon....
|   4080: 17 61 62 61 66 74 08 01 03 00 17 61 62 61 63 6b   .abaft.....aback
| page 5 offset 16384
|      0: 0d 00 00 00 03 0f ee 00 0f fa 0f f4 0f ee 00 00   ................
|   4064: 00 00 00 00 00 00 00 00 00 00 00 00 00 00 04 03   ................
|   4080: 03 00 0e 01 04 02 03 00 0e 01 04 01 03 00 0e 01   ................
| page 6 offset 20480
|      0: 0a 00 00 00 01 0f f4 00 0f f4 00 00 00 00 00 00   ................
|   4080: 00 00 00 00 0b 03 1b 01 76 65 72 73 69 6f 6e 04   ........version.
| page 7 offset 24576
|      0: 0d 00 00 00 03 0f d6 00 0f f4 0f e1 0f d6 00 00   ................
|   4048: 00 00 00 00 00 00 09 03 02 1b 72 65 62 75 69 6c   ..........rebuil
|   4064: 64 11 02 02 2b 69 6e 74 65 67 72 69 74 79 2d 63   d...+integrity-c
|   4080: 68 65 63 6b 0a 01 02 1d 6f 70 74 69 6d 69 7a 65   heck....optimize
| end crash-cf347c523f793c.db
}]} {}

do_catchsql_test 20.1 {
  SELECT * FROM t1 WHERE t1 MATCH 'abandon';
} {/.*fts5: corrupt.*/}

#-------------------------------------------------------------------------
reset_db
do_test 21.0 {
  sqlite3 db {}
  db deserialize [decode_hexdb {
| size 28672 pagesize 4096 filename c22b.db
| page 1 offset 0
|      0: 53 51 4c 69 74 65 20 66 6f 72 6d 61 74 20 33 00   SQLite format 3.
|     16: 10 00 01 01 00 40 20 20 00 00 00 01 00 00 00 07   .....@  ........
|     32: 00 00 00 00 00 00 00 00 00 00 00 01 00 00 00 00   ................
|     48: 00 00 00 00 00 00 00 01 00 00 00 00 00 00 00 00   ................
|     80: 00 00 00 00 00 00 00 00 00 00 00 00 00 00 00 01   ................
|     96: 00 2e 30 38 0d 00 00 00 07 0d d2 00 0f c4 0f 6d   ..08...........m
|    112: 0f 02 0e ab 0e 4e 0d f6 0d d2 00 00 00 00 00 00   .....N..........
|   3536: 00 00 22 07 06 17 11 11 01 31 74 61 62 6c 65 74   .........1tablet
|   3552: 32 74 32 07 43 52 45 41 54 45 20 54 41 42 4c 45   2t2.CREATE TABLE
|   3568: 20 74 32 28 78 29 56 06 06 17 1f 1f 01 7d 74 61    t2(x)V.......ta
|   3584: 62 6c 65 74 31 5f 63 6f 6e 66 69 67 74 31 5f 63   blet1_configt1_c
|   3600: 6f 6e 66 69 67 06 43 52 45 41 54 45 20 54 41 42   onfig.CREATE TAB
|   3616: 4c 45 20 27 74 31 5f 63 6f 6e 66 69 67 27 28 6b   LE 't1_config'(k
|   3632: 20 50 52 49 4d 41 52 59 20 4b 45 59 2c 20 76 29    PRIMARY KEY, v)
|   3648: 20 57 49 54 48 4f 55 54 20 52 4f 57 49 44 5b 05    WITHOUT ROWID[.
|   3664: 07 17 21 21 01 81 01 74 61 62 6c 65 74 31 5f 64   ..!!...tablet1_d
|   3680: 6f 63 73 69 7a 65 74 31 5f 64 6f 63 73 69 7a 65   ocsizet1_docsize
|   3696: 05 43 52 45 41 54 45 20 54 41 42 4c 45 20 27 74   .CREATE TABLE 't
|   3712: 31 5f 64 6f 63 73 69 7a 65 27 28 69 64 20 49 4e   1_docsize'(id IN
|   3728: 54 45 47 45 52 20 50 52 49 4d 41 52 59 20 4b 45   TEGER PRIMARY KE
|   3744: 59 2c 20 73 7a 20 42 4c 4f 42 29 55 04 06 17 21   Y, sz BLOB)U...!
|   3760: 21 01 77 74 61 62 6c 65 74 31 5f 63 6f 6e 74 65   !.wtablet1_conte
|   3776: 6e 74 74 31 5f 63 6f 6e 74 65 6e 74 04 43 52 45   ntt1_content.CRE
|   3792: 41 54 45 20 54 41 42 4c 45 20 27 74 31 5f 63 6f   ATE TABLE 't1_co
|   3808: 6e 74 65 6e 74 27 28 69 64 20 49 4e 54 45 47 45   ntent'(id INTEGE
|   3824: 52 20 50 52 49 4d 41 52 59 20 4b 45 59 2c 20 63   R PRIMARY KEY, c
|   3840: 30 29 69 03 07 17 19 19 01 81 2d 74 61 62 6c 65   0)i.......-table
|   3856: 74 31 5f 69 64 78 74 31 5f 69 64 78 03 43 52 45   t1_idxt1_idx.CRE
|   3872: 41 54 45 20 54 41 42 4c 45 20 27 74 31 5f 69 64   ATE TABLE 't1_id
|   3888: 78 27 28 73 65 67 69 64 2c 20 74 65 72 6d 2c 20   x'(segid, term, 
|   3904: 70 67 6e 6f 2c 20 50 52 49 4d 41 52 59 20 4b 45   pgno, PRIMARY KE
|   3920: 59 28 73 65 67 69 64 2c 20 74 65 72 6d 29 29 20   Y(segid, term)) 
|   3936: 57 49 54 48 4f 55 54 20 52 4f 57 49 44 55 02 07   WITHOUT ROWIDU..
|   3952: 17 1b 1b 01 81 01 74 61 62 6c 65 74 31 5f 64 61   ......tablet1_da
|   3968: 74 61 74 31 5f 64 61 74 61 02 43 52 45 41 54 45   tat1_data.CREATE
|   3984: 20 54 41 42 4c 45 20 27 74 31 5f 64 61 74 61 27    TABLE 't1_data'
|   4000: 28 69 64 20 49 4e 54 45 47 45 52 20 50 52 49 4d   (id INTEGER PRIM
|   4016: 41 52 59 20 4b 45 59 2c 20 62 6c 6f 63 6b 20 42   ARY KEY, block B
|   4032: 4c 4f 42 29 3a 01 06 17 11 11 08 63 74 61 62 6c   LOB):......ctabl
|   4048: 65 74 31 74 31 43 52 45 41 54 45 20 56 49 52 54   et1t1CREATE VIRT
|   4064: 55 41 4c 20 54 41 42 4c 45 20 74 31 20 55 53 49   UAL TABLE t1 USI
|   4080: 4e 47 20 66 74 73 35 28 63 6f 6e 74 65 6e 74 29   NG fts5(content)
| page 2 offset 4096
|      0: 0d 0e 8e 00 06 0e 2f 00 0f e8 0e 2f 0f bd 0f 3b   ....../..../...;
|     16: 0e a5 0e 49 00 00 00 00 00 00 00 00 00 00 00 00   ...I............
|   3616: 00 00 00 00 00 00 00 00 00 00 00 00 00 00 00 18   ................
|   3632: 0a 03 00 36 00 00 00 00 01 04 04 00 04 01 01 01   ...6............
|   3648: 02 01 01 03 01 01 04 01 01 3e 90 80 80 80 80 01   .........>......
|   3664: 04 00 81 00 00 00 00 36 06 30 62 61 63 6b 75 05   .......6.0backu.
|   3680: 02 04 05 02 04 02 05 65 61 6d 65 72 05 02 02 05   .......eamer....
|   3696: 02 02 02 05 6f 6f 6d 65 72 05 01 05 01 02 05 75   ....oomer......u
|   3712: 6d 6d 65 72 05 02 03 05 02 03 04 0d 0d 0b 0f 27   mmer...........'
|   3728: 00 17 30 00 00 00 00 01 03 03 00 03 01 01 01 02   ..0.............
|   3744: 01 01 03 01 01 7b 8c 80 80 80 80 01 04 00 81 7a   ...............z
|   3760: 00 00 00 6d 06 30 61 62 61 63 6b 0d 02 07 04 04   ...m.0aback.....
|   3776: 6e 64 6f 6e 0d 02 05 02 05 63 74 69 76 65 09 02   ndon.....ctive..
|   3792: 02 04 02 0b 02 04 6c 70 68 61 0d 04 02 0a 02 03   ......lpha......
|   3808: 74 6f 6d 0b 02 02 02 02 09 05 02 69 63 0c 02 02   tom........ic...
|   3824: 01 06 62 61 63 6b 75 70 0d 02 04 02 05 6f 6f 6d   ..backup.....oom
|   3840: 65 72 0a 02 02 03 02 08 01 07 63 68 61 6e 6e 65   er........channe
|   3856: 6c 0d 02 03 01 04 74 65 73 74 0d 02 06 04 0a 09   l.....test......
|   3872: 0d 0a 0b 07 0b 0d 0c 0f ef 00 14 2a 00 00 00 00   ...........*....
|   3888: 01 02 02 00 02 01 01 01 02 01 01 7b 88 80 80 80   ................
|   3904: 80 01 04 00 81 7a 00 00 00 6d 06 30 61 62 61 63   .....z...m.0abac
|   3920: 6b 08 02 07 04 04 6e 64 6f 6e 08 02 05 02 05 63   k.....ndon.....c
|   3936: 74 69 76 65 04 02 02 04 02 0b 02 04 6c 70 68 61   tive........lpha
|   3952: 08 04 02 0a 02 03 74 6f 6d 06 02 02 02 02 09 05   ......tom.......
|   3968: 02 69 63 07 02 02 01 06 62 61 63 6b 75 70 08 02   .ic.....backup..
|   3984: 04 02 05 6f 6f 6d 65 72 05 02 02 03 02 08 01 07   ...oomer........
|   4000: 63 68 61 6e 6e 65 6c 08 02 03 01 04 74 65 73 74   channel.....test
|   4016: 08 02 06 04 0a 09 0d 0a 0b 07 0b 0d 0c 24 84 80   .............$..
|   4032: 80 80 80 01 03 00 4e 00 00 00 1e 06 30 61 62 61   ......N.....0aba
|   4048: 63 6b 01 02 02 04 02 66 74 00 02 22 04 04 6e 64   ck.....ft.....nd
|   4064: 6f 6e 03 02 02 08 0a 07 05 01 03 00 10 0d 23 00   on............#.
|   4080: 00 00 11 24 00 00 00 00 01 01 01 00 01 01 01 01   ...$............
| page 3 offset 8192
|      0: 0a 00 00 00 04 0f e5 00 0f fa 0f f3 0f ec 0f e5   ................
|   4064: 00 00 00 00 00 06 04 01 0c 01 04 02 06 04 01 0c   ................
|   4080: 01 03 02 06 04 01 0c 01 02 02 05 04 09 0c 01 02   ................
| page 4 offset 12288
|      0: 0d 0f 5a 00 0d 0e ce 00 0f f6 0f ec 0f e0 0f d5   ..Z.............
|     16: 0e e7 0f c1 0f b6 0f 70 0f 65 0e ce 0f 51 0f 46   .......p.e...Q.F
|     32: 0f 00 00 00 00 00 00 00 00 00 00 00 00 00 00 00   ................
|   3776: 00 00 00 00 00 00 00 00 00 00 00 00 00 00 17 0a   ................
|   3792: 03 00 35 62 65 61 6d 65 72 20 62 75 6d 6d 65 72   ..5beamer bummer
|   3808: 20 62 61 63 6b 75 29 17 05 03 00 35 62 65 61 6d    backu)....5beam
|   3824: 65 72 20 62 75 6d 6d 65 72 20 62 61 63 6b 75 29   er bummer backu)
|   3840: 44 0d 04 00 81 0d 61 6c 70 68 61 20 63 68 61 6e   D.....alpha chan
|   3856: 6e 65 6c 20 62 61 63 6b 75 70 20 61 62 61 6e 64   nel backup aband
|   3872: 6f 6e 20 74 65 73 74 20 61 62 61 63 6b 20 62 6f   on test aback bo
|   3888: 6f 6d 65 72 20 61 74 6f 6d 20 61 6c 70 68 61 20   omer atom alpha 
|   3904: 61 63 74 69 76 65 09 0c 03 00 19 61 74 6f 6d 69   active.....atomi
|   3920: 63 07 0b 03 00 15 61 74 6f 6d 0f ca 00 0b 19 62   c.....atom.....b
|   3936: 6f 6f 6d 65 72 09 09 03 00 19 61 63 74 69 76 65   oomer.....active
|   3952: 44 08 04 00 81 0d 61 6c 70 68 61 20 63 68 61 6e   D.....alpha chan
|   3968: 6e 65 6c 20 62 61 63 6b 75 70 20 61 62 61 6e 64   nel backup aband
|   3984: 6f 6e 20 74 65 73 74 20 61 62 61 63 6b 20 62 6f   on test aback bo
|   4000: 6f 6d 65 72 20 61 74 6f 6d 20 61 6c 70 68 61 20   omer atom alpha 
|   4016: 61 63 74 69 76 65 09 07 03 00 19 61 74 6f 6d 69   active.....atomi
|   4032: 63 07 06 03 00 15 61 74 6f 6d 00 00 00 0b 19 62   c.....atom.....b
|   4048: 6f 6f 6d 65 72 09 04 03 00 19 61 63 74 69 76 65   oomer.....active
|   4064: 0a 03 03 00 1b 61 62 61 6e 64 6f 6e 08 02 03 00   .....abandon....
|   4080: 17 61 62 61 66 74 08 01 03 00 17 61 62 61 63 6b   .abaft.....aback
| page 5 offset 16384
|      0: 0d 00 00 00 0d 0f b2 00 0f fa 0f f4 0f ee 0f e8   ................
|     16: 0f e2 0f dc 0f d6 0f d0 0f ca 0f c4 0f be 0f b8   ................
|     32: 0f b2 00 00 00 00 00 00 00 00 00 00 00 00 00 00   ................
|   4016: 00 00 04 0d 03 00 0e 0a 04 0c 03 00 0e 01 04 0b   ................
|   4032: 03 00 0e 01 04 0a 03 00 0e 03 04 09 03 00 0e 01   ................
|   4048: 04 08 03 00 0e 0a 04 07 03 00 0e 01 04 06 03 00   ................
|   4064: 0e 01 04 05 03 00 0e 03 04 04 03 00 0e 01 04 03   ................
|   4080: 03 00 0e 01 04 02 03 00 0e 01 04 01 03 00 0e 01   ................
| page 6 offset 20480
|      0: 0a 00 00 00 01 0f f4 00 0f f4 00 00 00 00 00 00   ................
|   4080: 00 00 00 00 0b 03 1b 01 76 65 72 73 69 6f 6e 04   ........version.
| page 7 offset 24576
|      0: 0d 00 00 00 03 0f d6 00 0f f4 0f e1 0f d6 00 00   ................
|   4048: 00 00 00 00 00 00 09 03 02 1b 72 65 62 75 69 6c   ..........rebuil
|   4064: 64 11 02 02 2b 69 6e 74 65 67 72 69 74 79 2d 63   d...+integrity-c
|   4080: 68 65 63 6b 0a 01 02 1d 6f 70 74 69 6d 69 7a 65   heck....optimize
| end c22b.db
}]} {}

do_catchsql_test 21.1 {
  DELETE FROM t1 WHERE t1 MATCH 'ab*ndon';
} {/.*fts5: corrupt.*/}

#-------------------------------------------------------------------------
#
reset_db
do_test 22.0 {
  sqlite3 db {}
  db deserialize [decode_hexdb {
| size 28672 pagesize 4096 filename c22b.db
| page 1 offset 0
|      0: 53 51 4c 69 74 65 20 66 6f 72 6d 61 74 20 33 00   SQLite format 3.
|     16: 10 00 01 01 00 40 20 20 00 00 00 02 00 00 00 07   .....@  ........
|     32: 00 00 00 00 00 00 00 00 00 00 00 02 00 00 00 00   ................
|     48: 00 00 00 00 00 00 00 01 00 00 00 00 00 00 00 00   ................
|     80: 00 00 00 00 00 00 00 00 00 00 00 00 00 00 00 02   ................
|     96: 00 2e 30 38 0d 00 00 00 07 0d d2 00 0f c4 0f 6d   ..08...........m
|    112: 0f 02 0e ab 0e 4e 0d f6 0d d2 00 00 00 00 00 00   .....N..........
|   3536: 00 00 22 07 06 17 11 11 01 31 74 61 62 6c 65 74   .........1tablet
|   3552: 32 74 32 07 43 52 45 41 54 45 20 54 41 42 4c 45   2t2.CREATE TABLE
|   3568: 20 74 32 28 78 29 56 06 06 17 1f 1f 01 7d 74 61    t2(x)V.......ta
|   3584: 62 6c 65 74 31 5f 63 6f 6e 66 69 67 74 31 5f 63   blet1_configt1_c
|   3600: 6f 6e 66 69 67 06 43 52 45 41 54 45 20 54 41 42   onfig.CREATE TAB
|   3616: 4c 45 20 27 74 31 5f 63 6f 6e 66 69 67 27 28 6b   LE 't1_config'(k
|   3632: 20 50 52 49 4d 41 52 59 20 4b 45 59 2c 20 76 29    PRIMARY KEY, v)
|   3648: 20 57 49 54 48 4f 55 54 20 52 4f 57 49 44 5b 05    WITHOUT ROWID[.
|   3664: 07 17 21 21 01 81 01 74 41 62 6c 65 74 31 5f 64   ..!!...tAblet1_d
|   3680: 6f 63 73 69 7a 65 74 31 5f 64 6f 63 73 69 7a 65   ocsizet1_docsize
|   3696: 05 43 52 45 41 54 45 20 54 41 42 4c 45 20 27 74   .CREATE TABLE 't
|   3712: 31 5f 64 6f 63 73 69 7a 65 27 28 69 64 20 49 4e   1_docsize'(id IN
|   3728: 54 45 47 45 52 20 50 52 49 4d 41 52 59 20 4b 45   TEGER PRIMARY KE
|   3744: 59 2c 20 73 7a 20 42 4c 4f 42 29 55 04 06 17 21   Y, sz BLOB)U...!
|   3760: 21 01 77 74 61 62 6c 65 74 31 5f 63 6f 6e 74 65   !.wtablet1_conte
|   3776: 6e 74 74 31 5f 63 6f 6e 74 65 6e 74 04 43 52 45   ntt1_content.CRE
|   3792: 41 54 45 20 54 41 42 4c 45 20 27 74 31 5f 63 6f   ATE TABLE 't1_co
|   3808: 6e 74 65 6e 74 27 28 69 64 20 49 4e 54 45 47 45   ntent'(id INTEGE
|   3824: 52 20 50 52 49 4d 41 52 59 20 4b 45 59 2c 20 63   R PRIMARY KEY, c
|   3840: 30 29 69 03 07 17 19 19 01 81 2d 74 61 62 6c 65   0)i.......-table
|   3856: 74 31 5f 69 64 78 74 31 5f 69 64 78 03 43 52 45   t1_idxt1_idx.CRE
|   3872: 41 54 45 20 54 41 42 4c 45 20 27 74 31 5f 69 64   ATE TABLE 't1_id
|   3888: 78 27 28 73 65 67 69 64 2c 20 74 65 72 6d 2c 20   x'(segid, term, 
|   3904: 70 67 6e 6f 2c 20 50 52 49 4d 41 52 59 20 4b 45   pgno, PRIMARY KE
|   3920: 59 28 73 65 67 69 64 2c 20 74 65 72 6d 29 29 20   Y(segid, term)) 
|   3936: 57 49 54 48 4f 55 54 20 52 4f 57 49 44 55 02 07   WITHOUT ROWIDU..
|   3952: 17 1b 1b 01 81 01 74 61 62 6c 65 74 31 5f 64 61   ......tablet1_da
|   3968: 74 61 74 31 5f 64 61 74 61 02 43 52 45 41 54 45   tat1_data.CREATE
|   3984: 20 54 41 42 4c 45 20 27 74 31 5f 64 61 74 61 27    TABLE 't1_data'
|   4000: 28 69 64 20 49 4e 54 45 47 45 52 20 50 52 49 4d   (id INTEGER PRIM
|   4016: 41 52 59 20 4b 45 59 2c 20 62 6c 6f 63 6b 20 42   ARY KEY, block B
|   4032: 4c 4f 42 29 3a 01 06 17 11 11 08 63 74 61 62 6c   LOB):......ctabl
|   4048: 65 74 31 74 31 43 52 45 41 54 45 20 56 49 52 54   et1t1CREATE VIRT
|   4064: 75 41 4c 20 54 41 42 4c 45 20 74 31 20 55 53 49   uAL TABLE t1 USI
|   4080: 4e 47 20 66 74 73 35 28 63 6f 6e 74 65 6e 74 29   NG fts5(content)
| page 2 offset 4096
|      0: 0d 0f 15 00 05 08 4e 00 0f e8 08 4e 0f bd 0f 29   ......N....N...)
|     16: 08 65 00 00 00 00 00 00 00 00 00 00 00 00 00 00   .e..............
|   2112: 00 00 00 00 00 00 00 00 00 00 00 00 00 00 15 0a   ................
|   2128: 03 00 30 00 00 00 00 01 03 02 01 03 01 01 01 02   ..0.............
|   2144: 01 01 03 01 01 8d 28 8c 80 80 80 80 01 04 00 9a   ......(.........
|   2160: 54 00 00 06 77 19 30 30 30 30 30 30 33 30 66 65   T...w.00000030fe
|   2176: 65 30 30 30 66 66 61 30 66 66 34 30 66 65 65 05   e000ffa0ff40fee.
|   2192: 02 19 02 0b 31 30 66 66 61 30 30 30 66 66 61 05   ....10ffa000ffa.
|   2208: 06 13 18 09 02 25 33 34 33 35 32 34 35 34 31 35   .....%3435245415
|   2224: 34 34 35 32 30 35 34 34 31 34 32 34 63 34 35 32   445205441424c452
|   2240: 30 32 37 37 34 33 31 35 66 36 39 05 02 07 02 37   02774315f69....7
|   2256: 34 30 33 30 33 30 30 30 65 30 31 30 34 30 32 30   40303000e0104020
|   2272: 33 30 30 30 65 30 31 30 34 30 31 30 33 30 30 30   3000e01040103000
|   2288: 65 30 31 30 61 30 30 30 30 30 30 30 31 30 66 66   e010a000000010ff
|   2304: 34 30 30 30 66 66 34 05 02 1b 02 27 35 30 34 30   4000ff4....'5040
|   2320: 39 30 63 30 31 30 32 30 64 30 30 30 30 30 30 30   90c01020d0000000
|   2336: 33 30 66 65 30 30 30 30 66 66 36 30 66 65 63 30   30fe0000ff60fec0
|   2352: 66 65 30 05 02 2c 27 02 66 30 05 02 16 02 1d 36   fe0..,'.f0.....6
|   2368: 31 37 31 31 31 31 30 38 36 33 37 34 36 31 36 32   1711110863746162
|   2384: 36 63 36 35 37 34 33 31 37 34 33 31 05 02 0d 02   6c6574317431....
|   2400: 29 39 30 33 30 32 31 62 37 32 36 35 36 32 37 35   )903021b72656275
|   2416: 36 34 36 31 37 34 36 31 37 34 33 31 35 66 36 34   6461746174315f64
|   2432: 36 31 37 34 36 31 30 32 34 33 05 02 1f 02 43 61   6174610243....Ca
|   2448: 30 33 30 33 30 30 31 62 36 31 36 32 36 31 36 65   0303001b6162616e
|   2464: 36 34 36 66 36 65 30 38 30 32 30 33 30 30 31 37   646f6e0802030017
|   2480: 36 31 36 32 36 31 36 36 37 34 30 38 30 31 30 33   6162616674080103
|   2496: 30 30 31 37 36 31 36 32 36 31 36 33 36 62 30 64   0017616261636b0d
|   2512: 30 30 05 02 18 34 1d 33 36 62 30 31 30 32 30 32   00...4.36b010202
|   2528: 30 34 30 32 36 36 37 34 30 32 30 32 30 32 30 34   0402667402020204
|   2544: 30 34 36 65 05 02 2e 02 33 62 30 33 31 62 30 31   046e....3b031b01
|   2560: 37 36 36 35 37 32 37 33 36 39 36 66 36 65 30 34   76657273696f6e04
|   2576: 30 64 30 30 30 30 30 30 30 33 30 66 64 36 30 30   0d000000030fd600
|   2592: 30 66 66 34 30 66 65 31 30 66 64 36 05 02 1d 01   0ff40fe10fd6....
|   2608: 04 31 66 62 64 05 04 10 18 01 01 32 05 02 14 02   .1fbd......2....
|   2624: 43 34 38 34 38 30 38 30 38 30 38 30 30 31 30 33   C484808080800103
|   2640: 30 30 34 65 30 30 30 30 30 30 31 65 30 36 33 30   004e0000001e0630
|   2656: 36 31 36 32 36 31 36 33 36 62 30 31 30 32 30 32   616261636b010202
|   2672: 30 34 30 32 36 36 37 34 30 32 30 32 30 32 30 34   0402667402020204
|   2688: 30 34 36 65 05 04 11 18 02 01 66 05 02 2a 03 02   046e......f..*..
|   2704: 65 72 05 02 31 01 08 33 35 32 38 36 33 36 66 05   er..1..3528636f.
|   2720: 02 24 02 03 66 65 30 05 04 17 18 01 2b 34 31 35   .$..fe0.....+415
|   2736: 32 35 39 32 30 34 62 34 35 35 39 32 63 32 30 36   259204b45592c206
|   2752: 32 36 63 36 66 36 33 36 62 32 30 34 32 34 63 34   26c6f636b20424c4
|   2768: 66 34 32 32 39 33 61 30 05 02 0c 2c 1f 31 30 36   f42293a0...,.106
|   2784: 31 37 31 31 31 31 30 38 36 33 37 34 36 31 36 32   1711110863746162
|   2800: 36 63 36 35 37 34 33 31 37 34 33 31 05 02 22 02   6c6574317431....
|   2816: 40 33 35 32 34 35 34 31 35 34 34 35 32 30 35 36   @352454154452056
|   2832: 34 39 35 32 35 34 37 35 34 31 34 63 32 30 35 34   49525475414c2054
|   2848: 34 31 34 32 34 63 34 35 32 30 37 34 33 31 32 30   41424c4520743120
|   2864: 35 35 35 33 34 39 34 65 34 37 32 30 36 36 37 34   5553494e47206674
|   2880: 37 05 02 23 42 09 33 33 35 32 38 36 33 36 66 05   7..#B.33528636f.
|   2896: 02 0e 02 03 66 65 65 05 02 1a 01 34 35 32 34 35   ....fee....45245
|   2912: 34 31 35 34 34 35 32 30 35 34 34 31 34 32 34 63   415445205441424c
|   2928: 34 35 32 30 32 37 37 34 33 31 35 66 36 34 36 31   45202774315f6461
|   2944: 37 34 36 31 32 37 32 38 36 39 36 34 32 30 34 39   7461272869642049
|   2960: 05 02 20 16 37 c3 b0 35 32 30 32 37 37 34 33 31   .. .7..520277431
|   2976: 35 66 36 34 36 31 37 34 36 31 32 37 32 38 36 39   5f64617461272869
|   2992: 36 34 32 30 34 39 34 65 35 34 34 35 34 37 34 35   6420494e54454745
|   3008: 35 32 32 30 35 30 35 32 34 39 34 64 05 02 0b 03   52205052494d....
|   3024: 48 35 39 32 30 34 62 34 35 35 39 32 63 32 30 36   H59204b45592c206
|   3040: 33 33 30 32 39 36 39 30 33 30 30 30 31 35 37 35   3302969030001575
|   3056: 33 31 31 39 32 36 64 37 34 36 31 36 32 36 63 36   311926d7461626c6
|   3072: 35 37 34 33 31 35 66 36 39 36 34 37 38 37 34 33   574315f696478743
|   3088: 31 35 66 36 39 36 34 37 38 05 02 06 02 38 34 32   15f696478....842
|   3104: 30 35 32 34 66 35 37 34 39 34 34 35 35 30 32 30   0524f57494455020
|   3120: 37 31 37 31 62 31 62 30 31 38 31 30 31 37 34 36   7171b1b018101746
|   3136: 31 36 32 36 63 36 35 37 34 33 31 35 66 31 37 34   1626c6574315f174
|   3152: 36 31 30 32 34 33 05 02 0a 02 03 66 66 34 05 02   610243.....ff4..
|   3168: 1c 01 4a 36 34 36 66 36 65 30 33 30 32 30 32 30   ..J646f6e0302020
|   3184: 34 30 61 30 37 30 35 30 31 30 33 30 30 31 30 30   40a0705010300100
|   3200: 33 30 33 30 66 30 61 30 33 30 30 32 34 30 30 30   3030f0a030024000
|   3216: 30 30 30 30 30 30 31 30 31 30 31 30 30 30 31 30   0000001010100010
|   3232: 31 30 31 30 30 39 61 30 30 30 30 30 30 05 02 2f   101009a000000../
|   3248: 42 09 31 30 61 30 30 30 30 30 30 05 02 28 08 43   B.10a000000..(.C
|   3264: 74 30 32 30 32 30 34 30 61 30 37 30 35 30 31 30   t0202040a0705010
|   3280: 33 30 30 31 30 30 33 30 33 30 66 30 61 30 33 30   3001003030f0a030
|   3296: 30 32 34 30 30 30 30 30 30 30 30 30 31 30 31 30   0240000000001010
|   3312: 31 30 30 30 31 30 31 30 31 30 31 30 61 30 30 30   100010101010a000
|   3328: 30 30 30 05 02 12 02 49 37 36 65 36 66 32 63 32   000....I76e6f2c2
|   3344: 30 35 30 35 32 34 39 34 64 34 31 35 32 35 39 32   05052494d4152592
|   3360: 30 34 62 34 35 35 39 32 38 37 33 36 35 36 37 36   04b4559287365676
|   3376: 39 36 34 32 63 32 30 37 34 36 35 37 32 36 64 32   9642c207465726d2
|   3392: 39 32 39 32 30 35 37 34 39 35 34 34 38 34 66 35   92920574954484f5
|   3408: 35 05 02 09 02 4c 39 37 61 36 35 37 34 33 31 35   5....L97a6574315
|   3424: 66 36 34 36 66 36 33 37 33 36 39 37 61 36 35 30   f646f6373697a650
|   3440: 35 34 33 35 32 34 35 34 31 35 34 34 35 32 30 35   5435245415445205
|   3456: 34 38 36 39 36 34 32 30 34 39 34 65 35 34 34 35   48696420494e5445
|   3472: 34 37 34 35 35 32 32 30 35 30 35 32 34 39 34 34   4745522050524944
|   3488: 64 31 05 02 05 02 27 65 37 34 36 35 36 65 37 34   d1....'e74656e74
|   3504: 32 39 30 64 30 30 30 30 30 30 30 33 30 66 62 64   290d000000030fbd
|   3520: 30 30 30 62 65 38 30 66 65 66 30 66 62 64 05 02   000be80fef0fbd..
|   3536: 0f 1e 0b 66 65 38 30 66 65 66 30 66 62 64 05 02   ...fe80fef0fbd..
|   3552: 25 02 03 66 64 36 05 02 1e 01 4a 37 36 32 39 32   %..fd6....J76292
|   3568: 30 35 37 34 39 35 34 34 38 34 66 35 35 35 34 32   0574954484f55542
|   3584: 30 35 32 34 66 35 37 34 39 34 34 35 62 30 35 30   0524f5749445b050
|   3600: 37 31 37 32 31 32 31 30 31 38 31 30 31 37 34 36   7172121018101746
|   3616: 31 36 32 36 63 36 35 37 34 33 31 35 66 36 34 36   1626c6574315f646
|   3632: 66 36 33 37 33 05 02 04 02 21 38 32 37 32 38 37   f6373....!827287
|   3648: 33 36 35 36 37 36 39 36 34 32 63 32 30 37 34 36   3656769642c20746
|   3664: 35 37 32 36 64 32 63 32 30 37 30 05 02 08 01 01   5726d2c2070.....
|   3680: 61 05 02 2b 01 06 62 61 63 6b 75 70 05 02 32 02   a..+..backup..2.
|   3696: 05 65 61 6d 65 72 05 02 02 02 05 6f 6f 6d 65 72   .eamer.....oomer
|   3712: 05 01 02 40 75 6d 6d 32 34 63 34 35 32 30 32 37   ...@umm24c452027
|   3728: 37 34 33 31 35 66 36 33 36 66 36 65 36 36 36 39   74315f636f6e6669
|   3744: 36 37 32 37 32 38 36 62 32 30 35 30 35 32 34 39   6727286b20505249
|   3760: 34 64 34 31 35 32 35 39 32 30 34 62 34 35 35 39   4d415259204b4559
|   3776: 32 63 32 30 05 02 03 01 15 65 35 34 34 35 34 37   2c20.....e544547
|   3792: 34 35 35 32 32 30 35 30 35 32 34 39 34 64 05 02   4552205052494d..
|   3808: 21 01 02 66 61 05 02 15 04 1d 12 2a 3c 2c 07 22   !..fa......*<,..
|   3824: 2e 48 22 38 0a 06 49 06 07 0d 09 30 24 45 0e 08   .H.8..I....0$E..
|   3840: 39 3c 4d 3d 08 4f 0e 48 4e 51 2c 10 08 4f 26 06   9<M=.O.HNQ,..O&.
|   3856: 0b 0a 09 45 1a 0f ef 00 14 2a 00 00 00 00 01 02   ...E.....*......
|   3872: 01 01 02 01 01 01 02 01 01 81 0c 88 80 80 80 80   ................
|   3888: 01 04 00 82 1c 00 00 00 7c 08 30 61 62 61 6e 64   ........|.0aband
|   3904: 6f 6e 08 02 05 02 05 63 74 69 76 65 04 02 02 04   on.....ctive....
|   3920: 02 0b 02 04 6c 70 68 61 08 04 02 0a 02 03 74 6b   ....lpha......tk
|   3936: 6d 06 02 02 03 02 6f 6d 08 02 09 05 02 69 63 07   m.....om.....ic.
|   3952: 02 02 01 06 62 61 63 6b 75 70 08 02 04 02 05 6f   ....backup.....o
|   3968: 6f 6d 65 72 05 02 02 01 0c 63 68 61 6e 6e 65 62   omer.....channeb
|   3984: 6f 6f 6d 65 72 08 02 08 07 01 6c 08 02 03 01 06   oomer.....l.....
|   4000: 73 74 61 61 63 6b 08 02 07 01 03 74 65 62 08 02   staack.....teb..
|   4016: 06 04 0c 0d 0a 08 07 07 0b 0a 11 06 0b 24 84 80   .............$..
|   4032: 80 80 80 01 03 00 4e 00 00 00 1e 06 30 61 62 61   ......N.....0aba
|   4048: 63 6b 01 02 02 04 02 66 74 02 02 02 04 04 6e 64   ck.....ft.....nd
|   4064: 6f 6e 03 02 02 04 0a 07 05 01 03 00 10 08 41 00   on............A.
|   4080: 00 00 11 24 00 00 00 00 01 01 00 01 01 01 01 01   ...$............
| page 3 offset 8192
|      0: 0a 00 00 00 03 0f ec 00 ff 00 0f f3 0f ec 00 00   ................
|   4064: 00 00 00 00 00 00 00 00 00 00 00 00 06 04 01 0c   ................
|   4080: 01 03 02 06 04 01 0c 01 02 02 05 04 09 0c 01 02   ................
| page 4 offset 12288
|      0: 0d 0f ca 00 08 07 e1 00 0f f6 0f ec 0f e0 0f d5   ................
|     16: 07 e1 0f c1 0f b6 0f 6a 00 00 00 00 00 00 00 00   .......j........
|   2016: 00 8f 06 05 04 00 9e 11 62 65 61 6d 65 72 20 62   ........beamer b
|   2032: 75 6d 6d 32 34 63 34 35 32 30 32 37 37 34 33 31   umm24c4520277431
|   2048: 35 66 36 33 36 66 36 65 36 36 36 39 36 37 32 37   5f636f6e66696727
|   2064: 32 38 36 62 32 30 35 30 35 32 34 39 34 64 34 31   286b205052494d41
|   2080: 35 32 35 39 32 30 34 62 34 35 35 39 32 63 32 30   5259204b45592c20
|   2096: 0a 37 36 32 39 32 30 35 37 34 39 35 34 34 38 34   .762920574954484
|   2112: 66 35 35 35 34 32 30 35 32 34 66 35 37 34 39 34   f555420524f57494
|   2128: 34 35 62 30 35 30 37 31 37 32 31 32 31 30 31 38   45b0507172121018
|   2144: 31 30 31 37 34 36 31 36 32 36 63 36 35 37 34 33   1017461626c65743
|   2160: 31 35 66 36 34 36 66 36 33 37 33 0a 36 39 37 61   15f646f6373.697a
|   2176: 36 35 37 34 33 31 35 66 36 34 36 66 36 33 37 33   6574315f646f6373
|   2192: 36 39 37 61 36 35 30 35 34 33 35 32 34 35 34 31   697a650543524541
|   2208: 35 34 34 35 32 30 35 34 38 36 39 36 34 32 30 34   5445205486964204
|   2224: 39 34 65 35 34 34 35 34 37 34 35 35 32 32 30 35   94e5445474552205
|   2240: 30 35 32 34 39 34 34 64 31 0a 35 32 35 39 32 30   0524944d1.525920
|   2256: 34 62 34 35 35 39 32 63 32 30 36 33 33 30 32 39   4b45592c20633029
|   2272: 36 39 30 33 30 30 30 31 35 37 35 33 31 31 39 32   6903000157531192
|   2288: 36 64 37 34 36 31 36 32 36 63 36 35 37 34 33 31   6d7461626c657431
|   2304: 35 66 36 39 36 34 37 38 37 34 33 31 35 66 36 39   5f69647874315f69
|   2320: 36 34 37 38 0a 30 33 34 33 35 32 34 35 34 31 35   6478.03435245415
|   2336: 34 34 35 32 30 35 34 34 31 34 32 34 63 34 35 32   445205441424c452
|   2352: 30 32 37 37 34 33 31 35 66 36 39 01 0e 37 38 32   02774315f69..782
|   2368: 37 32 38 37 33 36 35 36 37 36 39 36 34 32 63 32   72873656769642c2
|   2384: 30 37 34 36 35 37 32 36 64 32 63 32 30 37 30 0a   07465726d2c2070.
|   2400: 36 37 36 65 36 66 32 63 32 30 35 30 35 32 34 39   676e6f2c20505249
|   2416: 34 64 34 31 35 32 35 39 32 30 34 62 34 35 35 39   4d415259204b4559
|   2432: 32 38 37 33 36 35 36 37 36 39 36 34 32 63 32 30   2873656769642c20
|   2448: 37 34 36 35 37 32 36 64 32 39 32 39 32 30 35 37   7465726d29292057
|   2464: 34 39 35 34 34 38 34 66 35 35 0a 35 34 32 30 35   4954484f55.54205
|   2480: 32 34 66 35 37 34 39 34 34 35 35 30 32 30 37 31   24f5749445502071
|   2496: 37 31 62 31 62 30 31 38 31 30 31 37 34 36 31 36   71b1b01810174616
|   2512: 32 36 63 36 35 37 34 33 31 35 66 31 37 34 36 31   26c6574315f17461
|   2528: 30 32 34 33 0a 35 32 34 35 34 31 35 34 34 35 32   0243.52454154452
|   2544: 30 35 34 34 31 34 32 34 63 34 c3 b0 35 32 30 32   05441424c4..5202
|   2560: 37 37 34 33 31 35 66 36 34 36 31 37 34 36 31 32   774315f646174612
|   2576: 37 32 38 36 39 36 34 32 30 34 39 34 65 35 34 34   728696420494e544
|   2592: 35 34 37 34 35 35 32 32 30 35 30 35 32 34 39 34   5474552205052494
|   2608: 64 0a 34 31 35 32 35 39 32 30 34 62 34 35 35 39   d.415259204b4559
|   2624: 32 63 32 30 36 32 36 63 36 66 36 33 36 62 32 30   2c20626c6f636b20
|   2640: 34 32 34 63 34 66 34 32 32 39 33 61 30 21 30 36   424c4f42293a0!06
|   2656: 31 37 31 31 31 31 30 38 36 33 37 34 36 31 36 32   1711110863746162
|   2672: 36 63 36 35 37 34 33 31 37 34 33 31 0a 34 33 35   6c6574317431.435
|   2688: 32 34 35 34 31 35 34 34 35 32 30 35 36 34 39 35   2454154452056495
|   2704: 32 35 34 37 35 34 31 34 63 32 30 35 34 34 31 34   25475414c2054414
|   2720: 32 34 63 34 35 32 30 37 34 33 31 32 30 35 35 35   24c4520743120555
|   2736: 33 34 39 34 65 34 37 32 30 36 36 37 34 37 33 33   3494e47206674733
|   2752: 35 32 38 36 33 36 66 0a 36 65 37 34 36 35 36 65   528636f.6e74656e
|   2768: 37 34 32 39 30 64 30 30 30 30 30 30 30 33 30 66   74290d000000030f
|   2784: 62 64 30 30 30 62 65 38 30 66 65 66 30 66 62 64   bd000be80fef0fbd
|   2800: 0a 5b 31 66 62 64 5d 32 34 38 34 38 30 38 30 38   .[1fbd]248480808
|   2816: 30 38 30 30 31 30 33 30 30 34 65 30 30 30 30 30   0800103004e00000
|   2832: 30 31 65 30 36 33 30 36 31 36 32 36 31 36 33 36   01e0630616261636
|   2848: 62 30 31 30 32 30 32 30 34 30 32 36 36 37 34 30   b010202040266740
|   2864: 32 30 32 30 32 30 34 30 34 36 65 0a 36 34 36 66   2020204046e.646f
|   2880: 36 65 30 54 30 32 30 32 30 34 30 61 30 37 30 35   6e0T0202040a0705
|   2896: 30 31 30 33 30 30 31 30 30 33 30 33 30 66 30 61   0103001003030f0a
|   2912: 30 33 30 30 32 34 30 30 30 30 30 30 30 30 30 31   0300240000000001
|   2928: 30 31 30 31 30 30 30 31 30 31 30 31 30 31 30 61   010100010101010a
|   2944: 30 30 30 30 30 30 0a 30 31 30 66 66 61 30 30 30   000000.010ffa000
|   2960: 66 66 61 0a 5b 32 21 66 61 5d 30 35 30 34 30 39   ffa.[2!fa]050409
|   2976: 30 63 30 31 30 32 30 64 30 30 30 30 30 30 30 33   0c01020d00000003
|   2992: 30 66 65 30 30 30 30 66 66 36 30 66 65 63 30 66   0fe0000ff60fec0f
|   3008: 66 30 0a 5b 33 66 65 30 5d 30 61 30 33 30 33 30   f0.[3fe0]0a03030
|   3024: 30 31 62 36 31 36 32 36 31 36 65 36 34 36 66 36   01b6162616e646f6
|   3040: 65 30 38 30 32 30 33 30 30 31 37 36 31 36 32 36   e080203001761626
|   3056: 31 36 36 37 34 30 38 30 31 30 33 30 30 31 37 36   1667408010300176
|   3072: 31 36 32 36 31 36 33 36 62 30 64 30 30 0a 30 30   16261636b0d00.00
|   3088: 30 30 30 33 30 66 65 65 30 30 30 66 66 61 30 66   00030fee000ffa0f
|   3104: 66 34 30 66 65 65 0a 5b 34 66 65 65 5d 30 34 30   f40fee.[4fee]040
|   3120: 33 30 33 30 30 30 65 30 31 30 34 30 32 30 33 30   303000e010402030
|   3136: 30 30 65 30 31 30 34 30 31 30 33 30 30 30 65 30   00e01040103000e0
|   3152: 31 30 61 30 30 30 30 30 30 30 31 30 66 66 34 30   10a000000010ff40
|   3168: 30 30 66 66 34 0a 5b 35 66 66 34 5d 30 62 30 33   00ff4.[5ff4]0b03
|   3184: 31 62 30 31 37 36 36 35 37 32 37 33 36 39 36 66   1b0176657273696f
|   3200: 36 65 30 34 30 64 30 30 30 30 30 30 30 33 30 66   6e040d000000030f
|   3216: 64 36 30 30 30 66 66 34 30 66 65 31 30 66 64 36   d6000ff40fe10fd6
|   3232: 0a 5b 36 66 64 36 5d 30 39 30 33 30 32 31 62 37   .[6fd6]0903021b7
|   3248: 32 36 35 36 32 37 35 36 34 36 31 37 34 36 31 37   2656275646174617
|   3264: 34 33 31 35 66 36 34 36 31 37 34 36 31 30 32 34   4315f64617461024
|   3280: 33 0a 35 32 34 35 34 31 35 34 34 35 32 30 35 34   3.52454154452054
|   3296: 34 31 34 32 34 63 34 35 32 30 32 37 37 34 33 31   41424c4520277431
|   3312: 35 66 36 34 36 31 37 34 36 31 32 37 32 38 36 39   5f64617461272869
|   3328: 36 34 32 30 34 39 c2 81 65 35 34 34 35 34 37 34   642049..e5445474
|   3344: 35 35 32 32 30 35 30 35 32 34 39 34 64 0a 34 31   552205052494d.41
|   3360: 35 32 35 39 32 30 34 62 34 35 35 39 32 63 32 30   5259204b45592c20
|   3376: 36 32 36 63 36 66 36 33 36 62 32 30 34 32 34 63   626c6f636b20424c
|   3392: 34 66 34 32 32 39 33 61 30 31 30 36 31 37 31 31   4f42293a01061711
|   3408: 31 31 30 38 36 33 37 34 36 31 36 32 36 63 36 35   1108637461626c65
|   3424: 37 34 33 31 37 34 33 31 0a 34 33 35 32 34 35 34   74317431.4352454
|   3440: 31 35 34 34 35 32 30 35 36 34 39 35 32 35 34 37   1544520564952547
|   3456: 35 34 31 34 63 32 30 35 34 34 31 34 32 34 63 34   5414c205441424c4
|   3472: 35 32 30 37 34 33 31 32 30 35 35 35 33 34 39 34   5207431205553494
|   3488: 65 34 37 32 30 36 36 37 34 37 3b 33 35 32 38 36   e472066747;35286
|   3504: 33 36 66 0a 36 65 37 34 36 35 36 65 37 34 32 39   36f.6e74656e7429
|   3520: 30 64 30 30 30 30 30 30 30 33 30 66 62 64 30 30   0d000000030fbd00
|   3536: 30 66 65 38 30 66 65 66 30 66 62 64 0a 5b 31 66   0fe80fef0fbd.[1f
|   3552: 62 64 5d 32 34 38 34 38 30 38 30 38 30 38 30 30   bd]2484808080800
|   3568: 31 30 33 30 30 34 65 30 30 30 30 30 30 31 65 30   103004e0000001e0
|   3584: 36 33 30 36 31 36 32 36 31 36 33 36 62 30 31 30   630616261636b010
|   3600: 32 30 32 30 34 30 32 36 36 37 34 30 32 30 32 30   2020402667402020
|   3616: 32 30 34 30 34 36 65 0a 36 34 36 66 36 65 30 33   204046e.646f6e03
|   3632: 30 32 30 32 30 34 30 61 30 37 30 35 30 31 30 33   0202040a07050103
|   3648: 30 30 31 30 30 33 30 33 30 66 30 61 30 33 30 30   001003030f0a0300
|   3664: 32 34 30 30 30 30 30 30 30 30 30 31 30 31 30 31   2400000000010101
|   3680: 30 30 30 31 30 31 30 31 30 31 30 61 30 30 30 30   00010101010a0000
|   3696: 30 30 0a 30 31 30 66 66 61 30 30 30 66 66 61 0a   00.010ffa000ffa.
|   3712: 5b 32 66 29 61 5d 30 35 30 34 30 39 30 63 30 31   [2f)a]0504090c01
|   3728: 30 32 30 64 30 30 30 30 30 30 30 33 30 66 65 30   020d000000030fe0
|   3744: 30 30 30 66 66 36 30 66 65 63 30 66 65 30 0a 5b   000ff60fec0fe0.[
|   3760: 33 66 65 30 5d 30 61 30 33 30 33 30 30 31 62 36   3fe0]0a0303001b6
|   3776: 31 36 32 36 31 36 65 36 34 36 66 36 65 30 38 30   162616e646f6e080
|   3792: 32 30 33 30 30 31 37 36 31 36 32 36 31 36 36 37   2030017616261667
|   3808: 34 30 38 30 31 30 33 30 33 36 62 30 31 30 32 30   4080103036b01020
|   3824: 32 30 34 30 32 36 36 37 34 30 32 30 32 30 32 30   2040266740202020
|   3840: 34 30 34 36 65 0a 36 34 36 66 36 65 30 33 30 32   4046e.646f6e0302
|   3856: 30 32 30 34 30 61 30 37 30 35 30 31 30 33 30 30   02040a0705010300
|   3872: 31 30 30 33 30 33 30 66 30 61 30 33 30 30 32 34   1003030f0a030024
|   3888: 30 30 30 30 30 30 30 30 30 31 30 31 30 31 30 30   0000000001010100
|   3904: 30 31 30 31 30 31 30 30 39 61 30 30 30 30 30 30   010101009a000000
|   3920: 0a 30 31 30 66 66 61 30 30 30 66 66 61 0a 5b 32   .010ffa000ffa.[2
|   3936: 66 65 72 20 62 61 63 6b 75 70 4a 08 04 00 81 19   fer backupJ.....
|   3952: 61 6c 70 68 61 20 63 68 61 6e 6e 65 6c 20 62 61   alpha channel ba
|   3968: 63 6b 75 70 20 61 62 61 6e 64 6f 6e 20 74 65 62   ckup abandon teb
|   3984: 20 73 74 61 61 63 6b 20 63 68 61 6e 6e 65 62 6f    staack channebo
|   4000: 6f 6d 65 72 20 61 74 6f 6d 20 61 6c 70 68 61 20   omer atom alpha 
|   4016: 61 63 74 69 76 65 09 07 03 00 19 61 74 6f 6d 69   active.....atomi
|   4032: 63 07 06 03 00 15 61 74 6b 6d 00 00 00 0b 19 62   c.....atkm.....b
|   4048: 6f 6f 6d 65 72 09 04 03 00 19 61 63 74 69 76 65   oomer.....active
|   4064: 0a 03 03 00 1b 61 62 61 6e 64 6f 6e 08 02 03 00   .....abandon....
|   4080: 17 61 62 61 66 74 08 01 03 00 17 61 62 61 63 6b   .abaft.....aback
| page 5 offset 16384
|      0: 0d 00 00 00 08 0f d0 00 0f fa 0f f4 0f ee 0f e8   ................
|     16: 0f e2 0f dc 0f d6 0f d0 00 00 00 00 00 00 00 00   ................
|   4048: 04 08 03 00 0e 0a 04 07 03 00 0e 01 04 06 03 00   ................
|   4064: 0e 01 04 05 03 00 0e 31 04 04 03 00 0e 01 04 03   .......1........
|   4080: 03 00 0e 01 04 02 03 00 0e 01 04 01 03 00 0e 01   ................
| page 6 offset 20480
|      0: 0a 00 00 00 01 0f f4 00 0f f4 00 00 00 00 00 00   ................
|   4080: 00 00 00 00 0b 03 1b 01 76 65 72 73 69 6f 6e 04   ........version.
| page 7 offset 24576
|      0: 0d 00 00 00 03 0f d6 00 0f f4 0f e1 0f d6 00 00   ................
|   4048: 00 00 00 00 00 00 09 03 02 1b 72 65 62 75 69 6c   ..........rebuil
|   4064: 64 11 02 02 2b 69 6e 74 65 67 72 69 74 79 2d 63   d...+integrity-c
|   4080: 68 65 63 6b 0a 01 02 1d 6f 70 74 69 6d 69 7a 65   heck....optimize
| end c22b.db
}]} {}


do_catchsql_test 22.1 {
  INSERT INTO t1(t1) VALUES('optimize');
} {/.*fts5: corrupt.*/}

#--------------------------------------------------------------------------
reset_db
do_test 23.0 {
  sqlite3 db {}
  db deserialize [decode_hexdb {
| size 28672 pagesize 4096 filename c24b.db
| page 1 offset 0
|      0: 53 51 4c 69 74 65 20 66 6f 72 6d 61 74 20 33 00   SQLite format 3.
|     16: 10 00 01 01 00 40 20 20 00 00 00 01 00 00 00 07   .....@  ........
|     32: 00 00 00 00 00 00 00 00 00 00 00 01 00 00 00 04   ................
|     48: 00 00 00 00 00 00 00 00 00 00 00 01 00 00 00 00   ................
|     80: 00 00 00 00 00 00 00 00 00 00 00 00 00 00 00 01   ................
|     96: 00 2e 30 38 0d 00 00 00 07 0d d2 00 0f c4 0f 6d   ..08...........m
|    112: 0f 02 0e ab 0e 4e 0d f6 0d d2 00 00 00 00 00 00   .....N..........
|   3536: 00 00 22 07 06 17 11 11 01 31 74 61 62 6c 65 74   .........1tablet
|   3552: 32 74 32 07 43 52 45 41 54 45 20 54 41 42 4c 45   2t2.CREATE TABLE
|   3568: 20 74 32 28 78 29 56 06 06 17 1f 1f 01 7d 74 61    t2(x)V.......ta
|   3584: 62 6c 65 74 31 5f 63 6f 6e 66 69 67 74 31 5f 63   blet1_configt1_c
|   3600: 6f 6e 66 69 67 06 43 52 45 41 54 45 20 54 41 42   onfig.CREATE TAB
|   3616: 4c 45 20 27 74 31 5f 63 6f 6e 66 69 67 27 28 6b   LE 't1_config'(k
|   3632: 20 50 52 49 4d 41 52 59 20 4b 45 59 2c 20 76 29    PRIMARY KEY, v)
|   3648: 20 57 49 54 48 4f 55 54 20 52 4f 57 49 44 5b 05    WITHOUT ROWID[.
|   3664: 07 17 21 21 01 81 01 74 61 62 6c 65 74 31 5f 64   ..!!...tablet1_d
|   3680: 6f 63 73 69 7a 65 74 31 5f 64 6f 63 73 69 7a 65   ocsizet1_docsize
|   3696: 05 43 52 45 41 54 45 20 54 41 42 4c 45 20 27 74   .CREATE TABLE 't
|   3712: 31 5f 64 6f 63 73 69 7a 65 27 28 69 64 20 49 4e   1_docsize'(id IN
|   3728: 54 45 47 45 52 20 50 52 49 4d 41 52 59 20 4b 45   TEGER PRIMARY KE
|   3744: 59 2c 20 73 7a 20 42 4c 4f 42 29 55 04 06 17 21   Y, sz BLOB)U...!
|   3760: 21 01 77 74 61 62 6c 65 74 31 5f 63 6f 6e 74 65   !.wtablet1_conte
|   3776: 6e 74 74 31 5f 63 6f 6e 74 65 6e 74 04 43 52 45   ntt1_content.CRE
|   3792: 41 54 45 20 54 41 42 4c 45 20 27 74 31 5f 63 6f   ATE TABLE 't1_co
|   3808: 6e 74 65 6e 74 27 28 69 64 20 49 4e 54 45 47 45   ntent'(id INTEGE
|   3824: 52 20 50 52 49 4d 41 52 59 20 4b 45 59 2c 20 63   R PRIMARY KEY, c
|   3840: 30 29 69 03 07 17 19 19 01 81 2d 74 61 62 6c 65   0)i.......-table
|   3856: 74 31 5f 69 64 78 74 31 5f 69 64 78 03 43 52 45   t1_idxt1_idx.CRE
|   3872: 41 54 45 20 54 41 42 4c 45 20 27 74 31 5f 69 64   ATE TABLE 't1_id
|   3888: 78 27 28 73 65 67 69 64 2c 20 74 65 72 6d 2c 20   x'(segid, term, 
|   3904: 70 67 6e 6f 2c 20 50 52 49 4d 41 52 59 20 4b 45   pgno, PRIMARY KE
|   3920: 59 28 73 65 67 69 64 2c 20 74 65 72 6d 29 29 20   Y(segid, term)) 
|   3936: 57 49 54 48 4f 55 54 20 52 4f 57 49 44 55 02 07   WITHOUT ROWIDU..
|   3952: 17 1b 1b 01 81 01 74 61 62 6c 65 74 31 5f 64 61   ......tablet1_da
|   3968: 74 61 74 31 5f 64 61 74 61 02 43 52 45 41 54 45   tat1_data.CREATE
|   3984: 20 54 41 42 4c 45 20 27 74 31 5f 64 61 74 61 27    TABLE 't1_data'
|   4000: 28 69 64 20 49 4e 54 45 47 45 52 20 50 52 49 4d   (id INTEGER PRIM
|   4016: 41 52 59 20 4b 45 59 2c 20 62 6c 6f 63 6b 20 42   ARY KEY, block B
|   4032: 4c 4f 42 29 3a 01 06 17 11 11 08 63 74 61 62 6c   LOB):......ctabl
|   4048: 65 74 31 74 31 43 52 45 41 54 45 20 56 49 52 54   et1t1CREATE VIRT
|   4064: 55 41 4c 20 54 41 42 4c 45 20 74 31 20 55 53 49   UAL TABLE t1 USI
|   4080: 4e 47 20 66 74 73 35 28 63 6f 6e 74 65 6e 74 29   NG fts5(content)
| page 2 offset 4096
|      0: 0d 0f 1c 00 05 0e cb 00 0f e8 0e cb 0f bd 0f 30   ...............0
|     16: 0e e2 00 00 00 00 00 00 00 00 00 00 00 00 00 00   ................
|   3776: 00 00 00 00 00 00 00 00 00 00 00 15 0a 03 00 30   ...............0
|   3792: 00 00 00 00 01 03 03 00 03 01 01 01 02 01 01 03   ................
|   3808: 01 01 33 8c 80 80 80 80 01 03 00 6c 00 00 00 2c   ..3........l...,
|   3824: 07 30 62 61 63 6b 75 70 05 02 04 02 05 65 61 6d   .0backup.....eam
|   3840: 65 72 05 02 02 02 05 6f 6f 6d 65 72 05 01 02 05   er.....oomer....
|   3856: 75 6d 6d 65 72 05 02 03 04 0b 0a 09 0f ef 00 14   ummer...........
|   3872: 2a 00 00 00 00 01 02 02 00 02 01 01 01 02 01 01   *...............
|   3888: 81 05 88 80 80 80 80 01 04 00 82 0e 00 00 00 76   ...............v
|   3904: 06 30 61 62 61 63 6b 08 02 07 04 04 6e 64 6f 6e   .0aback.....ndon
|   3920: 08 02 05 02 05 63 74 69 76 65 04 02 02 04 02 0b   .....ctive......
|   3936: 02 04 6c 70 68 61 08 02 0a 02 03 74 6f 6d 06 02   ..lpha.....tom..
|   3952: 02 02 02 09 05 02 69 63 07 02 02 01 06 62 61 63   ......ic.....bac
|   3968: 6b 75 70 08 02 04 02 05 6f 6f 6d 65 72 05 02 02   kup.....oomer...
|   3984: 03 02 08 01 07 63 68 61 6e 6e 65 6c 08 02 03 01   .....channel....
|   4000: 05 65 6c 70 68 61 08 02 02 01 04 74 65 73 74 08   .elpha.....test.
|   4016: 02 06 04 0a 09 0d 09 0b 07 0b 0d 0c 0a 24 84 80   .............$..
|   4032: 80 80 80 01 03 00 4e 00 00 00 1e 02 61 23 25 23   ......N.....a#%#
|   4048: 27 2b 01 02 02 04 02 66 74 02 02 02 04 04 6e 64   '+.....ft.....nd
|   4064: 6f 6e 03 02 00 a0 42 70 05 01 03 00 10 08 13 00   on....Bp........
|   4080: 00 00 11 24 00 00 00 00 01 01 01 00 01 01 01 01   ...$............
| page 3 offset 8192
|      0: 0a 00 00 00 03 0f ec 00 0f fa 0f f3 0f ec 00 00   ................
|   4064: 00 00 00 00 00 00 00 00 00 00 00 00 06 04 01 0c   ................
|   4080: 01 03 02 06 04 01 0c 01 02 02 05 04 09 0c 01 02   ................
| page 4 offset 12288
|      0: 0d 0f ca 00 08 0f 57 00 0f f6 0f ec 0f e0 0f d5   ......W.........
|     16: 0f 57 0f c1 0f b6 0f 70 00 00 00 00 00 00 00 00   .W.....p........
|   3920: 00 00 00 00 00 00 00 17 05 03 00 35 62 65 61 6d   ...........5beam
|   3936: 65 72 20 62 75 6d 6d 65 72 20 62 61 63 6b 75 70   er bummer backup
|   3952: 44 08 04 00 81 0d 65 6c 70 68 61 20 63 68 61 6e   D.....elpha chan
|   3968: 6e 65 6c 20 62 61 63 6b 75 70 20 61 62 61 6e 64   nel backup aband
|   3984: 6f 6e 20 74 65 73 74 20 61 62 61 63 6b 20 62 6f   on test aback bo
|   4000: 6f 6d 65 72 20 61 74 6f 6d 20 61 6c 70 68 61 20   omer atom alpha 
|   4016: 61 63 74 69 76 65 09 07 03 00 19 61 74 6f 6d 69   active.....atomi
|   4032: 63 07 06 03 00 15 61 74 6f 6d 00 00 00 0b 19 62   c.....atom.....b
|   4048: 6f 6f 6d 65 72 09 04 03 00 19 61 63 74 69 76 65   oomer.....active
|   4064: 0a 03 03 00 1b 61 62 61 6e 64 6f 6e 08 02 03 00   .....abandon....
|   4080: 17 61 62 61 66 74 08 01 03 00 17 61 62 61 63 6b   .abaft.....aback
| page 5 offset 16384
|      0: 0d 00 00 00 08 0f d0 00 0f fa 0f f4 0f ee 0f e8   ................
|     16: 0f e2 0f dc 0f d6 0f d0 00 00 00 00 00 00 00 00   ................
|   4048: 04 08 03 00 0e 0a 04 07 03 00 0e 01 04 06 03 00   ................
|   4064: 0e 01 04 05 03 00 0e 03 04 04 03 00 0e 01 04 03   ................
|   4080: 03 00 0e 01 04 02 03 00 0e 01 04 01 03 00 0e 01   ................
| page 6 offset 20480
|      0: 0a 00 00 00 01 0f f4 00 0f f4 00 00 00 00 00 00   ................
|   4080: 00 00 00 00 0b 03 1b 01 76 65 72 73 69 6f 6e 04   ........version.
| page 7 offset 24576
|      0: 0d 00 00 00 03 0f d6 00 0f f4 0f e1 0f d6 00 00   ................
|   4048: 00 00 00 00 00 00 09 03 02 1b 72 65 62 75 69 6c   ..........rebuil
|   4064: 64 11 02 02 2b 69 6e 74 65 67 72 69 74 79 2d 63   d...+integrity-c
|   4080: 68 65 63 6b 0a 01 02 1d 6f 70 74 69 6d 69 7a 65   heck....optimize
| end c24b.db
}]} {}

do_catchsql_test 23.1 {
  INSERT INTO t1(t1) VALUES('optimize');
} {/.*fts5: corrupt.*/}

#--------------------------------------------------------------------------
reset_db
do_test 24.0 {
  sqlite3 db {}
  db deserialize [decode_hexdb {
| size 32768 pagesize 4096 filename crash-b87dfef02880fe.db
| page 1 offset 0
|      0: 53 51 4c 69 74 65 20 66 6f 72 6d 61 74 20 33 00   SQLite format 3.
|     16: 10 00 01 01 00 40 20 20 00 00 00 00 00 00 00 08   .....@  ........
|     32: 00 00 00 02 00 00 00 01 00 00 00 09 00 00 00 04   ................
|     48: 00 00 00 00 00 00 00 00 00 00 00 01 00 00 00 00   ................
|     96: 00 00 00 00 0d 0f c7 00 07 0d 92 00 0f 8d 0f 36   ...............6
|    112: 0e cb 0e 6b 0e 0e 0d b6 0d 92 0d 92 00 00 00 00   ...k............
|   3472: 00 00 22 08 06 17 11 11 01 31 74 61 62 6c 65 74   .........1tablet
|   3488: 32 74 32 08 43 52 45 41 54 45 20 54 41 42 4c 45   2t2.CREATE TABLE
|   3504: 20 74 32 28 78 29 56 07 06 17 1f 1f 01 7d 74 61    t2(x)V.......ta
|   3520: 62 6c 65 74 31 5f 63 6f 6e 66 69 67 74 31 5f 63   blet1_configt1_c
|   3536: 6f 6e 66 69 67 07 43 52 45 41 54 45 20 54 41 42   onfig.CREATE TAB
|   3552: 4c 45 20 27 74 31 5f 63 6f 6e 66 69 67 27 28 6b   LE 't1_config'(k
|   3568: 20 50 52 49 4d 41 52 59 20 4b 45 59 2c 20 76 29    PRIMARY KEY, v)
|   3584: 20 57 49 54 48 4f 55 54 20 52 4f 57 49 44 5b 06    WITHOUT ROWID[.
|   3600: 07 17 21 21 01 81 01 74 61 62 6c 65 74 31 5f 64   ..!!...tablet1_d
|   3616: 6f 63 73 69 7a 65 74 31 5f 64 6f 63 73 69 7a 65   ocsizet1_docsize
|   3632: 06 43 52 45 41 54 45 20 54 41 42 4c 45 20 27 74   .CREATE TABLE 't
|   3648: 31 5f 64 6f 63 73 69 7a 65 27 28 69 64 20 49 4e   1_docsize'(id IN
|   3664: 54 45 47 45 52 20 50 52 49 4d 41 52 59 20 4b 45   TEGER PRIMARY KE
|   3680: 59 2c 20 73 7a 20 42 4c 4f 42 29 5e 05 07 17 21   Y, sz BLOB)^...!
|   3696: 21 01 81 07 74 61 62 6c 65 74 31 5f 63 6f 6e 74   !...tablet1_cont
|   3712: 65 6e 74 74 31 5f 63 6f 6e 74 65 6e 74 05 43 52   entt1_content.CR
|   3728: 45 41 54 45 20 54 41 42 4c 45 20 27 74 31 5f 63   EATE TABLE 't1_c
|   3744: 6f 6e 74 65 6e 74 27 28 69 64 20 49 4e 54 45 47   ontent'(id INTEG
|   3760: 45 52 20 50 52 49 4d 41 52 59 20 4b 45 59 2c 20   ER PRIMARY KEY, 
|   3776: 63 30 2c 20 63 31 2c 20 63 32 29 69 04 07 17 19   c0, c1, c2)i....
|   3792: 19 01 81 2d 74 61 62 6c 65 74 31 5f 69 64 78 74   ...-tablet1_idxt
|   3808: 31 5f 69 64 78 04 43 52 45 41 54 45 20 54 41 42   1_idx.CREATE TAB
|   3824: 4c 45 20 27 74 31 5f 69 64 78 27 28 73 65 67 69   LE 't1_idx'(segi
|   3840: 64 2c 20 74 65 72 6d 2c 20 70 67 6e 6f 2c 20 50   d, term, pgno, P
|   3856: 52 49 4d 41 52 59 20 4b 45 59 28 73 65 67 69 64   RIMARY KEY(segid
|   3872: 2c 20 74 65 72 6d 29 29 20 57 49 54 48 4f 55 54   , term)) WITHOUT
|   3888: 20 52 4f 57 49 44 55 03 07 17 1b 1b 01 81 01 74    ROWIDU........t
|   3904: 61 62 6c 65 74 31 5f 64 61 74 61 74 31 5f 64 61   ablet1_datat1_da
|   3920: 74 61 03 43 52 45 41 54 45 20 54 41 42 4c 45 20   ta.CREATE TABLE 
|   3936: 27 74 31 5f 64 61 74 61 27 28 69 64 20 49 4e 54   't1_data'(id INT
|   3952: 45 47 45 52 20 50 52 49 4d 41 52 59 20 4b 45 59   EGER PRIMARY KEY
|   3968: 2c 20 62 6c 6f 63 6b 20 42 4c 4f 42 29 38 02 06   , block BLOB)8..
|   3984: 17 11 11 08 5f 74 61 62 6c 65 74 31 74 31 43 52   ...._tablet1t1CR
|   4000: 45 41 54 45 20 56 49 52 54 55 41 4c 20 54 41 42   EATE VIRTUAL TAB
|   4016: 4c 45 20 74 31 20 55 53 49 4e 47 20 66 74 73 35   LE t1 USING fts5
|   4032: 28 61 2c 62 2c 63 29 00 00 00 39 00 00 00 00 00   (a,b,c)...9.....
| page 3 offset 8192
|      0: 0d 00 00 00 03 0c 94 00 0f e6 0f ef 0c 94 00 00   ................
|   3216: 00 00 00 00 86 4a 84 80 80 80 80 01 04 00 8d 18   .....J..........
|   3232: 00 00 03 2b 02 30 30 01 02 06 01 02 06 01 02 06   ...+.00.........
|   3248: 1f 02 03 01 02 03 01 02 03 01 08 32 30 31 36 30   ...........20160
|   3264: 36 30 39 01 02 07 01 02 07 01 02 07 01 01 34 01   609...........4.
|   3280: 02 05 01 02 05 01 02 05 01 01 35 01 02 04 01 02   ..........5.....
|   3296: 04 01 02 04 02 07 30 30 30 30 30 30 30 1c 02 04   ......0000000...
|   3312: 01 02 04 01 02 04 01 06 62 69 6e 61 72 79 03 06   ........binary..
|   3328: 01 02 02 03 06 01 02 02 03 06 01 02 02 03 06 01   ................
|   3344: 02 02 03 06 01 02 02 03 06 01 02 02 03 06 01 02   ................
|   3360: 02 03 06 01 02 02 03 06 01 02 02 03 06 01 02 02   ................
|   3376: 03 06 01 02 02 03 06 01 02 02 01 08 63 6f 6d 70   ............comp
|   3392: 69 6c 65 72 01 02 02 01 02 02 01 02 02 01 06 64   iler...........d
|   3408: 62 73 74 61 74 07 02 03 01 02 03 01 02 03 02 04   bstat...........
|   3424: 65 62 75 67 04 02 02 01 02 02 01 02 02 01 06 65   ebug...........e
|   3440: 6e 61 62 6c 65 07 02 02 01 02 02 01 02 02 01 02   nable...........
|   3456: 02 01 02 02 01 02 02 01 02 02 01 02 02 01 02 02   ................
|   3472: 01 02 02 01 02 02 01 02 02 01 02 02 01 02 02 01   ................
|   3488: 02 02 01 02 02 01 02 02 01 02 02 01 02 02 01 02   ................
|   3504: 02 01 02 02 02 08 78 74 65 6e 73 69 6f 6e 1f 02   ......xtension..
|   3520: 04 01 02 04 01 02 04 01 04 66 74 73 34 1a 02 03   .........fts4...
|   3536: 01 02 03 01 02 03 04 01 35 0d 02 03 01 02 03 01   ........5.......
|   3552: 02 03 01 03 67 63 63 01 02 03 01 02 03 01 02 03   ....gcc.........
|   3568: 02 06 65 6f 70 6f 6c 79 10 02 03 01 02 03 01 02   ..eopoly........
|   3584: 03 01 05 6a 73 6f 6e 31 13 02 03 01 02 03 01 02   ...json1........
|   3600: 03 01 04 6c 6f 61 64 1f 02 03 01 02 03 01 02 03   ...load.........
|   3616: 01 03 6d 61 78 1c 02 02 01 02 02 01 02 02 02 05   ..max...........
|   3632: 65 6d 6f 72 79 1c 02 03 01 02 03 01 02 03 04 04   emory...........
|   3648: 73 79 73 35 16 02 03 01 02 03 01 02 03 01 06 6e   sys5...........n
|   3664: 6f 63 61 73 65 02 06 01 02 02 03 06 01 02 02 03   ocase...........
|   3680: 06 01 02 02 03 06 01 02 02 03 06 01 02 02 03 06   ................
|   3696: 01 02 02 03 06 01 02 02 03 06 01 02 02 03 06 01   ................
|   3712: 02 02 03 06 01 02 02 03 06 01 02 02 03 06 01 02   ................
|   3728: 02 01 04 6f 6d 69 74 1f 02 02 01 02 02 01 02 02   ...omit.........
|   3744: 00 00 00 00 00 00 00 00 00 00 00 00 00 00 01 02   ................
|   3760: 58 81 96 4d 01 06 01 02 02 03 06 01 02 02 03 06   X..M............
|   3776: 01 02 02 03 06 01 02 02 03 06 01 02 02 03 06 01   ................
|   3792: 02 02 03 06 01 02 02 03 06 01 02 02 03 06 01 02   ................
|   3808: 02 03 06 01 02 02 03 06 01 02 02 03 06 01 02 02   ................
|   3824: 01 0a 74 68 72 65 61 64 73 61 66 65 22 02 02 01   ..threadsafe....
|   3840: 02 02 01 02 02 01 04 76 74 61 62 07 02 04 01 02   .......vtab.....
|   3856: 04 01 02 04 01 01 78 01 06 01 01 02 01 06 01 01   ......x.........
|   3872: 02 01 06 01 01 02 01 06 01 01 02 01 06 01 01 02   ................
|   3888: 01 06 01 01 02 01 06 01 01 02 01 06 01 01 02 01   ................
|   3904: 06 01 01 02 01 06 01 01 02 01 06 01 01 02 01 06   ................
|   3920: 01 01 02 01 06 01 01 02 01 06 01 01 02 01 06 01   ................
|   3936: 01 02 01 06 01 01 02 01 06 01 01 02 01 06 01 01   ................
|   3952: 02 01 06 01 01 02 01 06 01 01 02 01 06 01 01 02   ................
|   3968: 01 06 01 01 02 01 06 01 01 02 01 06 01 01 02 01   ................
|   3984: 06 01 01 02 01 06 01 01 02 01 06 01 01 02 01 06   ................
|   4000: 01 01 02 01 06 01 01 02 01 06 01 01 02 01 06 01   ................
|   4016: 01 02 01 06 01 01 02 01 06 01 01 02 01 06 01 01   ................
|   4032: 02 01 06 01 01 02 01 06 01 01 02 04 15 13 0c 0c   ................
|   4048: 12 44 13 11 0f 47 13 0f 0c 0e 11 10 0f 0e 10 0f   .D...G..........
|   4064: 44 0f 10 40 15 0f 07 01 03 00 14 24 5a 24 24 0f   D..@.......$Z$$.
|   4080: 0a 03 00 24 00 00 00 00 01 01 01 00 01 01 01 01   ...$............
| page 4 offset 12288
|      0: 0a 00 00 00 01 0f fa 00 0f fa 00 00 00 00 00 00   ................
|   4080: 00 00 00 00 00 00 00 00 00 00 05 04 09 0c 01 02   ................
| page 5 offset 16384
|      0: 0d 00 00 00 24 0c 0a 00 0f d8 0f af 0f 86 0f 74   ....$..........t
|     16: 0f 61 0f 4e 0f 2f 0f 0f 0e ef 0e d7 0e be 0e a5   .a.N./..........
|     32: 0e 8d 0e 74 0e 5b 0e 40 0e 24 0e 08 0d ef 0d d5   ...t.[.@.$......
|     48: 0d bb 0d a0 0d 84 0d 68 0d 4f 0d 35 0d 1b 0c fb   .......h.O.5....
|     64: 0c da 0c b9 0c 99 0c 78 0c 57 0c 3e 0c 24 0c 0a   .......x.W.>.$..
|   3072: 00 00 00 00 00 00 00 00 00 00 18 24 05 00 25 0f   ...........$..%.
|   3088: 19 54 48 52 45 41 44 53 41 46 45 3d 30 58 42 49   .THREADSAFE=0XBI
|   3104: 4e 41 52 59 18 23 05 00 25 0f 19 54 48 52 45 41   NARY.#..%..THREA
|   3120: 44 53 41 46 45 3d 30 58 4e 4f 43 41 53 45 17 22   DSAFE=0XNOCASE..
|   3136: 05 00 25 0f 17 54 48 52 45 41 44 53 41 46 45 3d   ..%..THREADSAFE=
|   3152: 30 58 52 54 52 49 4d 1f 21 05 00 33 0f 19 4f 4d   0XRTRIM.!..3..OM
|   3168: 49 54 20 4c 4f 41 44 20 45 58 54 45 4e 53 49 4f   IT LOAD EXTENSIO
|   3184: 4e 58 42 49 4e 41 52 59 1f 20 05 00 33 0f 19 4f   NXBINARY. ..3..O
|   3200: 4d 49 54 20 4c 4f 41 44 b2 04 55 85 44 54 e5 34   MIT LOAD..U.DT.4
|   3216: 94 f4 e5 84 e4 f4 34 15 34 51 e1 f0 50 03 30 f1   ......4.4Q..P.0.
|   3232: 74 f4 d4 95 42 04 c4 f4 14 42 04 55 85 44 54 e5   t...B....B.U.DT.
|   3248: 34 94 f4 e5 85 25 45 24 94 d1 f1 e0 50 03 30 f1   4....%E$....P.0.
|   3264: 94 d4 15 82 04 d4 54 d4 f5 25 93 d3 53 03 03 03   ......T..%..S...
|   3280: 03 03 03 05 84 24 94 e4 15 25 91 f1 d0 50 03 30   .....$...%...P.0
|   3296: f1 94 d4 15 82 04 d4 54 d4 f5 25 93 d3 53 03 03   .......T..%..S..
|   3312: 03 03 03 03 05 84 e4 f4 34 15 34 51 e1 c0 50 03   ........4.4Q..P.
|   3328: 30 f1 74 d4 15 82 04 d4 54 d4 f5 25 93 d3 53 03   0.t.....T..%..S.
|   3344: 03 03 03 03 03 05 85 25 45 24 94 d1 81 b0 50 02   .......%E$....P.
|   3360: 50 f1 94 54 e4 14 24 c4 52 05 25 45 24 54 55 84   P..T..$.R.%E$TU.
|   3376: 24 94 e4 15 25 91 81 a0 50 02 50 f1 94 54 e4 14   $...%...P.P..T..
|   3392: 24 c4 52 05 25 45 24 54 55 84 e4 f4 34 15 34 51   $.R.%E$TU...4.4Q
|   3408: 71 90 50 02 50 f1 74 54 e4 14 24 c4 52 05 25 45   q.P.P.tT..$.R.%E
|   3424: 24 54 55 85 25 45 24 94 d1 a1 80 50 02 90 f1 94   $TU.%E$....P....
|   3440: 54 e4 14 24 c4 52 04 d4 54 d5 35 95 33 55 84 24   T..$.R..T.5.3U.$
|   3456: 94 e4 15 25 91 a1 70 50 02 90 f1 94 54 e4 14 24   ...%..pP....T..$
|   3472: c4 52 04 d4 54 d5 35 95 33 55 84 e4 f4 34 15 34   .R..T.5.3U...4.4
|   3488: 51 91 60 50 02 90 f1 74 54 e4 14 24 c4 52 04 d4   Q.`P...tT..$.R..
|   3504: 54 d5 35 95 33 55 85 25 45 24 94 d1 81 50 50 02   T.5.3U.%E$...PP.
|   3520: 50 f1 94 54 e4 14 24 c4 52 04 a5 34 f4 e3 15 84   P..T..$.R..4....
|   3536: 24 94 e4 15 25 91 81 40 50 02 50 f1 94 54 e4 14   $...%..@P.P..T..
|   3552: 24 c4 52 04 a5 34 f4 e3 15 84 e4 f4 34 15 34 51   $.R..4......4.4Q
|   3568: 71 30 50 02 50 f1 74 54 e4 14 24 c4 52 04 a5 34   q0P.P.tT..$.R..4
|   3584: f4 e3 15 85 25 45 24 94 d1 a1 20 50 02 90 f1 94   ....%E$... P....
|   3600: 54 e4 14 24 c4 52 04 74 54 f5 04 f4 c5 95 84 24   T..$.R.tT......$
|   3616: 94 e4 15 25 91 a1 10 50 02 90 f1 94 54 e4 14 24   ...%...P....T..$
|   3632: c4 52 04 74 54 f5 04 f4 c5 95 84 e4 f4 34 15 34   .R.tT........4.4
|   3648: 51 91 00 50 02 90 f1 74 54 e4 14 24 c4 52 04 74   Q..P...tT..$.R.t
|   3664: 54 f5 04 f4 c5 95 85 25 45 24 94 d1 70 f0 50 02   T......%E$..p.P.
|   3680: 30 f1 94 54 e4 14 24 c5 20 46 54 53 35 58 42 49   0..T..$. FTS5XBI
|   3696: 4e 41 52 59 17 0e 05 00 23 0f 19 45 4e 41 42 4c   NARY....#..ENABL
|   3712: 45 20 46 54 53 35 58 4e 4f 43 41 53 45 16 0d 05   E FTS5XNOCASE...
|   3728: 00 23 0f 17 45 4e 41 42 4c 45 20 46 54 53 35 58   .#..ENABLE FTS5X
|   3744: 52 54 52 49 4d 17 0c 05 00 23 0f 19 45 4e 41 42   RTRIM....#..ENAB
|   3760: 4c 45 20 46 54 53 34 58 42 49 4e 41 52 59 97 0b   LE FTS4XBINARY..
|   3776: 05 00 23 0f 19 45 4e 41 42 4c 45 20 46 54 53 34   ..#..ENABLE FTS4
|   3792: 58 4e 4f 43 41 53 45 16 0a 05 00 23 0f 17 45 4e   XNOCASE....#..EN
|   3808: 41 42 4c 45 20 46 54 53 34 58 52 54 52 49 4d 1e   ABLE FTS4XRTRIM.
|   3824: 09 05 00 31 0f 19 45 4e 41 42 4c 45 20 44 42 53   ...1..ENABLE DBS
|   3840: 54 41 54 20 56 54 41 42 58 42 49 4e 41 52 59 1e   TAT VTABXBINARY.
|   3856: 08 05 00 31 0f 19 45 4e 41 42 4c 45 20 44 42 53   ...1..ENABLE DBS
|   3872: 54 41 54 20 56 54 41 42 58 4e 4f 43 41 53 45 1d   TAT VTABXNOCASE.
|   3888: 07 05 00 31 0f 17 45 4e 41 42 4c 45 20 44 42 53   ...1..ENABLE DBS
|   3904: 54 41 54 20 56 54 41 42 58 52 54 52 49 4d 11 06   TAT VTABXRTRIM..
|   3920: 05 00 17 0f 19 44 45 42 55 47 58 42 49 4e 41 52   .....DEBUGXBINAR
|   3936: 59 11 05 05 00 17 0f 19 44 45 42 55 47 58 4e 4f   Y.......DEBUGXNO
|   3952: 43 41 53 45 10 02 02 50 08 5f 17 44 45 42 55 47   CASE...P._.DEBUG
|   3968: 58 52 54 52 49 4d 27 03 05 00 43 0f 19 43 4f 4d   XRTRIM'...C..COM
|   3984: 50 49 4c 45 52 3d 67 63 63 2d 35 2e 34 2e 30 20   PILER=gcc-5.4.0 
|   4000: 32 30 31 36 30 36 30 39 58 42 49 4e 41 52 59 27   20160609XBINARY'
|   4016: 02 05 00 43 0f 19 43 4f 4d 50 49 4c 45 52 3d 67   ...C..COMPILER=g
|   4032: 63 63 2d 35 2e 34 2e 30 20 32 30 31 36 30 36 30   cc-5.4.0 2016060
|   4048: 39 58 4e 4f 43 41 53 45 26 01 05 00 43 0f 17 43   9XNOCASE&...C..C
|   4064: 4f 4d 50 49 4c 45 52 3d 67 63 63 2d 35 2e 34 2e   OMPILER=gcc-5.4.
|   4080: 30 20 32 30 31 36 30 36 30 39 58 52 54 52 49 4d   0 20160609XRTRIM
| page 6 offset 20480
|      0: 0d 00 00 00 24 0e e0 00 0f f8 0f f0 0f e8 0f e0   ....$...........
|     16: 0f d8 0f d0 0f c8 0f c0 0f b8 0f b0 0f a8 0f a0   ................
|     32: 0f 98 0f 90 0f 88 0f 80 0f 78 0f 70 0f 68 0f 60   .........x.p.h.`
|     48: 0f 58 0f 50 0f 48 0f 40 0f 38 0f 30 0f 28 0f 20   .X.P.H.@.8.0.(. 
|     64: 0f 18 0f 10 0f 08 0f 00 0e f8 0e f0 0e e8 0e e0   ................
|   3808: 06 24 03 00 12 02 01 01 06 23 03 00 12 02 01 01   .$.......#......
|   3824: 06 22 03 00 12 02 01 01 06 21 03 00 12 03 01 01   .........!......
|   3840: 06 20 03 00 12 03 01 01 06 1f 03 00 12 03 01 01   . ..............
|   3856: 06 1e 03 00 12 03 01 01 06 1d 03 00 12 03 01 01   ................
|   3872: 06 1c 03 00 12 03 01 01 06 1b 03 00 12 02 01 01   ................
|   3888: 06 1a 03 00 12 02 01 01 06 19 03 00 12 02 01 01   ................
|   3904: 06 18 03 00 12 02 01 01 06 17 03 00 12 02 01 01   ................
|   3920: 06 16 03 00 12 02 01 01 06 15 03 00 12 02 01 01   ................
|   3936: 06 14 03 00 12 02 01 01 06 13 03 00 12 02 01 01   ................
|   3952: 06 12 03 00 12 02 01 01 06 11 03 00 12 02 01 01   ................
|   3968: 06 10 03 00 12 02 01 01 06 0f 03 00 12 02 01 01   ................
|   3984: 06 0e 03 00 12 02 01 01 06 0d 03 00 12 02 01 01   ................
|   4000: 06 0c 03 00 12 02 01 01 06 0b 03 00 12 02 01 01   ................
|   4016: 06 0a 03 00 12 02 01 01 06 09 03 00 12 03 01 01   ................
|   4032: 06 08 03 00 12 03 01 01 06 07 03 00 12 03 01 01   ................
|   4048: 06 06 03 00 12 01 01 01 06 05 03 00 12 01 01 01   ................
|   4064: 06 04 03 00 12 01 01 01 06 03 03 00 12 06 01 01   ................
|   4080: 06 02 03 00 12 06 01 01 06 01 03 00 12 06 01 01   ................
| page 7 offset 24576
|      0: 0a 00 00 00 01 0f f4 00 0f f4 00 00 00 00 00 00   ................
|   4080: 00 00 00 00 0b 03 1b 01 76 65 72 73 69 6f 6e 04   ........version.
| page 8 offset 28672
|      0: 0d 00 00 00 03 0f d6 00 0f f4 0f e9 0f d6 00 00   ................
|   4048: 00 00 00 00 00 00 11 03 02 2b 69 6e 74 65 67 72   .........+integr
|   4064: 69 74 79 2d 63 68 65 63 6b 09 02 02 1b 72 65 62   ity-check....reb
|   4080: 75 69 6c 64 0a 01 02 1d 6f 70 74 69 6d 69 7a 65   uild....optimize
| end crash-b87dfef02880fe.db
}]} {}

do_catchsql_test 24.1 {
  UPDATE t1 SET b=quote(zeroblob(200)) WHERE a MATCH 'thread*';
} {/.*fts5: corrupt.*/}

do_catchsql_test 24.2 {
  INSERT INTO t1(t1) VALUES('integrity-check');
} {1 {database disk image is malformed}}

#--------------------------------------------------------------------------
reset_db
do_test 25.0 {
  sqlite3 db {}
  db deserialize [decode_hexdb {
| size 28672 pagesize 4096 filename crash-e3b1b19e4d4bcc.db
| page 1 offset 0
|      0: 53 51 4c 69 74 65 20 66 6f 72 6d 61 74 20 33 00   SQLite format 3.
|     16: 10 00 01 01 00 40 20 20 00 00 00 06 00 00 00 00   .....@  ........
|     32: 00 00 00 00 00 00 00 06 00 00 00 04 00 00 00 00   ................
|     48: 03 20 54 35 24 54 15 44 52 04 94 e4 44 55 82 07   . T5$T.DR...DU..
|     64: 43 27 a2 04 f4 e2 07 43 22 87 a2 95 30 30 71 71   C'.....C....00qq
|     80: 11 53 51 4c 69 74 65 20 66 6f 72 6d 61 74 20 33   .SQLite format 3
|     96: 00 10 00 01 0d 00 00 00 07 0d d2 00 0f c4 0f 6d   ...............m
|    112: 0f 02 0e ab 0e 4e 0d f6 0d d2 03 30 01 00 00 10   .....N.....0....
|    128: 10 04 02 02 00 00 00 00 00 00 00 00 30 00 00 00   ............0...
|    144: 00 00 00 00 00 00 00 00 20 00 00 00 40 00 00 00   ........ ...@...
|   3536: 00 00 22 07 06 17 11 11 01 31 74 61 62 6c 65 74   .........1tablet
|   3552: 32 74 32 07 43 52 45 41 54 45 20 54 41 42 4c 45   2t2.CREATE TABLE
|   3568: 20 74 32 28 78 29 56 06 06 17 1f 1f 01 7d 74 61    t2(x)V.......ta
|   3584: 62 6c 65 74 31 5f 63 6f 6e 66 69 67 74 31 5f 63   blet1_configt1_c
|   3600: 6f 6e 66 69 67 06 43 52 45 41 54 45 20 54 41 42   onfig.CREATE TAB
|   3616: 4c 45 20 27 74 31 5f 63 6f 6e 66 69 67 27 28 6b   LE 't1_config'(k
|   3632: 20 50 52 49 4d 41 52 59 20 4b 45 59 2c 20 76 29    PRIMARY KEY, v)
|   3648: 20 57 49 54 48 4f 55 54 20 52 4f 57 49 44 5b 05    WITHOUT ROWID[.
|   3664: 07 17 21 21 01 81 01 74 61 62 6c 65 74 31 5f 64   ..!!...tablet1_d
|   3680: 6f 63 73 69 7a 65 74 31 5f 64 6f 63 73 69 7a 65   ocsizet1_docsize
|   3696: 05 43 52 45 41 54 45 20 54 41 42 4c 45 20 27 74   .CREATE TABLE 't
|   3712: 31 5f 64 6f 63 73 69 7a 65 27 28 69 64 20 49 4e   1_docsize'(id IN
|   3728: 54 45 47 45 52 20 50 52 49 4d 41 52 59 20 4b 45   TEGER PRIMARY KE
|   3744: 59 2c 20 73 7a 20 42 4c 4f 42 29 55 04 06 17 21   Y, sz BLOB)U...!
|   3760: 21 01 77 74 61 62 6c 65 74 31 5f 63 6f 6e 74 65   !.wtablet1_conte
|   3776: 6e 74 74 31 5f 63 6f 6e 74 65 6e 74 04 43 52 45   ntt1_content.CRE
|   3792: 41 54 45 20 54 41 42 4c 45 20 27 74 31 5f 63 6f   ATE TABLE 't1_co
|   3808: 6e 74 65 6e 74 27 28 69 64 20 49 4e 54 45 47 45   ntent'(id INTEGE
|   3824: 52 20 50 52 49 4d 41 52 59 20 4b 45 59 2c 20 63   R PRIMARY KEY, c
|   3840: 30 29 69 03 07 17 19 19 01 81 2d 74 61 62 6c 65   0)i.......-table
|   3856: 74 31 5f 69 64 78 74 31 5f 69 64 78 03 43 52 45   t1_idxt1_idx.CRE
|   3872: 41 54 45 20 54 41 42 4c 45 20 27 74 31 5f 69 64   ATE TABLE 't1_id
|   3888: 78 27 28 73 65 67 69 64 2c 20 74 65 72 6d 2c 20   x'(segid, term, 
|   3904: 70 67 6e 6f 2c 20 50 52 49 4d 41 52 59 20 4b 45   pgno, PRIMARY KE
|   3920: 59 28 73 65 67 69 64 2c 20 74 65 72 6d 29 29 20   Y(segid, term)) 
|   3936: 57 49 54 48 4f 55 54 20 52 4f 57 49 44 55 02 07   WITHOUT ROWIDU..
|   3952: 17 1b 1b 01 81 01 74 61 62 6c 65 74 31 5f 64 61   ......tablet1_da
|   3968: 74 61 74 31 5f 64 61 74 61 02 43 52 45 41 54 45   tat1_data.CREATE
|   3984: 20 54 41 42 4c 45 20 27 74 31 5f 64 61 74 61 27    TABLE 't1_data'
|   4000: 28 69 64 20 49 4e 54 45 47 45 52 20 50 52 d9 44   (id INTEGER PR.D
|   4016: 41 52 59 20 4b 45 59 2c 20 62 6c 6f 63 6b 20 42   ARY KEY, block B
|   4032: 4c 4f 42 29 3a 01 06 17 11 11 08 63 74 61 62 6c   LOB):......ctabl
|   4048: 65 74 31 74 31 43 52 45 41 54 45 20 56 49 52 54   et1t1CREATE VIRT
|   4064: 55 41 4c 20 54 41 42 4c 45 20 74 31 20 55 53 49   UAL TABLE t1 USI
|   4080: 4e 47 20 66 74 73 35 28 63 6f 6e 74 65 6e 74 29   NG fts5(content)
| page 2 offset 4096
|      0: 0d 00 00 00 03 0f bd 00 0f e8 0f ef 0f bd 00 00   ................
|   4016: 00 00 00 00 00 00 00 00 00 00 00 00 00 24 84 80   .............$..
|   4032: 80 80 80 01 03 00 4e 00 00 00 1e 06 30 61 62 61   ......N.....0aba
|   4048: 63 6b 01 02 02 04 02 66 74 02 02 02 04 04 6e 64   ck.....ft.....nd
|   4064: 6f 6e 03 02 02 04 0a 07 05 01 03 00 10 03 03 0f   on..............
|   4080: 0a 03 00 24 00 00 00 00 01 01 01 00 01 01 01 01   ...$............
| page 3 offset 8192
|      0: 0a 00 00 00 01 0f fa 00 0f fa 00 00 00 00 00 00   ................
|   4080: 00 00 00 00 00 00 00 00 00 00 05 04 09 0c 01 02   ................
| page 4 offset 12288
|      0: 0d 00 00 00 03 0f e0 00 0f f6 0f e0 fe 00 00 00   ................
|   4064: 0a 03 03 00 1b 61 62 61 6e 64 6f 6e 08 02 00 03   .....abandon....
|   4080: 17 61 62 61 66 74 08 01 03 00 17 61 62 61 63 6b   .abaft.....aback
| page 5 offset 16384
|      0: 0d 00 00 00 03 0f ee 00 0f fa 0f f4 0f ee 00 00   ................
|   4064: 00 00 00 00 00 00 00 00 00 00 00 00 00 00 04 03   ................
|   4080: 03 00 0e 01 04 02 03 00 0e 01 04 01 03 00 0e 01   ................
| page 6 offset 20480
|      0: 0a 00 00 00 01 0f f4 00 0f f4 00 00 00 00 00 00   ................
|   4080: 00 00 00 00 0b 03 1b 01 76 65 72 73 69 6f 6e 04   ........version.
| page 7 offset 24576
|      0: 0d 00 00 00 03 0f d6 00 0f f4 01 fe 0f d6 00 00   ................
|   4048: 00 00 00 00 00 00 09 03 02 1b 72 65 62 75 69 6c   ..........rebuil
|   4064: 64 11 02 02 2b 69 6e 74 65 67 72 69 74 79 2d 63   d...+integrity-c
|   4080: 68 65 63 6b 0a 01 02 1d 6f 70 74 69 6d 69 7a 65   heck....optimize
| end crash-e3b1b19e4d4bcc.db
}]} {}

do_catchsql_test 25.1 {
  INSERT INTO t1(t1) VALUES('rebuild');
} {/.*fts5: corrupt.*/}

do_execsql_test 25.2 {
  PRAGMA page_size=512;
} 

#--------------------------------------------------------------------------
reset_db
do_test 26.0 {
  sqlite3 db {}
  db deserialize [decode_hexdb {
| size 32768 pagesize 4096 filename c30b.db
| page 1 offset 0
|      0: 53 51 4c 69 74 65 20 66 6f 72 6d 61 74 20 33 00   SQLite format 3.
|     16: 10 00 01 01 00 40 20 20 00 00 00 01 00 00 00 08   .....@  ........
|     32: 00 00 00 02 00 00 00 01 00 00 00 01 00 00 00 04   ................
|     48: 00 00 00 00 00 00 00 00 00 00 00 01 00 00 00 00   ................
|     80: 00 00 00 00 00 00 00 00 00 00 00 00 00 00 00 01   ................
|     96: 00 2e 30 38 0d 0f c7 00 07 0d 92 00 0f 8d 0f 36   ..08...........6
|    112: 0e cb 0e 6b 0e 0e 0d b6 0d 92 0d 92 00 00 00 00   ...k............
|   3472: 00 00 22 08 06 17 11 11 01 31 74 61 62 6c 65 74   .........1tablet
|   3488: 32 74 32 08 43 52 45 41 54 45 20 54 41 42 4c 45   2t2.CREATE TABLE
|   3504: 20 74 32 28 78 29 56 07 06 17 1f 1f 01 7d 74 61    t2(x)V.......ta
|   3520: 62 6c 65 74 31 5f 63 6f 6e 66 69 67 74 31 5f 63   blet1_configt1_c
|   3536: 6f 6e 66 69 67 07 43 52 45 41 54 45 20 54 41 42   onfig.CREATE TAB
|   3552: 4c 45 20 27 74 31 5f 63 6f 6e 66 69 67 27 28 6b   LE 't1_config'(k
|   3568: 20 50 52 49 4d 41 52 59 20 4b 45 59 2c 20 76 29    PRIMARY KEY, v)
|   3584: 20 57 49 54 48 4f 55 54 20 52 4f 57 49 44 5b 06    WITHOUT ROWID[.
|   3600: 07 17 21 21 01 81 01 74 61 62 6c 65 74 31 5f 64   ..!!...tablet1_d
|   3616: 6f 63 73 69 7a 65 74 31 5f 64 6f 63 73 69 7a 65   ocsizet1_docsize
|   3632: 06 43 52 45 41 54 45 20 54 41 42 4c 45 20 27 74   .CREATE TABLE 't
|   3648: 31 5f 64 6f 63 73 69 7a 65 27 28 69 64 20 49 4e   1_docsize'(id IN
|   3664: 54 45 47 45 52 20 50 52 49 4d 41 52 59 20 4b 45   TEGER PRIMARY KE
|   3680: 59 2c 20 73 7a 20 42 4c 4f 42 29 5e 05 07 17 21   Y, sz BLOB)^...!
|   3696: 21 01 81 07 74 61 62 6c 65 74 31 5f 63 6f 6e 74   !...tablet1_cont
|   3712: 65 6e 74 74 31 5f 63 6f 6e 74 65 6e 74 05 43 52   entt1_content.CR
|   3728: 45 41 54 45 20 54 41 42 4c 45 20 27 74 31 5f 63   EATE TABLE 't1_c
|   3744: 6f 6e 74 65 6e 74 27 28 69 64 20 49 4e 54 45 47   ontent'(id INTEG
|   3760: 45 52 20 50 52 49 4d 41 52 59 20 4b 45 59 2c 20   ER PRIMARY KEY, 
|   3776: 63 30 2c 20 63 31 2c 20 63 32 29 69 04 07 17 19   c0, c1, c2)i....
|   3792: 19 01 81 2d 74 61 62 6c 65 74 31 5f 69 64 78 74   ...-tablet1_idxt
|   3808: 31 5f 69 64 78 04 43 52 45 41 54 45 20 54 41 42   1_idx.CREATE TAB
|   3824: 4c 45 20 27 74 31 5f 69 64 78 27 28 73 65 67 69   LE 't1_idx'(segi
|   3840: 64 2c 20 74 65 72 6d 2c 20 70 67 6e 6f 2c 20 50   d, term, pgno, P
|   3856: 52 49 4d 41 52 59 20 4b 45 59 28 73 65 67 69 64   RIMARY KEY(segid
|   3872: 2c 20 74 65 72 6d 29 29 20 57 49 54 48 4f 55 54   , term)) WITHOUT
|   3888: 20 52 4f 57 49 44 55 03 07 17 1b 1b 01 81 01 74    ROWIDU........t
|   3904: 61 62 6c 65 74 31 5f 64 61 74 61 74 31 5f 64 61   ablet1_datat1_da
|   3920: 74 61 03 43 52 45 41 54 45 20 54 41 42 4c 45 20   ta.CREATE TABLE 
|   3936: 27 74 31 5f 64 61 74 61 27 28 69 64 20 49 4e 54   't1_data'(id INT
|   3952: 45 47 45 52 20 50 52 49 4d 41 52 59 20 4b 45 59   EGER PRIMARY KEY
|   3968: 2c 20 62 6c 6f 63 6b 20 42 4c 4f 42 29 38 02 06   , block BLOB)8..
|   3984: 17 11 11 08 5f 74 61 62 6c 65 74 31 74 31 43 52   ...._tablet1t1CR
|   4000: 45 41 54 45 20 56 49 52 54 55 41 4c 20 54 41 42   EATE VIRTUAL TAB
|   4016: 4c 45 20 74 31 20 55 53 49 4e 47 20 66 74 73 35   LE t1 USING fts5
|   4032: 28 61 2c 62 2c 63 29 00 00 00 39 00 00 00 00 00   (a,b,c)...9.....
| page 3 offset 8192
|      0: 0d 0c 0f 00 05 09 fe 00 0f e6 09 fe 0c 94 0c 23   ...............#
|     16: 0a 15 00 00 00 00 00 00 00 00 00 00 00 00 00 00   ................
|   2544: 00 00 00 00 00 00 00 00 00 00 00 00 00 00 15 0a   ................
|   2560: 03 00 30 00 00 00 00 01 03 03 00 03 01 01 01 02   ..0.............
|   2576: 01 01 03 01 01 83 72 8c 80 80 80 80 01 04 00 87   ......r.........
|   2592: 68 00 00 01 e4 02 30 30 03 03 06 02 83 0f 30 30   h.....00......00
|   2608: 30 30 30 30 30 30 30 30 30 30 30 30 30 30 30 30   0000000000000000
|   2624: 30 30 30 30 30 30 30 30 30 30 30 30 30 30 30 30   0000000000000000
|   2640: 30 30 30 30 30 30 30 30 30 30 30 30 30 30 30 30   0000000000000000
|   2656: 30 30 30 30 30 30 30 30 30 30 30 30 30 30 30 30   0000000000000000
|   2672: 30 30 30 30 30 30 30 30 30 30 30 30 30 30 30 30   0000000000000000
|   2688: 30 30 30 30 30 30 30 30 30 30 30 30 30 30 30 30   0000000000000000
|   2704: 30 30 30 30 30 30 30 30 30 30 30 30 30 30 30 30   0000000000000000
|   2720: 30 30 30 30 30 30 30 30 30 30 30 30 30 30 30 30   0000000000000000
|   2736: 30 30 30 30 30 30 30 30 30 30 30 30 30 30 30 30   0000000000000000
|   2752: 30 30 30 30 30 30 30 30 30 30 30 30 30 30 30 30   0000000000000000
|   2768: 30 30 30 30 30 30 30 30 30 30 30 30 30 30 30 30   0000000000000000
|   2784: 30 30 30 30 30 30 30 30 30 30 30 30 30 30 30 30   0000000000000000
|   2800: 30 30 30 30 30 30 30 30 30 30 30 30 30 30 30 30   0000000000000000
|   2816: 30 30 30 30 30 30 30 30 30 30 30 30 30 30 30 30   0000000000000000
|   2832: 30 30 30 30 30 30 30 30 30 30 30 30 30 30 30 30   0000000000000000
|   2848: 30 30 30 30 30 30 30 30 30 30 30 30 30 30 30 30   0000000000000000
|   2864: 30 30 30 30 30 30 30 30 30 30 30 30 30 30 30 30   0000000000000000
|   2880: 30 30 30 30 30 30 30 30 30 30 30 30 30 30 30 30   0000000000000000
|   2896: 30 30 30 30 30 30 30 30 30 30 30 30 30 30 30 30   0000000000000000
|   2912: 30 30 30 30 30 30 30 30 30 30 30 30 30 30 30 30   0000000000000000
|   2928: 30 30 30 30 30 30 30 30 30 30 30 30 30 30 30 30   0000000000000000
|   2944: 30 30 30 30 30 30 30 30 30 30 30 30 30 30 30 30   0000000000000000
|   2960: 30 30 30 30 30 30 30 30 30 30 30 30 30 30 30 30   0000000000000000
|   2976: 30 30 30 30 30 30 30 30 30 30 30 30 30 30 30 30   0000000000000000
|   2992: 30 30 30 30 30 30 30 30 30 30 30 30 30 03 06 01   0000000000000...
|   3008: 01 03 01 08 32 30 31 36 30 36 30 39 03 03 07 01   ....20160609....
|   3024: 01 34 03 03 05 01 01 35 03 03 04 01 06 62 69 6e   .4.....5.....bin
|   3040: 61 72 79 03 07 01 02 02 01 08 63 6f 6d 70 69 6c   ary.......compil
|   3056: 65 72 03 03 02 01 03 67 63 63 03 03 03 01 01 78   er.....gcc.....x
|   3072: 03 07 01 01 02 04 06 83 17 0d 06 06 0d 0d 08 0f   ................
|   3088: ef 00 14 2a 00 00 00 00 01 02 02 00 02 01 01 01   ...*............
|   3104: 02 01 01 6a 88 80 80 80 80 01 04 00 81 58 00 00   ...j.........X..
|   3120: 00 5f 07 30 62 69 6e 61 72 79 0c 01 03 01 01 06   ._.0binary......
|   3136: 65 6e 61 62 6c 65 0a 01 01 01 01 01 01 01 01 01   enable..........
|   3152: 01 01 01 04 66 74 73 34 0a 01 01 01 01 01 04 01   ....fts4........
|   3168: 35 0d 01 01 01 01 01 01 06 6e 6f 63 61 73 65 0b   5........nocase.
|   3184: 01 03 01 01 05 72 74 72 69 6d 0a 01 03 01 01 01   .....rtrim......
|   3200: 78 0a 01 01 01 01 01 01 01 01 01 01 01 04 0c 14   x...............
|   3216: 0c 09 0c 0b 86 4a 84 80 80 80 80 01 04 00 8d 18   .....J..........
|   3232: 00 00 03 2b 02 30 30 01 02 06 01 02 06 01 02 06   ...+.00.........
|   3248: 1f 02 03 01 02 03 01 02 03 01 08 32 30 31 36 30   ...........20160
|   3264: 36 30 39 01 02 07 01 02 07 01 02 07 01 01 34 01   609...........4.
|   3280: 02 05 01 02 05 01 02 05 01 01 35 01 02 04 01 02   ..........5.....
|   3296: 04 01 02 04 02 07 30 30 30 30 30 30 30 1c 02 04   ......0000000...
|   3312: 01 02 04 01 02 04 01 06 62 69 6e 61 72 79 03 06   ........binary..
|   3328: 01 02 02 03 06 01 02 02 03 06 01 02 02 03 06 01   ................
|   3344: 02 02 03 06 01 02 02 03 06 01 02 02 03 06 01 02   ................
|   3360: 02 03 06 01 02 02 03 06 01 02 02 03 06 01 02 02   ................
|   3376: 03 06 01 02 02 03 06 01 02 02 01 08 63 6f 6d 70   ............comp
|   3392: 69 6c 65 72 01 02 02 01 02 02 01 02 02 01 06 64   iler...........d
|   3408: 62 73 74 61 74 07 02 03 01 02 03 01 02 03 02 04   bstat...........
|   3424: 65 62 75 67 04 02 02 01 02 02 01 02 02 01 06 65   ebug...........e
|   3440: 6e 61 62 6c 65 07 02 02 01 02 02 01 02 02 01 02   nable...........
|   3456: 02 01 02 02 01 02 02 01 02 02 01 02 02 01 02 02   ................
|   3472: 01 02 02 01 02 02 01 02 02 01 02 02 01 02 02 01   ................
|   3488: 02 02 01 02 02 01 02 02 01 02 02 01 02 02 01 02   ................
|   3504: 02 01 02 02 02 08 78 74 65 6e 73 69 6f 6e 1f 02   ......xtension..
|   3520: 04 01 02 04 01 02 04 01 04 66 74 73 34 0a 02 03   .........fts4...
|   3536: 01 02 03 01 02 03 04 01 35 0d 02 03 01 02 03 01   ........5.......
|   3552: 02 03 01 03 67 63 63 01 02 03 01 02 03 01 02 03   ....gcc.........
|   3568: 02 06 65 6f 70 6f 6c 79 10 02 03 01 02 03 01 02   ..eopoly........
|   3584: 03 01 05 6a 73 6f 6e 31 13 02 03 01 02 03 01 02   ...json1........
|   3600: 03 01 04 6c 6f 61 64 1f 02 03 01 02 03 01 02 03   ...load.........
|   3616: 01 03 6d 61 78 1c 02 02 01 02 02 01 02 02 02 05   ..max...........
|   3632: 65 6d 6f 72 79 1c 02 03 01 02 03 01 02 03 04 04   emory...........
|   3648: 73 79 73 35 16 02 03 01 02 03 01 02 03 01 06 6e   sys5...........n
|   3664: 6f 63 61 73 65 02 06 01 02 02 03 06 01 02 02 03   ocase...........
|   3680: 06 01 02 02 03 06 01 02 02 03 06 01 02 02 03 06   ................
|   3696: 01 02 02 03 06 01 02 02 03 06 01 02 02 03 06 01   ................
|   3712: 02 02 03 06 01 02 02 03 06 01 02 02 03 06 01 02   ................
|   3728: 02 01 04 6f 6d 69 74 1f 02 02 01 02 02 01 02 02   ...omit.........
|   3744: 01 05 72 74 72 65 65 19 02 03 01 02 03 01 02 03   ..rtree.........
|   3760: 04 02 69 6d 01 06 01 02 02 03 06 01 02 02 03 06   ..im............
|   3776: 01 02 02 03 06 01 02 02 03 06 01 02 02 03 06 01   ................
|   3792: 02 02 03 06 01 02 02 03 06 01 02 02 03 06 01 02   ................
|   3808: 02 03 06 01 02 02 03 06 01 02 02 03 06 01 02 02   ................
|   3824: 01 0a 74 68 72 65 61 64 73 61 66 65 03 57 34 56   ..threadsafe.W4V
|   3840: 94 64 91 46 85 84 04 76 74 61 62 07 02 04 01 02   .d.F...vtab.....
|   3856: 04 01 02 04 01 01 78 01 06 01 01 02 01 06 01 01   ......x.........
|   3872: 02 01 06 01 01 02 01 06 01 01 02 01 06 01 10 02   ................
|   3888: 01 06 01 01 02 01 06 01 01 02 01 06 01 01 02 01   ................
|   3904: 06 01 01 02 01 06 01 01 02 01 06 01 01 02 01 06   ................
|   3920: 01 01 02 01 06 01 01 02 01 06 01 01 02 01 06 01   ................
|   3936: 01 02 01 06 01 01 02 01 06 01 01 02 01 06 01 01   ................
|   3952: 02 01 06 01 01 02 01 06 01 01 02 01 06 01 01 02   ................
|   3968: 01 06 01 01 02 01 06 01 01 02 01 06 01 01 02 01   ................
|   3984: 06 01 01 02 01 06 01 01 02 01 06 01 01 02 01 06   ................
|   4000: 01 01 02 01 06 01 01 02 01 06 01 01 02 01 06 01   ................
|   4016: 01 02 01 06 01 01 02 01 06 01 01 02 01 06 01 01   ................
|   4032: 02 01 06 01 01 02 01 06 01 01 02 04 15 13 0c 0c   ................
|   4048: 12 44 13 11 0f 47 13 0f 0c 0e 11 10 0f 0e 10 0f   .D...G..........
|   4064: 44 0f 10 40 15 0f 07 01 03 00 14 1e 4e 1f 1e 00   D..@........N...
|   4080: 00 00 11 24 00 00 00 00 01 01 01 00 01 01 01 01   ...$............
| page 4 offset 12288
|      0: 0a 00 00 00 03 0f ec 00 0f fa 0f f3 0f ec 00 00   ................
|   4064: 00 00 00 00 00 00 00 00 00 00 00 00 06 04 01 0c   ................
|   4080: 01 03 02 06 04 01 0c 01 02 02 05 04 09 0c 01 02   ................
| page 5 offset 16384
|      0: 0d 0e 5b 00 1e 0a 4d 00 0f d8 0f af 0a 4d 0f 74   ..[...M......M.t
|     16: 0f 61 0f 4e 0f 2f 0f 0f 0e ef 0e 40 0e 24 0e 08   .a.N./.....@.$..
|     32: 0d ef 0d d5 0d bb 0d a0 0d 84 0d 68 0d 4f 0d 35   ...........h.O.5
|     48: 0d 1b 0c fb 0c da 0c b9 0c 99 0c 78 0c 57 0c 3e   ...........x.W.>
|     64: 0c 24 0c 0a 0c 0a 0c 0a 0c 0a 0c 0a 0c 0a 0c 0a   .$..............
|   2624: 00 00 00 00 00 00 00 00 00 00 00 00 00 83 3a 03   ..............:.
|   2640: 06 00 43 86 33 19 43 4f 4d 50 49 4c 45 52 3d 67   ..C.3.COMPILER=g
|   2656: 63 63 2d 35 2e 34 2e 30 20 32 30 31 36 30 36 30   cc-5.4.0 2016060
|   2672: 39 58 27 30 30 30 30 30 30 30 30 30 30 30 30 30   9X'0000000000000
|   2688: 30 30 30 30 30 30 30 30 30 30 30 30 30 30 30 30   0000000000000000
|   2704: 30 30 30 30 30 30 30 30 30 30 30 30 30 30 30 30   0000000000000000
|   2720: 30 30 30 30 30 30 30 30 30 30 30 30 30 30 30 30   0000000000000000
|   2736: 30 30 30 30 30 30 30 30 30 30 30 30 30 30 30 30   0000000000000000
|   2752: 30 30 30 30 30 30 30 30 30 30 30 30 30 30 30 30   0000000000000000
|   2768: 30 30 30 30 30 30 30 30 30 30 30 30 30 30 30 30   0000000000000000
|   2784: 30 30 30 30 30 30 30 30 30 30 30 30 30 30 30 30   0000000000000000
|   2800: 30 30 30 30 30 30 30 30 30 30 30 30 30 30 30 30   0000000000000000
|   2816: 30 30 30 30 30 30 30 30 30 30 30 30 30 30 30 30   0000000000000000
|   2832: 30 30 30 30 30 30 30 30 30 30 30 30 30 30 30 30   0000000000000000
|   2848: 30 30 30 30 30 30 30 30 30 30 30 30 30 30 30 30   0000000000000000
|   2864: 30 30 30 30 30 30 30 30 30 30 30 30 30 30 30 30   0000000000000000
|   2880: 30 30 30 30 30 30 30 30 30 30 30 30 30 30 30 30   0000000000000000
|   2896: 30 30 30 30 30 30 30 30 30 30 30 30 30 30 30 30   0000000000000000
|   2912: 30 30 30 30 30 30 30 30 30 30 30 30 30 30 30 30   0000000000000000
|   2928: 30 30 30 30 30 30 30 30 30 30 30 30 30 30 30 30   0000000000000000
|   2944: 30 30 30 30 30 30 30 30 30 30 30 30 30 30 30 30   0000000000000000
|   2960: 30 30 30 30 30 30 30 30 30 30 30 30 30 30 30 30   0000000000000000
|   2976: 30 30 30 30 30 30 30 30 30 30 30 30 30 30 30 30   0000000000000000
|   2992: 30 30 30 30 30 30 30 30 30 30 30 30 30 30 30 30   0000000000000000
|   3008: 30 30 30 30 30 30 30 30 30 30 30 30 30 30 30 30   0000000000000000
|   3024: 30 30 30 30 30 30 30 30 30 30 30 30 30 30 30 30   0000000000000000
|   3040: 30 30 30 30 30 30 30 30 30 30 30 30 30 30 30 30   0000000000000000
|   3056: 30 30 30 30 30 30 30 30 30 30 30 30 30 30 30 30   0000000000000000
|   3072: 30 30 30 27 42 49 4e 41 52 59 18 24 05 00 25 0f   000'BINARY.$..%.
|   3088: 19 54 48 52 45 41 44 53 41 46 45 3d 30 58 42 49   .THREADSAFE=0XBI
|   3104: 4e 41 52 59 18 23 05 00 25 0f 19 54 48 52 45 41   NARY.#..%..THREA
|   3120: 44 53 41 46 45 3d 30 58 4e 4f 43 41 53 45 17 22   DSAFE=0XNOCASE..
|   3136: 05 00 25 0f 17 54 48 52 45 41 44 53 41 46 45 3d   ..%..THREADSAFE=
|   3152: 30 58 52 54 52 49 4d 1f 21 05 00 33 0f 19 4f 4d   0XRTRIM.!..3..OM
|   3168: 49 54 20 4c 4f 41 44 20 45 58 54 45 4e 53 49 4f   IT LOAD EXTENSIO
|   3184: 4e 58 42 49 4e 41 52 59 1f 20 05 00 33 0f 19 4f   NXBINARY. ..3..O
|   3200: 4d 49 54 20 4c 4f 41 44 20 45 58 54 45 4e 53 49   MIT LOAD EXTENSI
|   3216: 4f 4e 58 4e 4f 43 41 53 45 1e 1f 05 00 33 0f 17   ONXNOCASE....3..
|   3232: 4f 4d 49 54 20 4c 4f 41 44 20 45 58 54 45 4e 53   OMIT LOAD EXTENS
|   3248: 49 4f 4e 58 52 54 52 49 4d 1f 1e 05 00 33 0f 19   IONXRTRIM....3..
|   3264: 4d 41 58 20 4d 45 4d 4f 52 59 3d 35 30 30 30 30   MAX MEMORY=50000
|   3280: 30 30 30 58 42 49 4e 41 52 59 1f 1d 05 00 33 0f   000XBINARY....3.
|   3296: 19 4d 41 58 20 4d 45 4d 4f 52 59 3d 35 30 30 30   .MAX MEMORY=5000
|   3312: 30 30 30 30 58 4e 4f 43 41 53 45 1e 1c 05 00 33   0000XNOCASE....3
|   3328: 0f 17 4d 41 58 20 4d 45 4d 4f 52 59 3d 35 30 30   ..MAX MEMORY=500
|   3344: 30 30 30 30 30 58 52 54 52 49 4d 18 1b 05 00 25   00000XRTRIM....%
|   3360: 0f 19 45 4e 41 42 4c 45 20 52 54 52 45 45 58 42   ..ENABLE RTREEXB
|   3376: 49 4e 41 52 59 18 1a 05 00 25 0f 19 45 4e 41 42   INARY....%..ENAB
|   3392: 4c 45 20 52 54 52 45 45 58 4e 4f 43 41 53 45 17   LE RTREEXNOCASE.
|   3408: 19 05 00 25 0f 17 45 4e 41 42 4c 45 20 52 54 52   ...%..ENABLE RTR
|   3424: 45 45 58 52 54 52 49 4d 1a 18 05 00 29 0f 19 45   EEXRTRIM....)..E
|   3440: 4e 41 42 4c 45 20 4d 45 4d 53 59 53 35 58 42 49   NABLE MEMSYS5XBI
|   3456: 4e 41 52 59 1a 17 05 00 29 0f 19 45 4e 41 42 4c   NARY....)..ENABL
|   3472: 42 60 2d 45 4d 53 59 53 35 58 4e 4f 43 41 53 45   B`-EMSYS5XNOCASE
|   3488: 19 16 05 00 29 0f 17 45 4e 41 42 4c 45 20 4d 45   ....)..ENABLE ME
|   3504: 4d 53 59 53 35 58 52 54 52 49 4d 18 15 05 00 25   MSYS5XRTRIM....%
|   3520: 0f 19 45 4e 41 42 4c 45 20 4a 53 4f 4e 31 58 42   ..ENABLE JSON1XB
|   3536: 49 4e 41 52 59 18 14 05 00 25 0f 19 45 4e 41 42   INARY....%..ENAB
|   3552: 4c 45 20 4a 53 4f 4e 31 58 4e 4f 43 41 53 45 17   LE JSON1XNOCASE.
|   3568: 13 05 00 25 0f 17 45 4e 41 42 4c 45 20 4a 53 4f   ...%..ENABLE JSO
|   3584: 4e 31 58 52 54 52 49 4d 1a 12 05 00 29 0f 19 45   N1XRTRIM....)..E
|   3600: 4e 41 42 4c 45 20 47 45 4f 50 4f 4c 59 58 42 49   NABLE GEOPOLYXBI
|   3616: 4e 41 52 59 1a 11 05 00 29 0f 19 45 4e 41 42 4c   NARY....)..ENABL
|   3632: 45 20 47 45 4f 50 4f 4c 59 58 4e 4f 43 41 53 45   E GEOPOLYXNOCASE
|   3648: 19 10 05 00 29 0f 17 45 4e 41 42 4c 45 20 47 45   ....)..ENABLE GE
|   3664: 4f 50 4f 4c 59 58 52 54 52 49 4d 0f 86 00 94 23   OPOLYXRTRIM....#
|   3680: 0f 19 45 4e 41 42 4c 45 20 46 54 53 35 58 42 49   ..ENABLE FTS5XBI
|   3696: 4e 41 52 59 00 00 00 7b 23 0f 19 45 4e 41 42 4c   NARY....#..ENABL
|   3712: 45 20 46 54 53 35 58 4e 4f 43 41 53 45 00 00 00   E FTS5XNOCASE...
|   3728: 62 23 0f 17 45 4e 41 42 4c 45 20 46 54 53 35 58   b#..ENABLE FTS5X
|   3744: 52 54 52 49 4d 00 00 00 4a 23 0f 19 45 4e 41 42   RTRIM...J#..ENAB
|   3760: 4c 45 20 46 54 53 34 58 42 49 4e 41 52 59 00 00   LE FTS4XBINARY..
|   3776: 00 31 23 0f 19 45 4e 41 42 4c 45 20 46 54 53 34   .1#..ENABLE FTS4
|   3792: 58 4e 4f 43 41 53 45 00 00 00 18 23 0f 17 45 4e   XNOCASE....#..EN
|   3808: 41 42 4c 45 20 46 54 53 34 58 52 54 52 49 4d 1e   ABLE FTS4XRTRIM.
|   3824: 09 05 00 31 0f 19 45 4e 41 42 4c 45 20 44 42 53   ...1..ENABLE DBS
|   3840: 54 41 54 20 56 54 41 42 58 42 49 4e 41 52 59 1e   TAT VTABXBINARY.
|   3856: 08 05 00 31 0f 19 45 4e 41 42 4c 45 20 44 42 53   ...1..ENABLE DBS
|   3872: 54 41 54 20 56 54 24 15 48 4e 4f 43 41 53 45 1d   TAT VT$.HNOCASE.
|   3888: 07 05 00 31 0f 17 45 4e 41 42 4c 45 20 44 42 53   ...1..ENABLE DBS
|   3904: 54 41 54 20 56 54 41 42 58 52 54 52 49 4d 11 06   TAT VTABXRTRIM..
|   3920: 05 00 17 0f 19 44 45 42 55 47 58 42 49 4e 41 52   .....DEBUGXBINAR
|   3936: 59 11 05 05 00 17 0f 19 44 45 42 55 47 58 4e 4f   Y.......DEBUGXNO
|   3952: 43 41 53 45 10 04 05 00 17 0f 17 44 45 42 55 47   CASE.......DEBUG
|   3968: 58 52 54 52 49 4d 00 00 00 29 43 0f 19 43 4f 4d   XRTRIM...)C..COM
|   3984: 50 49 4c 45 52 3d 67 63 63 2d 35 2e 34 2e 30 20   PILER=gcc-5.4.0 
|   4000: 32 30 31 36 30 36 30 39 58 42 49 4e 41 52 59 27   20160609XBINARY'
|   4016: 02 05 00 43 0f 19 43 4f 4d 50 49 4c 45 52 3d 67   ...C..COMPILER=g
|   4032: 63 63 2d 35 2e 34 2e 30 20 32 30 31 36 30 36 30   cc-5.4.0 2016060
|   4048: 39 58 4e 4f 43 41 53 45 26 01 05 00 43 0f 17 43   9XNOCASE&...C..C
|   4064: 4f 4d 50 49 4c 45 52 3d 67 63 63 2d 35 2e 34 2e   OMPILER=gcc-5.4.
|   4080: 30 20 32 30 31 36 30 36 30 39 58 52 54 52 49 4d   0 20160609XRTRIM
| page 6 offset 20480
|      0: 0d 0f 88 00 1e 0e e0 00 0f f8 0f f0 0f b0 0f e0   ................
|     16: 0f d8 0f d0 0f c8 0f c0 0f b8 0f 80 0f 78 0f 70   .............x.p
|     32: 0f 68 0f 60 0f 58 0f 50 0f 48 0f 40 0f 38 0f 30   .h.`.X.P.H.@.8.0
|     48: 0f 28 0f 20 0f 18 0f 10 0f 08 0f 00 0e f8 0e f0   .(. ............
|     64: 0e e8 0e e0 0e e0 0e e0 0e e0 0e e0 0e e0 0e e0   ................
|   3808: 06 24 03 00 12 02 01 01 06 23 03 00 12 02 01 01   .$.......#......
|   3824: 06 22 03 00 12 02 01 01 06 21 03 00 12 03 01 01   .........!......
|   3840: 06 20 03 00 12 03 01 01 06 1f 03 00 12 03 01 01   . ..............
|   3856: 06 1e 03 00 12 03 01 01 06 1d 03 00 12 03 01 01   ................
|   3872: 06 1c 03 00 12 03 01 01 06 1b 03 00 12 02 01 01   ................
|   3888: 06 1a 03 00 12 02 01 01 06 19 03 00 12 02 01 01   ................
|   3904: 06 18 03 00 12 02 01 01 06 17 03 00 12 02 01 01   ................
|   3920: 06 16 03 00 12 02 01 01 06 15 03 00 12 02 01 01   ................
|   3936: 06 14 03 00 12 02 01 01 06 13 03 00 12 02 01 01   ................
|   3952: 06 12 03 00 12 02 01 01 06 11 03 00 12 02 01 01   ................
|   3968: 06 10 03 00 12 02 01 01 0f e8 00 28 12 02 01 01   ...........(....
|   3984: 00 00 00 28 12 02 01 01 00 00 00 20 12 02 01 01   ...(....... ....
|   4000: 00 00 00 18 12 02 01 01 00 00 00 10 12 02 01 01   ................
|   4016: 06 03 03 00 12 06 02 01 06 09 03 00 12 03 01 01   ................
|   4032: 06 08 03 00 12 03 01 01 06 07 03 00 12 03 01 01   ................
|   4048: 06 06 03 00 12 01 01 01 06 05 03 00 12 01 01 01   ................
|   4064: 06 04 03 00 12 01 01 01 00 00 00 08 12 06 01 01   ................
|   4080: 06 02 03 00 12 06 01 01 06 01 03 00 12 06 01 01   ................
| page 7 offset 24576
|      0: 0a 00 00 00 01 0f f4 00 0f f4 00 00 00 00 00 00   ................
|   4080: 00 00 00 00 0b 03 1b 01 76 65 72 73 69 6f 6e 04   ........version.
| page 8 offset 28672
|      0: 0d 00 00 00 03 0f d6 00 0f f4 0f e9 0f d6 00 00   ................
|   4048: 00 00 00 00 00 00 11 03 02 2b 69 6e 74 65 67 72   .........+integr
|   4064: 69 74 79 2d 63 68 65 63 6b 09 02 02 1b 72 65 62   ity-check....reb
|   4080: 75 69 6c 64 0a 01 02 1d 6f 70 74 69 6d 69 7a 65   uild....optimize
| end c30b.db
}]} {}

do_catchsql_test 26.1 {
  BEGIN;
    INSERT INTO t1(t1) VALUES('rebuild');
    INSERT INTO t1(t1) VALUES('integrity-check');
  COMMIT;
} {0 {}}

#--------------------------------------------------------------------------
reset_db
do_test 27.0 {
  sqlite3 db {}
  db deserialize [decode_hexdb {
| size 32768 pagesize 4096 filename timeout-2ca5b0658c98.db
| page 1 offset 0
|      0: 53 51 4c 69 74 65 20 66 6f 72 6d 61 74 20 33 00   SQLite format 3.
|     16: 10 00 01 01 00 40 20 20 00 00 00 00 00 00 00 08   .....@  ........
|     32: 00 00 00 02 00 00 00 01 00 00 00 09 00 00 00 04   ................
|     48: 00 00 00 00 00 00 00 00 00 00 00 01 00 00 00 00   ................
|     96: 00 00 00 00 0d 0f c7 00 07 0d 92 00 0f 8d 0f 36   ...............6
|    112: 0e cb 0e 6b 0e 0e 0d b6 0d 92 0d 92 00 00 00 00   ...k............
|   3472: 00 00 22 08 06 17 11 11 01 31 74 61 62 6c 65 74   .........1tablet
|   3488: 32 74 32 08 43 52 45 41 54 45 20 54 41 42 4c 45   2t2.CREATE TABLE
|   3504: 20 74 32 28 78 29 56 07 06 17 1f 1f 01 7d 74 61    t2(x)V.......ta
|   3520: 62 6c 65 74 31 5f 63 6f 6e 66 69 67 74 31 5f 63   blet1_configt1_c
|   3536: 6f 6e 66 69 67 07 43 52 45 41 54 45 20 54 41 42   onfig.CREATE TAB
|   3552: 4c 45 20 27 74 31 5f 63 6f 6e 66 69 67 27 28 6b   LE 't1_config'(k
|   3568: 20 50 52 49 4d 41 52 59 20 4b 45 59 2c 20 76 29    PRIMARY KEY, v)
|   3584: 20 57 49 54 48 4f 55 54 20 52 4f 57 49 44 5b 06    WITHOUT ROWID[.
|   3600: 07 17 21 21 01 81 01 74 61 62 6c 65 74 31 5f 64   ..!!...tablet1_d
|   3616: 6f 63 73 69 7a 65 74 31 5f 64 6f 63 73 69 7a 65   ocsizet1_docsize
|   3632: 06 43 52 45 41 54 45 20 54 41 42 4c 45 20 27 74   .CREATE TABLE 't
|   3648: 31 5f 64 6f 63 73 69 7a 65 27 28 69 64 20 49 4e   1_docsize'(id IN
|   3664: 54 45 47 45 52 20 50 52 49 4d 41 52 59 20 4b 45   TEGER PRIMARY KE
|   3680: 59 2c 20 73 7a 20 42 4c 4f 42 29 5e 05 07 17 21   Y, sz BLOB)^...!
|   3696: 21 01 81 07 74 61 62 6c 65 74 31 5f 63 6f 6e 74   !...tablet1_cont
|   3712: 65 6e 74 74 31 5f 63 6f 6e 74 65 6e 74 05 43 52   entt1_content.CR
|   3728: 45 41 54 45 20 54 41 42 4c 45 20 27 74 31 5f 63   EATE TABLE 't1_c
|   3744: 6f 6e 74 65 6e 74 27 28 69 64 20 49 4e 54 45 47   ontent'(id INTEG
|   3760: 45 52 20 50 52 49 4d 41 52 59 20 4b 45 59 2c 20   ER PRIMARY KEY, 
|   3776: 63 30 2c 20 63 31 2c 20 63 32 29 69 04 07 17 19   c0, c1, c2)i....
|   3792: 19 01 81 2d 74 61 62 6c 65 74 31 5f 69 64 78 74   ...-tablet1_idxt
|   3808: 31 5f 69 64 78 04 43 52 45 41 54 45 20 54 41 42   1_idx.CREATE TAB
|   3824: 4c 45 20 27 74 31 5f 69 64 78 27 28 73 65 67 69   LE 't1_idx'(segi
|   3840: 64 2c 20 74 65 72 6d 2c 20 70 67 6e 6f 2c 20 50   d, term, pgno, P
|   3856: 52 49 4d 41 52 59 20 4b 45 59 28 73 65 67 69 64   RIMARY KEY(segid
|   3872: 2c 20 74 65 72 6d 29 29 20 57 49 54 48 4f 55 54   , term)) WITHOUT
|   3888: 20 52 4f 57 49 44 55 03 07 17 1b 1b 01 81 01 74    ROWIDU........t
|   3904: 61 62 6c 65 74 31 5f 64 61 74 61 74 31 5f 64 61   ablet1_datat1_da
|   3920: 74 61 03 43 52 45 41 54 45 20 54 41 42 4c 45 20   ta.CREATE TABLE 
|   3936: 27 74 31 5f 64 61 74 61 27 28 69 64 20 49 4e 54   't1_data'(id INT
|   3952: 45 47 45 52 20 50 52 49 4d 41 52 59 20 4b 45 59   EGER PRIMARY KEY
|   3968: 2c 20 62 6c 6f 63 6b 20 42 4c 4f 42 29 38 02 06   , block BLOB)8..
|   3984: 17 11 11 08 5f 74 61 62 6c 65 74 31 74 31 43 52   ...._tablet1t1CR
|   4000: 45 41 54 45 20 56 49 52 54 55 41 4c 20 54 41 42   EATE VIRTUAL TAB
|   4016: 4c 45 20 74 31 20 55 53 49 4e 47 20 66 74 73 35   LE t1 USING fts5
|   4032: 28 61 2c 62 2c 63 29 00 00 00 39 00 00 00 00 00   (a,b,c)...9.....
| page 3 offset 8192
|      0: 0d 00 00 00 03 0c 94 00 0f e6 0f ef 0c 94 00 00   ................
|   3216: 00 00 00 00 86 4a 84 80 80 80 80 01 04 00 8d 18   .....J..........
|   3232: 00 00 03 2b 02 30 30 01 02 06 01 02 06 01 02 06   ...+.00.........
|   3248: 1f 02 03 01 02 03 01 02 03 01 08 32 30 31 36 30   ...........20160
|   3264: 36 30 39 01 02 07 01 02 07 01 02 07 01 01 34 01   609...........4.
|   3280: 02 05 01 02 05 01 02 05 01 01 35 01 02 04 01 02   ..........5.....
|   3296: 04 01 02 04 02 07 30 30 30 30 30 30 30 1c 02 04   ......0000000...
|   3312: 01 02 04 01 02 04 01 06 62 69 6e 61 72 79 03 06   ........binary..
|   3328: 01 02 02 03 06 01 02 02 03 06 01 02 02 03 06 01   ................
|   3344: 02 02 03 06 01 02 02 03 06 01 02 02 03 06 01 02   ................
|   3360: 02 03 06 01 02 02 03 06 01 02 02 03 06 01 02 02   ................
|   3376: 03 06 01 02 02 03 06 01 02 02 01 08 63 6f 6d 70   ............comp
|   3392: 69 6c 65 72 01 20 01 02 02 02 01 02 02 01 06 64   iler. .........d
|   3408: 62 73 7c cc cc cc cc cc cc cc cc cc cc cc cc cc   bs|.............
|   3424: cc cc cc cc cc cc cc cc cc cc cc cc cc cc cc cc   ................
|   3440: cc cc cc cc cc cc cc cc cc cc cc cc cc cc cc cc   ................
|   3456: cc cc cc cc cc cc c4 61 74 07 02 03 01 02 03 01   .......at.......
|   3472: 02 03 02 04 65 62 75 67 04 02 02 01 02 02 01 02   ....ebug........
|   3488: 02 01 06 65 6e 61 62 6c 65 07 02 02 01 02 02 01   ...enable.......
|   3504: 02 02 01 02 02 01 02 02 01 02 02 01 02 02 01 02   ................
|   3520: 02 01 02 02 01 02 02 01 02 02 01 02 02 01 02 02   ................
|   3536: 01 02 02 01 02 02 01 02 02 01 02 02 01 02 05 23   ...............#
|   3552: d6 76 36 32 d3 52 e3 42 e3 02 03 23 03 13 63 03   .v62.R.B...#..c.
|   3568: 63 03 95 84 e4 f4 34 15 34 52 60 10 50 04 30 f1   c.....4.4R`.P.0.
|   3584: 74 34 f4 d5 04 94 c4 55 23 d6 76 36 32 d3 52 e3   t4.....U#.v62.R.
|   3600: 42 e3 02 03 23 03 13 63 03 63 03 95 85 25 45 24   B...#..c.c...%E$
|   3616: 94 d0 d0 00 00 02 40 ee 00 00 ff 80 ff 00 fe 80   ......@.........
|   3632: fe 00 fd 80 fd 00 fc 80 fc 00 fb 80 fb 00 fa 80   ................
|   3648: fa 00 f9 80 f9 00 f8 80 f8 00 f7 80 f7 00 f6 80   ................
|   3664: f6 00 f5 80 f5 00 f4 80 f4 00 f8 0f 30 0f 28 0f   ............0.(.
|   3680: 20 0f 18 0f 10 0f 08 0f 00 0e f8 0e f0 0e e8 0e    ...............
|   3696: e0 02 02 03 06 01 02 02 03 06 01 02 02 03 06 01   ................
|   3712: 02 02 03 06 01 02 02 03 06 01 02 02 03 06 01 02   ................
|   3728: 02 01 04 6f 6d 69 74 1f 02 02 01 02 02 01 02 02   ...omit.........
|   3744: 01 05 72 74 72 65 65 19 02 03 01 02 03 01 02 03   ..rtree.........
|   3760: 04 02 69 6d 01 06 01 02 02 03 06 01 02 02 03 06   ..im............
|   3776: 01 02 02 03 06 01 02 02 03 06 01 02 02 03 06 01   ................
|   3792: 02 02 03 06 01 02 02 03 06 01 02 02 03 06 01 02   ................
|   3808: 02 03 06 01 02 02 03 06 01 02 02 03 06 01 02 02   ................
|   3824: 01 0a 74 68 72 65 61 64 73 61 66 65 22 02 02 01   ..threadsafe....
|   3840: 02 02 01 02 02 01 04 76 74 61 62 07 02 04 01 02   .......vtab.....
|   3856: 04 01 02 04 01 01 78 01 06 01 01 02 01 06 01 01   ......x.........
|   3872: 02 01 06 01 01 02 01 06 01 01 02 01 06 01 01 02   ................
|   3888: 01 06 01 01 02 01 06 01 01 02 01 06 01 01 02 01   ................
|   3904: 06 01 01 02 01 06 01 01 02 01 06 01 01 02 01 06   ................
|   3920: 01 01 02 01 06 01 01 02 01 06 01 01 02 01 06 01   ................
|   3936: 01 02 01 06 01 01 02 01 06 01 01 02 01 06 01 01   ................
|   3952: 02 01 06 01 01 02 01 06 01 01 02 01 06 01 01 02   ................
|   3968: 01 06 01 01 02 01 06 01 01 02 01 06 01 01 02 01   ................
|   3984: 06 01 01 02 01 06 01 01 02 01 06 01 01 02 01 06   ................
|   4000: 01 01 02 01 06 01 01 02 01 06 01 01 02 01 06 01   ................
|   4016: 01 02 01 06 01 01 02 01 06 01 01 02 01 06 01 01   ................
|   4032: 02 01 06 01 01 02 01 06 01 01 02 04 15 13 0c 0c   ................
|   4048: 12 44 13 11 0f 47 13 0f 0c 0e 11 10 0f 0e 10 0f   .D...G..........
|   4064: 44 0f 10 40 15 0f 07 01 03 00 14 24 5a 24 24 0f   D..@.......$Z$$.
|   4080: 0a 03 00 24 00 00 00 00 01 01 01 00 01 01 01 01   ...$............
| page 4 offset 12288
|      0: 0a 00 00 00 01 0f fa 00 0f fa 00 00 00 00 00 00   ................
|   4080: 00 00 00 00 00 00 00 00 00 00 05 04 09 0c 01 02   ................
| page 5 offset 16384
|      0: 0d 00 00 00 24 0c 0a 00 0f d8 0f af 0f 86 0f 74   ....$..........t
|     16: 0f 61 0f 4e 0f 2f 0f 0f 0e ef 0e d7 0e be 0e a5   .a.N./..........
|     32: 0e 8d 0e 74 0e 5b 0e 40 0e 24 0e 08 0d ef 0d d5   ...t.[.@.$......
|     48: 0d bb 0d a0 0d 84 0d 68 0d 4f 0d 35 0d 1b 0c fb   .......h.O.5....
|     64: 0c da 0c b9 0c 99 0c 78 0c 57 0c 3e 0c 24 0c 0a   .......x.W.>.$..
|   3072: 00 00 00 00 00 00 00 00 00 00 18 24 05 00 25 0f   ...........$..%.
|   3088: 19 54 48 52 45 41 44 53 41 46 45 3d 30 58 42 49   .THREADSAFE=0XBI
|   3104: 4e 41 52 59 18 23 05 00 25 0f 19 54 48 52 45 41   NARY.#..%..THREA
|   3120: 44 53 41 46 45 3d 30 58 4e 4f 43 41 53 45 17 22   DSAFE=0XNOCASE..
|   3136: 05 00 25 0f 17 54 48 52 45 41 44 53 41 46 45 3d   ..%..THREADSAFE=
|   3152: 30 58 52 54 52 49 4d 1f 21 05 00 33 0f 19 4f 4d   0XRTRIM.!..3..OM
|   3168: 49 54 20 4c 4f 41 44 20 45 58 54 45 4e 53 49 4f   IT LOAD EXTENSIO
|   3184: 4e 58 42 49 4e 41 52 59 1f 20 05 00 33 0f 19 4f   NXBINARY. ..3..O
|   3200: 4d 49 54 20 4c 4f 41 44 20 45 58 54 45 4e 53 49   MIT LOAD EXTENSI
|   3216: 4f 4e 58 4e 4f 43 41 53 45 1e 1f 05 00 33 0f 17   ONXNOCASE....3..
|   3232: 4f 4d 49 54 20 4c 4f 41 44 20 45 5f e8 54 45 4e   OMIT LOAD E_.TEN
|   3248: 53 49 4f 4e 58 52 54 52 49 4d 1f 1e 05 00 33 0f   SIONXRTRIM....3.
|   3264: 19 4d 41 58 20 4d 45 4d 4f 52 59 3d 35 30 31 81   .MAX MEMORY=501.
|   3280: 40 50 02 50 f1 94 54 e4 14 24 c4 52 04 a5 35 f4   @P.P..T..$.R..5.
|   3296: e3 15 84 e4 f4 34 15 34 51 71 30 50 02 50 f1 74   .....4.4Qq0P.P.t
|   3312: 54 e4 14 24 c4 52 04 a5 34 f4 e3 15 85 25 45 24   T..$.R..4....%E$
|   3328: 94 d1 a1 20 50 02 90 f1 94 54 e4 14 24 c4 52 04   ... P....T..$.R.
|   3344: 74 54 f5 04 f4 c5 95 84 24 94 e4 15 25 91 a1 10   tT......$...%...
|   3360: 50 02 90 f1 94 54 e4 14 24 c4 52 04 74 54 f5 04   P....T..$.R.tT..
|   3376: f4 c5 95 84 e4 f4 34 15 34 51 91 00 50 02 90 f1   ......4.4Q..P...
|   3392: 74 54 e4 14 24 c4 52 04 74 54 f5 04 f4 c5 95 85   tT..$.R.tT......
|   3408: 25 45 24 94 d1 70 f0 50 02 30 f1 94 54 e4 14 24   %E$..p.P.0..T..$
|   3424: c4 52 04 65 45 33 55 84 24 94 e4 15 25 91 70 e0   .R.eE3U.$...%.p.
|   3440: 50 02 30 f1 94 54 e4 14 24 c4 52 04 65 45 33 55   P.0..T..$.R.eE3U
|   3456: 84 e4 f4 34 15 34 51 60 d0 50 02 30 f1 74 54 e4   ...4.4Q`.P.0.tT.
|   3472: 14 24 c4 52 04 65 45 33 55 85 25 45 24 94 d1 70   .$.R.eE3U.%E$..p
|   3488: c0 50 02 30 f1 94 54 e4 14 24 c4 52 04 65 45 33   .P.0..T..$.R.eE3
|   3504: 45 84 24 94 e4 15 25 91 70 b0 50 02 30 f1 94 54   E.$...%.p.P.0..T
|   3520: e4 14 24 c4 52 04 65 45 33 45 84 e4 f4 34 15 34   ..$.R.eE3E...4.4
|   3536: 51 60 a0 50 02 30 f1 74 54 e4 14 24 c4 52 04 65   Q`.P.0.tT..$.R.e
|   3552: 45 33 45 85 25 45 24 94 d1 e0 90 50 03 10 f1 94   E3E.%E$....P....
|   3568: 54 e4 42 4c 45 20 44 42 53 54 41 54 20 56 54 41   T.BLE DBSTAT VTA
|   3584: 42 58 42 49 4e 41 52 59 1e 08 05 00 31 0f 19 45   BXBINARY....1..E
|   3600: e4 14 24 c4 52 04 44 25 35 44 15 42 05 65 42 41   ..$.R.D%5D.B.eBA
|   3616: 54 84 e4 f4 34 15 34 51 d0 70 50 03 10 f1 74 54   T...4.4Q.pP...tT
|   3632: e4 14 24 c4 52 04 44 25 35 44 15 42 05 65 44 14   ..$.R.D%5D.B.eD.
|   3648: 25 85 25 45 24 94 d1 10 60 50 01 70 f1 94 44 54   %.%E$...`P.p..DT
|   3664: 25 54 75 84 24 94 e4 15 25 91 10 50 50 01 70 f1   %Tu.$...%..PP.p.
|   3680: 94 44 54 25 54 75 84 e4 f4 34 15 34 51 00 40 50   .DT%Tu...4.4Q.@P
|   3696: 01 70 f1 74 44 54 25 54 75 85 25 45 24 94 d2 70   .p.tDT%Tu.%E$..p
|   3712: 30 50 04 30 f1 94 34 f4 d5 04 94 c4 55 23 d6 76   0P.0..4.....U#.v
|   3728: 36 32 d3 52 e3 42 e3 02 03 23 03 13 63 03 63 03   62.R.B...#..c.c.
|   3744: 95 84 24 94 e4 15 25 92 70 20 50 04 30 f1 94 34   ..$...%.p P.0..4
|   3760: f4 d5 04 94 c4 53 30 01 00 00 10 10 04 02 02 00   .....S0.........
|   3776: 00 00 00 00 00 00 00 80 00 00 00 20 00 00 00 10   ........... ....
|   3792: 00 00 00 90 00 00 00 40 00 00 00 00 00 00 00 00   .......@........
| page 6 offset 20480
|   3808: 06 24 03 00 12 02 01 01 06 23 03 00 12 02 01 01   .$.......#......
|   3824: 06 22 03 00 12 02 01 01 06 21 03 00 12 03 01 01   .........!......
|   3840: 06 20 03 00 12 03 01 01 06 1f 03 00 12 03 01 01   . ..............
|   3856: 06 1e 03 00 12 03 01 01 06 1d 03 00 12 03 01 01   ................
|   3872: 06 1c 03 00 12 03 01 01 06 1b 03 00 12 02 01 01   ................
|   3888: 06 1a 03 00 12 02 01 01 06 19 03 00 12 02 01 01   ................
|   3904: 06 18 03 00 12 02 01 01 06 17 03 00 12 02 01 01   ................
|   3920: 06 16 03 00 12 02 01 01 06 15 03 00 12 02 01 01   ................
|   3936: 06 14 03 00 12 02 01 01 06 13 03 00 12 02 01 01   ................
|   3952: 06 12 03 00 12 02 01 01 06 11 03 00 12 02 01 01   ................
|   3968: 06 10 03 00 12 02 01 01 06 0f 03 00 12 02 01 01   ................
|   3984: 06 0e 03 00 12 02 01 01 06 0d 03 00 12 02 01 01   ................
|   4000: 06 0c 03 00 12 02 01 01 06 0b 03 00 12 02 01 01   ................
|   4016: 06 0a 03 00 12 02 01 01 06 09 03 00 12 03 01 01   ................
|   4032: 06 08 03 00 12 03 01 01 06 07 03 00 12 03 01 01   ................
|   4048: 06 06 03 00 12 01 01 01 06 05 03 00 12 01 01 01   ................
|   4064: 06 04 03 00 12 01 01 01 06 03 03 00 12 06 01 01   ................
|   4080: 06 02 03 00 12 06 01 01 06 01 03 00 12 06 01 01   ................
| page 7 offset 24576
|      0: 0a 00 00 00 01 0f f4 00 0f f4 00 00 00 00 00 00   ................
|   4080: 00 00 00 00 0b 03 1b 01 76 65 72 73 69 6f 6e 04   ........version.
| page 8 offset 28672
|      0: 0d 00 00 00 03 0f d6 00 0f f4 0f e9 0f d6 00 00   ................
|   4048: 00 00 00 00 00 00 11 03 02 2b 69 6e 74 65 67 72   .........+integr
|   4064: 69 74 79 2d 63 68 65 63 6b 09 02 02 1b 72 65 62   ity-check....reb
|   4080: 75 69 6c 64 0a 01 02 1d 6f 70 74 69 6d 69 7a 65   uild....optimize
| end timeout-2ca5b0658c98.db
}]} {}

do_catchsql_test 27.1 {
  DELETE FROM t1 WHERE a MATCH 'fts*';
} {/.*fts5: corrupt.*/}

#-------------------------------------------------------------------------
reset_db
do_test 28.0 {
  sqlite3 db {}
  db deserialize [decode_hexdb {
| size 40960 pagesize 4096 filename crash-e2d47e0624a42c.db
| page 1 offset 0
|      0: 53 51 4c 69 74 65 20 66 6f 72 6d 61 74 20 33 00   SQLite format 3.
|     16: 10 00 01 01 00 40 20 20 00 00 00 00 00 00 00 0a   .....@  ........
|     32: 00 00 00 00 00 00 00 00 00 00 00 0d 00 00 00 04   ................
|     48: 00 00 00 00 00 00 00 00 00 00 00 01 00 00 00 00   ................
|     96: 00 00 00 00 0d 00 00 00 0d 0b 6e 00 0f a3 0f 4c   ..........n....L
|    112: 0e e1 0e 81 0e 24 0d cc 0d 72 0d 1b 0c b0 0c 50   .....$...r.....P
|    128: 0b f8 0b b3 0b 6e 00 00 00 00 00 00 00 00 00 00   .....n..........
|   2912: 00 00 00 00 00 00 00 00 00 00 00 00 00 00 43 0d   ..............C.
|   2928: 06 17 11 11 08 75 74 61 62 6c 65 74 34 74 34 43   .....utablet4t4C
|   2944: 52 45 41 54 45 20 56 49 52 54 55 41 4c 20 54 41   REATE VIRTUAL TA
|   2960: 42 4c 45 20 74 34 20 55 53 49 4e 47 20 66 74 73   BLE t4 USING fts
|   2976: 35 76 6f 63 61 62 28 27 74 32 27 2c 20 27 72 6f   5vocab('t2', 'ro
|   2992: 77 27 29 43 0c 06 17 11 11 08 75 74 61 62 6c 65   w')C......utable
|   3008: 74 33 74 33 43 52 45 41 54 45 20 56 49 52 54 55   t3t3CREATE VIRTU
|   3024: 41 4c 20 54 41 42 4c 45 20 74 33 20 55 53 49 4e   AL TABLE t3 USIN
|   3040: 47 20 66 74 73 35 76 6f 63 61 62 28 27 74 31 27   G fts5vocab('t1'
|   3056: 2c 20 27 72 6f 77 27 29 56 0b 06 17 1f 1f 01 7d   , 'row')V.......
|   3072: 74 61 62 6c 65 74 32 5f 63 6f 6e 66 69 67 74 32   tablet2_configt2
|   3088: 5f 63 6f 6e 66 69 67 0a 43 52 45 41 54 45 20 54   _config.CREATE T
|   3104: 41 42 4c 45 20 27 74 32 5f 63 6f 6e 66 69 67 27   ABLE 't2_config'
|   3120: 28 6b 20 50 52 49 4d 41 52 59 20 4b 45 59 2c 20   (k PRIMARY KEY, 
|   3136: 76 29 20 57 49 54 48 4f 55 54 20 52 4f 57 49 44   v) WITHOUT ROWID
|   3152: 5e 0a 07 17 21 21 01 81 07 74 61 62 6c 65 74 32   ^...!!...tablet2
|   3168: 5f 63 6f 6e 74 65 6e 74 74 32 5f 63 6f 6e 74 65   _contentt2_conte
|   3184: 6e 74 09 43 52 45 41 54 45 20 54 41 42 4c 45 20   nt.CREATE TABLE 
|   3200: 27 74 32 5f 63 6f 6e 74 65 6e 74 27 28 69 64 20   't2_content'(id 
|   3216: 49 4e 54 45 47 45 52 20 50 52 49 4d 41 52 59 20   INTEGER PRIMARY 
|   3232: 4b 45 59 2c 20 63 30 2c 20 63 31 2c 20 63 32 29   KEY, c0, c1, c2)
|   3248: 69 09 07 17 19 19 01 81 2d 74 61 62 6c 65 74 32   i.......-tablet2
|   3264: 5f 69 64 78 74 32 5f 69 64 78 08 43 52 45 41 54   _idxt2_idx.CREAT
|   3280: 45 20 54 41 42 4c 45 20 27 74 32 5f 69 64 78 27   E TABLE 't2_idx'
|   3296: 28 73 65 67 69 64 2c 20 74 65 72 6d 2c 20 70 67   (segid, term, pg
|   3312: 6e 6f 2c 20 50 52 49 4d 41 52 59 20 4b 45 59 28   no, PRIMARY KEY(
|   3328: 73 65 67 69 64 2c 20 74 65 72 6d 29 29 20 57 49   segid, term)) WI
|   3344: 54 48 4f 55 54 20 52 4f 57 49 44 55 08 07 17 1b   THOUT ROWIDU....
|   3360: 1b 01 81 01 74 61 62 6c 65 74 32 5f 64 61 74 61   ....tablet2_data
|   3376: 74 32 5f 64 61 74 61 07 43 52 45 41 54 45 20 54   t2_data.CREATE T
|   3392: 41 42 4c 45 20 27 74 32 5f 64 61 74 61 27 28 69   ABLE 't2_data'(i
|   3408: 64 20 49 4e 54 45 47 45 52 20 50 52 49 4d 41 52   d INTEGER PRIMAR
|   3424: 59 20 4b 45 59 2c 20 62 6c 6f 63 6b 20 42 4c 4f   Y KEY, block BLO
|   3440: 42 29 58 07 07 17 11 11 08 81 1d 74 61 62 6c 65   B)X........table
|   3456: 74 32 74 32 43 52 45 41 54 45 20 56 49 52 54 55   t2t2CREATE VIRTU
|   3472: 41 4c 20 54 41 42 4c 45 20 74 32 20 55 53 49 4e   AL TABLE t2 USIN
|   3488: 47 20 66 74 73 35 28 27 61 27 2c 5b 62 5d 2c 22   G fts5('a',[b],.
|   3504: 63 22 2c 64 65 74 61 69 6c 3d 6e 6f 6e 65 2c 63   c.,detail=none,c
|   3520: 6f 6c 75 6d 6e 73 69 7a 65 3d 30 29 56 06 06 17   olumnsize=0)V...
|   3536: 1f 1f 01 7d 74 61 62 6c 65 74 31 5f 63 6f 6e 66   ....tablet1_conf
|   3552: 69 67 74 31 5f 63 6f 6e 66 69 67 06 43 52 45 41   igt1_config.CREA
|   3568: 54 45 20 54 41 42 4c 45 20 27 74 31 5f 63 6f 6e   TE TABLE 't1_con
|   3584: 66 69 67 27 28 6b 20 50 52 49 4d 41 52 59 20 4b   fig'(k PRIMARY K
|   3600: 45 59 2c 20 76 29 20 57 49 54 48 4f 55 54 20 52   EY, v) WITHOUT R
|   3616: 4f 57 49 44 5b 05 07 17 21 21 01 81 01 74 61 62   OWID[...!!...tab
|   3632: 6c 65 74 31 5f 64 6f 63 73 69 7a 65 74 31 5f 64   let1_docsizet1_d
|   3648: 6f 63 73 69 7a 65 05 43 52 45 41 54 45 20 54 41   ocsize.CREATE TA
|   3664: 42 4c 45 20 27 74 31 5f 64 6f 63 73 69 7a 65 27   BLE 't1_docsize'
|   3680: 28 69 64 20 49 4e 54 45 47 45 52 20 50 52 49 4d   (id INTEGER PRIM
|   3696: 41 52 59 20 4b 45 59 2c 20 73 7a 20 42 4c 4f 42   ARY KEY, sz BLOB
|   3712: 29 5e 04 07 17 21 21 01 81 07 74 61 62 6c 65 74   )^...!!...tablet
|   3728: 31 5f 63 6f 6e 74 65 6e 74 74 31 5f 63 6f 6e 74   1_contentt1_cont
|   3744: 65 6e 74 04 43 52 45 41 54 45 20 54 41 42 4c 45   ent.CREATE TABLE
|   3760: 20 27 74 31 5f 63 6f 6e 74 65 6e 74 27 28 69 64    't1_content'(id
|   3776: 20 49 4e 54 45 47 45 52 20 50 52 49 4d 41 52 59    INTEGER PRIMARY
|   3792: 20 4b 45 59 2c 20 63 30 2c 20 63 31 2c 20 63 32    KEY, c0, c1, c2
|   3808: 29 69 03 07 17 19 19 01 81 2d 74 61 62 6c 65 74   )i.......-tablet
|   3824: 31 5f 69 64 78 74 31 5f 69 64 78 03 43 52 45 41   1_idxt1_idx.CREA
|   3840: 54 45 20 54 41 42 4c 45 20 27 74 31 5f 69 64 78   TE TABLE 't1_idx
|   3856: 27 28 73 65 67 69 64 2c 20 74 65 72 6d 2c 20 70   '(segid, term, p
|   3872: 67 6e 6f 2c 20 50 52 49 4d 41 52 59 20 4b 45 59   gno, PRIMARY KEY
|   3888: 28 73 65 67 69 64 2c 20 74 65 72 6d 29 29 20 57   (segid, term)) W
|   3904: 49 54 48 4f 55 54 20 52 4f 57 49 44 55 02 07 17   ITHOUT ROWIDU...
|   3920: 1b 1b 01 81 01 74 61 62 6c 65 74 31 5f 64 61 74   .....tablet1_dat
|   3936: 61 74 31 5f 64 61 74 61 02 43 52 45 41 54 45 20   at1_data.CREATE 
|   3952: 54 41 42 4c 45 20 27 74 31 5f 64 61 74 61 27 28   TABLE 't1_data'(
|   3968: 69 64 20 49 4e 54 45 47 45 52 20 50 52 49 4d 41   id INTEGER PRIMA
|   3984: 52 59 20 4b 45 59 2c 20 62 6c 6f 63 6b 20 42 4c   RY KEY, block BL
|   4000: 4f 42 29 5b 01 07 17 11 11 08 81 23 74 61 62 6c   OB)[.......#tabl
|   4016: 65 74 31 74 31 43 52 45 41 54 45 20 56 49 52 54   et1t1CREATE VIRT
|   4032: 55 41 4c 20 54 41 42 4c 45 20 74 31 20 55 53 49   UAL TABLE t1 USI
|   4048: 4e 47 20 66 74 73 35 28 61 2c 62 20 75 6e 69 6e   NG fts5(a,b unin
|   4064: 64 65 78 65 64 2c 63 2c 74 6f 6b 65 6e 69 7a 65   dexed,c,tokenize
|   4080: 3d 22 70 6f 72 74 65 72 20 61 73 63 69 69 22 29   =.porter ascii.)
| page 2 offset 4096
|      0: 0d 0f 68 00 05 0f 13 00 0f e6 0f 13 0f a8 0f 7c   ..h............|
|     16: 0f 2a 00 00 00 00 00 00 00 00 00 00 00 00 00 00   .*..............
|   3856: 00 00 00 15 0a 03 00 30 00 00 00 00 01 03 03 00   .......0........
|   3872: 03 01 01 01 02 01 01 03 01 01 37 8c 80 80 80 80   ..........7.....
|   3888: 01 03 00 74 00 00 00 2e 02 30 61 03 02 02 01 01   ...t.....0a.....
|   3904: 62 03 02 03 01 01 63 03 02 04 01 01 67 03 06 01   b.....c.....g...
|   3920: 02 02 01 01 68 03 06 01 02 03 01 01 69 03 06 01   ....h.......i...
|   3936: 02 04 04 06 06 06 08 08 0f ef 00 14 2a 00 00 00   ............*...
|   3952: 00 01 02 02 00 02 01 01 01 02 01 01 25 88 80 80   ............%...
|   3968: 80 80 01 03 00 50 00 00 00 1f 02 30 67 02 08 02   .....P.....0g...
|   3984: 01 02 02 01 01 68 02 08 03 01 02 03 01 01 69 02   .....h........i.
|   4000: 08 04 01 02 04 04 09 09 37 84 80 80 80 80 01 03   ........7.......
|   4016: 00 74 00 00 00 2e 02 30 61 01 02 02 01 01 62 01   .t.....0a.....b.
|   4032: 02 03 01 01 63 01 02 04 01 01 67 01 06 01 02 20   ....c.....g.... 
|   4048: 10 16 80 10 60 10 20 30 10 16 90 10 60 10 20 40   ....`. 0....`. @
|   4064: 40 60 60 60 80 80 70 10 30 01 40 30 90 00 90 00   @```..p.0.@0....
|   4080: 00 01 12 40 00 00 00 00 10 10 10 00 10 10 10 10   ...@............
| page 3 offset 8192
|      0: a0 00 00 00 30 fe c0 00 ff a0 ff 30 fe 00 00 00   ....0......0....
|   4064: 00 00 00 00 00 00 00 00 00 00 00 00 06 04 01 0c   ................
|   4080: 01 03 02 06 04 01 0c 01 02 02 05 04 09 0c 01 02   ................
| page 4 offset 12288
|      0: 0d 00 00 00 03 0f be 00 0f ea 0f d4 0f be 00 00   ................
|   4016: 00 00 00 00 00 00 00 00 00 00 00 00 00 00 14 03   ................
|   4032: 05 00 17 17 17 61 20 62 20 63 67 20 68 20 69 67   .....a b cg h ig
|   4048: 20 68 20 69 14 02 05 00 17 17 17 67 20 68 20 69    h i.......g h i
|   4064: 61 20 62 20 63 67 20 68 20 69 14 01 05 00 17 17   a b cg h i......
|   4080: 17 61 20 62 20 63 64 20 65 20 66 67 20 68 20 69   .a b cd e fg h i
| page 5 offset 16384
|      0: 0d 00 00 00 03 0f e8 00 0f f8 0f f0 0f e8 00 00   ................
|   4064: 00 00 00 00 00 00 00 00 06 03 03 00 12 03 00 03   ................
|   4080: 06 02 03 00 12 03 00 03 06 01 03 00 12 03 00 03   ................
| page 6 offset 20480
|      0: 0a 00 00 00 01 0f f4 00 0f f4 00 00 00 00 00 00   ................
|   4080: 00 00 00 00 0b 03 1b 01 76 65 72 73 69 6f 6e 04   ........version.
| page 7 offset 24576
|      0: 0d 00 00 00 03 0f 9e 00 0f e6 0f ef 0f 9e 00 00   ................
|   3984: 00 00 00 00 00 00 00 00 00 00 00 00 00 00 41 84   ..............A.
|   4000: 80 80 80 80 01 04 00 81 06 00 00 00 34 02 30 61   ............4.0a
|   4016: 01 01 01 01 01 62 01 01 01 01 01 63 01 01 01 01   .....b.....c....
|   4032: 01 64 01 01 01 65 01 01 01 66 01 01 01 01 01 68   .d...e...f.....h
|   4048: 01 01 01 01 01 69 01 01 01 04 06 06 06 04 04 04   .....i..........
|   4064: 06 06 07 01 03 00 14 03 09 09 09 0f 0a 03 00 24   ...............$
|   4080: 00 00 00 00 01 01 01 00 01 01 01 01 0a 00 00 00   ................
| page 8 offset 28672
|      0: 01 0f fa 00 0f fa 00 00 00 00 00 00 00 00 00 00   ................
|   4080: 00 00 00 00 00 00 00 00 00 00 05 04 09 0c 01 02   ................
| page 9 offset 32768
|      0: 0d 00 00 00 03 0f be 00 0f ea 0f d4 1f be 00 00   ................
|   4016: 00 00 00 00 00 00 00 00 00 00 00 00 00 00 14 03   ................
|   4032: 05 00 17 17 17 61 20 62 20 63 67 20 68 20 69 67   .....a b cg h ig
|   4048: 20 68 20 69 14 02 05 00 17 17 17 67 20 68 20 69    h i.......g h i
|   4064: 61 20 62 20 63 67 20 68 20 69 14 01 05 00 17 17   a b cg h i......
|   4080: 17 61 20 62 20 63 64 20 65 20 66 67 20 68 20 69   .a b cd e fg h i
| page 10 offset 36864
|      0: 0a 00 00 00 01 0f f4 00 0f f4 00 00 00 00 00 00   ................
|   4080: 00 00 00 00 0b 03 1b 01 76 65 72 73 69 6f 6e 04   ........version.
| end crash-e2d47e0624a42c.db
}]} {}

do_catchsql_test 28.1 {
  SELECT count( fts5_decode(id, block) ) FROM t2_data;
} {1 {database disk image is malformed}}

#-------------------------------------------------------------------------
reset_db
do_test 29.0 {
  sqlite3 db {}
  db deserialize [decode_hexdb {
| size 28672 pagesize 4096 filename crash-e114c036e13dde.db
| page 1 offset 0
|      0: 53 51 4c 69 74 65 20 66 6f 72 6d 61 74 20 33 00   SQLite format 3.
|     16: 10 00 01 01 00 40 20 20 00 00 00 00 00 00 00 07   .....@  ........
|     32: 00 00 00 02 00 00 00 01 00 00 00 08 00 00 00 04   ................
|     48: 00 00 00 00 00 00 00 00 00 00 00 01 00 00 00 00   ................
|     96: 00 00 00 00 0d 0f c7 00 06 0d b6 00 0f 8d 0f 36   ...............6
|    112: 0e cb 0e 6b 0e 0e 0d b6 0d b6 00 00 00 00 00 00   ...k............
|   3504: 00 00 00 00 00 00 56 07 06 17 1f 1f 01 7d 74 61   ......V.......ta
|   3520: 62 6c 65 74 31 5f 63 6f 6e 66 69 67 74 31 5f 63   blet1_configt1_c
|   3536: 6f 6e 66 69 67 07 43 52 45 41 54 45 20 54 41 42   onfig.CREATE TAB
|   3552: 4c 45 20 27 74 31 5f 63 6f 6e 66 69 67 27 28 6b   LE 't1_config'(k
|   3568: 20 50 52 49 4d 41 52 59 20 4b 45 59 2c 20 76 29    PRIMARY KEY, v)
|   3584: 20 57 49 54 48 4f 55 54 20 52 4f 57 49 44 5b 06    WITHOUT ROWID[.
|   3600: 07 17 21 21 01 81 01 74 61 62 6c 65 74 31 5f 64   ..!!...tablet1_d
|   3616: 6f 63 73 69 7a 65 74 31 5f 64 6f 63 73 69 7a 65   ocsizet1_docsize
|   3632: 06 43 52 45 41 54 45 20 54 41 42 4c 45 20 27 74   .CREATE TABLE 't
|   3648: 31 5f 64 6f 63 73 69 7a 65 27 28 69 64 20 49 4e   1_docsize'(id IN
|   3664: 54 45 47 45 52 20 50 52 49 4d 41 52 59 20 4b 45   TEGER PRIMARY KE
|   3680: 59 2c 20 73 7a 20 42 4c 4f 42 29 5e 05 07 17 21   Y, sz BLOB)^...!
|   3696: 21 01 81 07 74 61 62 6c 65 74 31 5f 63 6f 6e 74   !...tablet1_cont
|   3712: 65 6e 74 74 31 5f 63 6f 6e 74 65 6e 74 05 43 52   entt1_content.CR
|   3728: 45 41 54 45 20 54 41 42 4c 45 20 27 74 31 5f 63   EATE TABLE 't1_c
|   3744: 6f 6e 74 65 6e 74 27 28 69 64 20 49 4e 54 45 47   ontent'(id INTEG
|   3760: 45 52 20 50 52 49 4d 41 52 59 20 4b 45 59 2c 20   ER PRIMARY KEY, 
|   3776: 63 30 2c 20 63 31 2c 20 63 32 29 69 04 07 17 19   c0, c1, c2)i....
|   3792: 19 01 81 2d 74 61 62 6c 65 74 31 5f 69 64 78 74   ...-tablet1_idxt
|   3808: 31 5f 69 64 78 04 43 52 45 41 54 45 20 54 41 42   1_idx.CREATE TAB
|   3824: 4c 45 20 27 74 31 5f 69 64 78 27 28 73 65 67 69   LE 't1_idx'(segi
|   3840: 64 2c 20 74 65 72 6d 2c 20 70 67 6e 6f 2c 20 50   d, term, pgno, P
|   3856: 52 49 4d 41 52 59 20 4b 45 59 28 73 65 67 69 64   RIMARY KEY(segid
|   3872: 2c 20 74 65 72 6d 29 29 20 57 49 54 48 4f 55 54   , term)) WITHOUT
|   3888: 20 52 4f 57 49 44 55 03 07 17 1b 1b 01 81 01 74    ROWIDU........t
|   3904: 61 62 6c 65 74 31 5f 64 61 74 61 74 31 5f 64 61   ablet1_datat1_da
|   3920: 74 61 03 43 52 45 41 54 45 20 54 41 42 4c 45 20   ta.CREATE TABLE 
|   3936: 27 74 31 5f 64 61 74 61 27 28 69 64 20 49 4e 54   't1_data'(id INT
|   3952: 45 47 45 52 20 50 52 49 4d 41 52 59 20 4b 45 59   EGER PRIMARY KEY
|   3968: 2c 20 62 6c 6f 63 6b 20 42 4c 4f 42 29 38 02 06   , block BLOB)8..
|   3984: 17 11 11 08 5f 74 61 62 6c 65 74 31 74 31 43 52   ...._tablet1t1CR
|   4000: 45 41 54 45 20 56 49 52 54 55 41 4c 20 54 41 42   EATE VIRTUAL TAB
|   4016: 4c 45 20 74 31 20 55 53 49 4e 47 20 66 74 73 35   LE t1 USING fts5
|   4032: 28 61 2c 62 2c 63 29 00 00 00 39 00 00 00 00 00   (a,b,c)...9.....
| page 3 offset 8192
|      0: 0d 00 00 00 03 0c af 00 0f e6 0f ef 0c af 00 00   ................
|   3232: 00 00 00 00 00 00 00 00 00 00 00 00 00 00 00 86   ................
|   3248: 2f 84 80 80 80 80 01 04 00 8c 62 00 00 03 12 02   /.........b.....
|   3264: 30 30 01 04 05 03 01 04 05 03 01 04 05 03 1f 02   00..............
|   3280: 03 01 02 03 01 02 03 01 08 35 30 30 30 30 30 30   .........5000000
|   3296: 30 1c 02 04 01 02 04 01 02 04 01 01 36 01 02 04   0...........6...
|   3312: 01 02 04 01 02 04 01 06 62 69 6e 61 72 79 03 06   ........binary..
|   3328: 01 02 02 03 06 01 02 02 03 06 01 02 02 03 06 01   ................
|   3344: 02 02 03 06 01 02 02 03 06 01 02 02 03 06 01 02   ................
|   3360: 02 03 06 01 02 02 03 06 01 02 02 03 06 01 02 02   ................
|   3376: 03 06 01 02 02 03 06 01 02 02 01 05 63 6c 61 6e   ............clan
|   3392: 67 01 02 03 01 02 03 01 02 03 02 07 6f 6d 70 69   g...........ompi
|   3408: 6c 65 72 01 02 02 01 02 02 01 02 02 01 06 64 62   ler...........db
|   3424: 73 74 61 74 07 02 03 01 02 03 01 02 03 02 04 65   stat...........e
|   3440: 62 75 67 04 02 02 01 02 02 01 02 02 01 06 65 6e   bug...........en
|   3456: 61 62 6c 65 07 02 02 01 02 02 01 02 02 01 02 02   able............
|   3472: 01 02 02 01 02 02 01 02 02 01 02 02 01 02 02 01   ................
|   3488: 02 02 01 02 02 01 02 02 01 02 02 01 02 02 01 02   ................
|   3504: 02 01 02 02 01 02 02 01 02 02 01 02 02 01 02 02   ................
|   3520: 01 02 02 02 08 78 74 65 6e 73 69 6f 6e 1f 02 04   .....xtension...
|   3536: 01 02 04 01 02 04 01 04 66 74 73 34 0a 02 03 03   ........fts4....
|   3552: 01 02 01 02 03 04 01 35 0d 02 03 01 02 03 01 02   .......5........
|   3568: 03 01 07 67 65 6f 70 6f 6c 79 10 02 03 01 02 03   ...geopoly......
|   3584: 01 02 03 01 05 6a 73 6f 6e 31 13 02 03 01 02 03   .....json1......
|   3600: 01 02 03 01 04 6c 6f 61 64 1f 02 03 01 02 03 01   .....load.......
|   3616: 02 03 01 03 6d 61 78 1c 02 02 01 02 02 01 02 02   ....max.........
|   3632: 02 05 65 6d 6f 72 79 1c 02 03 01 02 03 01 02 03   ..emory.........
|   3648: 04 04 73 79 73 35 16 02 03 01 02 03 01 02 03 01   ..sys5..........
|   3664: 06 6e 6f 63 61 73 65 02 06 01 02 02 03 06 01 02   .nocase.........
|   3680: 02 03 06 01 02 02 03 06 01 02 02 03 06 01 02 02   ................
|   3696: 03 06 01 02 02 03 06 01 02 02 03 06 01 02 02 03   ................
|   3712: 06 01 02 02 03 06 01 02 02 03 06 01 12 02 03 06   ................
|   3728: 01 02 02 01 04 6f 6d 69 74 1f 02 02 01 02 02 01   .....omit.......
|   3744: 02 02 01 05 72 74 72 65 65 19 02 03 01 02 03 01   ....rtree.......
|   3760: 02 03 04 02 69 6d 01 06 01 02 02 03 06 01 02 02   ....im..........
|   3776: 03 06 01 02 02 03 06 01 02 02 03 06 01 02 02 03   ................
|   3792: 06 01 02 02 03 06 01 02 02 03 06 01 02 02 03 06   ................
|   3808: 01 02 02 03 06 01 02 02 03 06 01 02 02 03 06 01   ................
|   3824: 02 02 01 0a 74 68 72 65 61 64 73 61 66 65 22 02   ....threadsafe..
|   3840: 02 01 02 02 01 02 02 01 04 76 74 61 62 07 02 04   .........vtab...
|   3856: 01 02 04 01 02 04 01 01 78 01 06 01 01 02 01 06   ........x.......
|   3872: 01 01 02 01 06 01 01 02 01 06 01 01 02 01 06 01   ................
|   3888: 01 02 01 06 01 01 02 01 06 01 01 02 01 06 01 01   ................
|   3904: 02 01 06 01 01 02 01 06 01 01 02 01 06 01 01 02   ................
|   3920: 01 06 01 01 02 01 06 01 01 02 01 06 01 01 02 01   ................
|   3936: 06 01 01 02 01 06 01 01 02 01 06 01 01 02 01 06   ................
|   3952: 01 01 02 01 06 01 01 02 01 06 01 01 02 01 06 01   ................
|   3968: 01 02 01 06 01 01 02 01 06 01 01 02 01 06 01 01   ................
|   3984: 02 01 06 01 01 02 01 06 01 01 02 01 06 01 01 02   ................
|   4000: 01 06 01 01 02 01 06 01 01 02 01 06 01 01 02 01   ................
|   4016: 06 01 01 02 01 06 01 01 02 01 06 01 01 02 01 06   ................
|   4032: 01 01 02 01 06 01 01 02 01 06 01 01 02 04 18 13   ................
|   4048: 0c 44 10 12 11 0f 47 13 0f 0c 12 10 0f 0e 10 0f   .D....G.........
|   4064: 44 0f 10 40 15 0f 07 01 03 00 14 24 57 24 24 0f   D..@.......$W$$.
|   4080: 0a 03 00 24 00 00 00 00 01 01 01 00 01 01 01 01   ...$............
| page 4 offset 12288
|      0: 0a 00 00 00 01 0f fa 00 0f fa 00 00 00 00 00 00   ................
|   4080: 00 00 00 00 00 00 00 00 00 00 05 04 09 0c 01 02   ................
| page 5 offset 16384
|      0: 0d 00 00 00 24 0c 1f 00 0f df 0f bd 0f 9b 0f 89   ....$...........
|     16: 0f 76 0f 63 0f 44 0f 24 0f 04 0e ec 0e d3 0e ba   .v.c.D.$........
|     32: 0e a2 0e 89 0e 70 e5 50 e3 90 e1 d0 e0 40 de a0   .....p.P.....@..
|     48: dd 00 db 50 d9 90 d7 ea ca ea be d0 d6 40 d4 a0   ...P.........@..
|     64: d3 00 d1 00 ce f0 cc e0 ca e0 c8 d0 c6 c0 c5 30   ...............0
|     80: c3 90 c1 00 00 00 00 00 00 00 00 00 00 00 00 00   ................
|   3088: 00 00 00 00 00 00 00 00 00 00 00 00 00 00 00 18   ................
|   3104: 24 05 00 25 0f 19 54 48 52 45 41 44 53 41 46 45   $..%..THREADSAFE
|   3120: 3d 30 58 42 49 4e 41 52 59 18 23 05 00 25 0f 19   =0XBINARY.#..%..
|   3136: 54 48 52 45 41 44 53 41 46 45 3d 30 58 4e 4f 43   THREADSAFE=0XNOC
|   3152: 41 53 45 17 22 05 00 25 0f 17 54 48 52 45 41 44   ASE....%..THREAD
|   3168: 53 41 46 45 3d 30 05 00 33 0f 19 4f 4d 49 54 20   SAFE=0..3..OMIT 
|   3184: 4c 4f 41 44 20 45 58 54 45 4e 53 49 4f 4e 58 42   LOAD EXTENSIONXB
|   3200: 49 4e 41 52 59 1f 20 05 00 33 0f 19 4f 4d 49 54   INARY. ..3..OMIT
|   3216: 20 4c 4f 41 44 20 45 58 54 45 4e 53 49 4f 4e 58    LOAD EXTENSIONX
|   3232: 4e 4f 43 41 53 45 1e 1f 05 00 33 0f 17 4f 4d 49   NOCASE....3..OMI
|   3248: 54 20 4c f4 14 42 04 55 85 44 54 e5 34 94 f4 e5   T L..B.U.DT.4...
|   3264: 85 25 45 24 94 d1 f1 e0 50 03 30 f1 94 d4 15 82   .%E$....P.0.....
|   3280: 04 d4 54 d4 f5 25 93 d3 53 03 03 03 03 03 03 05   ..T..%..S.......
|   3296: 84 24 94 e4 15 25 91 f1 d0 50 03 30 f1 94 d4 15   .$...%...P.0....
|   3312: 82 04 d4 54 d4 f5 25 93 d3 53 03 03 03 03 03 03   ...T..%..S......
|   3328: 05 84 e4 f4 34 15 34 51 e1 c0 50 03 30 f1 74 d4   ....4.4Q..P.0.t.
|   3344: 15 82 04 d4 54 d4 f2 90 f1 74 54 e4 14 24 c4 52   ....T....tT..$.R
|   3360: 04 74 54 f5 04 f4 c5 95 85 25 45 24 94 d1 70 f0   .tT......%E$..p.
|   3376: 50 02 30 f1 94 54 e4 14 24 c4 52 04 65 45 33 55   P.0..T..$.R.eE3U
|   3392: 84 24 94 e4 15 25 91 70 e0 50 02 30 f1 94 54 e4   .$...%.p.P.0..T.
|   3408: 14 24 c4 52 04 65 45 33 55 84 e4 f4 34 15 34 51   .$.R.eE3U...4.4Q
|   3424: 60 d0 50 02 30 f1 74 54 e4 14 24 c4 52 04 65 45   `.P.0.tT..$.R.eE
|   3440: 33 55 85 25 45 24 94 d1 70 c0 50 02 30 f1 94 54   3U.%E$..p.P.0..T
|   3456: e4 14 24 c4 52 04 65 45 33 45 84 24 94 e4 15 25   ..$.R.eE3E.$...%
|   3472: 91 70 b0 50 02 30 f1 94 54 e4 14 24 c4 52 04 65   .p.P.0..T..$.R.e
|   3488: 45 33 45 84 e4 f4 34 15 34 51 60 a0 74 54 e4 14   E3E...4.4Q`.tT..
|   3504: 24 c4 52 04 65 45 33 45 85 25 45 24 94 d1 e0 90   $.R.eE3E.%E$....
|   3520: 50 03 10 f1 94 54 e4 14 24 c4 52 04 44 25 35 44   P....T..$.R.D%5D
|   3536: 15 42 05 65 44 14 25 84 24 94 e4 15 25 91 e0 80   .B.eD.%.$...%...
|   3552: 50 03 10 f1 94 54 e4 14 24 c4 52 04 44 25 35 44   P....T..$.R.D%5D
|   3568: 15 42 05 65 44 14 25 84 e4 f4 34 15 34 51 d0 70   .B.eD.%...4.4Q.p
|   3584: 50 03 10 f1 74 54 e4 14 24 c4 52 04 44 25 35 44   P...tT..$.R.D%5D
|   3600: 15 42 05 65 44 14 25 85 25 45 24 94 d1 10 60 50   .B.eD.%.%E$...`P
|   3616: 01 70 f1 94 44 54 25 54 75 84 24 94 e4 15 25 91   .p..DT%Tu.$...%.
|   3632: 10 50 50 01 70 f1 94 44 54 25 54 75 84 e4 f4 34   .PP.p..DT%Tu...4
|   3648: 15 34 51 00 40 50 01 70 f1 74 44 54 25 54 75 85   .4Q.@P.p.tDT%Tu.
|   3664: 25 45 24 94 d2 00 30 50 03 50 f1 94 34 f4 d5 04   %E$...0P.P..4...
|   3680: 94 c4 55 23 d6 36 c6 16 e6 72 d3 62 e3 02 e3 05   ..U#.6...r.b....
|   3696: 84 24 94 e4 15 25 92 00 20 50 03 50 f1 94 34 f4   .$...%.. P.P..4.
|   3712: d5 04 94 c4 55 23 d6 36 c6 16 e6 72 d3 62 e3 02   ....U#.6...r.b..
|   3728: e3 05 84 e4 f4 34 15 34 51 f0 10 50 03 50 f1 74   .....4.4Q..P.P.t
|   3744: 34 f4 d5 04 94 c4 55 23 d6 36 c6 16 e6 72 d3 62   4.....U#.6...r.b
|   3760: e3 02 e3 05 85 25 45 24 94 d0 d0 00 00 02 40 ee   .....%E$......@.
|   3776: 00 00 ff 80 ff 00 fe 80 fe 00 fd 80 fd 00 fc 80   ................
|   3792: fc 00 fb 80 fb 00 fa 80 fa 00 f9 80 f9 00 f8 80   ................
|   3808: f8 00 f7 80 f7 00 f6 80 f6 00 f5 80 f5 00 f4 80   ................
|   3824: f4 00 f3 80 f3 00 f2 80 f2 00 f1 80 f1 00 f0 80   ................
|   3840: f0 00 ef 80 ef 00 ee 80 ee 00 00 00 00 00 00 00   ................
| page 6 offset 20480
|   3808: 06 24 03 00 12 02 01 01 06 23 03 00 12 02 01 01   .$.......#......
|   3824: 06 22 03 00 12 02 01 01 06 21 03 00 12 03 01 01   .........!......
|   3840: 06 20 03 00 12 03 01 01 06 1f 03 00 12 03 01 01   . ..............
|   3856: 06 1e 03 00 12 03 01 01 06 1d 03 00 12 03 01 01   ................
|   3872: 06 1c 03 00 12 03 01 01 06 1b 03 00 12 02 01 01   ................
|   3888: 06 1a 03 00 12 02 01 01 06 19 03 00 12 02 01 01   ................
|   3904: 06 18 03 00 12 02 01 01 06 17 03 00 12 02 01 01   ................
|   3920: 06 16 03 00 12 02 01 01 06 15 03 00 12 02 01 01   ................
|   3936: 06 14 03 00 12 02 01 01 06 13 03 00 12 02 01 01   ................
|   3952: 06 12 03 00 12 02 01 01 06 11 03 00 12 02 01 01   ................
|   3968: 06 10 03 00 12 02 01 01 06 0f 03 00 12 02 01 01   ................
|   3984: 06 0e 03 00 12 02 01 01 06 0d 03 00 12 02 01 01   ................
|   4000: 06 0c 03 00 12 02 01 01 06 0b 03 00 12 02 01 01   ................
|   4016: 06 0a 03 00 12 02 01 01 06 09 03 00 12 03 01 01   ................
|   4032: 06 08 03 00 12 03 01 01 06 07 03 00 12 03 01 01   ................
|   4048: 06 06 03 00 12 01 01 01 06 05 03 00 12 01 01 01   ................
|   4064: 06 04 03 00 12 01 01 01 06 03 03 00 12 05 01 01   ................
|   4080: 06 02 03 00 12 05 01 01 06 01 03 00 12 05 01 01   ................
| page 7 offset 24576
|      0: 0a 00 00 00 01 0f f4 00 0f f4 00 00 00 00 00 00   ................
|   4080: 00 00 00 00 0b 03 1b 01 76 65 72 73 69 6f 6e 04   ........version.
| end crash-e114c036e13dde.db
}]} {}

do_catchsql_test 29.1 {
  CREATE VIRTUAL TABLE t3 USING fts5vocab('t1','col');
} {0 {}}
do_catchsql_test 29.2 {
  SELECT rowid, quote(term), * FROM t3 WHERE term=='nocase';
} {1 {database disk image is malformed}}

#-------------------------------------------------------------------------
reset_db
do_test 30.0 {
  sqlite3 db {}
  db deserialize [decode_hexdb {
| size 40960 pagesize 4096 filename crash-eef41e30b388a0.db
| page 1 offset 0
|      0: 53 51 4c 69 74 65 20 66 6f 72 6d 61 74 20 33 00   SQLite format 3.
|     16: 10 00 01 01 00 40 20 20 00 00 00 00 00 00 00 0a   .....@  ........
|     32: 00 00 00 00 00 00 00 00 00 00 00 0d 00 00 00 04   ................
|     48: 00 00 00 00 00 00 00 00 00 00 00 01 00 00 00 00   ................
|     96: 00 00 00 00 0d 00 00 00 0d 0b 6e 00 0f a3 0f 4c   ..........n....L
|    112: 0e e1 0e 81 0e 24 0d cc 0d 72 0d 1b 0c b0 0c 50   .....$...r.....P
|    128: 0b f8 0b b3 0b 6e 00 00 00 00 00 00 00 00 00 00   .....n..........
|   2912: 00 00 00 00 00 00 00 00 00 00 00 00 00 00 43 0d   ..............C.
|   2928: 06 17 11 11 08 75 74 61 62 6c 65 74 34 74 34 43   .....utablet4t4C
|   2944: 52 45 41 54 45 20 56 49 52 54 55 41 4c 20 54 41   REATE VIRTUAL TA
|   2960: 42 4c 45 20 74 34 20 55 53 49 4e 47 20 66 74 73   BLE t4 USING fts
|   2976: 35 76 6f 63 61 62 28 27 74 32 27 2c 20 27 72 6f   5vocab('t2', 'ro
|   2992: 77 27 29 43 0c 06 17 11 11 08 75 74 61 62 6c 65   w')C......utable
|   3008: 74 33 74 33 43 52 45 41 54 45 20 56 49 52 54 55   t3t3CREATE VIRTU
|   3024: 41 4c 20 54 41 42 4c 45 20 74 33 20 55 53 49 4e   AL TABLE t3 USIN
|   3040: 47 20 66 74 73 35 76 6f 63 61 62 28 27 74 31 27   G fts5vocab('t1'
|   3056: 2c 20 27 72 6f 77 27 29 56 0b 06 17 1f 1f 01 7d   , 'row')V.......
|   3072: 74 61 62 6c 65 74 32 5f 63 6f 6e 66 69 67 74 32   tablet2_configt2
|   3088: 5f 63 6f 6e 66 69 67 0a 43 52 45 41 54 45 20 54   _config.CREATE T
|   3104: 41 42 4c 45 20 27 74 32 5f 63 6f 6e 66 69 67 27   ABLE 't2_config'
|   3120: 28 6b 20 50 52 49 4d 41 52 59 20 4b 45 59 2c 20   (k PRIMARY KEY, 
|   3136: 76 29 20 57 49 54 48 4f 55 54 20 52 4f 57 49 44   v) WITHOUT ROWID
|   3152: 5e 0a 07 17 21 21 01 81 07 74 61 62 6c 65 74 32   ^...!!...tablet2
|   3168: 5f 63 6f 6e 74 65 6e 74 74 32 5f 63 6f 6e 74 65   _contentt2_conte
|   3184: 6e 74 09 43 52 45 41 54 45 20 54 41 42 4c 45 20   nt.CREATE TABLE 
|   3200: 27 74 32 5f 63 6f 6e 74 65 6e 74 27 28 69 64 20   't2_content'(id 
|   3216: 49 4e 54 45 47 45 52 20 50 52 49 4d 41 52 59 20   INTEGER PRIMARY 
|   3232: 4b 45 59 2c 20 63 30 2c 20 63 31 2c 20 63 32 29   KEY, c0, c1, c2)
|   3248: 69 09 07 17 19 19 01 81 2d 74 61 62 6c 65 74 32   i.......-tablet2
|   3264: 5f 69 64 78 74 32 5f 69 64 78 08 43 52 45 41 54   _idxt2_idx.CREAT
|   3280: 45 20 54 41 42 4c 45 20 27 74 32 5f 69 64 78 27   E TABLE 't2_idx'
|   3296: 28 73 65 67 69 64 2c 20 74 65 72 6d 2c 20 70 67   (segid, term, pg
|   3312: 6e 6f 2c 20 50 52 49 4d 41 52 59 20 4b 45 59 28   no, PRIMARY KEY(
|   3328: 73 65 67 69 64 2c 20 74 65 72 6d 29 29 20 57 49   segid, term)) WI
|   3344: 54 48 4f 55 54 20 52 4f 57 49 44 55 08 07 17 1b   THOUT ROWIDU....
|   3360: 1b 01 81 01 74 61 62 6c 65 74 32 5f 64 61 74 61   ....tablet2_data
|   3376: 74 32 5f 64 61 74 61 07 43 52 45 41 54 45 20 54   t2_data.CREATE T
|   3392: 41 42 4c 45 20 27 74 32 5f 64 61 74 61 27 28 69   ABLE 't2_data'(i
|   3408: 64 20 49 4e 54 45 47 45 52 20 50 52 49 4d 41 52   d INTEGER PRIMAR
|   3424: 59 20 4b 45 59 2c 20 62 6c 6f 63 6b 20 42 4c 4f   Y KEY, block BLO
|   3440: 42 29 58 07 07 17 11 11 08 81 1d 74 61 62 6c 65   B)X........table
|   3456: 74 32 74 32 43 52 45 41 54 45 20 56 49 52 54 55   t2t2CREATE VIRTU
|   3472: 41 4c 20 54 41 42 4c 45 20 74 32 20 55 53 49 4e   AL TABLE t2 USIN
|   3488: 47 20 66 74 73 35 28 27 61 27 2c 5b 62 5d 2c 22   G fts5('a',[b],.
|   3504: 63 22 2c 64 65 74 61 69 6c 3d 6e 6f 6e 65 2c 63   c.,detail=none,c
|   3520: 6f 6c 75 6d 6e 73 69 7a 65 3d 30 29 56 06 06 17   olumnsize=0)V...
|   3536: 1f 1f 01 7d 74 61 62 6c 65 74 31 5f 63 6f 6e 66   ....tablet1_conf
|   3552: 69 67 74 31 5f 63 6f 6e 66 69 67 06 43 52 45 41   igt1_config.CREA
|   3568: 54 45 20 54 41 42 4c 45 20 27 74 31 5f 63 6f 6e   TE TABLE 't1_con
|   3584: 66 69 67 27 28 6b 20 50 52 49 4d 41 52 59 20 4b   fig'(k PRIMARY K
|   3600: 45 59 2c 20 76 29 20 57 49 54 48 4f 55 54 20 52   EY, v) WITHOUT R
|   3616: 4f 57 49 44 5b 05 07 17 21 21 01 81 01 74 61 62   OWID[...!!...tab
|   3632: 6c 65 74 31 5f 64 6f 63 73 69 7a 65 74 31 5f 64   let1_docsizet1_d
|   3648: 6f 63 73 69 7a 65 05 43 52 45 41 54 45 20 54 41   ocsize.CREATE TA
|   3664: 42 4c 45 20 27 74 31 5f 64 6f 63 73 69 7a 65 27   BLE 't1_docsize'
|   3680: 28 69 64 20 49 4e 54 45 47 45 52 20 50 52 49 4d   (id INTEGER PRIM
|   3696: 41 52 59 20 4b 45 59 2c 20 73 7a 20 42 4c 4f 42   ARY KEY, sz BLOB
|   3712: 29 5e 04 07 17 21 21 01 81 07 74 61 62 6c 65 74   )^...!!...tablet
|   3728: 31 5f 63 6f 6e 74 65 6e 74 74 31 5f 63 6f 6e 74   1_contentt1_cont
|   3744: 65 6e 74 04 43 52 45 41 54 45 20 54 41 42 4c 45   ent.CREATE TABLE
|   3760: 20 27 74 31 5f 63 6f 6e 74 65 6e 74 27 28 69 64    't1_content'(id
|   3776: 20 49 4e 54 45 47 45 52 20 50 52 49 4d 41 52 59    INTEGER PRIMARY
|   3792: 20 4b 45 59 2c 20 63 30 2c 20 63 31 2c 20 63 32    KEY, c0, c1, c2
|   3808: 29 69 03 07 17 19 19 01 81 2d 74 61 62 6c 65 74   )i.......-tablet
|   3824: 31 5f 69 64 78 74 31 5f 69 64 78 03 43 52 45 41   1_idxt1_idx.CREA
|   3840: 54 45 20 54 41 42 4c 45 20 27 74 31 5f 69 64 78   TE TABLE 't1_idx
|   3856: 27 28 73 65 67 69 64 2c 20 74 65 72 6d 2c 20 70   '(segid, term, p
|   3872: 67 6e 6f 2c 20 50 52 49 4d 41 52 59 20 4b 45 59   gno, PRIMARY KEY
|   3888: 28 73 65 67 69 64 2c 20 74 65 72 6d 29 29 20 57   (segid, term)) W
|   3904: 49 54 48 4f 55 54 20 52 4f 57 49 44 55 02 07 17   ITHOUT ROWIDU...
|   3920: 1b 1b 01 81 01 74 61 62 6c 65 74 31 5f 64 61 74   .....tablet1_dat
|   3936: 61 74 31 5f 64 61 74 61 02 43 52 45 41 54 45 20   at1_data.CREATE 
|   3952: 54 41 42 4c 45 20 27 74 31 5f 64 61 74 61 27 28   TABLE 't1_data'(
|   3968: 69 64 20 49 4e 54 45 47 45 52 20 50 52 49 4d 41   id INTEGER PRIMA
|   3984: 52 59 20 4b 45 59 2c 20 62 6c 6f 63 6b 20 42 4c   RY KEY, block BL
|   4000: 4f 42 29 5b 01 07 17 11 11 08 81 23 74 61 62 6c   OB)[.......#tabl
|   4016: 65 74 31 74 31 43 52 45 41 54 45 20 56 49 52 54   et1t1CREATE VIRT
|   4032: 55 41 4c 20 54 41 42 4c 45 20 74 31 20 55 53 49   UAL TABLE t1 USI
|   4048: 4e 47 20 66 74 73 35 28 61 2c 62 20 75 6e 69 6e   NG fts5(a,b unin
|   4064: 64 65 78 65 64 2c 63 2c 74 6f 6b 65 6e 69 7a 65   dexed,c,tokenize
|   4080: 3d 22 70 6f 72 74 65 72 20 61 73 63 69 69 22 29   =.porter ascii.)
| page 2 offset 4096
|      0: 0d 0f 68 00 05 0f 13 00 0f e6 0f 13 0f a8 0f 7c   ..h............|
|     16: 0f 2a 00 00 00 00 00 00 00 00 00 00 00 00 00 00   .*..............
|   3856: 00 00 00 15 0a 03 00 30 00 00 00 00 01 03 03 00   .......0........
|   3872: 03 01 01 01 02 01 01 03 01 01 37 8c 80 80 80 80   ..........7.....
|   3888: 01 03 00 74 00 00 00 2e 02 30 61 03 02 02 01 01   ...t.....0a.....
|   3904: 62 03 02 03 01 01 63 03 02 04 01 01 67 03 06 01   b.....c.....g...
|   3920: 02 02 01 01 68 03 06 01 02 03 01 01 69 03 06 01   ....h.......i...
|   3936: 02 04 00 00 66 46 08 08 0f ef 00 14 2a 00 00 00   ....fF......*...
|   3952: 00 01 02 02 00 02 01 01 01 02 01 01 25 88 80 80   ............%...
|   3968: 80 80 01 03 00 50 00 00 00 1f 02 30 67 02 08 02   .....P.....0g...
|   3984: 01 02 02 01 01 68 02 08 03 01 02 03 01 01 69 02   .....h........i.
|   4000: 08 04 01 02 04 04 09 09 37 84 80 80 80 80 01 03   ........7.......
|   4016: 00 74 00 00 00 2e 02 30 61 01 02 02 01 01 62 01   .t.....0a.....b.
|   4032: 02 03 01 01 63 01 02 04 01 01 67 01 06 01 02 02   ....c.....g.....
|   4048: 01 01 68 01 06 01 02 03 01 01 69 01 06 01 02 04   ..h.......i.....
|   4064: 04 06 06 06 08 08 07 01 03 00 14 03 09 00 09 00   ................
|   4080: 00 00 11 24 00 00 00 00 01 01 01 00 01 01 01 01   ...$............
| page 3 offset 8192
|      0: 0a 00 00 00 03 0f ec 00 0f fa 0f f3 0f ec 00 00   ................
|   4064: 00 00 00 00 00 00 00 00 00 00 00 00 06 04 01 0c   ................
|   4080: 01 03 02 06 04 01 0c 01 02 02 05 04 09 0c 01 02   ................
| page 4 offset 12288
|      0: 0d 00 00 00 03 0f be 00 0f ea 0f d4 0f be 00 00   ................
|   4016: 00 00 00 00 00 00 00 00 00 00 00 00 00 00 14 03   ................
|   4032: 05 00 17 17 17 61 20 62 20 63 67 20 68 20 69 67   .....a b cg h ig
|   4048: 20 68 20 69 14 02 05 00 17 17 17 67 20 68 20 69    h i.......g h i
|   4064: 61 20 62 20 63 67 20 68 20 69 14 01 05 00 17 17   a b cg h i......
|   4080: 17 61 20 62 20 63 64 20 52 06 66 72 06 82 06 90   .a b cd R.fr....
| page 5 offset 16384
|      0: d0 00 00 00 30 fe 80 00 ff 80 ff 00 fe 00 00 00   ....0...........
|   4064: 00 00 00 00 00 00 00 00 06 03 03 00 12 03 00 03   ................
|   4080: 06 02 03 00 12 03 00 03 06 01 03 00 12 03 00 03   ................
| page 6 offset 20480
|      0: 0a 00 00 00 01 0f f4 00 0f f4 00 00 00 00 00 00   ................
|   4080: 00 00 00 00 0b 03 1b 01 76 65 72 73 69 6f 6e 04   ........version.
| page 7 offset 24576
|      0: 0d 00 00 00 03 0f 9e 00 0f e6 0f ef 0f 9e 00 00   ................
|   3984: 00 00 00 00 00 00 00 00 00 00 00 00 00 00 41 84   ..............A.
|   4000: 80 80 80 80 01 04 00 81 06 00 00 00 34 02 30 61   ............4.0a
|   4016: 01 01 01 01 01 62 01 01 01 01 01 63 01 01 01 01   .....b.....c....
|   4032: 01 64 01 01 01 65 01 01 01 66 01 01 01 67 01 01   .d...e...f...g..
|   4048: 01 01 01 68 01 01 01 01 01 69 01 01 01 04 06 06   ...h.....i......
|   4064: 06 04 04 04 06 06 07 01 03 00 14 03 09 09 09 0f   ................
|   4080: 0a 03 00 24 00 00 00 00 01 01 01 00 01 01 01 01   ...$............
| page 8 offset 28672
|      0: 0a 00 00 00 01 0f fa 00 0f fa 00 00 00 00 00 00   ................
|   4080: 00 00 00 00 00 00 00 00 00 00 05 04 09 0c 01 02   ................
| page 9 offset 32768
|      0: 0d 00 00 00 03 0f be 00 0f ea 0f d4 0f be 00 00   ................
|   4016: 00 00 00 00 00 00 00 00 00 00 00 00 00 00 14 03   ................
|   4032: 05 00 17 17 17 61 20 62 20 63 67 20 68 20 69 67   .....a b cg h ig
|   4048: 20 68 20 69 14 02 05 00 17 17 17 67 20 68 20 69    h i.......g h i
|   4064: 61 20 62 20 63 67 20 68 20 69 14 01 05 00 17 17   a b cg h i......
|   4080: 17 61 20 62 20 63 64 20 65 20 66 67 20 68 20 69   .a b cd e fg h i
| page 10 offset 36864
|      0: 0a 00 00 00 01 0f f4 00 0f f4 00 00 00 00 00 00   ................
|   4080: 00 00 00 00 0b 03 1b 01 76 65 72 73 69 6f 6e 04   ........version.
| end crash-eef41e30b388a0.db
}]} {}

do_catchsql_test 30.1 {
  SELECT fts5_decode(id, block) FROM t1_data;
} {1 {database disk image is malformed}}

#-------------------------------------------------------------------------
reset_db
do_test 31.0 {
  sqlite3 db {}
  db deserialize [decode_hexdb {
| size 8192 pagesize 4096 filename crash-7629f35f11d48e.db
| page 1 offset 0
|      0: 53 51 4c 69 74 65 20 66 6f 72 6d 61 74 20 33 00   SQLite format 3.
|     16: 10 00 01 01 00 40 20 20 00 00 00 00 00 00 00 02   .....@  ........
|     32: 00 00 00 00 00 00 00 00 00 00 00 01 00 00 00 04   ................
|     48: 00 00 00 00 00 00 00 00 00 00 00 01 00 00 00 00   ................
|     96: 00 00 00 00 0d 00 00 00 01 0f c7 00 0f c7 00 00   ................
|   4032: 00 00 00 00 00 00 00 37 01 06 17 15 15 01 53 74   .......7......St
|   4048: 61 62 6c 65 64 75 61 6c 64 75 61 6c 02 43 52 45   abledualdual.CRE
|   4064: 41 54 45 20 54 41 42 4c 45 20 64 75 61 6c 28 64   ATE TABLE dual(d
|   4080: 75 6d 6d 79 20 76 61 72 28 31 29 29 0d 00 00 00   ummy var(1))....
| page 2 offset 4096
|      0: 01 0f fb 00 0f fb 00 00 00 00 00 00 00 00 00 00   ................
|   4080: 00 00 00 00 00 00 00 00 00 00 00 03 01 02 0f 58   ...............X
| end crash-7629f35f11d48e.db
}]} {}

do_execsql_test 31.1 {
  CREATE VIRTUAL TABLE t1 USING fts5(a,b,c);
  WITH RECURSIVE c(x) AS (VALUES(1) UNION ALL SELECT x+1 FROM c WHERE x<72)
    INSERT INTO t1(a) SELECT randomblob(2829) FROM c;
  WITH RECURSIVE c(x) AS (VALUES(1) UNION ALL SELECT x+1 FROM c WHERE x<10)
    INSERT INTO t1(a) SELECT randomblob(3000) FROM c;
}

do_catchsql_test 31.2 {
  DELETE FROM t1 WHERE a MATCH X'6620e574f32a';
} {0 {}}

#-------------------------------------------------------------------------
reset_db
do_test 32.0 {
  sqlite3 db {}
  db deserialize [decode_hexdb {
| size 40960 pagesize 4096 filename crash-e2d47e0624a42c.db
| page 1 offset 0
|      0: 53 51 4c 69 74 65 20 66 6f 72 6d 61 74 20 33 00   SQLite format 3.
|     16: 10 00 01 01 00 40 20 20 00 00 00 00 00 00 00 0a   .....@  ........
|     32: 00 00 00 00 00 00 00 00 00 00 00 0d 00 00 00 04   ................
|     48: 00 00 00 00 00 00 00 00 00 00 00 01 00 00 00 00   ................
|     96: 00 00 00 00 0d 00 00 00 0d 0b 6e 00 0f a3 0f 4c   ..........n....L
|    112: 0e e1 0e 81 0e 24 0d cc 0d 72 0d 1b 0c b0 0c 50   .....$...r.....P
|    128: 0b f8 0b b3 0b 6e 00 00 00 00 00 00 00 00 00 00   .....n..........
|   2912: 00 00 00 00 00 00 00 00 00 00 00 00 00 00 43 0d   ..............C.
|   2928: 06 17 11 11 08 75 74 61 62 6c 65 74 34 74 34 43   .....utablet4t4C
|   2944: 52 45 41 54 45 20 56 49 52 54 55 41 4c 20 54 41   REATE VIRTUAL TA
|   2960: 42 4c 45 20 74 34 20 55 53 49 4e 47 20 66 74 73   BLE t4 USING fts
|   2976: 35 76 6f 63 61 62 28 27 74 32 27 2c 20 27 72 6f   5vocab('t2', 'ro
|   2992: 77 27 29 43 0c 06 17 11 11 08 75 74 61 62 6c 65   w')C......utable
|   3008: 74 33 74 33 43 52 45 41 54 45 20 56 49 52 54 55   t3t3CREATE VIRTU
|   3024: 41 4c 20 54 41 42 4c 45 20 74 33 20 55 53 49 4e   AL TABLE t3 USIN
|   3040: 47 20 66 74 73 35 76 6f 63 61 62 28 27 74 31 27   G fts5vocab('t1'
|   3056: 2c 20 27 72 6f 77 27 29 56 0b 06 17 1f 1f 01 7d   , 'row')V.......
|   3072: 74 61 62 6c 65 74 32 5f 63 6f 6e 66 69 67 74 32   tablet2_configt2
|   3088: 5f 63 6f 6e 66 69 67 0a 43 52 45 41 54 45 20 54   _config.CREATE T
|   3104: 41 42 4c 45 20 27 74 32 5f 63 6f 6e 66 69 67 27   ABLE 't2_config'
|   3120: 28 6b 20 50 52 49 4d 41 52 59 20 4b 45 59 2c 20   (k PRIMARY KEY, 
|   3136: 76 29 20 57 49 54 48 4f 55 54 20 52 4f 57 49 44   v) WITHOUT ROWID
|   3152: 5e 0a 07 17 21 21 01 81 07 74 61 62 6c 65 74 32   ^...!!...tablet2
|   3168: 5f 63 6f 6e 74 65 6e 74 74 32 5f 63 6f 6e 74 65   _contentt2_conte
|   3184: 6e 74 09 43 52 45 41 54 45 20 54 41 42 4c 45 20   nt.CREATE TABLE 
|   3200: 27 74 32 5f 63 6f 6e 74 65 6e 74 27 28 69 64 20   't2_content'(id 
|   3216: 49 4e 54 45 47 45 52 20 50 52 49 4d 41 52 59 20   INTEGER PRIMARY 
|   3232: 4b 45 59 2c 20 63 30 2c 20 63 31 2c 20 63 32 29   KEY, c0, c1, c2)
|   3248: 69 09 07 17 19 19 01 81 2d 74 61 62 6c 65 74 32   i.......-tablet2
|   3264: 5f 69 64 78 74 32 5f 69 64 78 08 43 52 45 41 54   _idxt2_idx.CREAT
|   3280: 45 20 54 41 42 4c 45 20 27 74 32 5f 69 64 78 27   E TABLE 't2_idx'
|   3296: 28 73 65 67 69 64 2c 20 74 65 72 6d 2c 20 70 67   (segid, term, pg
|   3312: 6e 6f 2c 20 50 52 49 4d 41 52 59 20 4b 45 59 28   no, PRIMARY KEY(
|   3328: 73 65 67 69 64 2c 20 74 65 72 6d 29 29 20 57 49   segid, term)) WI
|   3344: 54 48 4f 55 54 20 52 4f 57 49 44 55 08 07 17 1b   THOUT ROWIDU....
|   3360: 1b 01 81 01 74 61 62 6c 65 74 32 5f 64 61 74 61   ....tablet2_data
|   3376: 74 32 5f 64 61 74 61 07 43 52 45 41 54 45 20 54   t2_data.CREATE T
|   3392: 41 42 4c 45 20 27 74 32 5f 64 61 74 61 27 28 69   ABLE 't2_data'(i
|   3408: 64 20 49 4e 54 45 47 45 52 20 50 52 49 4d 41 52   d INTEGER PRIMAR
|   3424: 59 20 4b 45 59 2c 20 62 6c 6f 63 6b 20 42 4c 4f   Y KEY, block BLO
|   3440: 42 29 58 07 07 17 11 11 08 81 1d 74 61 62 6c 65   B)X........table
|   3456: 74 32 74 32 43 52 45 41 54 45 20 56 49 52 54 55   t2t2CREATE VIRTU
|   3472: 41 4c 20 54 41 42 4c 45 20 74 32 20 55 53 49 4e   AL TABLE t2 USIN
|   3488: 47 20 66 74 73 35 28 27 61 27 2c 5b 62 5d 2c 22   G fts5('a',[b],.
|   3504: 63 22 2c 64 65 74 61 69 6c 3d 6e 6f 6e 65 2c 63   c.,detail=none,c
|   3520: 6f 6c 75 6d 6e 73 69 7a 65 3d 30 29 56 06 06 17   olumnsize=0)V...
|   3536: 1f 1f 01 7d 74 61 62 6c 65 74 31 5f 63 6f 6e 66   ....tablet1_conf
|   3552: 69 67 74 31 5f 63 6f 6e 66 69 67 06 43 52 45 41   igt1_config.CREA
|   3568: 54 45 20 54 41 42 4c 45 20 27 74 31 5f 63 6f 6e   TE TABLE 't1_con
|   3584: 66 69 67 27 28 6b 20 50 52 49 4d 41 52 59 20 4b   fig'(k PRIMARY K
|   3600: 45 59 2c 20 76 29 20 57 49 54 48 4f 55 54 20 52   EY, v) WITHOUT R
|   3616: 4f 57 49 44 5b 05 07 17 21 21 01 81 01 74 61 62   OWID[...!!...tab
|   3632: 6c 65 74 31 5f 64 6f 63 73 69 7a 65 74 31 5f 64   let1_docsizet1_d
|   3648: 6f 63 73 69 7a 65 05 43 52 45 41 54 45 20 54 41   ocsize.CREATE TA
|   3664: 42 4c 45 20 27 74 31 5f 64 6f 63 73 69 7a 65 27   BLE 't1_docsize'
|   3680: 28 69 64 20 49 4e 54 45 47 45 52 20 50 52 49 4d   (id INTEGER PRIM
|   3696: 41 52 59 20 4b 45 59 2c 20 73 7a 20 42 4c 4f 42   ARY KEY, sz BLOB
|   3712: 29 5e 04 07 17 21 21 01 81 07 74 61 62 6c 65 74   )^...!!...tablet
|   3728: 31 5f 63 6f 6e 74 65 6e 74 74 31 5f 63 6f 6e 74   1_contentt1_cont
|   3744: 65 6e 74 04 43 52 45 41 54 45 20 54 41 42 4c 45   ent.CREATE TABLE
|   3760: 20 27 74 31 5f 63 6f 6e 74 65 6e 74 27 28 69 64    't1_content'(id
|   3776: 20 49 4e 54 45 47 45 52 20 50 52 49 4d 41 52 59    INTEGER PRIMARY
|   3792: 20 4b 45 59 2c 20 63 30 2c 20 63 31 2c 20 63 32    KEY, c0, c1, c2
|   3808: 29 69 03 07 17 19 19 01 81 2d 74 61 62 6c 65 74   )i.......-tablet
|   3824: 31 5f 69 64 78 74 31 5f 69 64 78 03 43 52 45 41   1_idxt1_idx.CREA
|   3840: 54 45 20 54 41 42 4c 45 20 27 74 31 5f 69 64 78   TE TABLE 't1_idx
|   3856: 27 28 73 65 67 69 64 2c 20 74 65 72 6d 2c 20 70   '(segid, term, p
|   3872: 67 6e 6f 2c 20 50 52 49 4d 41 52 59 20 4b 45 59   gno, PRIMARY KEY
|   3888: 28 73 65 67 69 64 2c 20 74 65 72 6d 29 29 20 57   (segid, term)) W
|   3904: 49 54 48 4f 55 54 20 52 4f 57 49 44 55 02 07 17   ITHOUT ROWIDU...
|   3920: 1b 1b 01 81 01 74 61 62 6c 65 74 31 5f 64 61 74   .....tablet1_dat
|   3936: 61 74 31 5f 64 61 74 61 02 43 52 45 41 54 45 20   at1_data.CREATE 
|   3952: 54 41 42 4c 45 20 27 74 31 5f 64 61 74 61 27 28   TABLE 't1_data'(
|   3968: 69 64 20 49 4e 54 45 47 45 52 20 50 52 49 4d 41   id INTEGER PRIMA
|   3984: 52 59 20 4b 45 59 2c 20 62 6c 6f 63 6b 20 42 4c   RY KEY, block BL
|   4000: 4f 42 29 5b 01 07 17 11 11 08 81 23 74 61 62 6c   OB)[.......#tabl
|   4016: 65 74 31 74 31 43 52 45 41 54 45 20 56 49 52 54   et1t1CREATE VIRT
|   4032: 55 41 4c 20 54 41 42 4c 45 20 74 31 20 55 53 49   UAL TABLE t1 USI
|   4048: 4e 47 20 66 74 73 35 28 61 2c 62 20 75 6e 69 6e   NG fts5(a,b unin
|   4064: 64 65 78 65 64 2c 63 2c 74 6f 6b 65 6e 69 7a 65   dexed,c,tokenize
|   4080: 3d 22 70 6f 72 74 65 72 20 61 73 63 69 69 22 29   =.porter ascii.)
| page 2 offset 4096
|      0: 0d 0f 68 00 05 0f 13 00 0f e6 0f 13 0f a8 0f 7c   ..h............|
|     16: 0f 2a 00 00 00 00 00 00 00 00 00 00 00 00 00 00   .*..............
|   3856: 00 00 00 15 0a 03 00 30 00 00 00 00 01 03 03 00   .......0........
|   3872: 03 01 01 01 02 01 01 03 01 01 37 8c 80 80 80 80   ..........7.....
|   3888: 01 03 00 74 00 00 00 2e 02 30 61 03 02 02 01 01   ...t.....0a.....
|   3904: 62 03 02 03 01 01 63 03 02 04 01 01 67 03 06 01   b.....c.....g...
|   3920: 02 02 01 01 68 03 06 01 02 03 01 01 69 03 06 01   ....h.......i...
|   3936: 02 04 04 06 06 06 08 08 0f ef 00 14 2a 00 00 00   ............*...
|   3952: 00 01 02 02 00 02 01 01 01 02 01 01 25 88 80 80   ............%...
|   3968: 80 80 01 03 00 50 00 00 00 1f 02 30 67 02 08 02   .....P.....0g...
|   3984: 01 02 02 01 01 68 02 08 03 01 02 03 01 01 69 02   .....h........i.
|   4000: 08 04 01 02 04 04 09 09 37 84 80 80 80 80 01 03   ........7.......
|   4016: 00 74 00 00 00 2e 02 30 61 01 02 02 01 01 62 01   .t.....0a.....b.
|   4032: 02 03 01 01 63 01 02 04 01 01 67 01 06 01 02 20   ....c.....g.... 
|   4048: 10 16 80 10 60 10 20 30 10 16 90 10 60 10 20 40   ....`. 0....`. @
|   4064: 40 60 60 60 80 80 70 10 30 01 40 30 90 00 90 00   @```..p.0.@0....
|   4080: 00 01 12 40 00 00 00 00 10 10 10 00 10 10 10 10   ...@............
| page 3 offset 8192
|      0: a0 00 00 00 30 fe c0 00 ff a0 ff 30 fe 00 00 00   ....0......0....
|   4064: 00 00 00 00 00 00 00 00 00 00 00 00 06 04 01 0c   ................
|   4080: 01 03 02 06 04 01 0c 01 02 02 05 04 09 0c 01 02   ................
| page 4 offset 12288
|      0: 0d 00 00 00 03 0f be 00 0f ea 0f d4 0f be 00 00   ................
|   4016: 00 00 00 00 00 00 00 00 00 00 00 00 00 00 14 03   ................
|   4032: 05 00 17 17 17 61 20 62 20 63 67 20 68 20 69 67   .....a b cg h ig
|   4048: 20 68 20 69 14 02 05 00 17 17 17 67 20 68 20 69    h i.......g h i
|   4064: 61 20 62 20 63 67 20 68 20 69 14 01 05 00 17 17   a b cg h i......
|   4080: 17 61 20 62 20 63 64 20 65 20 66 67 20 68 20 69   .a b cd e fg h i
| page 5 offset 16384
|      0: 0d 00 00 00 03 0f e8 00 0f f8 0f f0 0f e8 00 00   ................
|   4064: 00 00 00 00 00 00 00 00 06 03 03 00 12 03 00 03   ................
|   4080: 06 02 03 00 12 03 00 03 06 01 03 00 12 03 00 03   ................
| page 6 offset 20480
|      0: 0a 00 00 00 01 0f f4 00 0f f4 00 00 00 00 00 00   ................
|   4080: 00 00 00 00 0b 03 1b 01 76 65 72 73 69 6f 6e 04   ........version.
| page 7 offset 24576
|      0: 0d 00 00 00 03 0f 9e 00 0f e6 0f ef 0f 9e 00 00   ................
|   3984: 00 00 00 00 00 00 00 00 00 00 00 00 00 00 41 84   ..............A.
|   4000: 80 80 80 80 01 04 00 81 06 00 00 00 34 02 30 61   ............4.0a
|   4016: 01 01 01 01 01 62 01 01 01 01 01 63 01 01 01 01   .....b.....c....
|   4032: 01 64 01 01 01 65 01 01 01 66 01 01 01 01 01 68   .d...e...f.....h
|   4048: 01 01 01 01 01 69 01 01 01 04 06 06 06 04 04 04   .....i..........
|   4064: 06 06 07 01 03 00 14 03 09 09 09 0f 0a 03 00 24   ...............$
|   4080: 00 00 00 00 01 01 01 00 01 01 01 01 0a 00 00 00   ................
| page 8 offset 28672
|      0: 01 0f fa 00 0f fa 00 00 00 00 00 00 00 00 00 00   ................
|   4080: 00 00 00 00 00 00 00 00 00 00 05 04 09 0c 01 02   ................
| page 9 offset 32768
|      0: 0d 00 00 00 03 0f be 00 0f ea 0f d4 1f be 00 00   ................
|   4016: 00 00 00 00 00 00 00 00 00 00 00 00 00 00 14 03   ................
|   4032: 05 00 17 17 17 61 20 62 20 63 67 20 68 20 69 67   .....a b cg h ig
|   4048: 20 68 20 69 14 02 05 00 17 17 17 67 20 68 20 69    h i.......g h i
|   4064: 61 20 62 20 63 67 20 68 20 69 14 01 05 00 17 17   a b cg h i......
|   4080: 17 61 20 62 20 63 64 20 65 20 66 67 20 68 20 69   .a b cd e fg h i
| page 10 offset 36864
|      0: 0a 00 00 00 01 0f f4 00 0f f4 00 00 00 00 00 00   ................
|   4080: 00 00 00 00 0b 03 1b 01 76 65 72 73 69 6f 6e 04   ........version.
| end crash-e2d47e0624a42c.db
}]} {}

do_catchsql_test 32.1 {
  SELECT snippet(t1, -1, '.', '..', '[', ']'), 
         highlight(t1, 2, '[', ']') 
  FROM t1('g + h') 
  WHERE rank MATCH 'bm25(1.0, 1.0)' ORDER BY rank;
} {/.*fts5: corrupt.*/}

do_catchsql_test 32.2 {
  SELECT * FROM t3;
} {1 {database disk image is malformed}}

do_catchsql_test 32.3 {
  SELECT * FROM t4;
} {1 {database disk image is malformed}}

do_catchsql_test 32.4 {
  SELECT fts5_decode(id, block) FROM t1_data;
} {1 {database disk image is malformed}}

do_catchsql_test 32.5 {
  SELECT fts5_decode(id, block) FROM t2_data;
} {1 {database disk image is malformed}}

#-------------------------------------------------------------------------
reset_db
do_test 33.0 {
  sqlite3 db {}
  db deserialize [decode_hexdb {
| size 28672 pagesize 4096 filename crash-fed6e90021ba5d.db
| page 1 offset 0
|      0: 53 51 4c 69 74 65 20 66 6f 72 6d 61 74 20 33 00   SQLite format 3.
|     16: 10 00 01 01 00 40 20 20 00 00 00 00 00 00 00 07   .....@  ........
|     32: 00 00 00 02 00 00 00 01 00 00 00 08 00 00 00 04   ................
|     48: 00 00 00 00 00 00 00 00 00 00 00 01 00 00 00 00   ................
|     96: 00 00 00 00 0d 0f c7 00 06 0d b6 00 0f 8d 0f 36   ...............6
|    112: 0e cb 0e 6b 0e 0e 0d b6 0d b6 00 00 00 00 00 00   ...k............
|   3504: 00 00 00 00 00 00 56 07 06 17 1f 1f 01 7d 74 61   ......V.......ta
|   3520: 62 6c 65 74 31 5f 63 6f 6e 66 69 67 74 31 5f 63   blet1_configt1_c
|   3536: 6f 6e 66 69 67 07 43 52 45 41 54 45 20 54 41 42   onfig.CREATE TAB
|   3552: 4c 45 20 27 74 31 5f 63 6f 6e 66 69 67 27 28 6b   LE 't1_config'(k
|   3568: 20 50 52 49 4d 41 52 59 20 4b 45 59 2c 20 76 29    PRIMARY KEY, v)
|   3584: 20 57 49 54 48 4f 55 54 20 52 4f 57 49 44 5b 06    WITHOUT ROWID[.
|   3600: 07 17 21 21 01 81 01 74 61 62 6c 65 74 31 5f 64   ..!!...tablet1_d
|   3616: 6f 63 73 69 8a 65 74 31 5f 64 6f 63 73 69 7a 65   ocsi.et1_docsize
|   3632: 06 43 52 45 41 54 45 20 54 41 42 4c 45 20 27 74   .CREATE TABLE 't
|   3648: 31 5f 64 6f 63 73 69 7a 65 27 28 69 64 20 49 4e   1_docsize'(id IN
|   3664: 54 45 47 45 52 20 50 52 49 4d 41 52 59 20 4b 45   TEGER PRIMARY KE
|   3680: 59 2c 20 73 7a 20 42 4c 4f 42 29 5e 05 07 17 21   Y, sz BLOB)^...!
|   3696: 21 01 81 07 74 61 62 6c 65 74 31 5f 63 6f 6e 74   !...tablet1_cont
|   3712: 65 6e 74 74 31 5f 63 6f 6e 74 65 6e 74 05 43 52   entt1_content.CR
|   3728: 45 41 54 45 20 54 41 42 4c 45 20 27 74 31 5f 63   EATE TABLE 't1_c
|   3744: 6f 6e 74 65 6e 74 27 28 69 64 20 49 4e 54 45 47   ontent'(id INTEG
|   3760: 45 52 20 50 52 49 4d 41 52 59 20 4b 45 59 2c 20   ER PRIMARY KEY, 
|   3776: 63 30 2c 20 63 31 2c 20 63 32 29 69 04 07 17 19   c0, c1, c2)i....
|   3792: 19 01 81 2d 74 61 62 6c 65 74 31 5f 69 64 78 74   ...-tablet1_idxt
|   3808: 31 5f 69 64 78 04 43 52 45 41 54 45 20 54 41 42   1_idx.CREATE TAB
|   3824: 4c 45 20 27 74 31 5f 69 64 78 27 28 73 65 67 69   LE 't1_idx'(segi
|   3840: 64 2c 20 74 65 72 6d 2c 20 70 67 6e 6f 2c 20 50   d, term, pgno, P
|   3856: 52 49 4d 41 52 59 20 4b 45 59 28 73 65 67 69 64   RIMARY KEY(segid
|   3872: 2c 20 74 65 72 6d 29 29 20 57 49 54 48 4f 55 54   , term)) WITHOUT
|   3888: 20 52 4f 57 49 44 55 03 07 17 1b 1b 01 81 01 74    ROWIDU........t
|   3904: 61 62 6c 65 74 31 5f 64 61 74 61 74 31 5f 64 61   ablet1_datat1_da
|   3920: 74 61 03 43 52 45 41 54 45 20 54 41 42 4c 45 20   ta.CREATE TABLE 
|   3936: 27 74 31 5f 64 61 74 61 27 28 69 64 20 49 4e 54   't1_data'(id INT
|   3952: 45 47 45 52 20 50 52 49 4d 41 52 59 20 4b 45 59   EGER PRIMARY KEY
|   3968: 2c 20 62 6c 6f 63 6b 20 42 4c 4f 42 29 38 02 06   , block BLOB)8..
|   3984: 17 11 11 08 5f 74 61 62 6c 65 74 31 74 31 43 52   ...._tablet1t1CR
|   4000: 45 41 54 45 20 56 49 52 54 55 41 4c 20 54 41 42   EATE VIRTUAL TAB
|   4016: 4c 45 20 74 31 20 55 53 49 4e 47 20 66 74 73 35   LE t1 USING fts5
|   4032: 28 61 2c 62 2c 63 29 00 00 00 39 00 00 00 00 00   (a,b,c)...9.....
| page 3 offset 8192
|      0: 0d 00 00 00 03 0c af 00 0f e6 0f ef 0c af 00 00   ................
|   3232: 00 00 00 00 00 00 00 00 00 00 00 00 00 00 00 86   ................
|   3248: 2f 84 80 80 80 80 01 04 00 8c 62 00 00 03 12 02   /.........b.....
|   3264: 30 30 01 04 05 03 01 04 05 03 01 04 05 03 1f 02   00..............
|   3280: 03 01 02 03 01 02 03 01 08 35 30 30 30 30 30 30   .........5000000
|   3296: 30 1c 02 04 01 0e ee ca ec ea ea ab e4 f5 ca b1   0...............
|   3312: ac ee ec de ef 3e ee ca ee ec f2 f8 0f f0 0f e8   .....>..........
|   3328: 0f e0 0f d8 0f d0 0f c8 0f c0 0f b8 0f b0 0f a8   ................
|   3344: 0f a0 0f 98 0f 90 0f 88 0f 80 0f 78 0f 70 0f 68   ...........x.p.h
|   3360: 0f 60 0f 58 0f 50 0f 48 0f 40 0f 38 0f 30 0f 28   .`.X.P.H.@.8.0.(
|   3376: 0f 20 0f 18 0f 10 0f 08 0f 00 0e f8 0e f0 0e e8   . ..............
|   3392: 0e e0 02 03 01 02 03 01 02 03 02 07 6f 6d 70 69   ............ompi
|   3408: 6c 65 72 01 02 02 01 02 02 01 02 02 01 06 64 62   ler...........db
|   3424: 73 74 61 74 07 02 03 01 02 03 01 02 03 02 04 65   stat...........e
|   3440: 62 75 67 04 02 02 01 02 02 01 02 02 01 06 65 6e   bug...........en
|   3456: 61 62 6c 65 07 02 02 01 02 02 01 02 02 01 02 02   able............
|   3472: 01 02 02 01 02 02 01 02 02 01 02 02 01 02 02 01   ................
|   3488: 02 02 01 02 02 01 02 02 01 02 02 01 02 02 01 02   ................
|   3504: 02 01 02 02 01 02 02 01 02 02 01 02 02 01 02 02   ................
|   3520: 01 02 02 02 08 78 74 65 6e 73 69 6f 6e 1f 02 04   .....xtension...
|   3536: 01 02 04 01 02 04 01 04 66 74 73 34 0a 02 03 03   ........fts4....
|   3552: 01 02 01 02 03 04 01 35 0d 02 03 01 02 03 01 02   .......5........
|   3568: 03 01 07 67 65 6f 70 6f 6c 79 10 02 03 01 02 03   ...geopoly......
|   3584: 01 02 03 01 05 6a 73 6f 6e 31 13 02 03 01 02 03   .....json1......
|   3600: 01 02 03 01 04 6c 6f 61 64 1f 02 03 01 02 03 01   .....load.......
|   3616: 02 03 01 03 6d 61 78 1c 02 02 01 02 02 01 02 02   ....max.........
|   3632: 02 05 65 6d 6f 72 79 1c 02 03 01 02 03 01 02 03   ..emory.........
|   3648: 04 04 73 79 73 35 16 02 03 01 02 03 01 02 03 01   ..sys5..........
|   3664: 06 6e 6f 63 61 73 65 02 06 01 02 02 03 06 01 02   .nocase.........
|   3680: 02 03 06 01 02 02 03 06 01 02 02 03 06 01 02 02   ................
|   3696: 03 06 01 02 02 03 06 01 02 02 03 06 01 02 02 03   ................
|   3712: 06 01 02 02 03 06 01 02 02 03 06 01 02 02 03 06   ................
|   3728: 01 02 02 01 04 6f 6d 69 74 1f 02 02 01 02 02 01   .....omit.......
|   3744: 02 02 01 05 72 74 72 65 65 19 02 03 01 02 03 01   ....rtree.......
|   3760: 02 03 04 02 69 6d 01 06 01 02 02 03 06 01 02 02   ....im..........
|   3776: 03 06 01 02 02 03 06 01 02 02 03 06 01 02 02 03   ................
|   3792: 06 01 02 02 03 06 01 02 02 03 06 01 02 02 03 06   ................
|   3808: 01 02 02 03 06 01 02 02 03 06 01 02 02 03 06 01   ................
|   3824: 02 02 01 0a 74 68 72 65 61 64 73 61 66 65 22 02   ....threadsafe..
|   3840: 02 01 02 02 01 02 02 01 04 76 74 61 62 07 02 04   .........vtab...
|   3856: 01 02 04 01 02 04 01 01 78 01 06 01 01 02 01 06   ........x.......
|   3872: 01 01 02 01 06 01 01 02 01 06 01 01 02 01 06 01   ................
|   3888: 01 02 01 06 01 01 02 01 06 01 01 02 01 06 01 01   ................
|   3904: 02 01 06 01 01 02 01 06 01 01 02 01 06 01 01 02   ................
|   3920: 01 06 01 01 02 01 06 01 01 02 01 06 01 01 02 01   ................
|   3936: 06 01 01 02 01 06 01 01 02 01 06 01 01 02 01 06   ................
|   3952: 01 01 02 01 06 01 01 02 01 06 01 01 02 01 06 01   ................
|   3968: 01 02 01 06 01 01 02 01 06 01 01 02 01 06 01 01   ................
|   3984: 02 01 06 01 01 02 01 06 01 01 02 01 06 01 01 02   ................
|   4000: 01 06 01 01 02 01 06 01 01 02 01 06 01 01 02 01   ................
|   4016: 06 01 01 02 01 06 01 01 02 01 06 01 01 02 01 06   ................
|   4032: 01 01 02 01 06 01 01 02 01 06 01 01 02 04 18 13   ................
|   4048: 0c 44 10 12 11 0f 47 13 0f 0c 12 10 0f 0e 10 0f   .D....G.........
|   4064: 44 0f 10 40 15 0f 07 01 03 00 14 24 57 24 24 0f   D..@.......$W$$.
|   4080: 0a 03 00 24 00 00 00 00 01 01 01 00 01 01 01 01   ...$............
| page 4 offset 12288
|      0: 0a 00 00 00 01 0f fa 00 0f fa 00 00 00 00 00 00   ................
|   4080: 00 00 00 00 00 00 00 00 00 00 05 04 09 0c 01 02   ................
| page 5 offset 16384
|      0: 0d 00 00 00 24 0c 1f 00 0f df 0f bd 0f 9b 0f 89   ....$...........
|     16: 0f 76 0f 63 0f 44 0f 24 0f 04 0e ec 0e d3 0e ba   .v.c.D.$........
|     32: 0e a2 0e 89 0e 70 0e 55 0e 39 0e 1d 0e 04 0d ea   .....p.U.9......
|     48: 0d d0 0d b5 0d 99 0d 7d 0d 64 0d 4a 0d 30 0d 10   .........d.J.0..
|     64: 0c ef 0c ce 0c ae 54 d5 35 95 33 55 84 24 94 e4   ......T.5.3U.$..
|     80: 15 25 91 a1 70 50 02 90 f1 94 54 e4 14 24 c4 52   .%..pP....T..$.R
|     96: 04 d4 54 d5 35 95 33 55 84 e4 f4 34 15 34 51 91   ..T.5.3U...4.4Q.
|    112: 60 50 02 90 f1 74 54 e4 14 24 c4 52 04 d4 54 d5   `P...tT..$.R..T.
|    128: 35 95 33 55 85 25 45 24 94 d1 81 50 50 02 50 f1   5.3U.%E$...PP.P.
|    144: 94 54 e4 14 24 c4 52 04 a5 34 f4 e3 15 84 24 94   .T..$.R..4....$.
|    160: e4 15 25 91 81 40 50 02 50 f1 94 54 e4 14 24 c4   ..%..@P.P..T..$.
|    176: 52 04 a5 34 f4 e3 15 84 e4 f4 34 15 34 51 71 30   R..4......4.4Qq0
|    192: 50 02 50 f1 74 54 e4 14 24 c4 52 04 ae 4f 41 33   P.P.tT..$.R..OA3
|    208: 55 85 25 45 24 94 d1 a1 20 50 02 90 f1 94 54 e4   U.%E$... P....T.
|    224: 14 24 c4 52 04 74 54 f5 04 f4 c5 95 84 24 94 e4   .$.R.tT......$..
|    240: 15 25 91 a1 10 50 02 90 f1 94 54 e4 14 24 c4 52   .%...P....T..$.R
|    256: 04 74 54 f5 04 f4 c5 95 84 e4 f4 34 15 34 51 91   .tT........4.4Q.
|    272: 00 50 02 90 f1 74 54 e4 14 24 c4 52 04 74 54 f5   .P...tT..$.R.tT.
|    288: 04 f4 c5 95 85 25 45 24 94 d1 70 f0 50 02 30 f1   .....%E$..p.P.0.
|    304: 94 54 e4 14 24 c4 52 04 65 45 33 55 84 24 94 e4   .T..$.R.eE3U.$..
|    320: 15 25 91 70 e0 50 02 30 f1 94 54 e4 40 0f 38 0f   .%.p.P.0..T.@.8.
|    336: 30 0f 28 0f 20 0f 18 0f 10 0f 08 0f 00 0e f8 0e   0.(. ...........
|    352: f0 0e e8 0e e0 00 00 00 00 00 00 00 00 00 00 00   ................
| page 6 offset 20480
|   3808: 06 24 03 00 12 02 01 01 06 23 03 00 12 02 01 01   .$.......#......
|   3824: 06 22 03 00 12 02 01 01 06 21 03 00 12 03 01 01   .........!......
|   3840: 06 20 03 00 12 03 01 01 06 1f 03 00 12 03 01 01   . ..............
|   3856: 06 1e 03 00 12 03 01 01 06 1d 03 00 12 03 01 01   ................
|   3872: 06 1c 03 00 12 03 01 01 06 1b 03 00 12 02 01 01   ................
|   3888: 06 1a 03 00 12 02 01 01 06 19 03 00 12 02 01 01   ................
|   3904: 06 18 03 00 12 02 01 01 06 17 03 00 12 02 01 01   ................
|   3920: 06 16 03 00 12 02 01 01 06 15 03 00 12 02 01 01   ................
|   3936: 06 14 03 00 12 02 01 01 06 13 03 00 12 02 01 01   ................
|   3952: 06 12 03 00 12 02 01 01 06 11 03 00 12 02 01 01   ................
|   3968: 06 10 03 00 12 02 01 01 06 0f 03 00 12 02 01 01   ................
|   3984: 06 0e 03 00 12 02 01 01 06 0d 03 00 12 02 01 01   ................
|   4000: 06 0c 03 00 12 02 01 01 06 0b 03 00 12 02 01 01   ................
|   4016: 06 0a 03 00 12 02 01 01 06 09 03 00 12 03 01 01   ................
|   4032: 06 08 03 00 12 03 01 01 06 07 03 00 12 03 01 01   ................
|   4048: 06 06 03 00 12 01 01 01 06 05 03 00 12 01 01 01   ................
|   4064: 06 04 03 00 12 01 01 01 06 03 03 00 12 05 01 01   ................
|   4080: 06 02 03 00 12 05 01 01 06 01 03 00 12 05 01 01   ................
| page 7 offset 24576
|      0: 0a 00 00 00 01 0f f4 00 0f f4 52 59 11 05 05 00   ..........RY....
|     16: 17 0f 19 44 45 42 55 47 58 4e 4f 43 41 53 45 10   ...DEBUGXNOCASE.
|     32: 04 05 00 17 0f 17 44 45 42 55 47 58 52 54 52 49   ......DEBUGXRTRI
|     48: 4d 20 03 05 00 35 0f 19 43 4f 4d 50 49 4c 45 52   M ...5..COMPILER
|     64: 3d 63 6c 61 6e 67 2d 36 2e 30 2e 30 58 42 49 4e   =clang-6.0.0XBIN
|     80: 41 52 59 20 02 05 00 35 0f 19 43 4f 4d 50 49 4c   ARY ...5..COMPIL
|     96: 45 52 3d 63 6c 61 6e 67 2d 36 2e 30 2e 30 58 4e   ER=clang-6.0.0XN
|    112: 4f 43 41 53 45 1f 01 05 00 35 0f 17 43 4f 4d 50   OCASE....5..COMP
|    128: 49 4c 45 52 3d 63 6c 61 6e 67 2d 36 2e 30 2e 30   ILER=clang-6.0.0
|    144: 58 52 54 52 49 4d 0d 00 00 00 24 0e e0 00 0f 6f   XRTRIM....$....o
|    160: 6e 74 65 6e 74 05 43 52 45 41 54 45 20 54 41 42   ntent.CREATE TAB
|    176: 4c 45 20 27 74 31 5f 63 6f 6e 74 65 6e 74 27 28   LE 't1_content'(
|    192: 69 64 20 49 4e 54 45 47 45 52 20 50 52 49 4d 41   id INTEGER PRIMA
|    208: 52 59 20 4b 45 59 2c 20 63 30 2c 20 63 31 2c 20   RY KEY, c0, c1, 
|    224: 63 32 29 69 04 07 17 19 19 01 81 2d 74 61 62 6c   c2)i.......-tabl
|    240: 65 74 31 5f 69 64 78 74 31 5f 69 64 78 04 43 52   et1_idxt1_idx.CR
|    256: 45 41 54 45 20 54 41 42 4c 45 20 27 74 31 5f 69   EATE TABLE 't1_i
|    272: 64 78 27 28 73 65 67 69 64 2c 20 74 65 72 6d 2c   dx'(segid, term,
|    288: 20 70 67 6e 6f 2c 20 50 52 49 4d 41 52 59 20 4b    pgno, PRIMARY K
|    304: 45 59 28 73 65 67 69 64 2c 20 74 65 72 6d 29 29   EY(segid, term))
|    320: 20 57 49 54 48 4f 55 54 20 52 4f 57 49 44 55 03    WITHOUT ROWIDU.
|    336: 07 17 1b 1b 01 81 01 74 61 62 6c 65 74 31 5f 64   .......tablet1_d
|    352: 61 74 61 74 31 5f 64 61 74 61 03 43 52 45 41 54   atat1_data.CREAT
|    368: 45 20 54 41 42 4c 45 20 27 74 31 5f 64 61 74 61   E TABLE 't1_data
|    384: 27 28 69 64 20 49 4e 54 45 47 45 52 20 50 52 49   '(id INTEGER PRI
|    400: 4d 41 52 59 20 4b 45 59 2c 20 62 6c 6f 63 6b 20   MARY KEY, block 
|    416: 42 4c 4f 42 29 38 02 06 17 11 11 08 5f 74 61 62   BLOB)8......_tab
|    432: 6c 65 74 31 74 31 43 52 45 41 54 45 20 56 49 52   let1t1CREATE VIR
|    448: 54 55 41 4c 20 54 41 42 4c 45 20 74 31 20 55 53   TUAL TABLE t1 US
|    464: 49 4e 47 20 66 74 73 35 28 61 2c 62 2c 63 29 00   ING fts5(a,b,c).
|    480: 00 00 39 00 00 00 00 00 00 00 00 00 00 00 00 00   ..9.............
|   4080: 00 00 00 00 0b 03 1b 01 76 65 72 73 69 6f 6e 04   ........version.
| end crash-fed6e90021ba5d.db
}]} {}

do_catchsql_test 33.1 {
  CREATE VIRTUAL TABLE t2 USING fts5vocab('t1','row');
  CREATE VIRTUAL TABLE t3 USING fts5vocab('t1','col');
  CREATE VIRTUAL TABLE t4 USING fts5vocab('t1','instance');
} {/*malformed database schema*/}

do_catchsql_test 33.2 {
  SELECT * FROM t2;
} {/*malformed database schema*/}

do_catchsql_test 33.3 {
  SELECT * FROM t2, t3, t4 WHERE t2.term=t3.term AND t3.term=t4.term;
} {/*malformed database schema*/}

#-------------------------------------------------------------------------
reset_db
do_test 34.0 {
  sqlite3 db {}
  db deserialize [decode_hexdb {
| size 40960 pagesize 4096 filename crash-a60a9da4c8932f.db
| page 1 offset 0
|      0: 53 51 4c 69 74 65 20 66 6f 72 6d 61 74 20 33 00   SQLite format 3.
|     16: 10 00 01 01 00 40 20 20 00 00 00 00 00 00 00 0a   .....@  ........
|     32: 00 00 00 00 00 00 00 00 00 00 00 0d 00 00 00 04   ................
|     48: 00 00 00 00 00 00 00 00 00 00 00 01 00 00 00 00   ................
|     96: 00 00 00 00 0d 00 00 00 0d 0b 6e 00 0f a3 0f 4c   ..........n....L
|    112: 0e e1 0e 81 0e 24 0d cc 0d 72 0d 1b 0c b0 0c 50   .....$...r.....P
|    128: 0b f8 0b b3 0b 6e 00 00 00 00 00 00 00 00 00 00   .....n..........
|   2912: 00 00 00 00 00 00 00 00 00 00 00 00 00 00 43 0d   ..............C.
|   2928: 06 17 11 11 08 75 74 61 62 6c 65 74 34 74 34 43   .....utablet4t4C
|   2944: 52 45 41 54 45 20 56 49 52 54 55 41 4c 20 54 41   REATE VIRTUAL TA
|   2960: 42 4c 45 20 74 34 20 55 53 49 4e 47 20 66 74 73   BLE t4 USING fts
|   2976: 35 76 6f 63 61 62 28 27 74 32 27 2c 20 27 72 6f   5vocab('t2', 'ro
|   2992: 77 27 29 43 0c 06 17 11 11 08 75 74 61 62 6c 65   w')C......utable
|   3008: 74 33 74 33 43 52 45 41 54 45 20 56 49 52 54 55   t3t3CREATE VIRTU
|   3024: 41 4c 20 54 41 42 4c 45 20 74 33 20 55 53 49 4e   AL TABLE t3 USIN
|   3040: 47 20 66 74 73 35 76 6f 63 61 62 28 27 74 31 27   G fts5vocab('t1'
|   3056: 2c 20 27 72 6f 77 27 29 56 0b 06 17 1f 1f 01 7d   , 'row')V.......
|   3072: 74 61 62 6c 65 74 32 5f 63 6f 6e 66 69 67 74 32   tablet2_configt2
|   3088: 5f 63 6f 6e 66 69 67 0a 43 52 45 41 54 45 20 54   _config.CREATE T
|   3104: 41 42 4c 45 20 27 74 32 5f 63 6f 6e 66 69 67 27   ABLE 't2_config'
|   3120: 28 6b 20 50 52 49 4d 41 52 59 20 4b 45 59 2c 20   (k PRIMARY KEY, 
|   3136: 76 29 20 57 49 54 48 4f 55 54 20 52 4f 57 49 44   v) WITHOUT ROWID
|   3152: 5e 0a 07 17 21 21 01 81 07 74 61 62 6c 65 74 32   ^...!!...tablet2
|   3168: 5f 63 6f 6e 74 65 6e 74 74 32 5f 63 6f 6e 74 65   _contentt2_conte
|   3184: 6e 74 09 43 52 45 41 54 45 20 54 41 42 4c 45 20   nt.CREATE TABLE 
|   3200: 27 74 32 5f 63 6f 6e 74 65 6e 74 27 28 69 64 20   't2_content'(id 
|   3216: 49 4e 54 45 47 45 52 20 50 52 49 4d 41 52 59 20   INTEGER PRIMARY 
|   3232: 4b 45 59 2c 20 63 30 2c 20 63 31 2c 20 63 32 29   KEY, c0, c1, c2)
|   3248: 69 09 07 17 19 19 01 81 2d 74 61 62 6c 65 74 32   i.......-tablet2
|   3264: 5f 69 64 78 74 32 5f 69 64 78 08 43 52 45 41 54   _idxt2_idx.CREAT
|   3280: 45 20 54 41 42 4c 45 20 27 74 32 5f 69 64 78 27   E TABLE 't2_idx'
|   3296: 28 73 65 67 69 64 2c 20 74 65 72 6d 2c 20 70 67   (segid, term, pg
|   3312: 6e 6f 2c 20 50 52 49 4d 41 52 59 20 4b 45 59 28   no, PRIMARY KEY(
|   3328: 73 65 67 69 64 2c 20 74 65 72 6d 29 29 20 57 49   segid, term)) WI
|   3344: 54 48 4f 55 54 20 52 4f 57 49 44 55 08 07 17 1b   THOUT ROWIDU....
|   3360: 1b 01 81 01 74 61 62 6c 65 74 32 5f 64 61 74 61   ....tablet2_data
|   3376: 74 32 5f 64 61 74 61 07 43 52 45 41 54 45 20 54   t2_data.CREATE T
|   3392: 41 42 4c 45 20 27 74 32 5f 64 61 74 61 27 28 69   ABLE 't2_data'(i
|   3408: 64 20 49 4e 54 45 47 45 52 20 50 52 49 4d 41 52   d INTEGER PRIMAR
|   3424: 59 20 4b 45 59 2c 20 62 6c 6f 63 6b 20 42 4c 4f   Y KEY, block BLO
|   3440: 42 29 58 07 07 17 11 11 08 81 1d 74 61 62 6c 65   B)X........table
|   3456: 74 32 74 32 43 52 45 41 54 45 20 56 49 52 54 55   t2t2CREATE VIRTU
|   3472: 41 4c 20 54 41 42 4c 45 20 74 32 20 55 53 49 4e   AL TABLE t2 USIN
|   3488: 47 20 66 74 73 35 28 27 61 27 2c 5b 62 5d 2c 22   G fts5('a',[b],.
|   3504: 63 22 2c 64 65 74 61 69 6c 3d 6e 6f 6e 65 2c 63   c.,detail=none,c
|   3520: 6f 6c 75 6d 6e 73 69 7a 65 3d 30 29 56 06 06 17   olumnsize=0)V...
|   3536: 1f 1f 01 7d 74 61 62 6c 65 74 31 5f 63 6f 6e 66   ....tablet1_conf
|   3552: 69 67 74 31 5f 63 6f 6e 66 69 67 06 43 52 45 41   igt1_config.CREA
|   3568: 54 45 20 54 41 42 4c 45 20 27 74 31 5f 63 6f 6e   TE TABLE 't1_con
|   3584: 66 69 67 27 28 6b 20 50 52 49 4d 41 52 59 20 4b   fig'(k PRIMARY K
|   3600: 45 59 2c 20 76 29 20 57 49 54 48 4f 55 54 20 52   EY, v) WITHOUT R
|   3616: 4f 57 49 44 5b 05 07 17 21 21 01 81 01 74 61 62   OWID[...!!...tab
|   3632: 6c 65 74 31 5f 64 6f 63 73 69 7a 65 74 31 5f 64   let1_docsizet1_d
|   3648: 6f 63 73 69 7a 65 05 43 52 45 41 54 45 20 54 41   ocsize.CREATE TA
|   3664: 42 4c 45 20 27 74 31 5f 64 6f 63 73 69 7a 65 27   BLE 't1_docsize'
|   3680: 28 69 64 20 49 4e 54 45 47 45 52 20 50 52 49 4d   (id INTEGER PRIM
|   3696: 41 52 59 20 4b 45 59 2c 20 73 7a 20 42 4c 4f 42   ARY KEY, sz BLOB
|   3712: 29 5e 04 07 17 21 21 01 81 07 74 61 62 6c 65 74   )^...!!...tablet
|   3728: 31 5f 63 6f 6e 74 65 6e 74 74 31 5f 63 6f 6e 74   1_contentt1_cont
|   3744: 65 6e 74 04 43 52 45 41 54 45 20 54 41 42 4c 45   ent.CREATE TABLE
|   3760: 20 27 74 31 5f 63 6f 6e 74 65 6e 74 27 28 69 64    't1_content'(id
|   3776: 20 49 4e 54 45 47 45 52 20 50 52 49 4d 41 52 59    INTEGER PRIMARY
|   3792: 20 4b 45 59 2c 20 63 30 2c 20 63 31 2c 20 63 32    KEY, c0, c1, c2
|   3808: 29 69 03 07 17 19 19 01 81 2d 74 61 62 6c 65 74   )i.......-tablet
|   3824: 31 5f 69 64 78 74 31 5f 69 64 78 03 43 52 45 41   1_idxt1_idx.CREA
|   3840: 54 45 20 54 41 42 4c 45 20 27 74 31 5f 69 64 78   TE TABLE 't1_idx
|   3856: 27 28 73 65 67 69 64 2c 20 74 65 72 6d 2c 20 70   '(segid, term, p
|   3872: 67 6e 6f 2c 20 50 52 49 4d 41 52 59 20 4b 45 59   gno, PRIMARY KEY
|   3888: 28 73 65 67 69 64 2c 20 74 65 72 6d 29 29 20 57   (segid, term)) W
|   3904: 49 54 48 4f 55 54 20 52 4f 57 49 44 55 02 07 17   ITHOUT ROWIDU...
|   3920: 1b 1b 01 81 01 74 61 62 6c 65 74 31 5f 64 61 74   .....tablet1_dat
|   3936: 61 74 31 5f 64 61 74 61 02 43 52 45 41 54 45 20   at1_data.CREATE 
|   3952: 54 41 42 4c 45 20 27 74 31 5f 64 61 74 61 27 28   TABLE 't1_data'(
|   3968: 69 64 20 49 4e 54 45 47 45 52 20 50 52 49 4d 41   id INTEGER PRIMA
|   3984: 52 59 20 4b 45 59 2c 20 62 6c 6f 63 6b 20 42 4c   RY KEY, block BL
|   4000: 4f 42 29 5b 01 07 17 11 11 08 81 23 74 61 62 6c   OB)[.......#tabl
|   4016: 65 74 31 74 31 43 52 45 41 54 45 20 56 49 52 54   et1t1CREATE VIRT
|   4032: 55 41 4c 20 54 41 42 4c 45 20 74 31 20 55 53 49   UAL TABLE t1 USI
|   4048: 4e 47 20 66 74 73 35 28 61 2c 62 20 75 6e 69 6e   NG fts5(a,b unin
|   4064: 64 65 78 65 64 2c 63 2c 74 6f 6b 65 6e 69 7a 65   dexed,c,tokenize
|   4080: 3d 22 70 6f 72 74 65 72 20 61 73 63 69 69 22 29   =.porter ascii.)
| page 2 offset 4096
|      0: 0d 0f 68 00 05 0f 13 00 0f e6 0f 13 0f a8 0f 7c   ..h............|
|     16: 0f 2a 00 00 00 00 00 00 00 00 00 00 00 00 00 00   .*..............
|   3856: 00 00 00 15 0a 03 00 30 00 00 00 00 01 03 03 00   .......0........
|   3872: 03 01 01 01 02 01 01 03 01 01 37 8c 80 80 80 80   ..........7.....
|   3888: 01 03 00 74 00 20 68 20 69 0d 00 00 00 03 0f e8   ...t. h i.......
|   3904: 00 0f f8 0f f0 0f e8 00 00 00 00 00 00 00 00 00   ................
| page 5 offset 16384
|   4064: 00 00 00 00 00 00 00 00 06 03 03 00 12 03 00 00   ................
|   4080: 60 20 30 01 20 30 00 30 60 10 30 01 20 30 00 30   ` 0. 0.0`.0. 0.0
| page 6 offset 20480
|      0: a0 00 00 00 10 ff 40 00 ff 00 00 00 00 00 00 00   ......@.........
|   4080: 00 00 00 00 0b 03 1b 01 76 65 72 73 69 6f 6e 04   ........version.
| page 7 offset 24576
|      0: 0d 00 00 00 03 0f 9e 00 0f e6 0f ef 0f 9e 00 00   ................
|   3984: 00 00 00 00 00 00 00 00 00 00 00 00 00 00 41 84   ..............A.
|   4000: 80 80 80 80 01 04 00 81 06 00 00 00 34 02 30 61   ............4.0a
|   4016: 01 01 00 00 00 00 00 00 00 00 00 11 87 89 06 26   ...............&
|   4032: 01 64 01 01 01 65 01 01 01 66 01 01 01 67 01 01   .d...e...f...g..
|   4048: 01 01 01 68 01 01 01 01 01 69 01 01 01 04 06 06   ...h.....i......
|   4064: 06 04 44 00 06 06 07 01 03 00 14 03 09 09 09 0f   ..D.............
|   4080: 0a 03 00 24 00 00 00 00 01 01 01 00 01 01 01 01   ...$............
| page 8 offset 28672
|      0: 0a 00 00 00 01 0f fa 00 0f fa 00 00 00 00 00 00   ................
|   4080: 00 00 00 00 00 00 00 00 00 00 05 04 09 0c 01 02   ................
| page 9 offset 32768
|      0: 0d 00 00 00 03 0f be 00 0f ea 0f d4 0f be 00 00   ................
|   4016: 00 00 00 00 00 00 00 00 00 00 00 00 00 00 14 03   ................
|   4032: 05 00 17 17 17 61 20 62 20 63 67 20 68 20 69 67   .....a b cg h ig
|   4048: 20 68 20 69 14 02 05 00 17 17 17 67 20 68 20 69    h i.......g h i
|   4064: 61 20 62 20 63 67 20 68 20 69 14 01 05 00 17 17   a b cg h i......
|   4080: 17 61 20 62 20 63 64 20 65 20 66 67 20 68 20 69   .a b cd e fg h i
| page 10 offset 36864
|      0: 0a 00 00 00 01 0f f4 00 0f f4 00 00 00 00 00 00   ................
|   4080: 00 00 00 00 0b 03 1b 01 76 65 72 73 69 6f 6e 04   ........version.
| end crash-a60a9da4c8932f.db
}]} {}

do_catchsql_test 34.1 {
  SELECT fts5_decode(id, block) FROM t1_data;
} {1 {database disk image is malformed}}

do_catchsql_test 34.2 {
  SELECT fts5_decode(id, block) FROM t2_data;
} {1 {database disk image is malformed}}

#-------------------------------------------------------------------------
reset_db
do_test 35.0 {
  sqlite3 db {}
  db deserialize [decode_hexdb {
| size 32768 pagesize 4096 filename crash-ae135cb10977c7.db
| page 1 offset 0
|      0: 53 51 4c 69 74 65 20 66 6f 72 6d 61 74 20 33 00   SQLite format 3.
|     16: 10 00 01 01 00 40 20 20 00 00 00 00 00 00 00 08   .....@  ........
|     32: 00 00 00 02 00 00 00 01 00 00 00 09 00 00 00 04   ................
|     48: 00 00 00 00 00 00 00 00 00 00 00 01 00 00 00 00   ................
|     96: 00 00 00 00 0d 0f c7 00 07 0d 92 00 0f 8d 0f 36   ...............6
|    112: 0e cb 0e 6b 0e 0e 0d b6 0d 92 0d 92 00 00 00 00   ...k............
|   3472: 00 00 22 08 06 17 11 11 01 31 74 61 62 6c 65 74   .........1tablet
|   3488: 32 74 32 08 43 52 45 41 54 45 20 54 41 42 4c 45   2t2.CREATE TABLE
|   3504: 20 74 32 28 78 29 56 07 06 17 1f 1f 01 7d 74 61    t2(x)V.......ta
|   3520: 62 6c 65 74 31 5f 63 6f 6e 66 69 67 74 31 5f 63   blet1_configt1_c
|   3536: 6f 6e 66 69 67 07 43 52 45 41 54 45 20 54 41 42   onfig.CREATE TAB
|   3552: 4c 45 20 27 74 31 5f 63 6f 6e 66 69 67 27 28 6b   LE 't1_config'(k
|   3568: 20 50 52 49 4d 41 52 59 20 4b 45 59 2c 20 76 29    PRIMARY KEY, v)
|   3584: 20 57 49 54 48 4f 55 54 20 52 4f 57 49 44 5b 06    WITHOUT ROWID[.
|   3600: 07 17 21 21 01 81 01 74 61 62 6c 65 74 31 5f 64   ..!!...tablet1_d
|   3616: 6f 63 73 69 7a 65 74 31 5f 64 6f 63 73 69 7a 65   ocsizet1_docsize
|   3632: 06 43 52 45 41 54 45 20 54 41 42 4c 45 20 27 74   .CREATE TABLE 't
|   3648: 31 5f 64 6f 63 73 69 7a 65 27 28 69 64 20 49 4e   1_docsize'(id IN
|   3664: 54 45 47 45 52 20 50 52 49 4d 41 52 59 20 4b 45   TEGER PRIMARY KE
|   3680: 59 2c 20 73 7a 20 42 4c 4f 42 29 5e 05 07 17 21   Y, sz BLOB)^...!
|   3696: 21 01 81 07 74 61 62 6c 65 74 31 5f 63 6f 6e 74   !...tablet1_cont
|   3712: 65 6e 74 74 31 5f 63 6f 6e 74 65 6e 74 05 43 52   entt1_content.CR
|   3728: 45 41 54 45 20 54 41 42 4c 45 20 27 74 31 5f 63   EATE TABLE 't1_c
|   3744: 6f 6e 74 65 6e 74 27 28 69 64 20 49 4e 54 45 47   ontent'(id INTEG
|   3760: 45 52 20 50 52 49 4d 41 52 59 20 4b 45 59 2c 20   ER PRIMARY KEY, 
|   3776: 63 30 2c 20 63 31 2c 20 63 32 29 69 04 07 17 19   c0, c1, c2)i....
|   3792: 19 01 81 2d 74 61 62 6c 65 74 31 5f 69 64 78 74   ...-tablet1_idxt
|   3808: 31 5f 69 64 78 04 43 52 45 41 54 45 20 54 41 42   1_idx.CREATE TAB
|   3824: 4c 45 20 27 74 31 5f 69 64 78 27 28 73 65 67 69   LE 't1_idx'(segi
|   3840: 64 2c 20 74 65 72 6d 2c 20 70 67 6e 6f 2c 20 50   d, term, pgno, P
|   3856: 52 49 4d 41 52 59 20 4b 45 59 28 73 65 67 69 64   RIMARY KEY(segid
|   3872: 2c 20 74 65 72 6d 29 29 20 57 49 54 48 4f 55 54   , term)) WITHOUT
|   3888: 20 52 4f 57 49 44 55 03 07 17 1b 1b 01 81 01 74    ROWIDU........t
|   3904: 61 62 6c 65 74 31 5f 64 61 74 61 74 31 5f 64 61   ablet1_datat1_da
|   3920: 74 61 03 43 52 45 41 54 45 20 54 41 42 4c 45 20   ta.CREATE TABLE 
|   3936: 27 74 31 5f 64 61 74 61 27 28 69 64 20 49 4e 54   't1_data'(id INT
|   3952: 45 47 45 52 20 50 52 49 4d 41 52 59 20 4b 45 59   EGER PRIMARY KEY
|   3968: 2c 20 62 6c 6f 63 6b 20 42 4c 4f 42 29 38 02 06   , block BLOB)8..
|   3984: 17 11 11 08 5f 74 61 62 6c 65 74 31 74 31 43 52   ...._tablet1t1CR
|   4000: 45 41 54 45 20 56 49 52 54 55 41 4c 20 54 41 42   EATE VIRTUAL TAB
|   4016: 4c 45 20 74 31 20 55 53 49 4e 47 20 66 74 73 35   LE t1 USING fts5
|   4032: 28 61 2c 62 2c 63 29 00 00 00 39 00 00 00 00 00   (a,b,c)...9.....
| page 3 offset 8192
|      0: 0d 00 00 00 03 0c 94 00 0f e6 0f ef 0c 94 00 00   ................
|   3216: 00 00 00 00 86 4a 84 80 80 80 80 01 04 00 8d 18   .....J..........
|   3232: 00 00 03 2b 02 30 30 01 02 06 01 02 06 01 02 06   ...+.00.........
|   3248: 1f 02 03 01 02 03 01 02 03 01 08 32 30 31 36 30   ...........20160
|   3264: 36 30 39 01 02 07 01 02 07 01 02 07 01 01 34 01   609...........4.
|   3280: 02 05 01 02 05 01 02 05 01 01 35 01 02 04 01 02   ..........5.....
|   3296: 04 01 02 04 02 07 30 30 30 30 30 30 30 1c 02 3d   ......0000000..=
|   3312: 01 02 04 01 02 04 01 06 62 69 6e 61 72 79 03 06   ........binary..
|   3328: 01 02 02 03 06 01 02 02 03 06 01 02 02 03 06 01   ................
|   3344: 02 02 03 06 01 02 02 03 06 01 02 02 03 06 01 02   ................
|   3360: 02 03 06 01 02 02 03 06 01 02 02 03 06 01 02 02   ................
|   3376: 03 06 01 02 02 03 06 01 02 02 01 08 63 6f 6d 70   ............comp
|   3392: 69 6c 65 72 01 02 02 01 02 02 01 02 02 01 06 64   iler...........d
|   3408: 62 73 74 61 74 07 02 03 01 02 03 01 02 03 02 04   bstat...........
|   3424: 65 62 75 67 04 02 02 01 02 02 01 02 02 01 07 65   ebug...........e
|   3440: 6e 61 62 6c 65 07 02 02 01 02 02 01 02 02 01 02   nable...........
|   3456: 02 01 02 02 01 02 02 01 02 02 01 02 02 01 02 02   ................
|   3472: 01 02 02 01 02 02 01 02 02 01 02 02 01 02 02 01   ................
|   3488: 02 02 01 02 02 01 02 02 01 02 02 01 02 02 01 02   ................
|   3504: 02 01 02 02 02 08 78 74 65 6e 73 69 6f 6e 1f 02   ......xtension..
|   3520: 04 01 02 04 01 02 04 01 04 66 74 73 34 0a 02 03   .........fts4...
|   3536: 01 02 03 01 02 03 04 01 35 0d 02 03 01 02 03 01   ........5.......
|   3552: 02 03 01 03 67 63 63 01 02 03 01 02 03 01 02 03   ....gcc.........
|   3568: 02 06 65 6f 70 6f 6c 79 10 02 03 01 02 03 01 02   ..eopoly........
|   3584: 03 01 05 6a 73 6f 6e 31 13 02 03 01 02 03 01 02   ...json1........
|   3600: 03 01 04 6c 6f 61 64 1f 02 03 01 02 03 01 02 03   ...load.........
|   3616: 01 03 6d 61 78 1c 02 02 01 02 02 01 02 02 02 05   ..max...........
|   3632: 65 6d 6f 72 79 1c 02 03 01 02 03 01 02 03 04 04   emory...........
|   3648: 73 79 73 35 16 02 03 01 02 03 01 02 03 01 06 6e   sys5...........n
|   3664: 6f 63 61 73 65 02 06 01 02 02 03 06 01 02 02 03   ocase...........
|   3680: 06 01 02 02 03 06 01 02 02 03 06 01 02 02 03 06   ................
|   3696: 01 02 02 03 06 01 02 02 03 06 01 02 02 03 06 01   ................
|   3712: 02 02 03 06 01 02 02 03 06 01 02 02 03 06 01 02   ................
|   3728: 02 01 04 6f 6d 69 74 1f 02 02 01 02 02 01 02 02   ...omit.........
|   3744: 01 05 72 74 72 65 65 19 02 03 01 02 03 01 02 03   ..rtree.........
|   3760: 04 02 69 6d 01 06 01 02 02 03 06 01 02 02 03 06   ..im............
|   3776: 01 02 02 03 06 01 02 02 03 06 01 02 02 03 06 01   ................
|   3792: 02 02 03 06 01 02 02 03 06 01 02 02 03 06 01 02   ................
|   3808: 02 03 06 01 02 02 03 06 01 02 02 03 06 01 02 02   ................
|   3824: 01 0a 74 68 72 65 61 64 73 61 66 65 22 02 02 01   ..threadsafe....
|   3840: 02 02 01 02 02 01 04 76 74 61 62 07 02 04 01 02   .......vtab.....
|   3856: 04 01 02 04 01 01 78 01 06 01 01 02 01 06 01 01   ......x.........
|   3872: 02 01 06 01 01 02 01 06 01 01 02 01 06 01 01 02   ................
|   3888: 01 06 01 01 02 01 06 01 01 02 01 06 01 01 02 01   ................
|   3904: 06 01 01 02 01 06 01 01 02 01 06 01 01 02 01 06   ................
|   3920: 01 01 02 01 06 01 01 02 01 06 01 01 02 01 06 01   ................
|   3936: 01 02 01 06 01 01 02 01 06 01 01 02 01 06 01 01   ................
|   3952: 02 01 06 01 01 02 01 06 01 01 02 01 06 01 01 02   ................
|   3968: 01 06 01 01 02 01 06 01 01 02 01 06 01 01 02 01   ................
|   3984: 06 01 01 02 01 06 01 01 02 01 06 01 01 02 01 06   ................
|   4000: 01 01 02 01 06 01 01 02 01 06 01 01 02 01 06 01   ................
|   4016: 01 02 01 06 01 01 02 01 06 01 01 02 01 06 01 01   ................
|   4032: 02 01 06 01 01 02 01 06 01 01 02 04 15 13 0c 0c   ................
|   4048: 12 44 13 11 0f 47 13 0e fc 0e 11 10 0f 0e 10 0f   .D...G..........
|   4064: 44 0f 10 40 15 0f 07 01 03 00 14 24 5a 24 24 0f   D..@.......$Z$$.
|   4080: 0a 03 00 24 00 00 00 00 01 01 01 00 01 01 01 01   ...$............
| page 4 offset 12288
|      0: 0a 00 00 00 01 0f fa 00 0f fa 00 00 00 00 00 00   ................
|   4080: 00 00 00 00 00 00 00 00 00 00 05 04 09 0c 01 02   ................
| page 5 offset 16384
|      0: 0d 00 00 00 24 0c 0a 00 0f d8 0f af 0f 86 0f 74   ....$..........t
|     16: 0f 61 0f 4e 0f 2f 0f 0f 0e ef 0e d7 0e be 0e a5   .a.N./..........
|     32: 0e 8d 0e 74 0e 5b 0e 40 0e 24 0e 08 01 2f 0d d5   ...t.[.@.$.../..
|     48: 0d bb 0d a0 0d 84 0d 68 0d 4f 0d 35 0d 1b 0c fb   .......h.O.5....
|     64: 0c da 0c b9 0c 99 0c 78 0c 57 0c 3e 0c 24 0c 0a   .......x.W.>.$..
|   3072: 00 00 00 00 00 00 00 00 00 00 18 24 05 00 25 0f   ...........$..%.
|   3088: 19 54 48 52 45 41 44 53 41 46 45 3d 30 58 42 49   .THREADSAFE=0XBI
|   3104: 4e 41 52 59 18 23 05 00 25 0f 19 54 48 52 45 41   NARY.#..%..THREA
|   3120: 44 53 41 46 45 3d 30 58 4e 4f 43 41 53 45 17 8f   DSAFE=0XNOCASE..
|   3136: 05 00 25 0f 17 54 48 52 45 41 44 53 41 46 45 3d   ..%..THREADSAFE=
|   3152: 30 58 52 54 52 49 4d 1f 21 05 00 33 0f 19 4f 4d   0XRTRIM.!..3..OM
|   3168: 49 54 20 4c 4f 41 44 20 45 58 54 45 4e 53 49 4f   IT LOAD EXTENSIO
|   3184: 4e 58 42 49 4e 41 52 59 1f 20 05 00 33 0f 19 4f   NXBINARY. ..3..O
|   3200: 4d 49 54 20 4c 4f 41 44 20 45 58 54 45 4e 53 49   MIT LOAD EXTENSI
|   3216: 4f 4e 58 4e 4f 43 41 53 45 1e 1f 05 00 33 0f 17   ONXNOCASE....3..
|   3232: 4f 4d 49 54 20 4c 4f 41 44 20 45 58 54 45 4e 53   OMIT LOAD EXTENS
|   3248: 49 4f 4e 58 52 54 52 49 4d 1f 1e 05 00 33 0f 19   IONXRTRIM....3..
|   3264: 4d 41 58 20 4d 45 4d 4f 52 59 3d 35 30 30 30 30   MAX MEMORY=50000
|   3280: 30 30 30 57 42 49 4e 41 52 59 1f 1d 05 00 33 0f   000WBINARY....3.
|   3296: 19 4d 41 58 20 4d 45 4d 4f 52 59 3d 35 30 30 30   .MAX MEMORY=5000
|   3312: 30 30 30 30 58 4e 4f 43 41 53 45 1e 1c 05 00 33   0000XNOCASE....3
|   3328: 0f 17 4d 41 58 20 4d 45 4d 4f 52 59 3d 35 30 30   ..MAX MEMORY=500
|   3344: 30 30 30 30 30 58 52 54 52 49 4d 18 1b 05 00 25   00000XRTRIM....%
|   3360: 0f 19 45 4e 41 42 4c 45 20 52 54 52 45 45 58 42   ..ENABLE RTREEXB
|   3376: 49 4e 41 52 59 18 1a 05 00 25 0f 19 45 4e 41 42   INARY....%..ENAB
|   3392: 4c 45 20 52 54 52 45 45 59 4e 4f 43 41 53 45 17   LE RTREEYNOCASE.
|   3408: 19 05 00 25 0f 17 45 4e 41 42 4c 45 20 52 54 52   ...%..ENABLE RTR
|   3424: 45 45 58 52 54 52 49 4d 1a 18 05 00 29 0f 19 45   EEXRTRIM....)..E
|   3440: 4e 41 42 4c 45 20 4d 45 4d 53 59 53 35 58 42 49   NABLE MEMSYS5XBI
|   3456: 4e 41 52 59 1a 17 05 00 29 0f 19 45 4e 41 42 4c   NARY....)..ENABL
|   3472: 45 20 4d 45 4d 53 59 53 35 58 4e 4f 43 41 53 45   E MEMSYS5XNOCASE
|   3488: 19 16 05 00 29 0f 17 45 4e 41 42 4c 45 20 4d 45   ....)..ENABLE ME
|   3504: 4d 53 59 53 35 58 52 54 52 49 4d 18 15 05 00 25   MSYS5XRTRIM....%
|   3520: 0f 19 45 4e 41 42 4c 45 20 4a 53 4f 4e 31 58 42   ..ENABLE JSON1XB
|   3536: 49 4e 41 52 59 18 14 05 00 25 0f 19 45 4e 41 42   INARY....%..ENAB
|   3552: 4c 45 20 4a 53 4f 4e 31 58 4e 4f 43 41 53 45 17   LE JSON1XNOCASE.
|   3568: 13 05 00 25 0f 17 45 4e 41 42 4c 45 20 4a 53 4f   ...%..ENABLE JSO
|   3584: 4e 31 58 52 54 52 49 4d 1a 12 05 00 29 0f 19 45   N1XRTRIM....)..E
|   3600: 4e 41 42 4c 45 20 47 45 4f 50 4f 4c 59 58 42 49   NABLE GEOPOLYXBI
|   3616: 4e 41 52 59 1a 11 05 00 29 0f 19 45 4f 41 42 4c   NARY....)..EOABL
|   3632: 45 20 47 45 4f 50 4f 4c 59 58 4e 4f 43 51 53 45   E GEOPOLYXNOCQSE
|   3648: 19 10 05 00 29 0f 17 45 4e 41 42 4c 45 20 47 45   ....)..ENABLE GE
|   3664: 4f 50 4f 4c 59 58 52 54 52 49 4d 17 0f 05 00 23   OPOLYXRTRIM....#
|   3680: 0f 19 45 4e 41 42 4c 45 20 46 54 53 35 58 42 49   ..ENABLE FTS5XBI
|   3696: 4e 41 52 59 17 0e 05 00 23 0f 19 45 4e 41 42 4c   NARY....#..ENABL
|   3712: 45 20 46 54 53 35 58 4e 4f 43 41 53 45 16 1d 05   E FTS5XNOCASE...
|   3728: 00 23 0f a4 45 4e 41 42 4c 45 20 46 54 53 35 58   .#..ENABLE FTS5X
|   3744: 52 54 52 49 4d 17 0c 05 00 23 0f 19 45 4e 41 42   RTRIM....#..ENAB
|   3760: 4c 45 20 46 55 53 34 58 42 49 4e 41 52 59 17 0b   LE FUS4XBINARY..
|   3776: 05 00 23 0f 19 45 4e 41 42 4c 45 20 46 54 53 34   ..#..ENABLE FTS4
|   3792: 58 4e 4f 43 41 53 45 16 0a 05 00 23 0f 17 45 4e   XNOCASE....#..EN
|   3808: 41 42 4c 45 20 46 54 53 34 58 52 54 52 49 4d 1e   ABLE FTS4XRTRIM.
|   3824: 09 05 00 31 0f 19 45 4e 41 42 4c 45 20 44 42 53   ...1..ENABLE DBS
|   3840: 54 41 54 20 56 54 41 42 58 42 49 4e 41 52 59 1e   TAT VTABXBINARY.
|   3856: 08 05 00 31 0f 19 45 4e 41 42 4c 45 20 44 42 53   ...1..ENABLE DBS
|   3872: 54 41 54 20 56 54 41 42 58 4e 4f 43 41 53 45 1d   TAT VTABXNOCASE.
|   3888: 07 05 00 31 0f 17 45 4e 41 42 4c 45 20 44 42 53   ...1..ENABLE DBS
|   3904: 54 41 54 20 56 54 41 42 58 52 54 52 49 4d 11 06   TAT VTABXRTRIM..
|   3920: 05 00 17 0f 19 44 45 42 55 47 58 42 49 4e 41 52   .....DEBUGXBINAR
|   3936: 59 11 05 05 00 17 0f 19 44 45 42 55 47 58 4e 4f   Y.......DEBUGXNO
|   3952: 43 41 53 45 10 04 05 00 17 0f 17 44 45 42 55 47   CASE.......DEBUG
|   3968: 58 52 54 52 49 4d 27 03 05 00 43 0f 19 43 4f 4d   XRTRIM'...C..COM
|   3984: 50 49 4c 45 52 3d 67 63 63 2d 35 2e 34 2e 30 20   PILER=gcc-5.4.0 
|   4000: 32 30 31 36 30 36 30 39 58 42 49 4e 41 52 59 27   20160609XBINARY'
|   4016: 02 05 00 43 0f 19 43 4f 4d 50 49 4c 45 52 3d 67   ...C..COMPILER=g
|   4032: 63 63 2d 35 2e 34 2e 30 20 32 30 31 36 30 36 30   cc-5.4.0 2016060
|   4048: 39 58 4e 4f 43 41 53 45 26 01 05 00 43 0f 17 43   9XNOCASE&...C..C
|   4064: 4f 4d 50 49 4c 45 52 3d 67 63 63 2d 35 2e 34 2e   OMPILER=gcc-5.4.
|   4080: 30 20 32 30 31 36 30 36 30 39 58 52 54 52 49 4d   0 20160609XRTRIM
| page 6 offset 20480
|      0: 0d 00 00 00 24 0e e0 00 0f f8 0f f0 0f e8 0f e0   ....$...........
|     16: 0f d8 0f d0 0f c8 0f c0 0f b8 0f b0 0f a8 0f a0   ................
|     32: 0f 98 0f 90 0f 88 0f 80 0f 78 0f 70 0f 68 0f 60   .........x.p.h.`
|     48: 0f 58 0f 50 0f 48 0f 40 0f 38 0f 30 0f 28 0f 20   .X.P.H.@.8.0.(. 
|     64: 0f 18 0f 10 0f 08 0f 00 0e f8 0e f0 0e e8 0e e0   ................
|   3808: 06 24 03 00 12 02 01 01 06 23 03 00 12 02 01 01   .$.......#......
|   3824: 06 22 03 00 12 02 01 01 06 21 03 00 12 03 01 01   .........!......
|   3840: 06 20 03 00 12 03 01 01 06 1f 03 00 12 03 01 01   . ..............
|   3856: 06 1e 03 00 12 03 01 01 06 1d 03 00 12 03 01 01   ................
|   3872: 06 1c 03 00 12 03 01 01 06 1b 03 00 12 02 01 01   ................
|   3888: 06 1a 03 00 12 02 01 01 06 19 03 00 12 02 01 01   ................
|   3904: 06 18 03 00 12 02 01 01 06 17 03 00 12 02 01 01   ................
|   3920: 06 16 03 00 12 02 01 01 06 15 03 00 12 02 01 01   ................
|   3936: 06 14 03 00 12 02 01 01 06 13 03 00 12 02 01 01   ................
|   3952: 06 12 03 00 12 02 01 01 06 11 03 00 12 02 01 01   ................
|   3968: 06 10 03 00 12 02 01 01 06 0f 03 00 12 02 01 01   ................
|   3984: 06 0e 03 00 12 02 01 01 06 0d 03 00 12 02 01 01   ................
|   4000: 06 0c 03 00 12 02 01 01 06 0b 03 00 12 02 01 01   ................
|   4016: 06 0a 03 00 12 02 01 01 06 09 03 00 12 03 01 01   ................
|   4032: 06 08 03 00 12 03 01 01 06 07 03 00 12 03 01 01   ................
|   4048: 06 06 03 00 12 01 01 01 06 05 03 00 12 01 01 01   ................
|   4064: 06 04 03 00 12 01 01 01 06 03 03 00 12 06 01 01   ................
|   4080: 06 02 03 00 12 06 01 01 06 01 03 00 12 06 01 01   ................
| page 7 offset 24576
|      0: 0a 00 00 00 01 0f f4 00 0f f4 00 00 00 00 00 00   ................
|   4080: 00 00 00 00 0b 03 1b 01 76 65 72 73 69 6f 6e 04   ........version.
| page 8 offset 28672
|      0: 0d 00 00 00 03 0f d6 00 0f f4 0f e9 0f d6 00 00   ................
|   4048: 00 00 00 00 00 00 11 03 02 2b 69 6e 74 65 67 72   .........+integr
|   4064: 69 74 79 2d 63 68 65 63 6b 09 02 02 1b 72 65 62   ity-check....reb
|   4080: 75 69 6c 64 0a 01 02 1d 6f 70 74 69 6d 69 7a 65   uild....optimize
| end crash-ae135cb10977c7.db
}]} {}

do_catchsql_test 35.1 {
  SELECT * FROM t1 WHERE t1 MATCH 'e*';
} {1 {fts5: missing row 14 from content table 'main'.'t1_content'}}

#-------------------------------------------------------------------------
reset_db
do_test 36.0 {
  sqlite3 db {}
  db deserialize [decode_hexdb {
| size 24576 pagesize 4096 filename crash-a6651222df1bd1.db
| page 1 offset 0
|      0: 53 51 4c 69 74 65 20 66 6f 72 6d 61 74 20 33 00   SQLite format 3.
|     16: 10 00 01 01 00 40 20 20 00 00 00 00 00 00 00 06   .....@  ........
|     32: 00 00 00 00 00 00 00 00 00 00 00 06 00 00 00 04   ................
|     48: 00 00 00 00 00 00 00 00 00 00 00 01 00 00 00 00   ................
|     96: 00 00 00 00 0d 00 00 00 06 0e 0f 00 0f aa 0f 53   ...............S
|    112: 0e e8 0e 8b 0e 33 0e 0f 00 00 00 00 00 00 00 00   .....3..........
|   3584: 00 00 00 00 00 00 00 00 00 00 00 00 00 00 00 22   ................
|   3600: 06 06 17 11 11 01 31 74 61 62 6c 65 62 62 62 62   ......1tablebbbb
|   3616: 06 43 52 45 41 54 45 20 54 41 42 4c 45 20 62 62   .CREATE TABLE bb
|   3632: 28 61 29 56 05 06 17 1f 1f 01 7d 74 61 62 6c 65   (a)V.......table
|   3648: 74 31 5f 63 6f 6e 66 69 67 74 31 5f 63 6f 6e 66   t1_configt1_conf
|   3664: 69 67 05 43 52 45 41 54 45 20 54 41 42 4c 45 20   ig.CREATE TABLE 
|   3680: 27 74 31 5f 63 6f 6e 66 69 67 27 28 6b 20 50 52   't1_config'(k PR
|   3696: 49 4d 41 52 59 20 4b 45 59 2c 20 76 29 20 57 49   IMARY KEY, v) WI
|   3712: 54 48 4f 55 54 20 52 4f 57 49 44 5b 04 07 17 21   THOUT ROWID[...!
|   3728: 21 01 81 01 74 61 62 6c 65 74 31 5f 64 6f 63 73   !...tablet1_docs
|   3744: 69 7a 65 74 31 5f 64 6f 63 73 69 7a 65 04 43 52   izet1_docsize.CR
|   3760: 45 41 54 45 20 54 41 42 4c 45 20 27 74 31 5f 64   EATE TABLE 't1_d
|   3776: 6f 63 73 69 7a 65 27 28 69 64 20 49 4e 54 45 47   ocsize'(id INTEG
|   3792: 45 52 20 50 52 49 4d 41 52 59 20 4b 45 59 2c 20   ER PRIMARY KEY, 
|   3808: 73 7a 20 42 4c 4f 42 29 69 03 07 17 19 19 01 81   sz BLOB)i.......
|   3824: 2d 74 61 62 6c 65 74 31 5f 69 64 78 74 31 5f 69   -tablet1_idxt1_i
|   3840: 64 78 03 43 52 45 41 54 45 20 54 41 42 4c 45 20   dx.CREATE TABLE 
|   3856: 27 74 31 5f 69 64 78 27 28 73 65 67 69 64 2c 20   't1_idx'(segid, 
|   3872: 74 65 72 6d 2c 20 70 67 6e 6f 2c 20 50 52 49 4d   term, pgno, PRIM
|   3888: 41 52 59 20 4b 45 59 28 73 65 67 69 64 2c 20 74   ARY KEY(segid, t
|   3904: 65 72 6d 29 29 20 57 49 54 48 4f 55 54 20 52 4f   erm)) WITHOUT RO
|   3920: 57 49 44 55 02 07 17 1b 1b 01 81 01 74 61 62 6c   WIDU........tabl
|   3936: 65 74 31 5f 64 61 74 61 74 31 5f 64 61 74 61 02   et1_datat1_data.
|   3952: 43 52 45 41 54 45 20 54 41 42 4c 45 20 27 74 31   CREATE TABLE 't1
|   3968: 5f 64 61 74 61 27 28 69 64 20 49 4e 54 45 47 45   _data'(id INTEGE
|   3984: 52 20 50 52 49 4d 41 52 59 20 4b 45 59 2c 20 62   R PRIMARY KEY, b
|   4000: 6c 6f 63 6b 20 42 4c 4f 42 29 54 01 07 17 11 11   lock BLOB)T.....
|   4016: 08 81 15 74 61 62 6c 65 74 31 74 31 43 52 45 41   ...tablet1t1CREA
|   4032: 54 45 20 56 49 52 54 55 41 4c 20 54 41 42 4c 45   TE VIRTUAL TABLE
|   4048: 20 74 31 20 55 53 49 4e 47 20 66 74 73 35 28 61    t1 USING fts5(a
|   4064: 2c 62 2c 70 72 65 66 69 78 3d 22 31 2c 32 2c 33   ,b,prefix=.1,2,3
|   4080: 2c 34 22 2c 20 63 6f 6e 74 65 6e 74 3d 22 22 29   ,4., content=..)
| page 2 offset 4096
|      0: 0d 0b 6a 00 37 09 4c 02 0f e7 09 4c 0f c6 0f a4   ..j.7.L....L....
|     16: 0f 88 0f 6d 0f 4b 0f 2c 0f 0e 0e ec 0e cd 0e ad   ...m.K.,........
|     32: 0e 8e 0e 6c 0e 4b 0e 29 0e 08 0d e6 0d c4 0d b5   ...l.K.)........
|     48: 0d 97 0d 76 0d 54 0d 31 0d 15 0c f3 0c d3 0c b5   ...v.T.1........
|     64: 0c 95 0c 73 0c 54 0c 32 0c 10 0b ee 0b cc 0b b0   ...s.T.2........
|     80: 0b 8d 0b 7e 0b 48 0b 2e 0b 0b 0a ef 0a cc 0a ad   ...~.H..........
|     96: 0a 8c 0a 6d 0a 4d 0a 2b 0a 0c 09 ec 09 ca 09 a8   ...m.M.+........
|    112: 09 86 09 63 0f f1 00 00 00 00 00 00 00 00 00 00   ...c............
|   2368: 00 00 00 00 00 00 00 00 00 00 00 00 15 0a 03 00   ................
|   2384: 30 00 00 00 01 01 03 35 00 03 01 11 12 02 01 12   0......5........
|   2400: 03 01 11 1c 8c 80 80 80 80 10 03 00 3e 00 00 00   ............>...
|   2416: 17 01 05 05 34 74 61 62 6c 03 02 03 01 04 77 68   ....4tabl.....wh
|   2432: 65 72 03 02 06 09 1b 8c 80 80 80 80 0f 03 00 3c   er.............<
|   2448: 00 00 00 16 05 34 66 74 73 34 03 02 02 01 04 6e   .....4fts4.....n
|   2464: 75 6d 62 03 06 01 04 09 1b 8c 80 80 80 80 0e 03   umb.............
|   2480: 00 3c 00 00 00 16 04 33 74 68 65 03 06 01 01 04   .<.....3the.....
|   2496: 01 03 77 68 65 03 02 04 04 0a 1b 8c 80 80 80 80   ..whe...........
|   2512: 0d 03 00 3c 00 00 00 16 04 33 6e 75 6d 03 06 01   ...<.....3num...
|   2528: 01 05 01 03 74 61 62 03 02 03 04 0a 19 8c 80 80   ....tab.........
|   2544: 80 80 0c 03 00 38 00 00 00 14 03 32 77 68 03 02   .....8.....2wh..
|   2560: 04 00 04 33 66 74 73 03 02 02 04 07 18 8c 80 80   ...3fts.........
|   2576: 80 80 0b 03 00 36 00 00 00 13 03 32 74 61 03 02   .....6.....2ta..
|   2592: 03 02 01 68 03 06 01 01 04 04 07 1b 8c 80 80 80   ...h............
|   2608: 80 0a 03 00 3c 00 00 00 16 03 32 6e 75 03 06 01   ....<.....2nu...
|   2624: 01 05 01 02 6f 66 03 06 01 01 06 04 09 19 8c 80   ....of..........
|   2640: 80 80 80 09 03 00 38 00 00 00 14 03 32 66 74 03   ......8.....2ft.
|   2656: 02 02 01 02 69 73 03 06 01 01 03 04 07 18 8c 80   ....is..........
|   2672: 80 80 80 08 03 00 36 00 00 00 13 02 31 74 03 08   ......6.....1t..
|   2688: 03 01 01 04 01 01 77 03 02 04 04 09 1a 8c 80 80   ......w.........
|   2704: 80 80 07 03 00 3a 00 00 00 15 02 31 6e 03 08 01   .....:.....1n...
|   2720: 01 02 05 01 00 6f 03 06 01 01 06 04 09 18 8c 80   .....o..........
|   2736: 80 80 80 06 03 00 36 00 00 00 13 04 02 31 66 03   ......6......1f.
|   2752: 02 02 01 01 69 03 06 01 01 03 05 06 1c 8c 80 80   ....i...........
|   2768: 80 80 05 03 00 3e 00 00 00 17 04 30 74 68 65 03   .....>.....0the.
|   2784: 06 01 01 04 01 05 77 68 65 72 65 03 02 04 0a 15   ......where.....
|   2800: 8c 80 80 80 80 04 03 00 30 00 00 00 11 01 01 06   ........0.......
|   2816: 06 30 74 61 62 6c 65 03 02 03 07 1c 8c 80 80 80   .0table.........
|   2832: 80 03 03 00 3e 00 00 00 17 07 30 6e 75 6d 62 65   ....>.....0numbe
|   2848: 72 03 06 01 01 05 01 02 6f 66 03 06 04 0d 13 8c   r.......of......
|   2864: 80 80 80 80 02 03 00 2c 00 00 00 0f 01 01 03 02   .......,........
|   2880: 30 6e 03 06 01 01 02 07 1b 8c 80 80 80 80 01 03   0n..............
|   2896: 00 3c 00 00 00 16 08 30 66 74 73 34 61 75 78 03   .<.....0fts4aux.
|   2912: 02 02 01 02 69 73 03 06 04 0c 00 00 00 14 2a 00   ....is........*.
|   2928: 00 00 01 01 02 24 00 02 01 01 12 02 01 12 08 88   .....$..........
|   2944: 80 80 80 80 12 03 00 16 00 00 00 05 02 1c 88 80   ................
|   2960: 80 80 80 11 03 00 3e 00 00 00 17 05 34 72 6f 77   ......>.....4row
|   2976: 73 02 06 01 01 05 01 04 74 68 65 72 02 02 04 0b   s.......ther....
|   2992: 15 88 80 80 80 80 10 03 00 30 00 00 00 11 02 01   .........0......
|   3008: 01 07 05 34 62 65 74 77 02 02 04 08 1b 88 80 80   ...4betw........
|   3024: 80 80 0f 03 00 3c 00 00 00 16 04 04 33 72 6f 77   .....<......3row
|   3040: 02 06 01 01 05 01 03 74 68 65 02 08 05 0a 1b 88   .......the......
|   3056: 80 80 80 80 0e 03 00 3c 00 00 00 16 01 01 02 04   .......<........
|   3072: 33 61 72 65 02 02 03 01 03 62 65 74 02 02 07 08   3are.....bet....
|   3088: 1b 88 80 80 80 80 0d 03 00 3c 00 00 00 16 13 32   .........<.....2
|   3104: 74 68 02 08 02 01 01 07 00 04 33 61 6e 64 02 06   th........3and..
|   3120: 04 0a 1b 88 80 80 80 80 0c 03 00 3c 00 00 00 16   ...........<....
|   3136: 03 32 69 6e 02 06 01 01 06 01 02 72 6f 02 06 01   .2in.......ro...
|   3152: 01 05 04 09 18 88 80 80 80 80 0b 03 00 36 00 00   .............6..
|   3168: 00 13 02 03 32 61 72 02 02 03 01 02 62 65 02 02   ....2ar.....be..
|   3184: 04 05 07 1b 88 80 80 80 80 0a 03 00 3c 00 00 00   ............<...
|   3200: 16 02 31 74 02 08 02 01 01 07 00 03 32 61 6e 02   ..1t........2an.
|   3216: 06 01 01 04 09 19 88 80 80 80 80 09 03 00 38 00   ..............8.
|   3232: 00 00 14 02 31 6e 02 06 01 01 03 01 01 72 02 06   ....1n.......r..
|   3248: 01 01 05 04 08 17 88 80 80 80 80 08 03 00 34 00   ..............4.
|   3264: 00 00 12 02 31 62 02 02 04 01 01 69 02 06 01 01   ....1b.....i....
|   3280: 06 04 06 19 88 80 80 80 80 07 03 00 38 00 00 00   ............8...
|   3296: 14 04 02 31 32 02 02 05 01 01 61 02 08 03 01 01   ...12.....a.....
|   3312: 02 05 06 1b 88 80 80 80 80 06 03 00 3c 00 00 00   ............<...
|   3328: 16 06 30 74 68 65 72 65 02 02 02 00 02 31 31 02   ..0there.....11.
|   3344: 06 01 01 04 0a 15 88 80 80 80 80 05 03 00 30 00   ..............0.
|   3360: 00 00 11 01 01 05 04 30 74 68 65 02 06 01 01 07   .......0the.....
|   3376: 07 1c 88 80 80 80 80 04 03 00 3e 00 00 00 17 01   ..........>.....
|   3392: 01 06 02 30 6e 02 06 01 01 03 01 04 72 6f 77 73   ...0n.......rows
|   3408: 02 06 07 08 1b 88 80 80 80 80 03 03 00 3c 00 00   .............<..
|   3424: 00 16 08 30 62 65 74 77 65 65 6e 02 02 04 01 02   ...0between.....
|   3440: 69 6e 02 06 04 0c 1a 88 80 80 80 80 02 03 00 3a   in.............:
|   3456: 00 00 00 15 04 30 61 6e 64 02 06 01 01 02 02 02   .....0and.......
|   3472: 72 65 02 02 03 04 0a 17 88 80 80 80 80 01 03 00   re..............
|   3488: 34 00 00 00 12 02 30 31 02 06 01 01 04 01 01 32   4.....01.......2
|   3504: 02 02 05 04 08 08 84 80 80 80 80 12 03 00 16 00   ................
|   3520: 00 00 05 04 1b 84 80 80 80 80 11 03 00 3c 00 00   .............<..
|   3536: 00 16 05 34 74 61 62 6c 01 06 01 01 05 02 03 65   ...4tabl.......e
|   3552: 72 6d 01 02 04 0b 1b 84 80 80 80 80 10 03 00 3c   rm.............<
|   3568: 00 00 00 16 05 34 65 61 63 68 01 02 03 01 04 70   .....4each.....p
|   3584: 72 65 73 01 02 05 04 09 1a 84 80 80 80 80 0f 03   res.............
|   3600: 00 3a 00 00 00 15 04 33 74 65 72 01 02 04 02 02   .:.....3ter.....
|   3616: 68 65 01 06 01 01 03 04 08 1b 84 80 80 80 80 0e   he..............
|   3632: 03 00 3c 00 00 00 16 04 33 70 72 65 01 02 05 01   ..<.....3pre....
|   3648: 03 74 61 62 01 06 01 01 05 04 08 1a 84 80 80 80   .tab............
|   3664: 80 0d 03 00 3a 00 00 00 15 04 33 66 6f 72 01 02   ....:.....3for..
|   3680: 02 02 02 74 73 01 06 01 01 04 04 08 1b 84 80 80   ...ts...........
|   3696: 80 80 0c 03 00 3c 00 00 00 16 03 32 74 68 01 06   .....<.....2th..
|   3712: 01 01 03 00 04 33 65 61 63 01 02 03 04 09 18 84   .....3eac.......
|   3728: 80 80 80 80 0b 03 00 36 00 00 00 13 03 32 74 61   .......6.....2ta
|   3744: 01 06 01 01 05 02 01 65 01 02 04 04 09 19 84 80   .......e........
|   3760: 80 80 80 0a 03 00 38 00 00 00 14 03 32 69 6e 01   ......8.....2in.
|   3776: 06 01 01 02 01 02 70 72 01 02 05 04 09 18 84 80   ......pr........
|   3792: 80 80 80 09 03 00 36 00 00 00 13 03 32 66 6f 01   ......6.....2fo.
|   3808: 02 02 02 01 74 01 06 01 01 04 04 07 1b 84 80 80   ....t...........
|   3824: 80 80 08 03 00 3c 00 00 00 16 02 31 74 01 0a 04   .....<.....1t...
|   3840: 01 01 03 04 00 03 32 65 61 01 02 03 04 0a 17 84   ......2ea.......
|   3856: 80 80 80 80 07 03 00 34 00 00 00 12 02 31 69 01   .......4.....1i.
|   3872: 06 01 01 02 01 01 70 01 02 05 04 08 18 84 80 80   ......p.........
|   3888: 80 80 06 03 00 36 00 00 00 13 02 31 65 01 02 03   .....6.....1e...
|   3904: 01 01 66 01 08 02 01 01 04 04 06 1b 84 80 80 80   ..f.............
|   3920: 80 05 03 00 3c 00 00 00 16 05 30 74 65 72 6d 01   ....<.....0term.
|   3936: 02 04 02 02 68 65 01 06 01 01 03 04 09 14 84 80   ....he..........
|   3952: 80 80 80 04 03 00 2e 00 00 00 10 06 30 64 61 62   ............0dab
|   3968: 6c 65 01 06 01 01 05 04 15 84 80 80 80 80 03 03   le..............
|   3984: 00 30 00 00 00 11 02 08 30 70 72 65 73 65 6e 74   .0......0present
|   4000: 01 02 05 05 1b 84 80 80 80 80 02 03 00 3c 00 00   .............<..
|   4016: 00 16 04 30 66 74 73 01 06 01 01 04 01 02 69 6e   ...0fts.......in
|   4032: 01 06 01 01 04 0a 1a 84 80 80 80 80 01 03 00 3a   ...............:
|   4048: 00 00 00 15 05 30 65 61 63 68 01 02 03 01 03 66   .....0each.....f
|   4064: 6f 72 01 02 02 04 09 06 01 03 00 12 03 0b 0f 00   or..............
|   4080: 00 08 8c 80 80 80 80 11 03 00 16 00 00 00 05 04   ................
| page 3 offset 8192
|      0: 0a 00 00 00 32 0e 4f 00 0f fa 0f f1 0f e9 0f e1   ....2.O.........
|     16: 0f d8 0f d1 0f c9 0f c1 0f b9 0f b1 0f a9 0f a0   ................
|     32: 0f 98 0f 90 0f 87 0f 80 0f 78 0f 71 0f 68 0f 5f   .........x.q.h._
|     48: 0f 56 0f 4d 0f 41 0f 38 0f 2f 0f 26 0f 1d 0f 13   .V.M.A.8./.&....
|     64: 0f 0a 0f 01 0e f7 0e ee 0e e6 0e dd 0e d6 0e cd   ................
|     80: 0e c3 0e ba 0e b0 0e a8 0e 9f 0e 96 0e 8e 0e 85   ................
|     96: 0e 7c 0e 73 0e 6a 0e 60 0e 58 0e 4f 00 00 00 00   .|.s.j.`.X.O....
|   3648: 00 00 00 00 00 00 00 00 00 00 00 00 00 00 00 08   ................
|   3664: 04 01 10 01 03 34 74 20 07 04 01 0e 01 03 34 1e   .....4t ......4.
|   3680: 09 04 01 12 01 03 33 74 68 1c 08 04 01 10 01 03   ......3th.......
|   3696: 33 6e 1a 08 04 01 10 01 03 32 77 18 08 04 01 10   3n.......2w.....
|   3712: 01 03 32 74 16 08 04 01 10 01 03 32 6e 14 07 04   ..2t.......2n...
|   3728: 01 0e 01 03 32 12 08 04 01 10 01 03 31 74 10 08   ....2.......1t..
|   3744: 04 01 10 01 03 31 6e 0e 07 04 01 0e 01 03 31 0c   .....1n.......1.
|   3760: 09 04 01 12 01 03 30 74 68 0a 08 04 01 10 01 03   ......0th.......
|   3776: 30 74 08 09 04 01 12 01 03 30 6e 75 06 08 04 01   0t.......0nu....
|   3792: 10 01 03 30 6e 04 06 04 01 0c 01 03 02 08 04 01   ...0n...........
|   3808: 10 01 02 34 72 22 07 04 01 0e 01 02 34 20 08 04   ...4r.......4 ..
|   3824: 01 10 01 02 33 72 1e 09 04 01 12 01 02 33 61 72   ....3r.......3ar
|   3840: 1c 08 04 01 10 01 02 32 74 1a 08 04 01 10 01 02   .......2t.......
|   3856: 32 69 18 09 04 01 12 01 02 32 61 72 16 08 04 01   2i.......2ar....
|   3872: 10 01 02 31 74 14 08 04 01 10 01 02 31 6e 12 08   ...1t.......1n..
|   3888: 04 01 10 01 02 31 62 10 08 04 01 10 01 02 31 32   .....1b.......12
|   3904: 0e 0b 04 01 16 01 02 30 74 68 65 72 0c 08 04 01   .......0ther....
|   3920: 10 01 02 30 74 0a 08 04 01 10 01 02 30 6e 08 08   ...0t.......0n..
|   3936: 14 01 10 01 02 30 62 06 08 04 01 10 01 02 30 61   .....0b.......0a
|   3952: 04 06 04 01 0c 01 02 02 07 04 09 10 01 34 74 22   .............4t.
|   3968: 06 04 09 0e 01 34 20 08 04 09 12 01 33 74 65 1e   .....4 .....3te.
|   3984: 07 04 09 10 01 33 70 1c 07 04 09 10 01 33 66 1a   .....3p......3f.
|   4000: 08 04 09 12 01 32 74 68 18 07 04 09 10 01 32 74   .....2th......2t
|   4016: 16 07 04 09 10 01 32 69 14 07 04 09 10 01 32 66   ......2i......2f
|   4032: 12 07 04 09 10 01 31 74 10 07 04 09 10 01 31 69   ......1t......1i
|   4048: 0e 06 04 09 0e 01 31 0c 08 04 09 12 01 30 74 65   ......1......0te
|   4064: 0a 07 04 09 10 01 30 74 08 07 04 09 10 01 30 70   ......0t......0p
|   4080: 06 08 04 09 12 01 30 66 74 04 05 04 09 0c 01 02   ......0ft.......
| page 4 offset 12288
|      0: 0d 00 00 00 03 0f eb 00 0f f9 0f f2 0f eb 00 00   ................
|   4064: 00 00 00 00 00 00 00 00 00 00 00 05 03 03 00 10   ................
|   4080: 03 05 05 02 03 00 10 04 06 05 01 03 00 10 04 04   ................
| page 5 offset 16384
|      0: 0a 00 00 00 02 0f eb 00 0f eb 0f f4 00 00 00 00   ................
|   4064: 00 00 00 00 00 00 00 00 00 00 00 08 03 15 01 70   ...............p
|   4080: 67 73 7a 18 0b 03 1b 01 76 65 72 73 69 6f 6e 04   gsz.....version.
| page 6 offset 20480
|      0: 0d 00 00 00 03 0f f2 00 0f fc 0f f7 0f f2 00 00   ................
|   4080: 00 00 03 03 02 01 03 03 02 02 01 02 02 01 0c e9   ................
| end crash-a6651222df1bd1.db
}]} {}

do_catchsql_test 36.1 {
  INSERT INTO t1(b) VALUES(
      x'78de3fa24af3733ca8769291a0fee3669f9fddefc5cba913e4225d4b6ce2b04f26b87fad3ee6f9b7d90a1ea62a169bf41e5d32707a6ca5c3d05e4bde05c9d89eaaa8c50e74333d2e9fcd7dfe95528a3a016aac1102d825c5cd70cf99d8a88e0ea7f798d4334386518b7ad359beb168b93aba059a2a3bd93112d65b44c12b9904ea786b204d80531cdf0504bf9b203dbe927061974caf7b9f30cbc3397b61f802e732012a6663d41c3607d6f1c0dbcfd489adac05ca500c0b04439d894cd93a840159225ef73b627e178b9f84b3ffe66cf22a963a8368813ff7961fc47f573211ccec95e0220dcbb3bf429f4a50ba54d7a53784ac51bfef346e6a');
} {0 {}}

#-------------------------------------------------------------------------
reset_db
do_test 37.0 {
  sqlite3 db {}
  db deserialize [decode_hexdb {
| size 40960 pagesize 4096 filename null-memcmp-param-1..db
| page 1 offset 0
|      0: 53 51 4c 69 74 65 20 66 6f 72 6d 61 74 20 33 00   SQLite format 3.
|     16: 10 00 01 01 00 40 20 20 00 00 00 00 00 00 00 0a   .....@  ........
|     32: 00 00 00 00 00 00 00 00 00 00 00 0d 00 00 00 04   ................
|     48: 00 00 00 00 00 00 00 00 00 00 00 01 00 00 00 00   ................
|     96: 00 00 00 00 0d 00 00 00 0d 0b 6e 00 0f a3 0f 4c   ..........n....L
|    112: 0e e1 0e 81 0e 24 0d cc 0d 72 0d 1b 0c b0 0c 50   .....$...r.....P
|    128: 0b f8 0b b3 0b 6e 00 00 00 00 00 00 00 00 00 00   .....n..........
|   2912: 00 00 00 00 00 00 00 00 00 00 00 00 00 00 43 0d   ..............C.
|   2928: 06 17 11 11 08 75 74 61 62 6c 66 74 34 74 34 43   .....utablft4t4C
|   2944: 52 45 41 54 45 20 56 49 52 54 55 41 4c 20 54 41   REATE VIRTUAL TA
|   2960: 42 4c 45 20 74 34 20 55 53 49 4e 47 20 66 74 73   BLE t4 USING fts
|   2976: 35 76 6f 63 61 62 28 27 74 32 27 2c 20 27 72 6f   5vocab('t2', 'ro
|   2992: 77 27 29 43 0c 06 17 11 11 08 75 74 61 62 6c 65   w')C......utable
|   3008: 74 33 74 33 43 52 45 41 54 45 20 56 49 52 54 55   t3t3CREATE VIRTU
|   3024: 41 4c 20 54 41 42 4c 45 20 74 33 20 55 53 49 4e   AL TABLE t3 USIN
|   3040: 47 20 66 74 73 35 76 6f 63 61 62 28 27 74 31 27   G fts5vocab('t1'
|   3056: 2c 20 27 72 6f 77 27 29 56 0b 06 17 1f 1f 01 7d   , 'row')V.......
|   3072: 74 61 62 6c 65 74 32 5f 63 6f 6e 66 69 67 74 32   tablet2_configt2
|   3088: 5f 63 6f 6e 66 69 67 0a 43 52 45 41 54 45 20 54   _config.CREATE T
|   3104: 41 42 4c 45 20 27 74 32 5f 63 6f 6e 66 69 67 27   ABLE 't2_config'
|   3120: 28 6b 20 50 52 49 4d 41 52 59 20 4b 45 59 2c 20   (k PRIMARY KEY, 
|   3136: 76 29 20 57 49 54 48 4f 55 54 20 52 4f 57 49 44   v) WITHOUT ROWID
|   3152: 5e 0a 07 17 21 21 01 81 07 74 61 62 6c 65 74 32   ^...!!...tablet2
|   3168: 5f 63 6f 6e 74 65 6e 74 74 32 5f 63 6f 6e 74 65   _contentt2_conte
|   3184: 6e 74 09 43 52 45 41 54 45 20 54 41 42 4c 45 20   nt.CREATE TABLE 
|   3200: 27 74 32 5f 63 6f 6e 74 65 6e 74 27 28 69 64 20   't2_content'(id 
|   3216: 49 4e 54 45 47 45 52 20 50 52 49 4d 41 52 59 20   INTEGER PRIMARY 
|   3232: 4b 45 59 2c 20 63 30 2c 20 63 31 2c 20 63 32 29   KEY, c0, c1, c2)
|   3248: 69 09 07 17 19 19 01 81 2d 74 61 62 6c 65 74 32   i.......-tablet2
|   3264: 5f 69 64 78 74 32 5f 69 64 78 08 43 52 45 41 54   _idxt2_idx.CREAT
|   3280: 45 20 54 41 42 4c 45 20 27 74 32 5f 69 64 78 27   E TABLE 't2_idx'
|   3296: 28 73 65 67 69 64 2c 20 74 65 72 6d 2c 20 70 67   (segid, term, pg
|   3312: 6e 6f 2c 20 50 52 49 4d 41 52 59 20 4b 45 59 28   no, PRIMARY KEY(
|   3328: 73 65 67 69 64 2c 20 74 65 72 6d 29 29 20 57 49   segid, term)) WI
|   3344: 54 48 4f 55 54 20 52 4f 57 49 44 55 08 07 17 1b   THOUT ROWIDU....
|   3360: 1b 01 81 01 74 61 62 6c 65 74 32 5f 64 61 74 61   ....tablet2_data
|   3376: 74 32 5f 64 61 74 61 07 43 52 45 41 54 45 20 54   t2_data.CREATE T
|   3392: 41 42 4c 45 20 27 74 32 5f 64 61 74 61 27 28 69   ABLE 't2_data'(i
|   3408: 64 20 49 4e 54 45 47 45 52 20 50 52 49 4d 41 52   d INTEGER PRIMAR
|   3424: 59 20 4b 45 59 2c 20 62 6c 6f 63 6b 20 42 4c 4f   Y KEY, block BLO
|   3440: 42 29 58 07 07 17 11 11 08 81 1d 74 61 62 6c 65   B)X........table
|   3456: 74 32 74 32 43 52 45 41 54 45 20 56 49 52 54 55   t2t2CREATE VIRTU
|   3472: 41 4c 20 54 41 42 4c 45 20 74 32 20 55 53 49 4e   AL TABLE t2 USIN
|   3488: 47 20 64 44 73 35 28 27 61 27 2c 5b 62 5d 2c 22   G dDs5('a',[b],.
|   3504: 63 22 2c 64 65 74 61 69 6c 3d 6e 6f 6e 65 2c 63   c.,detail=none,c
|   3520: 6f 6c 75 6d 6e 73 69 7a 65 3d 30 29 56 06 06 17   olumnsize=0)V...
|   3536: 1f 1f 01 7d 74 61 62 6c 65 74 31 5f 63 6f 6e 66   ....tablet1_conf
|   3552: 69 67 74 31 5f 63 6f 6e 66 69 67 06 43 52 45 41   igt1_config.CREA
|   3568: 54 45 20 54 41 42 4c 45 20 27 74 31 5f 63 6f 6e   TE TABLE 't1_con
|   3584: 66 69 67 27 28 6b 20 50 52 49 4d 41 52 59 20 4b   fig'(k PRIMARY K
|   3600: 45 59 2c 20 76 29 20 57 49 54 48 4f 55 54 20 52   EY, v) WITHOUT R
|   3616: 4f 57 49 44 5b 05 07 17 21 21 01 81 01 74 61 62   OWID[...!!...tab
|   3632: 6c 65 74 31 5f 64 6f 63 73 69 7a 65 74 31 5f 64   let1_docsizet1_d
|   3648: 6f 63 73 69 7a 65 05 43 52 45 41 54 45 20 54 41   ocsize.CREATE TA
|   3664: 42 4c 45 20 27 74 31 5f 64 6f 63 73 69 7a 65 27   BLE 't1_docsize'
|   3680: 28 69 64 20 49 4e 54 45 47 45 52 20 50 52 49 4d   (id INTEGER PRIM
|   3696: 41 52 59 20 4b 45 59 2c 20 73 7a 20 42 4c 4f 42   ARY KEY, sz BLOB
|   3712: 29 5e 04 07 17 21 21 01 81 07 74 61 62 6c 65 74   )^...!!...tablet
|   3728: 31 5f 63 6f 6e 74 65 6e 74 74 31 5f 63 6f 6e 74   1_contentt1_cont
|   3744: 65 6e 74 04 43 52 45 41 54 45 20 54 41 42 4c 45   ent.CREATE TABLE
|   3760: 20 27 74 31 5f 63 6f 6e 74 65 6e 74 27 28 69 64    't1_content'(id
|   3776: 20 49 4e 54 45 47 45 52 20 50 52 49 4d 41 52 59    INTEGER PRIMARY
|   3792: 20 4b 45 59 2c 20 63 30 2c 20 63 31 2c 20 63 32    KEY, c0, c1, c2
|   3808: 29 69 03 07 17 19 19 01 81 2d 74 61 62 6c 65 74   )i.......-tablet
|   3824: 31 5f 69 64 78 74 31 5f 69 64 78 03 43 52 45 41   1_idxt1_idx.CREA
|   3840: 54 45 20 54 41 42 4c 45 20 27 74 31 5f 69 64 78   TE TABLE 't1_idx
|   3856: 27 28 73 65 67 69 64 2c 20 74 65 72 6d 2c 20 70   '(segid, term, p
|   3872: 67 6e 6f 2c 20 50 52 49 4d 41 52 59 20 4b 45 59   gno, PRIMARY KEY
|   3888: 28 73 65 67 69 64 2c 20 74 65 72 6d 29 29 20 57   (segid, term)) W
|   3904: 49 54 48 4f 55 54 20 52 4f 57 49 44 55 02 07 17   ITHOUT ROWIDU...
|   3920: 1b 1b 01 81 01 74 61 62 6c 65 74 31 5f 64 61 74   .....tablet1_dat
|   3936: 61 74 31 5f 64 61 74 61 02 43 52 45 41 54 45 20   at1_data.CREATE 
|   3952: 54 41 42 4c 45 20 27 74 31 5f 64 61 74 61 27 28   TABLE 't1_data'(
|   3968: 69 64 20 49 4e 54 45 47 45 52 20 50 52 49 4d 41   id INTEGER PRIMA
|   3984: 52 59 20 4b 45 59 2c 20 62 6c 6f 63 6b 20 42 4c   RY KEY, block BL
|   4000: 4f 42 29 5b 01 07 17 11 11 08 81 23 74 61 62 6c   OB)[.......#tabl
|   4016: 65 74 31 74 31 43 52 45 41 54 45 20 56 49 52 54   et1t1CREATE VIRT
|   4032: 55 41 4c 20 54 41 42 4c 45 20 74 31 20 55 53 49   UAL TABLE t1 USI
|   4048: 4e 47 20 66 74 73 35 28 61 2c 62 20 75 6e 69 6e   NG fts5(a,b unin
|   4064: 64 65 78 65 64 2c 63 2c 74 6f 6b 65 6e 69 7a 65   dexed,c,tokenize
|   4080: 3d 22 70 6f 72 74 65 72 20 61 73 63 69 69 22 29   =.porter ascii.)
| page 2 offset 4096
|      0: 0d 0f 68 00 05 0f 13 00 0f e6 0f 13 0f a8 0f 7c   ..h............|
|     16: 0f 2a 00 00 00 00 00 00 00 00 00 00 00 00 00 00   .*..............
|   3856: 00 00 00 15 0a 03 00 30 00 00 00 00 01 03 03 00   .......0........
|   3872: 03 01 01 01 02 01 01 03 01 01 37 8c 80 80 80 80   ..........7.....
|   3888: 01 03 00 74 00 00 00 2e 02 30 61 03 02 02 01 01   ...t.....0a.....
|   3904: 62 03 02 03 01 01 63 03 02 04 01 01 67 03 06 01   b.....c.....g...
|   3920: 02 02 01 01 68 03 06 01 02 03 01 01 69 03 06 01   ....h.......i...
|   3936: 02 04 04 06 06 06 08 08 0f ef 00 14 2a 00 00 00   ............*...
|   3952: 00 01 02 02 00 02 01 01 01 02 01 01 25 88 80 80   ............%...
|   3968: 80 80 01 03 00 50 00 00 00 1f 01 30 67 02 08 02   .....P.....0g...
|   3984: 01 02 02 01 01 68 02 08 03 01 02 03 01 01 69 02   .....h........i.
|   4000: 08 04 01 02 04 04 09 09 37 84 80 80 80 80 01 03   ........7.......
|   4016: 00 74 00 00 00 2e 02 30 61 01 5a 02 01 01 62 01   .t.....0a.Z...b.
|   4032: 02 03 01 01 63 01 02 04 01 01 67 01 06 01 02 02   ....c.....g.....
|   4048: 01 01 68 01 06 01 02 03 01 01 69 01 06 01 02 04   ..h.......i.....
|   4064: 04 06 06 06 08 08 07 01 03 00 14 03 09 00 09 00   ................
|   4080: 00 00 11 24 00 00 00 00 01 01 01 00 01 01 01 01   ...$............
| page 3 offset 8192
|      0: 0a 00 00 00 03 0f ec 00 0f fa 0f f3 0f ec 00 00   ................
|   4064: 00 00 00 00 00 00 00 00 00 00 00 00 06 04 01 0c   ................
|   4080: 01 03 02 06 04 01 0c 01 02 02 05 04 09 0c 01 02   ................
| page 4 offset 12288
|      0: 0d 00 00 00 03 0f be 00 0f ea 0f d4 0f be 00 00   ................
|   4016: 00 00 00 00 00 00 00 00 00 00 00 00 00 00 14 03   ................
|   4032: 05 00 17 17 17 61 20 62 20 63 67 20 68 20 69 67   .....a b cg h ig
|   4048: 20 68 20 69 14 02 05 00 17 17 17 67 20 68 20 69    h i.......g h i
|   4064: 61 20 62 20 63 67 20 68 20 69 14 01 05 00 17 17   a b cg h i......
|   4080: 17 61 20 62 20 63 64 20 65 20 66 67 20 68 20 69   .a b cd e fg h i
| page 5 offset 16384
|      0: 0d 00 00 00 03 0f e8 00 0f f8 0f f0 0f e8 00 00   ................
|   4064: 00 00 00 00 00 00 00 00 06 03 03 00 12 03 00 03   ................
|   4080: 06 02 03 00 12 03 00 03 06 01 03 00 12 03 00 03   ................
| page 6 offset 20480
|      0: 0a 00 00 00 01 0f f4 00 0f f4 00 00 00 00 00 00   ................
|   4080: 00 00 00 00 0b 03 1b 01 76 65 72 73 69 6f 6e 04   ........version.
| page 7 offset 24576
|      0: 0d 00 00 00 03 0f 9e 00 0f e6 0f ef 0f 9e 00 00   ................
|   3984: 00 00 00 00 00 00 00 00 00 00 00 00 00 00 41 84   ..............A.
|   4000: 80 80 80 80 01 04 00 81 06 00 00 00 34 02 30 61   ............4.0a
|   4016: 01 01 01 01 01 62 01 01 01 01 01 63 01 01 01 01   .....b.....c....
|   4032: 01 64 01 01 01 65 01 01 01 66 01 01 01 67 01 01   .d...e...f...g..
|   4048: 01 01 01 68 01 01 01 01 01 69 01 01 01 04 06 06   ...h.....i......
|   4064: 06 04 04 04 06 06 07 01 03 00 14 03 09 09 09 0f   ................
|   4080: 0a 03 00 24 00 00 00 00 01 01 01 00 01 01 01 01   ...$............
| page 8 offset 28672
|      0: 0a 00 00 00 01 0f fa 00 0f fa 00 00 00 00 00 00   ................
|   4080: 00 00 00 00 00 00 00 00 00 00 05 04 09 0c 01 02   ................
| page 9 offset 32768
|      0: 0d 00 00 00 03 0f be 00 0f ea 0f d4 0f be 00 00   ................
|   4016: 00 00 00 00 00 00 00 00 00 00 00 00 00 00 14 03   ................
|   4032: 05 00 17 17 17 61 20 62 20 63 67 20 68 20 69 67   .....a b cg h ig
|   4048: 20 68 20 69 14 02 05 00 17 17 17 67 20 68 20 69    h i.......g h i
|   4064: 61 20 62 20 63 67 20 68 20 69 14 01 05 00 17 17   a b cg h i......
|   4080: 17 61 20 62 20 63 64 20 65 20 66 67 20 68 30 69   .a b cd e fg h0i
| page 10 offset 36864
|      0: 0a 00 00 00 01 0f f4 00 0f f4 00 00 00 00 00 00   ................
|   4080: 00 00 00 00 0b 03 1b 01 76 65 72 73 69 6f 6e 04   ........version.
| end null-memcmp-param-1..db
}]} {}

do_catchsql_test 37.1 {
  SELECT * FROM t3;
} {/*malformed database schema*/}

#-------------------------------------------------------------------------
reset_db 
do_execsql_test 37a.0 {
  CREATE VIRTUAL TABLE t1 USING fts5(b, c);
  INSERT INTO t1 VALUES('a', 'b');
  SELECT quote(block) FROM t1_data WHERE rowid=10;
} {X'000000000101010001010101'}

do_execsql_test 37a.1 {
  UPDATE t1_data SET block = X'FFFFFFFF0101010001010101' WHERE rowid = 10;
  SELECT rowid FROM t1('a');
} {1}

#-------------------------------------------------------------------------
reset_db 
do_execsql_test 38.0 {
  CREATE VIRTUAL TABLE t1 USING fts5(b, c);
  INSERT INTO t1 VALUES('a', 'b');
  INSERT INTO t1 VALUES('a', 'b');
  SELECT quote(block) FROM t1_data WHERE rowid=1;
} {X'020202'}

do_execsql_test 38.1 {
  SELECT * FROM t1('a b') ORDER BY rank;
} {a b a b}

do_execsql_test 38.2 {
  UPDATE t1_data SET block = X'000202' WHERE rowid=1;
}
do_catchsql_test 38.3 {
  SELECT * FROM t1('a b') ORDER BY rank;
} {1 {database disk image is malformed}}

db close
sqlite3 db test.db
do_catchsql_test 38.4 {
  SELECT * FROM t1('a b') ORDER BY rank;
} {1 {database disk image is malformed}}

#-------------------------------------------------------------------------
reset_db
do_test 38.0 {
  sqlite3 db {}
  db deserialize [decode_hexdb {
| size 32768 pagesize 4096 filename crash-fd2a1313e5b5e9.db
| page 1 offset 0
|      0: 53 51 4c 69 74 65 20 66 6f 72 6d 61 74 20 33 00   SQLite format 3.
|     16: 10 00 01 01 00 40 20 20 00 00 00 00 00 00 00 08   .....@  ........
|     32: 00 00 00 02 00 00 00 01 00 00 00 09 00 00 00 04   ................
|     48: 00 00 00 00 00 00 00 00 00 00 00 01 00 00 00 00   ................
|     96: 00 00 00 00 0d 0f c7 00 07 0d 92 00 0f 8d 0f 36   ...............6
|    112: 0e cb 0e 6b 0e 0e 0d b6 0d 92 0d 92 00 00 00 00   ...k............
|   3472: 00 00 22 08 06 17 11 11 01 31 74 61 62 6c 65 74   .........1tablet
|   3488: 32 74 32 08 43 52 45 41 54 45 20 54 41 42 4c 45   2t2.CREATE TABLE
|   3504: 20 74 32 28 78 29 56 07 06 17 1f 1f 01 7d 74 61    t2(x)V.......ta
|   3520: 62 6c 65 74 31 5f 63 6f 6e 66 69 67 74 31 5f 63   blet1_configt1_c
|   3536: 6f 6e 66 69 67 07 43 52 45 41 54 45 20 54 41 42   onfig.CREATE TAB
|   3552: 4c 45 20 27 74 31 5f 63 6f 6e 66 69 67 27 28 6b   LE 't1_config'(k
|   3568: 20 50 52 49 4d 41 52 59 20 4b 45 59 2c 20 76 29    PRIMARY KEY, v)
|   3584: 20 57 49 54 48 4f 55 54 20 52 4f 57 49 44 5b 06    WITHOUT ROWID[.
|   3600: 07 17 21 21 01 81 01 74 61 62 6c 65 74 31 5f 64   ..!!...tablet1_d
|   3616: 6f 63 73 69 7a 65 74 31 5f 64 6f 63 73 69 7a 65   ocsizet1_docsize
|   3632: 06 43 52 45 41 54 45 20 54 41 42 4c 45 20 27 74   .CREATE TABLE 't
|   3648: 31 5f 64 6f 63 73 69 7a 65 27 28 69 64 20 49 4e   1_docsize'(id IN
|   3664: 54 45 47 45 52 20 50 52 49 4d 41 52 59 20 4b 45   TEGER PRIMARY KE
|   3680: 59 2c 20 73 7a 20 42 4c 4f 42 29 5e 05 07 17 21   Y, sz BLOB)^...!
|   3696: 21 01 81 07 74 61 62 6c 65 b8 31 5f 63 6f 6e 74   !...table.1_cont
|   3712: 65 6e 74 74 31 5f 63 6f 6e 74 65 6e 74 05 43 52   entt1_content.CR
|   3728: 45 41 54 45 20 54 41 42 4c 45 20 27 74 31 5f 63   EATE TABLE 't1_c
|   3744: 6f 6e 74 65 6e 74 27 28 69 64 20 49 4e 54 45 47   ontent'(id INTEG
|   3760: 45 52 20 50 52 49 4d 41 52 59 20 4b 45 59 2c 20   ER PRIMARY KEY, 
|   3776: 63 30 2c 20 63 31 2c 20 63 32 29 69 04 07 17 19   c0, c1, c2)i....
|   3792: 19 01 81 2d 74 61 62 6c 65 74 31 5f 69 64 78 74   ...-tablet1_idxt
|   3808: 31 5f 69 64 78 04 43 52 45 41 54 45 20 54 41 42   1_idx.CREATE TAB
|   3824: 4c 45 20 27 74 31 5f 69 64 78 27 28 73 65 67 69   LE 't1_idx'(segi
|   3840: 64 2c 20 74 65 72 6d 2c 20 70 67 6e 6f 2c 20 50   d, term, pgno, P
|   3856: 52 49 4d 41 52 59 20 4b 45 59 28 73 65 67 69 64   RIMARY KEY(segid
|   3872: 2c 20 74 65 72 6d 29 29 20 57 49 54 48 4f 55 54   , term)) WITHOUT
|   3888: 20 52 4f 57 49 44 55 03 07 17 1b 1b 01 81 01 74    ROWIDU........t
|   3904: 61 62 6c 65 74 31 5f 64 61 74 61 74 31 5f 64 61   ablet1_datat1_da
|   3920: 74 61 03 43 52 45 41 54 45 20 54 41 42 4c 45 20   ta.CREATE TABLE 
|   3936: 27 74 31 5f 64 61 74 61 27 28 69 64 20 49 4e 54   't1_data'(id INT
|   3952: 45 47 45 52 20 50 52 49 4d 41 52 59 20 4b 45 59   EGER PRIMARY KEY
|   3968: 2c 20 62 6c 6f 63 6b 20 42 4c 4f 42 29 38 02 06   , block BLOB)8..
|   3984: 17 11 11 08 5f 74 61 62 6c 65 74 31 74 31 43 52   ...._tablet1t1CR
|   4000: 45 41 54 45 20 56 49 52 54 55 41 4c 20 54 41 42   EATE VIRTUAL TAB
|   4016: 4c 45 20 74 31 20 55 53 49 4e 47 20 66 74 73 35   LE t1 USING fts5
|   4032: 28 61 2c 62 2c 63 29 00 00 00 39 00 00 00 00 00   (a,b,c)...9.....
| page 3 offset 8192
|      0: 0d 00 00 00 03 0c 94 00 0f e6 0f ef 0c 94 00 00   ................
|   3216: 00 00 00 00 86 4a 84 80 80 80 80 01 04 00 8d 18   .....J..........
|   3232: 00 00 03 2b 02 30 30 01 02 06 01 02 06 01 02 06   ...+.00.........
|   3248: 1f 02 03 01 02 03 01 02 03 01 08 32 30 31 36 30   ...........20160
|   3264: 36 30 39 01 02 07 01 02 07 01 02 07 01 01 34 01   609...........4.
|   3280: 02 05 01 02 05 01 02 05 01 01 35 01 02 04 01 02   ..........5.....
|   3296: 04 01 02 04 02 07 30 30 30 30 30 30 30 1c 02 04   ......0000000...
|   3312: 01 02 04 01 02 04 01 06 62 69 6e 61 72 79 03 06   ........binary..
|   3328: 01 02 02 03 06 01 02 02 03 06 01 02 02 03 06 01   ................
|   3344: 02 02 03 06 01 02 02 03 06 01 02 02 03 06 01 02   ................
|   3360: 02 03 06 01 02 02 03 06 01 02 02 03 06 01 02 02   ................
|   3376: 03 06 01 02 02 03 06 01 02 02 01 08 63 6f 6d 70   ............comp
|   3392: 69 6c 65 72 01 02 02 01 02 02 01 02 02 01 06 64   iler...........d
|   3408: 62 73 74 61 74 07 02 03 01 02 03 01 02 03 02 04   bstat...........
|   3424: 65 62 75 67 04 02 02 01 02 02 01 02 02 01 06 65   ebug...........e
|   3440: 6e 61 62 6c 65 07 02 02 01 02 02 01 02 02 01 02   nable...........
|   3456: 02 01 02 02 01 02 02 01 02 02 01 02 02 01 02 02   ................
|   3472: 01 02 02 01 02 02 01 02 02 01 02 02 01 02 02 01   ................
|   3488: 02 02 01 02 02 01 02 02 01 02 02 01 02 02 01 02   ................
|   3504: 02 01 02 02 02 08 78 74 65 6e 73 69 6f 6e 1f 02   ......xtension..
|   3520: 04 01 02 04 01 02 04 01 04 66 74 73 34 0a 02 03   .........fts4...
|   3536: 01 02 03 01 02 03 04 01 35 0d 02 03 01 02 03 01   ........5.......
|   3552: 02 03 01 03 67 63 63 01 02 03 01 02 03 01 02 03   ....gcc.........
|   3568: 02 06 65 6f 70 6f 6c 79 10 02 03 01 02 03 01 02   ..eopoly........
|   3584: 03 01 05 6a 73 6f 6e 31 13 02 03 01 02 03 01 02   ...json1........
|   3600: 03 01 04 6c 6f 61 64 1f 02 03 01 02 03 01 02 03   ...load.........
|   3616: 01 03 6d 61 78 1c 02 02 01 02 02 01 02 02 02 05   ..max...........
|   3632: 65 6d 6f 72 79 1c 02 03 01 02 03 01 02 03 04 04   emory...........
|   3648: 73 79 73 35 16 02 03 01 02 03 01 02 03 01 06 6e   sys5...........n
|   3664: 6f 63 61 73 65 02 06 01 02 02 03 06 01 02 02 03   ocase...........
|   3680: 06 01 02 02 03 06 01 02 02 03 06 01 02 02 03 06   ................
|   3696: 01 02 02 03 06 01 02 02 03 06 01 02 02 03 06 01   ................
|   3712: 02 02 03 06 01 02 02 03 06 01 02 02 03 06 01 02   ................
|   3728: 02 01 04 6f 6d 69 74 1f 02 02 01 02 02 01 02 02   ...omit.........
|   3744: 01 05 72 74 72 65 65 19 02 03 01 02 03 01 02 03   ..rtree.........
|   3760: 04 02 69 6d 01 06 01 02 02 03 06 01 02 02 03 06   ..im............
|   3776: 01 02 02 03 06 01 02 02 03 06 01 02 02 03 06 01   ................
|   3792: 02 02 03 06 01 02 02 03 06 01 02 02 03 06 01 02   ................
|   3808: 02 03 06 01 02 02 03 06 01 02 02 03 06 01 02 02   ................
|   3824: 01 0a 74 68 72 65 61 64 73 61 66 65 22 02 02 01   ..threadsafe....
|   3840: 02 02 01 02 01 01 04 76 74 61 62 07 02 04 01 02   .......vtab.....
|   3856: 04 01 02 04 01 01 78 01 06 01 01 02 01 06 01 01   ......x.........
|   3872: 02 01 06 01 01 02 01 06 01 01 02 01 06 01 01 02   ................
|   3888: 01 06 01 01 02 01 06 01 01 02 01 06 01 01 02 01   ................
|   3904: 06 01 01 02 01 06 01 01 02 01 06 01 01 02 01 06   ................
|   3920: 01 01 02 01 06 01 01 02 01 06 01 01 02 01 06 01   ................
|   3936: 01 02 01 06 01 01 02 01 06 01 01 02 01 06 01 01   ................
|   3952: 02 01 06 01 01 02 01 06 01 01 02 01 06 01 01 02   ................
|   3968: 01 06 01 01 02 01 06 01 01 02 01 06 01 01 02 01   ................
|   3984: 06 01 01 02 01 06 01 01 02 01 06 01 01 02 01 06   ................
|   4000: 01 01 02 01 06 01 01 02 01 06 01 ec 02 01 06 01   ................
|   4016: 01 02 01 06 01 01 02 01 06 01 01 02 01 06 01 01   ................
|   4032: 02 01 06 01 01 02 01 06 01 01 01 04 15 13 0c 0c   ................
|   4048: 12 44 13 11 0f 47 13 0f 0c 0e 11 10 0f 0e 10 0f   .D...G..........
|   4064: 44 0f 10 40 15 0f 07 01 03 00 14 24 5a 24 24 0f   D..@.......$Z$$.
|   4080: 0a 03 00 24 00 00 00 00 01 01 01 00 01 01 01 01   ...$............
| page 4 offset 12288
|      0: 0a 00 00 00 01 0f fa 00 0f fa 00 00 00 00 00 00   ................
|   4080: 00 00 00 00 00 00 00 00 00 00 05 04 09 0c 01 02   ................
| page 5 offset 16384
|      0: 0d 00 00 00 24 0c 0a 00 0f d8 0f af 0f 86 0f 74   ....$..........t
|     16: 0f 61 0f 4e 0f 2f 0f 0f 0e ef 0e d7 0e be 0e a5   .a.N./..........
|     32: 0e 8d 0e 74 0e 5b 0e 40 0e 24 0e 08 0d ef 0d d5   ...t.[.@.$......
|     48: 0d bb 0d a0 0d 84 0d 68 0d 4f 0d 35 0d 1b 0c fb   .......h.O.5....
|     64: 0c da 0c b9 0c 99 0c 78 0c 57 0c 3e 0c 24 0c 0a   .......x.W.>.$..
|   3072: 00 00 00 00 00 00 00 00 00 00 18 24 05 00 25 0f   ...........$..%.
|   3088: 19 54 48 52 45 41 44 53 41 46 45 3d 30 58 42 49   .THREADSAFE=0XBI
|   3104: 4e 41 52 59 18 23 05 00 25 0f 19 54 48 52 45 41   NARY.#..%..THREA
|   3120: 44 53 41 46 45 3d 30 58 4e 4f 43 41 53 45 17 22   DSAFE=0XNOCASE..
|   3136: 05 00 25 0f 17 54 48 52 45 41 44 53 41 46 45 3d   ..%..THREADSAFE=
|   3152: 30 58 52 54 52 49 4d 1f 21 05 00 33 0f 19 4f 4d   0XRTRIM.!..3..OM
|   3168: 49 54 20 4c 4f 41 44 20 45 58 54 45 4e 53 49 4f   IT LOAD EXTENSIO
|   3184: 4e 58 42 49 4e 41 52 59 1f 20 05 00 33 0f 19 4f   NXBINARY. ..3..O
|   3200: 4d 49 54 20 4c 4f 41 44 20 45 58 54 45 4e 53 49   MIT LOAD EXTENSI
|   3216: 4f 4e 58 4e 4f 43 41 53 45 1e 1f 05 00 33 0f 17   ONXNOCASE....3..
|   3232: 4f 4d 49 54 20 4c 4f 41 44 20 45 58 54 45 4e 53   OMIT LOAD EXTENS
|   3248: 49 4f 4e 58 52 54 52 49 4d 1f 1e 05 00 33 0f 19   IONXRTRIM....3..
|   3264: 4d 41 58 20 4d 45 4d 4f 52 59 60 35 30 30 30 30   MAX MEMORY`50000
|   3280: 30 30 30 58 42 49 4e 41 52 59 1f 1d 05 00 33 0f   000XBINARY....3.
|   3296: 19 4d 41 58 20 4d 44 4d 4f 52 59 3d 35 30 30 30   .MAX MDMORY=5000
|   3312: 30 30 30 30 58 4e 4f 43 41 53 45 1e 1c 05 00 33   0000XNOCASE....3
|   3328: 0f 17 4d 41 58 20 4d 45 4d 4f 52 59 3d 35 30 30   ..MAX MEMORY=500
|   3344: 30 30 30 30 30 58 52 54 52 49 4d 18 1b 05 00 25   00000XRTRIM....%
|   3360: 0f 19 45 4e 41 42 4c 45 20 52 54 52 45 45 58 42   ..ENABLE RTREEXB
|   3376: 49 4e 41 52 59 18 1a 05 00 25 0f 19 45 4e 41 42   INARY....%..ENAB
|   3392: 4c 45 20 52 54 52 45 45 58 4e 4f 43 41 53 45 17   LE RTREEXNOCASE.
|   3408: 19 05 00 25 0f 17 45 4e 41 42 4c 45 20 52 54 52   ...%..ENABLE RTR
|   3424: 45 45 58 52 54 52 49 4d 1a 18 05 00 29 0f 19 45   EEXRTRIM....)..E
|   3440: 4e 41 42 4c 45 20 4d 45 4d 53 59 53 35 58 42 49   NABLE MEMSYS5XBI
|   3456: 4e 41 52 59 1a 17 05 00 29 0f 19 45 4e 41 42 4c   NARY....)..ENABL
|   3472: 45 20 4d 45 4d 53 59 53 35 58 4e 4f 43 41 53 45   E MEMSYS5XNOCASE
|   3488: 19 16 05 00 29 0f 17 45 4e 41 42 4c 45 20 4d 45   ....)..ENABLE ME
|   3504: 4d 53 59 53 35 58 52 54 52 49 4d 18 15 05 00 25   MSYS5XRTRIM....%
|   3520: 0f 19 45 4e 41 42 4c 45 20 4a 53 4f 4e 31 58 42   ..ENABLE JSON1XB
|   3536: 49 4e 41 52 59 18 14 05 00 25 0f 19 45 4e 41 42   INARY....%..ENAB
|   3552: 4c 45 20 4a 53 4f 4e 31 58 4e 4f 43 41 53 45 17   LE JSON1XNOCASE.
|   3568: 13 05 00 25 0f 17 45 4e 41 42 4c 45 20 4a 53 4f   ...%..ENABLE JSO
|   3584: 4e 31 58 52 54 52 49 4d 1a 12 05 00 29 0f 19 45   N1XRTRIM....)..E
|   3600: 4e 41 42 4c 45 20 47 45 4f 50 4f 4c 59 58 42 49   NABLE GEOPOLYXBI
|   3616: 4e 41 52 59 1a 11 05 00 29 0f 19 45 4e 41 42 4c   NARY....)..ENABL
|   3632: 45 20 47 45 4f 50 4f 4c 59 58 4e 4f 43 41 53 45   E GEOPOLYXNOCASE
|   3648: 19 10 05 00 29 0f 17 45 4e 41 42 4c 45 20 47 45   ....)..ENABLE GE
|   3664: 4f 50 4f 4c 59 58 52 54 52 49 4d 17 0f 05 00 23   OPOLYXRTRIM....#
|   3680: 0f 19 45 4e 41 42 4c 45 20 46 54 53 35 58 42 49   ..ENABLE FTS5XBI
|   3696: 4e 41 52 59 17 0e 05 00 23 0f 19 45 4e 41 42 4c   NARY....#..ENABL
|   3712: 45 20 46 54 53 35 58 4e 4f 43 41 53 45 16 0d 05   E FTS5XNOCASE...
|   3728: 00 23 0f 17 45 4e 41 42 4c 45 20 46 54 53 35 58   .#..ENABLE FTS5X
|   3744: 52 54 52 49 4d 17 0c 05 00 23 0f 19 45 4e 41 42   RTRIM....#..ENAB
|   3760: 4c 45 20 46 54 53 34 58 42 49 4e 41 52 59 17 0b   LE FTS4XBINARY..
|   3776: 05 00 23 0f 19 45 4e 41 42 4c 45 20 46 54 53 34   ..#..ENABLE FTS4
|   3792: 58 4e 4f 43 41 53 45 16 0a 05 00 23 0f 17 45 4e   XNOCASE....#..EN
|   3808: 41 42 4c 45 20 46 54 53 34 58 52 54 52 49 4d 1e   ABLE FTS4XRTRIM.
|   3824: 09 05 00 31 0f 19 45 4e 41 42 4c 45 20 44 42 53   ...1..ENABLE DBS
|   3840: 54 41 54 20 56 54 41 42 58 42 49 4e 41 52 59 1e   TAT VTABXBINARY.
|   3856: 08 05 00 31 0f 19 45 4e 41 42 4c 45 20 44 42 53   ...1..ENABLE DBS
|   3872: 54 41 54 20 56 54 41 42 58 4e 4f 43 41 53 45 1d   TAT VTABXNOCASE.
|   3888: 07 05 00 31 0f 17 45 4e 41 42 4c 45 20 44 42 53   ...1..ENABLE DBS
|   3904: 54 41 54 20 56 54 41 42 58 52 54 52 49 4d 11 06   TAT VTABXRTRIM..
|   3920: 05 00 17 0f 19 44 45 42 55 47 58 42 49 4e 41 52   .....DEBUGXBINAR
|   3936: 59 11 05 05 00 17 0f 19 44 45 42 55 47 58 4e 4f   Y.......DEBUGXNO
|   3952: 43 41 53 45 10 04 05 00 17 0f 17 44 45 42 55 47   CASE.......DEBUG
|   3968: 58 52 54 52 49 4d 27 03 05 00 43 0f 19 43 4f 4d   XRTRIM'...C..COM
|   3984: 50 49 4c 45 52 3d 67 63 63 2d 35 2e 34 2e 30 20   PILER=gcc-5.4.0 
|   4000: 32 30 31 36 30 36 30 39 58 42 49 4e 41 52 59 27   20160609XBINARY'
|   4016: 02 05 00 43 0f 19 43 4f 4d 50 49 4c 45 52 3d 67   ...C..COMPILER=g
|   4032: 63 63 2d 35 2e 34 2e 30 20 32 30 31 36 30 36 30   cc-5.4.0 2016060
|   4048: 39 58 4e 4f 43 41 53 45 26 01 05 00 43 0f 17 43   9XNOCASE&...C..C
|   4064: 4f 4d 50 49 4c 45 52 3d 67 63 63 2d 35 2e 34 2e   OMPILER=gcc-5.4.
|   4080: 30 20 32 30 31 36 30 36 30 39 58 52 54 52 49 4d   0 20160609XRTRIM
| page 6 offset 20480
|      0: 0d 00 00 00 24 0e e0 00 0f f8 0f f0 0f e8 0f e0   ....$...........
|     16: 0f d8 0f d0 0f c8 0f c0 0f b8 0f b0 0f a8 0f a0   ................
|     32: 0f 98 0f 90 0f 88 0f 80 0f 78 0f 70 0f 68 0f 60   .........x.p.h.`
|     48: 0f 58 0f 50 0f 48 0f 40 0f 38 0f 30 0f 28 0f 20   .X.P.H.@.8.0.(. 
|     64: 0f 18 0f 10 0f 08 0f 00 0e f8 0e f0 0e e8 0e e0   ................
|   3808: 06 24 03 00 12 02 01 01 06 23 03 00 12 02 01 01   .$.......#......
|   3824: 06 22 03 00 12 02 01 01 06 21 03 00 12 03 01 01   .........!......
|   3840: 06 20 03 00 12 03 01 01 06 1f 03 00 12 03 01 01   . ..............
|   3856: 06 1e 03 00 12 03 01 01 06 1d 03 00 12 03 01 01   ................
|   3872: 06 1c 03 00 12 03 01 01 16 1b 03 00 12 02 01 01   ................
|   3888: 06 1a 03 00 12 02 01 01 06 19 03 00 12 02 01 01   ................
|   3904: 06 18 03 00 12 02 01 01 06 17 03 00 12 02 01 01   ................
|   3920: 06 16 03 00 12 02 01 01 06 15 03 00 12 02 01 01   ................
|   3936: 06 14 03 00 12 02 01 01 06 13 03 00 12 02 01 01   ................
|   3952: 06 12 03 00 12 02 01 01 06 11 03 00 12 02 01 01   ................
|   3968: 06 10 03 00 12 02 01 01 06 0f 03 00 12 02 01 01   ................
|   3984: 06 0e 03 00 12 02 01 01 06 0d 03 00 12 02 01 01   ................
|   4000: 06 0c 03 00 12 02 01 01 06 0b 03 00 12 02 01 01   ................
|   4016: 06 0a 03 00 12 02 01 01 05 09 03 00 12 03 01 01   ................
|   4032: 06 08 03 00 12 03 01 01 06 07 03 10 12 03 01 01   ................
|   4048: 06 06 03 00 12 01 01 01 06 05 03 00 12 01 01 01   ................
|   4064: 06 04 03 00 12 01 01 01 06 03 03 00 12 05 f1 01   ................
|   4080: 06 02 03 00 12 06 01 01 06 01 03 00 12 06 01 01   ................
| page 7 offset 24576
|      0: 0a 00 00 00 01 0f f4 00 0f f4 00 00 00 00 00 00   ................
|   4080: 00 00 00 00 0b 03 1b 01 76 65 72 73 69 6f 6e 04   ........version.
| page 8 offset 28672
|      0: 0d 00 00 00 03 0f d6 00 0f f4 0f e9 0f d6 00 00   ................
|   4048: 00 00 00 00 00 00 11 03 02 2b 69 6e 74 65 67 72   .........+integr
|   4064: 69 74 79 2d 63 68 65 63 6b 09 02 02 1b 72 65 62   ity-check....reb
|   4080: 75 69 6c 64 0a 01 02 1d 6f 70 74 69 6d 69 7a 65   uild....optimize
| end crash-fd2a1313e5b5e9.db
}]} {}

do_catchsql_test 38.1 {
  UPDATE t1 SET b=quote(zeroblob(200)) WHERE t1 MATCH 'thread*';
} {/*malformed database schema*/}

#-------------------------------------------------------------------------
reset_db
do_test 39.0 {
  sqlite3 db {}
  db deserialize [decode_hexdb {
.open --hexdb
| size 24576 pagesize 4096 filename crash-e650fe95502908.db
| page 1 offset 0
|      0: 53 51 4c 69 74 65 20 66 6f 72 6d 61 74 20 33 00   SQLite format 3.
|     16: 10 00 01 01 00 40 20 20 00 00 00 00 00 00 00 06   .....@  ........
|     32: 00 00 00 00 00 00 00 00 00 00 00 06 00 00 00 04   ................
|     48: 00 00 00 00 00 00 00 00 00 00 00 01 00 00 00 00   ................
|     96: 00 00 00 00 0d 00 00 00 06 0e 0f 00 0f aa 0f 53   ...............S
|    112: 0e e8 0e 8b 0e 33 0e 0f 00 00 00 00 00 00 00 00   .....3..........
|   3584: 00 00 00 00 00 00 00 00 00 00 00 00 00 00 00 22   ................
|   3600: 06 06 17 11 11 01 31 74 61 62 6c 65 62 62 62 62   ......1tablebbbb
|   3616: 06 43 52 45 41 54 45 20 54 41 42 4c 45 20 62 62   .CREATE TABLE bb
|   3632: 28 61 29 56 05 06 17 1f 1f 01 7d 74 61 62 6c 65   (a)V.......table
|   3648: 74 31 5f 63 6f 6e 66 69 67 74 31 5f 63 6f 6e 66   t1_configt1_conf
|   3664: 69 67 05 43 52 45 41 54 45 20 54 41 42 4c 45 20   ig.CREATE TABLE 
|   3680: 27 74 31 5f 63 6f 6e 66 69 67 27 28 6b 20 50 52   't1_config'(k PR
|   3696: 49 4d 41 52 59 20 4b 45 59 2c 20 76 29 20 57 49   IMARY KEY, v) WI
|   3712: 54 48 4f 55 54 20 52 4f 57 49 44 5b 04 07 17 21   THOUT ROWID[...!
|   3728: 21 01 81 01 74 61 62 6c 65 74 31 5f 64 6f 63 73   !...tablet1_docs
|   3744: 69 7a 65 74 31 5f 64 6f 63 73 69 7a 65 04 43 52   izet1_docsize.CR
|   3760: 45 41 54 45 20 54 41 42 4c 45 20 27 74 31 5f 64   EATE TABLE 't1_d
|   3776: 6f 63 73 69 7a 65 27 28 69 64 20 49 4e 54 45 47   ocsize'(id INTEG
|   3792: 45 52 20 50 52 49 4d 41 52 59 20 4b 45 59 2c 20   ER PRIMARY KEY, 
|   3808: 73 7a 20 42 4c 4f 42 29 69 03 07 17 19 19 01 81   sz BLOB)i.......
|   3824: 2d 74 61 62 6c 65 74 31 5f 69 64 78 74 31 5f 69   -tablet1_idxt1_i
|   3840: 64 78 03 43 52 45 41 54 45 20 54 41 42 4c 45 20   dx.CREATE TABLE 
|   3856: 27 74 31 5f 69 64 78 27 28 73 65 67 69 64 2c 20   't1_idx'(segid, 
|   3872: 74 65 72 6d 2c 20 70 67 6e 6f 2c 20 50 52 49 4d   term, pgno, PRIM
|   3888: 41 52 59 20 4b 45 59 28 73 65 67 69 64 2c 20 74   ARY KEY(segid, t
|   3904: 65 72 6d 29 29 20 57 49 54 48 4f 55 54 20 52 4f   erm)) WITHOUT RO
|   3920: 57 49 44 55 02 07 17 1b 1b 01 81 01 74 61 62 6c   WIDU........tabl
|   3936: 65 74 31 5f 64 61 74 61 74 31 5f 64 61 74 61 02   et1_datat1_data.
|   3952: 43 52 45 41 54 45 20 54 41 42 4c 45 20 27 74 31   CREATE TABLE 't1
|   3968: 5f 64 61 74 61 27 28 69 64 20 49 4e 54 45 47 45   _data'(id INTEGE
|   3984: 52 20 50 52 49 4d 41 52 59 20 4b 45 59 2c 20 62   R PRIMARY KEY, b
|   4000: 6c 6f 63 6b 20 42 4c 4f 42 29 54 01 07 17 11 11   lock BLOB)T.....
|   4016: 08 81 15 74 61 62 6c 65 74 31 74 31 43 52 45 41   ...tablet1t1CREA
|   4032: 54 45 20 56 49 52 54 55 41 4c 20 54 41 42 4c 45   TE VIRTUAL TABLE
|   4048: 20 74 31 20 55 53 49 4e 47 20 66 74 73 35 28 61    t1 USING fts5(a
|   4064: 2c 62 2c 70 72 65 66 69 78 3d 22 32 2c 32 2c 33   ,b,prefix=.2,2,3
|   4080: 2c 34 22 2c 20 63 6f 6e 74 65 6e 74 3d 22 22 29   ,4., content=..)
| page 2 offset 4096
|      0: 0d 0b 6a 00 37 09 4c 02 0f e7 09 4c 0f c6 0f a4   ..j.7.L....L....
|     16: 0f 88 0f 6d 0f 4b 0f 2c 0f 0e 0e ec 0e cd 0e ad   ...m.K.,........
|     32: 0e 8e 0e 6c 0e 4b 0e 29 0e 08 0d e6 0d c4 0d b5   ...l.K.)........
|     48: 0d 97 0d 76 0d 54 0d 31 0d 15 0c f3 0c d3 0c b5   ...v.T.1........
|     64: 0c 95 0c 73 0c 54 0c 32 0c 10 0b ee 0b cc 0b b0   ...s.T.2........
|     80: 0b 8d 0b 7e 0b 48 0b 2e 0b 0b 0a ef 0a cc 0a ad   ...~.H..........
|     96: 0a 8c 0a 6d 0a 4d 0a 2b 0a 0c 09 ec 09 ca 09 a8   ...m.M.+........
|    112: 09 86 09 63 0f f1 00 00 00 00 00 00 00 00 00 00   ...c............
|   2368: 00 00 00 00 00 00 00 00 00 00 00 00 15 0a 03 00   ................
|   2384: 30 00 00 00 01 01 03 35 00 03 01 01 12 02 01 12   0......5........
|   2400: 03 01 11 1c 8c 80 80 80 80 10 03 00 3e 00 00 00   ............>...
|   2416: 17 01 05 05 34 74 61 62 6c 03 02 03 01 04 77 68   ....4tabl.....wh
|   2432: 65 72 03 02 06 09 1b 8c 80 80 80 80 0f 03 00 3c   er.............<
|   2448: 00 00 00 16 05 34 66 74 73 34 03 02 02 01 04 6e   .....4fts4.....n
|   2464: 75 6d 62 03 06 01 04 09 1b 8c 80 80 80 80 0e 03   umb.............
|   2480: 00 3c 00 00 00 16 04 33 74 68 65 03 06 01 01 04   .<.....3the.....
|   2496: 01 03 77 68 65 03 02 04 04 0a 1b 8c 80 80 80 80   ..whe...........
|   2512: 0d 03 00 3c 00 00 00 16 04 33 6e 75 6d 03 06 01   ...<.....3num...
|   2528: 01 05 01 03 74 61 62 03 02 03 04 0a 19 8c 80 80   ....tab.........
|   2544: 80 80 0c 03 00 38 00 00 00 14 03 32 77 68 03 02   .....8.....2wh..
|   2560: 04 00 04 33 66 74 73 03 02 02 04 07 18 8c 80 80   ...3fts.........
|   2576: 80 80 0b 03 00 36 00 00 00 13 03 32 74 61 03 02   .....6.....2ta..
|   2592: 03 02 01 68 03 06 01 01 04 04 07 1b 8c 80 80 80   ...h............
|   2608: 80 0a 03 00 3c 00 00 00 16 03 32 6e 75 03 06 01   ....<.....2nu...
|   2624: 01 05 01 02 6f 66 03 06 01 01 06 04 09 19 8c 80   ....of..........
|   2640: 80 80 80 09 03 00 38 00 00 00 14 03 32 66 74 03   ......8.....2ft.
|   2656: 02 02 01 02 69 73 03 06 01 01 03 04 07 18 8c 80   ....is..........
|   2672: 80 80 80 08 03 00 36 00 00 00 13 02 31 74 03 08   ......6.....1t..
|   2688: 03 01 01 04 01 01 77 03 02 04 04 09 1a 8c 80 80   ......w.........
|   2704: 80 80 07 03 00 3a ff 00 00 15 02 31 6e 03 08 01   .....:.....1n...
|   2720: 01 02 05 01 01 6f 03 06 01 01 06 04 09 18 8c 80   .....o..........
|   2736: 80 80 80 06 03 00 36 00 00 00 13 04 02 31 66 03   ......6......1f.
|   2752: 02 02 01 01 69 03 06 01 01 03 05 06 1c 8c 80 80   ....i...........
|   2768: 80 80 05 03 00 3e 00 00 00 17 04 30 74 68 65 03   .....>.....0the.
|   2784: 06 00 f1 04 01 05 77 68 65 72 65 03 02 04 0a 15   ......where.....
|   2800: 8c 80 80 80 80 04 03 00 30 00 00 00 11 01 01 06   ........0.......
|   2816: 06 30 74 61 62 6c 65 03 02 03 07 1c 8c 80 80 80   .0table.........
|   2832: 80 03 03 00 3e 00 00 00 17 07 30 6e 75 6d 62 65   ....>.....0numbe
|   2848: 72 03 06 01 01 05 01 02 6f 66 03 06 04 0d 13 8c   r.......of......
|   2864: 80 80 80 80 02 03 00 2c 00 00 00 0f 01 01 03 02   .......,........
|   2880: 30 6e 03 06 01 01 02 07 1b 8c 80 80 80 80 01 03   0n..............
|   2896: 00 3c 00 00 00 16 08 30 66 74 73 34 61 75 78 03   .<.....0fts4aux.
|   2912: 02 02 01 02 69 73 03 06 04 0c 00 00 00 14 2a 00   ....is........*.
|   2928: 00 00 01 01 02 24 00 02 01 01 12 02 01 12 08 88   .....$..........
|   2944: 80 80 80 80 12 03 00 16 00 00 00 05 02 1c 88 80   ................
|   2960: 80 80 80 11 03 00 3e 00 00 00 17 05 34 72 6f 77   ......>.....4row
|   2976: 73 02 06 01 01 05 01 04 74 68 65 72 02 02 04 0b   s.......ther....
|   2992: 15 88 80 80 80 80 10 03 00 30 00 00 00 11 02 01   .........0......
|   3008: 01 07 05 34 62 65 74 77 02 02 04 08 1b 88 80 80   ...4betw........
|   3024: 80 80 0f 03 00 3c 00 00 00 16 04 04 33 72 6f 77   .....<......3row
|   3040: 02 06 01 01 05 01 03 74 68 65 02 08 05 0a 1b 88   .......the......
|   3056: 80 80 80 80 0e 03 00 3c 00 00 00 16 01 01 02 04   .......<........
|   3072: 33 61 72 65 02 02 03 01 03 62 65 74 02 02 07 08   3are.....bet....
|   3088: 1b 88 80 80 80 80 0d 03 00 3c 00 00 00 16 03 32   .........<.....2
|   3104: 74 68 02 08 02 01 01 07 00 04 33 61 6e 64 02 06   th........3and..
|   3120: 04 0a 1b 88 80 80 80 80 0c 03 00 3c 00 00 00 16   ...........<....
|   3136: 03 32 69 6e 02 06 01 01 06 01 02 72 6f 02 06 01   .2in.......ro...
|   3152: 01 05 04 09 18 88 80 80 80 80 0b 03 00 36 00 00   .............6..
|   3168: 00 13 02 03 32 61 72 02 02 03 01 02 62 65 02 02   ....2ar.....be..
|   3184: 04 05 07 1b 88 80 80 80 80 0a 03 00 3c 00 00 00   ............<...
|   3200: 16 02 31 74 02 08 02 01 01 07 00 03 32 61 6e 02   ..1t........2an.
|   3216: 06 01 01 04 09 19 88 80 80 80 80 09 03 00 38 00   ..............8.
|   3232: 00 00 14 02 31 6e 02 06 01 01 03 01 01 72 02 06   ....1n.......r..
|   3248: 01 01 05 04 08 17 88 80 80 80 80 08 03 00 34 00   ..............4.
|   3264: 00 00 12 02 31 62 02 02 04 01 01 69 02 06 01 01   ....1b.....i....
|   3280: 06 04 06 19 88 80 80 80 80 07 03 00 38 00 00 00   ............8...
|   3296: 14 04 02 31 32 02 02 05 01 01 61 02 08 03 01 01   ...12.....a.....
|   3312: 02 05 06 1b 88 80 80 80 80 06 03 00 3c 00 00 00   ............<...
|   3328: 16 06 30 74 68 65 72 65 02 02 02 00 02 31 31 02   ..0there.....11.
|   3344: 06 01 01 04 0a 15 88 80 80 80 80 05 03 00 30 00   ..............0.
|   3360: 00 00 11 01 01 05 04 30 74 68 65 02 06 01 01 07   .......0the.....
|   3376: 07 1c 88 80 80 80 80 04 03 00 3e 00 00 00 17 01   ..........>.....
|   3392: 01 06 02 30 6e 02 06 01 01 03 01 04 72 6f 77 73   ...0n.......rows
|   3408: 02 06 07 08 1b 88 80 80 80 80 03 03 00 3c 00 00   .............<..
|   3424: 00 16 08 30 62 65 74 77 65 65 6e 02 02 04 01 02   ...0between.....
|   3440: 69 6e 02 06 04 0c 1a 88 80 80 80 80 02 03 00 3a   in.............:
|   3456: 00 00 00 15 04 30 61 6e 64 02 06 01 01 02 02 02   .....0and.......
|   3472: 72 65 02 02 03 04 0a 17 88 80 80 80 80 01 03 00   re..............
|   3488: 34 00 00 00 12 02 30 31 02 06 01 01 04 01 01 32   4.....01.......2
|   3504: 02 02 05 04 08 08 84 80 80 80 81 12 03 00 16 00   ................
|   3520: 00 00 05 04 1b 84 61 80 80 80 11 03 00 3c 00 00   ......a......<..
|   3536: 00 16 05 34 74 61 62 6c 01 06 01 01 05 02 03 65   ...4tabl.......e
|   3552: 72 6d 01 02 04 0b 1b 84 80 80 80 80 10 03 00 3c   rm.............<
|   3568: 00 00 00 16 05 34 65 61 63 68 01 02 03 01 04 70   .....4each.....p
|   3584: 72 65 73 01 02 05 04 09 1a 84 80 80 80 80 0f 03   res.............
|   3600: 00 3a 00 00 00 15 04 33 74 65 72 01 02 04 02 02   .:.....3ter.....
|   3616: 68 65 01 06 01 01 03 04 08 1b 84 80 80 80 80 0e   he..............
|   3632: 03 00 3c 00 00 00 16 04 33 70 72 65 01 02 05 01   ..<.....3pre....
|   3648: 03 74 61 62 01 06 01 01 05 04 08 1a 84 80 80 80   .tab............
|   3664: 80 0d 03 00 3a 00 00 00 15 04 33 66 6f 72 01 02   ....:.....3for..
|   3680: 02 02 02 74 73 01 06 01 01 04 04 08 1b 84 80 80   ...ts...........
|   3696: 80 80 0c 03 00 3c 00 00 00 16 03 32 74 68 01 06   .....<.....2th..
|   3712: 01 01 03 00 04 33 65 61 63 01 02 03 04 09 18 84   .....3eac.......
|   3728: 80 80 80 80 0b 03 00 36 00 00 00 13 03 32 74 71   .......6.....2tq
|   3744: 01 06 01 01 05 02 01 65 01 02 04 04 09 19 84 80   .......e........
|   3760: 80 80 80 0a 03 00 38 00 00 00 14 03 32 69 6e 01   ......8.....2in.
|   3776: 06 01 01 02 01 02 70 72 01 02 05 0b 89 18 84 80   ......pr........
|   3792: 80 80 80 09 03 00 36 00 00 00 13 03 32 66 6f 01   ......6.....2fo.
|   3808: 02 02 02 01 74 01 06 01 01 04 04 07 1b 84 80 80   ....t...........
|   3824: 80 80 08 03 00 3c 00 00 00 16 02 31 74 01 0a 04   .....<.....1t...
|   3840: 01 01 03 04 00 03 32 65 61 01 02 03 04 0a 17 84   ......2ea.......
|   3856: 80 80 80 80 07 03 00 34 00 00 00 12 02 31 69 01   .......4.....1i.
|   3872: 06 01 01 02 01 01 70 01 02 05 04 08 18 84 80 80   ......p.........
|   3888: 80 80 06 03 00 36 00 00 00 13 02 31 65 01 02 03   .....6.....1e...
|   3904: 01 01 66 01 08 02 01 01 04 04 06 1b 84 80 80 80   ..f.............
|   3920: 80 05 03 00 3c 00 00 00 16 05 30 74 65 72 6d 01   ....<.....0term.
|   3936: 02 04 02 02 68 65 01 06 01 01 03 04 09 14 84 80   ....he..........
|   3952: 80 80 80 04 03 00 2e 00 00 00 10 06 30 74 61 62   ............0tab
|   3968: 6c 65 01 06 01 01 05 04 15 84 80 80 80 80 03 03   le..............
|   3984: 00 30 00 00 00 11 02 08 30 70 72 65 73 65 6e 74   .0......0present
|   4000: 01 02 05 05 1b 84 80 80 80 80 02 03 00 3c 00 00   .............<..
|   4016: 00 16 04 30 66 74 73 01 06 01 01 04 01 02 69 6e   ...0fts.......in
|   4032: 01 06 01 01 04 0a 1a 84 80 80 80 80 01 03 00 3a   ...............:
|   4048: 00 00 00 15 05 30 65 61 63 f4 01 02 03 01 03 66   .....0eac......f
|   4064: 6f 72 01 02 02 04 09 06 01 03 00 12 03 0b 0f 00   or..............
|   4080: 00 08 8c 80 80 80 80 11 03 00 16 00 00 00 05 04   ................
| page 3 offset 8192
|      0: 0a 00 00 00 32 0e 4f 00 0f fa 0f f1 0f e9 0f e1   ....2.O.........
|     16: 0f d8 0f d1 0f c9 0f c1 0f b9 0f b1 0f a9 0f a0   ................
|     32: 0f 98 0f 90 0f 87 0f 80 0f 78 0f 71 0f 68 0f 5f   .........x.q.h._
|     48: 0f 56 0f 4d 0f 41 0f 38 0f 2f 0f 26 0f 1d 0f 13   .V.M.A.8./.&....
|     64: 0f 0a 0f 01 0e f7 0e ee 0e e6 0e dd 0e d6 0e cd   ................
|     80: 0e c3 0e ba 0e b0 0e a8 0e 9f 0e 96 0e 8e 0e 85   ................
|     96: 0e 7c 0e 73 0e 6a 0e 60 0e 58 0e 4f 00 00 00 00   .|.s.j.`.X.O....
|   3648: 00 00 00 00 00 00 00 00 00 00 00 00 00 00 00 08   ................
|   3664: 04 01 10 01 03 34 74 20 07 04 01 0e 01 03 34 1e   .....4t ......4.
|   3680: 09 04 01 12 01 03 33 74 68 1c 08 04 01 10 01 03   ......3th.......
|   3696: 33 6e 1a 08 04 01 10 01 03 32 77 18 08 04 01 10   3n.......2w.....
|   3712: 01 03 32 74 16 08 04 01 10 01 03 32 6e 14 07 04   ..2t.......2n...
|   3728: 01 0e 01 03 32 12 08 04 01 10 01 03 31 74 10 08   ....2.......1t..
|   3744: 04 01 10 01 03 31 6e 0e 07 04 01 0e 01 03 31 0c   .....1n.......1.
|   3760: 09 04 01 12 01 03 30 74 68 0a 08 04 01 10 01 03   ......0th.......
|   3776: 30 74 08 09 04 01 12 01 03 30 6e 75 06 08 04 01   0t.......0nu....
|   3792: 10 01 03 30 6e 04 06 04 01 0c 01 03 02 08 04 01   ...0n...........
|   3808: 10 01 02 34 72 22 07 04 01 0e 01 02 34 20 08 04   ...4r.......4 ..
|   3824: 01 10 01 02 33 72 1e 09 04 01 12 01 02 33 61 72   ....3r.......3ar
|   3840: 1c 08 04 01 10 01 02 32 74 1a 08 04 01 10 b3 02   .......2t.......
|   3856: 32 69 18 09 04 01 12 01 02 32 61 72 16 08 04 01   2i.......2ar....
|   3872: 10 01 02 31 74 14 08 04 01 10 01 02 31 6e 12 08   ...1t.......1n..
|   3888: 04 01 10 01 02 31 62 10 08 04 01 10 01 02 31 32   .....1b.......12
|   3904: 0e 0b 04 01 16 01 02 30 74 68 65 72 0c 08 04 01   .......0ther....
|   3920: 10 01 02 30 74 0a 08 04 01 10 01 02 30 6e 08 08   ...0t.......0n..
|   3936: 04 01 10 01 02 30 62 06 08 04 01 10 01 02 30 61   .....0b.......0a
|   3952: 05 06 04 01 0c 01 02 02 07 04 09 10 01 34 74 22   .............4t.
|   3968: 06 04 09 0e 01 34 20 08 04 09 12 01 33 74 65 1e   .....4 .....3te.
|   3984: 07 04 09 10 01 33 70 1c 07 04 09 10 01 33 66 1a   .....3p......3f.
|   4000: 08 04 09 12 01 32 74 68 18 07 04 09 10 01 32 2d   .....2th......2-
|   4016: 16 07 04 09 10 01 32 69 14 07 04 09 10 01 32 66   ......2i......2f
|   4032: 12 07 04 09 10 01 31 74 10 07 04 09 10 01 31 69   ......1t......1i
|   4048: 0e 06 04 09 0e 01 31 0c 08 04 09 12 01 30 74 65   ......1......0te
|   4064: 0a 07 04 09 10 01 30 74 08 07 04 09 10 01 30 70   ......0t......0p
|   4080: 06 08 04 09 12 01 30 66 74 04 05 04 09 0c 01 02   ......0ft.......
| page 4 offset 12288
|      0: 0d 00 00 00 03 0f eb 00 0f f9 0f f2 0f eb 00 00   ................
|   4064: 00 00 00 00 00 00 00 00 00 00 00 05 03 03 00 10   ................
|   4080: 03 05 05 02 03 00 10 04 06 05 01 03 00 10 04 03   ................
| page 5 offset 16384
|      0: 0a 00 00 00 02 0f eb 00 0f eb 0f f4 00 00 00 00   ................
|   4064: 00 00 00 00 00 00 00 00 00 00 00 08 03 15 01 70   ...............p
|   4080: 67 73 7a 18 0b 03 1b 01 76 65 72 73 69 6f 6e 04   gsz.....version.
| page 6 offset 20480
|      0: 0d 00 00 00 03 0f f2 00 0f fc 0f f7 0f f2 00 00   ................
|   4080: 00 00 03 03 02 01 03 03 02 02 01 02 02 01 02 09   ................
| end crash-e650fe95502908.db
}]} {}

do_execsql_test 39.1 {
  SELECT rowid FROM t1('t*');
} {1 2 3}

#-------------------------------------------------------------------------
reset_db
do_test 40.0 {
  sqlite3 db {}
  db deserialize [decode_hexdb {
.open --hexdb
| size 24576 pagesize 4096 filename crash2.txt.db
| page 1 offset 0
|      0: 53 51 4c 69 74 65 20 66 6f 72 6d 61 74 20 33 00   SQLite format 3.
|     16: 10 00 01 01 00 40 20 20 00 00 00 00 00 00 00 06   .....@  ........
|     32: 00 00 00 00 00 00 00 00 00 00 00 06 00 00 00 04   ................
|     48: 00 00 00 00 00 00 00 00 00 00 00 01 00 00 00 00   ................
|     96: 00 00 00 00 0d 00 00 00 06 0e 0f 00 0f aa 0f 53   ...............S
|    112: 0e e8 0e 8b 0e 33 0e 0f 00 00 00 00 00 00 00 00   .....3..........
|   3584: 00 00 00 00 00 00 00 00 00 00 00 00 00 00 00 22   ................
|   3600: 06 06 17 11 11 01 31 74 61 62 6c 65 62 62 62 62   ......1tablebbbb
|   3616: 06 43 52 45 41 54 45 20 54 41 42 4c 45 20 62 62   .CREATE TABLE bb
|   3632: 28 61 29 56 05 06 17 1f 1f 01 7d 74 61 52 6c 65   (a)V.......taRle
|   3648: 74 31 5f 63 6f 6e 66 69 67 74 31 5f 63 6f 6e 66   t1_configt1_conf
|   3664: 69 67 05 43 52 45 41 54 45 20 54 41 42 4c 45 20   ig.CREATE TABLE 
|   3680: 27 74 31 5f 63 6f 6e 66 69 67 27 28 6b 20 50 52   't1_config'(k PR
|   3696: 49 4d 41 52 59 20 4b 45 59 2c 20 76 29 20 57 49   IMARY KEY, v) WI
|   3712: 54 48 4f 55 54 20 52 4f 57 49 44 5b 04 07 17 21   THOUT ROWID[...!
|   3728: 21 01 81 01 74 61 62 6c 65 74 31 5f 64 6f 73 73   !...tablet1_doss
|   3744: 69 7a 65 74 31 5f 64 6f 63 73 69 7a 65 04 43 52   izet1_docsize.CR
|   3760: 45 41 54 45 20 54 41 42 4c 45 20 27 74 31 5f 64   EATE TABLE 't1_d
|   3776: 6f 63 73 69 7a 65 27 28 69 64 20 49 4e 54 45 47   ocsize'(id INTEG
|   3792: 45 52 20 50 52 49 4d 41 52 59 20 4b 45 59 2c 20   ER PRIMARY KEY, 
|   3808: 73 7a 20 42 4c 4f 42 29 69 03 07 17 19 19 01 81   sz BLOB)i.......
|   3824: 2d 74 61 62 6c 65 74 31 5f 69 64 78 74 31 5f 69   -tablet1_idxt1_i
|   3840: 64 78 03 43 52 45 41 54 45 20 54 41 42 4c 45 20   dx.CREATE TABLE 
|   3856: 27 74 31 5f 69 64 78 27 28 73 65 67 69 64 2c 20   't1_idx'(segid, 
|   3872: 74 65 72 6d 2c 20 70 67 6e 6f 2c 20 50 52 49 4d   term, pgno, PRIM
|   3888: 41 52 59 20 4b 45 59 28 73 65 67 69 64 2c 20 74   ARY KEY(segid, t
|   3904: 65 72 6d 29 29 20 57 49 54 48 4f 55 54 20 52 4f   erm)) WITHOUT RO
|   3920: 57 49 44 55 02 07 17 1b 1b 01 81 01 74 61 62 6c   WIDU........tabl
|   3936: 65 74 31 5f 64 61 74 61 74 31 5f 64 61 74 61 02   et1_datat1_data.
|   3952: 43 52 45 41 54 45 20 54 41 42 4c 45 20 27 74 31   CREATE TABLE 't1
|   3968: 5f 64 61 74 61 27 28 69 64 20 49 4e 54 45 47 45   _data'(id INTEGE
|   3984: 52 20 50 52 49 4d 41 52 59 20 4b 45 59 2c 20 62   R PRIMARY KEY, b
|   4000: 6c 6f 63 6b 20 42 4c 4f 42 29 54 01 07 17 11 11   lock BLOB)T.....
|   4016: 08 81 15 74 61 62 6c 65 74 31 74 31 43 52 45 41   ...tablet1t1CREA
|   4032: 54 45 20 56 49 52 54 55 41 4c 20 54 41 42 4c 45   TE VIRTUAL TABLE
|   4048: 20 74 31 20 55 53 49 4e 47 20 66 74 73 35 28 61    t1 USING fts5(a
|   4064: 2c 62 2c 70 72 65 66 69 78 3d 22 31 2c 32 2c 33   ,b,prefix=.1,2,3
|   4080: 2c 34 22 2c 20 63 6f 6e 74 65 6e 74 3d 22 22 29   ,4., content=..)
| page 2 offset 4096
|      0: 0d 0b 6a 00 37 09 4c 02 0f e7 09 4c 0f c6 0f a4   ..j.7.L....L....
|     16: 0f 88 0f 6d 0f 4b 0f 2c 0f 0e 0e ec 0e cd 0e ad   ...m.K.,........
|     32: 0e 8e 0e 6c 0e 4b 0e 29 0e 08 0d e6 0d c4 0d b5   ...l.K.)........
|     48: 0d 97 0d 76 0d 54 0d 31 0d 15 0c f3 0c d3 0c b5   ...v.T.1........
|     64: 0c 95 0c 73 0c 54 0c 32 0c 10 0b ee 0b cc 0b b0   ...s.T.2........
|     80: 0b 8d 0b 7e 0b 48 0b 2e 0b 0b 0a ef 0a cc 0a ad   ...~.H..........
|     96: 0a 8c 0a 6d 0a 4d 0a 2b 0a 0c 09 ec 09 ca 09 a8   ...m.M.+........
|    112: 09 86 09 63 0f f1 00 00 00 00 00 00 00 00 00 00   ...c............
|   2368: 00 00 00 00 00 00 00 00 00 00 00 00 15 0a 03 00   ................
|   2384: 30 00 00 00 01 01 03 35 00 03 01 01 12 02 01 12   0......5........
|   2400: 03 01 11 1c 8c 80 80 80 80 10 03 00 3e 00 00 00   ............>...
|   2416: 17 01 05 05 34 74 61 62 6c 03 02 03 01 04 77 68   ....4tabl.....wh
|   2432: 65 72 03 02 06 09 1b 8c 80 80 80 80 0f 03 00 3c   er.............<
|   2448: 00 00 00 16 05 34 66 75 73 34 03 02 02 01 04 6e   .....4fus4.....n
|   2464: 75 6d 62 03 06 01 04 09 1b 8c 80 80 80 80 0e 03   umb.............
|   2480: 00 3c 00 00 00 16 04 33 74 68 65 03 06 01 01 04   .<.....3the.....
|   2496: 01 03 77 68 65 03 02 04 04 0a 1b 8c 80 80 80 80   ..whe...........
|   2512: 0d 03 00 3c 00 00 00 16 04 33 6e 75 6d 03 06 01   ...<.....3num...
|   2528: 01 05 01 03 74 61 62 05 62 03 04 0a 19 8c 80 80   ....tab.b.......
|   2544: 80 80 0c 03 00 38 00 00 00 14 03 32 77 68 03 02   .....8.....2wh..
|   2560: 04 00 04 33 66 74 73 03 02 02 04 07 18 8c 80 80   ...3fts.........
|   2576: 80 80 0b 03 00 36 00 00 00 13 03 32 74 61 03 02   .....6.....2ta..
|   2592: 03 02 01 68 03 06 01 01 04 04 07 1b 8c 80 80 80   ...h............
|   2608: 80 0a 03 00 3c 00 00 00 16 03 32 6e 75 03 06 01   ....<.....2nu...
|   2624: 01 05 01 02 6f 66 03 06 01 01 06 04 09 19 8c 80   ....of..........
|   2640: 80 80 80 09 03 00 38 00 00 00 14 03 32 66 74 03   ......8.....2ft.
|   2656: 02 02 01 02 69 73 03 06 01 01 03 04 07 18 8c 80   ....is..........
|   2672: 80 80 80 08 03 00 36 00 00 00 13 02 31 74 03 08   ......6.....1t..
|   2688: 03 01 01 04 01 01 77 03 02 04 04 09 1a 8c 80 80   ......w.........
|   2704: 80 80 07 03 00 3a ff 00 00 15 02 31 6e 03 08 01   .....:.....1n...
|   2720: 01 02 05 01 01 6f 03 06 01 01 06 04 09 18 8c 80   .....o..........
|   2736: 80 80 80 06 03 00 36 00 00 00 13 04 02 31 66 03   ......6......1f.
|   2752: 02 02 01 01 69 03 06 01 01 03 05 06 1c 8c 80 80   ....i...........
|   2768: 80 80 05 03 00 3e 00 00 00 17 04 30 74 68 65 03   .....>.....0the.
|   2784: 06 01 01 04 01 05 77 68 65 72 65 03 02 04 0a 15   ......where.....
|   2800: 8c 80 80 80 80 04 03 00 30 00 00 00 11 01 01 06   ........0.......
|   2816: 06 30 74 61 62 6c 65 03 02 03 07 1c 8c 80 80 80   .0table.........
|   2832: 80 03 03 00 3e 00 00 00 17 07 30 6e 75 6d 62 65   ....>.....0numbe
|   2848: 72 03 06 01 01 05 01 02 6f 66 03 06 04 0d 13 8c   r.......of......
|   2864: 80 80 80 80 02 03 00 2c 00 00 00 0f 01 01 03 02   .......,........
|   2880: 30 6e 03 06 01 01 02 07 1b 8c 80 80 80 80 01 03   0n..............
|   2896: 00 3c 00 00 00 16 08 30 66 74 73 34 61 75 78 03   .<.....0fts4aux.
|   2912: 02 02 01 02 69 73 03 06 04 0c 00 00 00 14 2a 00   ....is........*.
|   2928: 00 00 01 01 02 24 00 02 01 01 12 02 01 12 08 88   .....$..........
|   2944: 80 80 80 80 11 03 00 16 00 00 00 05 02 1c 88 80   ................
|   2960: 80 80 80 11 03 00 3e 00 00 00 17 05 34 72 6f 77   ......>.....4row
|   2976: 73 02 06 01 01 05 01 04 74 68 65 72 02 02 04 0b   s.......ther....
|   2992: 15 88 80 80 80 80 10 03 00 30 00 00 00 11 02 01   .........0......
|   3008: 01 07 05 34 62 65 74 77 02 02 04 08 1b 88 80 80   ...4betw........
|   3024: 80 80 0f 03 00 3c 00 00 00 16 04 04 33 72 6f 77   .....<......3row
|   3040: 02 06 01 01 05 01 03 74 68 65 02 08 05 0a 1b 88   .......the......
|   3056: 80 80 80 80 0e 03 00 3c 00 00 00 16 02 01 02 04   .......<........
|   3072: 33 61 72 65 02 02 03 01 03 62 65 74 02 02 07 08   3are.....bet....
|   3088: 1b 88 80 80 80 80 0d 03 00 3c 00 00 00 16 03 32   .........<.....2
|   3104: 74 68 02 08 02 01 01 07 00 04 33 61 6e 64 02 06   th........3and..
|   3120: 04 0a 1b 88 80 80 80 80 0c 03 00 3c 00 00 00 16   ...........<....
|   3136: 03 32 69 6e 02 06 01 01 06 01 02 72 6f 02 06 01   .2in.......ro...
|   3152: 01 05 04 09 18 88 80 80 80 80 0b 03 00 36 00 00   .............6..
|   3168: 00 13 02 03 32 61 72 02 02 03 01 02 62 65 02 02   ....2ar.....be..
|   3184: 04 05 07 1b 88 80 80 80 80 0a 03 00 3c 00 00 00   ............<...
|   3200: 16 02 31 74 02 08 02 01 01 07 00 03 32 61 6e 02   ..1t........2an.
|   3216: 06 01 01 04 09 19 88 80 80 80 80 09 03 00 38 00   ..............8.
|   3232: 00 00 14 02 31 6e 02 06 01 01 03 01 01 72 02 06   ....1n.......r..
|   3248: 01 01 05 04 08 17 88 80 80 80 80 08 03 00 34 00   ..............4.
|   3264: 00 00 12 02 31 62 02 02 04 01 01 69 02 06 01 01   ....1b.....i....
|   3280: 06 04 06 19 88 80 80 80 80 07 03 00 38 00 00 00   ............8...
|   3296: 14 04 02 31 32 02 02 05 01 01 61 02 08 03 01 01   ...12.....a.....
|   3312: 02 05 06 1b 88 80 80 80 80 06 03 00 3c 00 00 00   ............<...
|   3328: 16 06 30 74 68 65 72 65 02 02 02 00 02 31 31 02   ..0there.....11.
|   3344: 06 01 01 04 0a 15 88 80 80 80 80 05 03 00 30 00   ..............0.
|   3360: 00 00 11 01 01 05 04 30 74 68 65 02 06 01 01 07   .......0the.....
|   3376: 07 1c 88 80 80 80 80 04 03 00 3e 00 00 00 17 01   ..........>.....
|   3392: 01 06 02 30 6e 02 06 01 01 03 01 04 72 6f 77 73   ...0n.......rows
|   3408: 02 06 07 08 1b 88 80 80 80 80 03 03 00 3c 00 00   .............<..
|   3424: 00 16 08 30 62 65 74 77 65 65 6e 02 02 04 01 02   ...0between.....
|   3440: 69 6e 02 06 04 0c 1a 88 80 80 80 80 02 03 00 3a   in.............:
|   3456: 00 00 00 15 04 30 61 6e 64 02 06 01 01 02 02 02   .....0and.......
|   3472: 72 65 02 02 03 04 0a 17 88 80 80 80 80 01 03 00   re..............
|   3488: 34 00 00 00 12 02 30 31 02 06 01 01 04 01 01 32   4.....01.......2
|   3504: 02 02 06 04 08 08 84 80 80 80 80 12 03 00 16 00   ................
|   3520: 00 00 05 04 1b 84 80 80 80 80 11 03 00 3c 00 00   .............<..
|   3536: 00 16 05 34 74 61 62 6c 01 06 01 01 05 02 03 65   ...4tabl.......e
|   3552: 72 6d 01 02 04 0b 1b 84 80 80 80 80 10 03 00 3c   rm.............<
|   3568: 00 00 00 16 05 34 65 61 63 68 01 02 03 01 04 70   .....4each.....p
|   3584: 72 65 73 01 02 05 04 09 1a 84 80 80 80 80 0f 03   res.............
|   3600: 00 3a 00 00 00 15 04 33 74 65 72 01 02 04 02 02   .:.....3ter.....
|   3616: 68 65 01 06 01 01 03 04 08 1b 84 80 80 80 80 0e   he..............
|   3632: 03 00 3c 00 00 00 16 04 33 70 72 65 01 02 05 01   ..<.....3pre....
|   3648: 03 74 61 62 01 06 01 01 05 04 08 1a 84 80 80 80   .tab............
|   3664: 80 0d 03 00 3a 00 00 00 15 04 33 66 6f 72 01 02   ....:.....3for..
|   3680: 02 02 02 74 73 01 06 01 01 04 04 08 1b 84 80 80   ...ts...........
|   3696: 80 80 0c 03 00 3c 00 00 00 16 03 32 74 68 01 06   .....<.....2th..
|   3712: 01 01 03 00 04 33 65 61 63 01 02 03 04 09 18 84   .....3eac.......
|   3728: 80 80 80 80 0b 03 00 36 00 00 00 13 03 32 74 61   .......6.....2ta
|   3744: 01 06 01 01 05 02 01 65 01 02 04 04 09 19 84 80   .......e........
|   3760: 80 80 80 0a 03 00 38 00 00 00 14 03 32 69 6e 01   ......8.....2in.
|   3776: 06 01 01 02 01 02 70 72 01 02 05 04 09 18 84 80   ......pr........
|   3792: 80 80 80 09 03 00 36 00 00 00 13 03 32 66 6f 01   ......6.....2fo.
|   3808: 02 02 02 01 74 01 06 01 01 04 04 07 1b 84 80 80   ....t...........
|   3824: 80 80 08 03 00 3c 00 00 00 16 02 31 74 01 0a 04   .....<.....1t...
|   3840: 01 01 03 04 00 03 32 65 61 01 02 03 04 0a 17 84   ......2ea.......
|   3856: 80 80 80 80 07 03 00 34 00 00 00 12 02 31 69 01   .......4.....1i.
|   3872: 06 01 01 02 01 01 70 01 02 05 04 08 18 84 80 80   ......p.........
|   3888: 80 80 06 03 00 36 00 00 00 13 02 31 65 01 02 03   .....6.....1e...
|   3904: 01 01 66 01 08 02 01 01 04 04 06 1b 84 80 80 80   ..f.............
|   3920: 80 05 03 00 3c 00 00 00 16 05 30 74 65 72 6d 01   ....<.....0term.
|   3936: 02 04 02 02 68 65 01 06 01 01 03 04 09 14 84 80   ....he..........
|   3952: 80 80 80 04 03 00 2e 00 00 00 10 06 30 74 61 62   ............0tab
|   3968: 6c 65 01 06 00 01 05 04 15 84 80 80 80 80 03 03   le..............
|   3984: 00 30 00 00 00 11 02 08 30 70 72 65 73 65 6e 74   .0......0present
|   4000: 01 02 05 05 1b 84 80 80 80 80 02 03 00 3c 00 00   .............<..
|   4016: 00 16 04 30 66 74 73 01 06 01 01 04 01 02 69 6e   ...0fts.......in
|   4032: 01 06 01 01 04 0a 1a 84 80 80 80 80 01 03 00 3a   ...............:
|   4048: 00 00 00 15 05 30 65 61 63 68 01 02 03 01 03 66   .....0each.....f
|   4064: 6f 72 01 02 02 04 09 06 01 03 00 12 03 0b 0f 00   or..............
|   4080: 00 08 8c 80 80 80 80 11 03 00 16 00 00 00 05 04   ................
| page 3 offset 8192
|      0: 0a 00 00 00 32 0e 4f 00 0f fa 10 f1 0f e9 0f e1   ....2.O.........
|     16: 0f d8 0f d1 0f c9 0f c1 0f b9 0f b1 0f a9 0f a0   ................
|     32: 0f 98 0f 90 0f 87 0f 80 0f 78 0f 71 0f 68 0f 5f   .........x.q.h._
|     48: bd 56 0f 4d 0f 41 0f 38 0f 2f 0f 26 0f 1d 0f 13   .V.M.A.8./.&....
|     64: 0f 0a 0f 01 0e f7 0e ee 0e e6 0e dd 0e d6 0e cd   ................
|     80: 0e c3 0e ba 0e b0 0e a8 0e 9f 0e 96 0e 8e 0e 85   ................
|     96: 0e 7c 0e 73 0e 6a 0e 60 0e 58 0e 4f 00 00 00 00   .|.s.j.`.X.O....
|   3648: 00 00 00 00 00 00 00 00 00 00 00 00 00 00 00 08   ................
|   3664: 04 01 10 01 03 34 74 20 07 04 01 0e 01 03 34 1e   .....4t ......4.
|   3680: 09 04 01 12 01 03 33 74 68 1c 08 04 01 10 01 03   ......3th.......
|   3696: 33 6e 1a 08 04 01 10 01 03 32 77 18 08 04 01 10   3n.......2w.....
|   3712: 01 03 32 74 16 08 04 01 10 01 03 32 6e 14 07 04   ..2t.......2n...
|   3728: 01 0e 01 03 32 12 08 04 01 10 01 03 31 74 10 08   ....2.......1t..
|   3744: 04 01 10 01 03 31 6e 0e 07 04 01 0e 01 03 31 0c   .....1n.......1.
|   3760: 09 04 01 12 01 03 30 74 68 0a 08 04 01 10 01 03   ......0th.......
|   3776: 30 74 08 09 04 01 12 01 03 30 6e 75 06 08 04 01   0t.......0nu....
|   3792: 10 01 03 30 6e 04 06 04 01 0c 01 05 52 08 04 01   ...0n.......R...
|   3808: 10 01 02 34 72 22 07 04 01 0e 01 02 34 20 08 04   ...4r.......4 ..
|   3824: 01 10 01 02 33 72 1e 09 04 01 12 01 02 33 61 72   ....3r.......3ar
|   3840: 1c 08 04 01 10 01 02 32 74 1a 08 04 01 10 b3 02   .......2t.......
|   3856: 32 69 18 09 04 01 12 01 02 32 61 72 16 08 04 01   2i.......2ar....
|   3872: 10 01 02 31 74 14 08 04 01 10 01 02 31 6e 12 08   ...1t.......1n..
|   3888: 04 01 10 01 02 31 62 10 08 04 01 10 01 02 31 32   .....1b.......12
|   3904: 0e 0b 04 01 16 01 02 30 74 68 65 72 0c 08 04 01   .......0ther....
|   3920: 10 01 02 30 74 0a 08 04 01 10 01 02 30 6e 08 08   ...0t.......0n..
|   3936: 04 01 10 01 02 30 62 06 08 04 01 10 01 02 30 61   .....0b.......0a
|   3952: 04 06 04 01 0c 01 02 02 07 04 09 10 01 34 74 22   .............4t.
|   3968: 06 04 09 0e 01 34 20 08 04 09 12 01 33 74 65 1e   .....4 .....3te.
|   3984: 07 04 09 10 01 33 70 1c 07 04 09 10 01 33 66 1a   .....3p......3f.
|   4000: 08 04 09 12 01 32 74 68 18 07 04 09 10 01 32 74   .....2th......2t
|   4016: 16 07 04 09 10 01 32 69 14 07 04 09 10 01 32 66   ......2i......2f
|   4032: 12 07 04 09 10 01 31 74 10 07 04 09 10 01 31 69   ......1t......1i
|   4048: 0e 06 04 09 0e 01 31 0c 08 04 09 12 01 30 74 65   ......1......0te
|   4064: 0a 07 04 09 10 01 30 74 08 07 04 09 10 01 30 70   ......0t......0p
|   4080: 06 08 04 09 12 01 30 66 74 04 05 04 09 0c 01 02   ......0ft.......
| page 4 offset 12288
|      0: 0d 00 00 00 03 0f eb 00 0f f9 0f f2 0f eb 00 00   ................
|   4064: 00 00 00 00 00 00 00 00 00 00 00 05 03 03 00 10   ................
|   4080: 03 05 05 02 03 00 10 04 06 05 01 03 00 10 04 04   ................
| page 5 offset 16384
|      0: 0a 00 00 00 02 0f eb 00 0f eb 0f f4 00 00 00 00   ................
|   4064: 00 00 00 00 00 00 00 00 00 00 00 08 03 15 01 70   ...............p
|   4080: 67 73 7a 18 0b 03 1b 01 76 65 72 73 69 6f 6e 04   gsz.....version.
| page 6 offset 20480
|      0: 0d 00 00 00 03 0f f2 00 0f fc 0f f7 0f f2 00 00   ................
|   4080: 00 00 03 03 02 01 03 03 02 02 01 02 02 01 02 09   ................
| end crash2.txt.db
}]} {}

do_catchsql_test 40.1 {
  BEGIN;
  INSERT INTO t1(b) VALUES(X'819192e578de3fa24af3733ca8769291a0fee3669f9fddefc5cba913e4225d4b6ce2b04f26b87fad3ee6f9b7d90a1ea62a169bf41e5d32707a6ca5c3d05e4bde05c9d89eaaa8c50e74333d2e9fcd7dfe95528a3a016aac1102d825c5cd70cf99d8a88e0ea7f798d4334386518b7ad359beb168b93aba059a2a3bd93112d65b44c12b9904ea786b204d80531cdf0504bf9b203dbe927061974caf7b9f30cbc3397b61f802e732012a6663d41c3607d6f1c0dbcfd489adac05ca500c0b04439d894cd93a840159225ef73b627e178b9f84b3ffe66cf22a963a8368813ff7961fc47f573211ccec95e0220dcbb3bf429f4a50ba54d7a53784ac51bf');
  INSERT INTO t1(b) VALUES(X'c8ae0d0e7c3175946e62ba2b449511d4eb504079984a20f77969f62206c9f3d7ea25358ab705e6978627290b6d48db9032f815a06a79a4f4b809841a0942eed12954ed166f666111812a508abc3bec87958846edaec0a6fe14564bc0a4b78f1c35ebcacca6bae29cc37ae9b59d8a2d7593af1e47dda0ece2268a98d20febafad037964f139851f9a57f48b3706b01721769071991412044cd6006f1d72eb6eb4aa5ad77e378176db8c15575fbeee47165e38a7c6c5a557ac2dfe11813976eaf6741cf593a9e457053a3c34cddfbe605a6e25419f993de8374fafcd3636509d8416a51dc7bcc14cfca322ae343078f47e23522431c17d0da0c033');
  INSERT INTO t1(b) VALUES(X'dc29a94e873a45a4243fce9b912aaefbadf1d0423e0345793874b356eeb500b92fb05284c1601fe9bad3143f72162f10242cec27c44ebf764c8fc9fb0824e32c4161472a4f914f579e0e8274f08ca1a02e59b9d8eec1f31061f9ccb9ed97a6f06534e991f7992c761489e6a7724f6e9c2b581e77487ded3a986d53c4419bbd3e9747cee300e670dd7294874c77e2ed48da68eaa6c3ec954a09ac410493d98e34d6686e54fbbe80696705f10e040c66093efb40746b33600685c94c664c7942835a9e954866121d5dcfb2cb12e92521ea3df175ee17072502dad9b9c1565f801b2179799011eb7418bfa00323e3157589e648ff7378be233c79b7');
} {/*malformed database schema*/}

do_catchsql_test 40.2 {
  INSERT INTO t1(a,b) VALUES(1,11),(2,22),(3, true ),(4,44);
} {/*malformed database schema*/}

#-------------------------------------------------------------------------
reset_db
do_execsql_test 41.0 {
  CREATE VIRTUAL TABLE t1 USING fts5(a,b,c);
  REPLACE INTO t1_data VALUES(1,X'255a5824');
  REPLACE INTO t1_data VALUES(10,X'0a1000000102020002010101020101');
  INSERT INTO t1_data VALUES(137438953473,X'0000032b0030300102060102060102061f0203010203010203010832303136303630390102070102070102070101340102050102050102050101350102040102040102040207303030303030301c0204010204010204010662696e6272790306010202030601020203060102020306010202030601020203060102020306010202030601020203060102020306010202030601020203060102020108636f6d70696c657201020201020201020201066462737461740702030102030102030424656275670402020102020102020106656e61626c6507020201020201020201020201020201020201020201020201020201020201020201020201020201020201020201020201020201020201020201020201020202087874656e73696f6e1f02040102040102040104667473340a02030102030102030401350d020301020301020301036763630102030102030102030206656f706f6c7910020301020301020301056a736f6e3113020301020301020301046c6f61641f020301020301020301036d61781c02020102020102020205656d6f72791c020301020301020304047379733516020301020301020301066e6f6361736502060102020306010202030601020203060102020306010202030601020203060102020306010202030601020203060102020301b10202030601020201046f6d69741f0202010202010202010572747265651902030102030102030402696d010601020203060102020306010202030601020203060102020306010202030601020203060102020306010202030601020203060102020306010202010a746872656164736166652202020102020102020104767461620702040102040102040101780106010102010601010201060101020106010102010601010201060101020106010102010601010201060101020106010102010601010201060101020106010102010601010201060101020106010102010601010201060101020106010102010601010201060101020106010102010601010201060101020106010102010601010201060101020106010102010601010201060101020106010102010601010201060101020106010102010601010201060101020415130c0c124413110f47130f0c0e11100f0e100f440f1040150f');
  INSERT INTO t1_data VALUES(274877906945,X'00000183023030250601011d010331c2ba250601010d0101342506010121010135250601011e02036ec2ba250601012b0101382506010112010161250a0101021a1d02016f2506010111010162250601013201026377250601012f010166250801011f0c010167250601012701026863250601010f02026473250601013002016b2506010133020175250601010e010169250601012c0204386ec2be250601012001016a250601010401056bc2b2cebc250601010901016c25060101150203cebc71250601011301036dd18a250601010c01016f25060101260102706425060101240101712506010122010173250a010116040d02016f2506010134010175250801011b14020161250601010b010376c2aa25060101100202d7ac250601010601017725060101030201752506010114010179250a0101190e050202357a250601010701017a250601012e0102c2aa250801011c100201b3250601010a0202ba6225060101310203be656625060101080103c5a77425060101050102de8e250601011704080a08080a080a080809090809090808080b080c080a0a0809080a0809080a0908080a09080a08090a0a');
  INSERT INTO t1_idx VALUES(1,X'',2);
  INSERT INTO t1_idx VALUES(2,X'',2);
}

do_catchsql_test 41.1 {
  INSERT INTO t1(t1) VALUES('optimize');
} {/.*fts5: corrupt.*/}

do_catchsql_test 41.2 {
  INSERT INTO t1(t1) VALUES('integrity-check');
} {1 {database disk image is malformed}}

#-------------------------------------------------------------------------
reset_db
do_test 42.0 {
  sqlite3 db {}
  db deserialize [decode_hexdb {
| size 32768 pagesize 4096 filename 8cfba7fbb67e48de92c6.db
| page 1 offset 0
|      0: 53 51 4c 69 74 65 20 66 6f 72 6d 61 74 20 33 00   SQLite format 3.
|     16: 10 00 01 01 00 40 20 20 00 00 00 00 00 00 00 08   .....@  ........
|     32: 00 00 00 02 00 00 00 01 00 00 00 09 00 00 00 04   ................
|     48: 00 00 00 00 00 00 00 00 00 00 00 01 00 00 00 00   ................
|     96: 00 00 00 00 0d 0f c7 00 07 0d 92 00 0f 8d 0f 36   ...............6
|    112: 0e cb 0e 6b 0e 0e 0d b6 0d 92 0d 92 00 00 00 00   ...k............
|   3472: 00 00 22 08 06 17 11 11 01 31 74 61 62 6c 65 74   .........1tablet
|   3488: 32 74 32 08 43 52 45 41 54 45 20 54 41 42 4c 45   2t2.CREATE TABLE
|   3504: 20 74 32 28 78 29 56 07 06 17 1f 1f 01 7d 74 61    t2(x)V.......ta
|   3520: 62 6c 65 74 31 5f 63 6f 6e 66 69 67 74 31 5f 63   blet1_configt1_c
|   3536: 6f 6e 66 69 67 07 43 52 45 41 54 45 20 54 41 42   onfig.CREATE TAB
|   3552: 4c 45 20 27 74 31 5f 63 6f 6e 66 69 67 27 28 6b   LE 't1_config'(k
|   3568: 20 50 52 49 4d 41 52 59 20 4b 45 59 2c 20 76 29    PRIMARY KEY, v)
|   3584: 20 57 49 54 48 4f 55 54 20 52 4f 57 49 44 5b 06    WITHOUT ROWID[.
|   3600: 07 17 21 21 01 81 01 74 61 62 6c 65 74 31 5f 64   ..!!...tablet1_d
|   3616: 6f 63 73 69 7a 65 74 31 5f 64 6f 63 73 69 7a 65   ocsizet1_docsize
|   3632: 06 43 52 45 41 54 45 20 54 41 42 4c 45 20 27 74   .CREATE TABLE 't
|   3648: 31 5f 64 6f 63 73 69 7a 65 27 28 69 64 20 49 4e   1_docsize'(id IN
|   3664: 54 45 47 45 52 20 50 52 49 4d 41 52 59 20 4b 45   TEGER PRIMARY KE
|   3680: 59 2c 20 73 7a 20 42 4c 4f 42 29 5e 05 07 17 21   Y, sz BLOB)^...!
|   3696: 21 01 81 07 74 61 62 6c 65 74 31 5f 63 6f 6e 74   !...tablet1_cont
|   3712: 65 6e 74 74 31 5f 63 6f 6e 74 65 6e 74 05 43 52   entt1_content.CR
|   3728: 45 41 54 45 20 54 41 42 4c 45 20 27 74 31 5f 63   EATE TABLE 't1_c
|   3744: 6f 6e 74 65 6e 74 27 28 69 64 20 49 4e 54 45 47   ontent'(id INTEG
|   3760: 45 52 20 50 52 49 4d 41 52 59 20 4b 45 59 2c 20   ER PRIMARY KEY, 
|   3776: 63 30 2c 20 63 31 2c 20 63 32 29 69 04 07 17 19   c0, c1, c2)i....
|   3792: 19 01 81 2d 74 61 62 6c 65 74 31 5f 69 64 78 74   ...-tablet1_idxt
|   3808: 31 5f 69 64 78 04 43 52 45 41 54 45 20 54 41 42   1_idx.CREATE TAB
|   3824: 4c 45 20 27 74 31 5f 69 64 78 27 28 73 65 67 69   LE 't1_idx'(segi
|   3840: 64 2c 20 74 65 72 6d 2c 20 70 67 6e 6f 2c 20 50   d, term, pgno, P
|   3856: 52 49 4d 41 52 59 20 4b 45 59 28 73 65 67 69 64   RIMARY KEY(segid
|   3872: 2c 20 74 65 72 6d 29 29 20 57 49 54 48 4f 55 54   , term)) WITHOUT
|   3888: 20 52 4f 57 49 44 55 03 07 17 1b 1b 01 81 01 74    ROWIDU........t
|   3904: 61 62 6c 65 74 31 5f 64 61 74 61 74 31 5f 64 61   ablet1_datat1_da
|   3920: 74 61 03 43 52 45 41 54 45 20 54 41 42 4c 45 20   ta.CREATE TABLE 
|   3936: 27 74 31 5f 64 61 74 61 27 28 69 64 20 49 4e 54   't1_data'(id INT
|   3952: 45 47 45 52 20 50 52 49 4d 41 52 59 20 4b 45 59   EGER PRIMARY KEY
|   3968: 2c 20 62 6c 6f 63 6b 20 42 4c 4f 42 29 38 02 06   , block BLOB)8..
|   3984: 17 11 11 08 5f 74 61 62 6c 65 74 31 74 31 43 52   ...._tablet1t1CR
|   4000: 45 41 54 45 20 56 49 52 54 55 41 4c 20 54 41 42   EATE VIRTUAL TAB
|   4016: 4c 45 20 74 31 20 55 53 49 4e 47 20 66 74 73 35   LE t1 USING fts5
|   4032: 28 61 2c 62 2c 63 29 00 00 00 39 00 00 00 00 00   (a,b,c)...9.....
| page 3 offset 8192
|      0: 0d 00 00 00 03 0c 94 00 0f e6 0f ef 0c 94 00 00   ................
|   3216: 00 00 00 00 86 4a 84 80 80 80 80 01 04 00 8d 18   .....J..........
|   3232: 00 00 03 2b 02 30 30 01 02 06 01 02 06 01 02 06   ...+.00.........
|   3248: 1f 02 03 01 02 03 01 02 03 01 08 32 30 31 36 30   ...........20160
|   3264: 36 30 39 01 02 07 01 02 07 01 02 07 01 01 34 01   609...........4.
|   3280: 02 05 01 02 05 01 02 05 01 01 35 01 02 04 01 02   ..........5.....
|   3296: 04 01 02 04 02 07 30 30 30 30 30 30 30 1c 02 04   ......0000000...
|   3312: 01 02 04 01 02 04 01 06 62 69 6e 62 72 79 03 06   ........binbry..
|   3328: 01 02 02 03 06 01 02 02 03 06 01 02 01 03 06 01   ................
|   3344: 02 02 03 06 01 02 02 03 06 01 02 02 03 06 01 02   ................
|   3360: 02 03 06 01 02 02 03 06 01 02 02 03 06 01 02 02   ................
|   3376: 03 06 01 02 02 03 06 01 02 02 01 08 63 6f 6d 70   ............comp
|   3392: 69 6c 65 72 01 02 02 01 02 02 01 02 02 01 06 64   iler...........d
|   3408: 62 73 74 61 74 07 02 03 01 02 03 01 02 03 02 04   bstat...........
|   3424: 65 62 75 67 04 02 02 01 02 02 01 02 02 01 06 65   ebug...........e
|   3440: 6e 61 62 6c 65 07 02 02 01 02 02 01 02 02 01 02   nable...........
|   3456: 02 01 02 02 01 02 02 01 02 02 01 02 02 01 02 02   ................
|   3472: 01 02 02 01 02 02 01 02 02 01 02 02 01 02 02 01   ................
|   3488: 02 02 01 02 02 01 02 02 01 02 02 01 02 02 01 02   ................
|   3504: 02 01 02 02 02 08 78 74 65 6e 73 69 6f 6e 1f 02   ......xtension..
|   3520: 04 01 02 04 01 02 04 01 04 66 74 73 34 0a 02 03   .........fts4...
|   3536: 01 02 03 01 02 03 04 01 35 0d 02 03 01 02 03 01   ........5.......
|   3552: 02 03 01 03 67 63 63 01 02 03 01 02 03 01 02 03   ....gcc.........
|   3568: 02 06 65 6f 70 6f 6c 79 10 02 03 01 02 03 01 02   ..eopoly........
|   3584: 03 01 05 6a 73 6f 6e 31 13 02 03 01 02 03 01 02   ...json1........
|   3600: 03 01 04 6c 6f 61 64 1f 02 03 01 02 03 01 02 03   ...load.........
|   3616: 01 03 6d 61 78 1c 02 02 01 02 02 01 02 02 02 05   ..max...........
|   3632: 65 6d 6f 72 79 1c 02 03 01 02 03 01 02 03 04 04   emory...........
|   3648: 73 79 73 35 16 02 03 01 02 03 01 02 03 01 06 6e   sys5...........n
|   3664: 6f 63 61 73 65 02 06 01 02 02 03 06 01 02 02 03   ocase...........
|   3680: 06 01 02 02 03 06 01 02 02 03 06 01 02 02 03 06   ................
|   3696: 01 02 02 03 06 01 02 02 03 06 01 02 02 03 06 01   ................
|   3712: 02 02 03 06 01 02 02 03 06 01 02 02 03 06 01 02   ................
|   3728: 02 01 04 6f 6d 69 74 1f 02 02 01 02 02 01 02 02   ...omit.........
|   3744: 01 05 72 74 72 65 65 19 02 03 01 02 03 01 02 03   ..rtree.........
|   3760: 04 02 69 6d 01 06 01 02 02 03 06 01 02 02 03 06   ..im............
|   3776: 01 02 02 03 06 01 02 02 03 06 01 02 02 03 06 01   ................
|   3792: 02 02 03 06 01 02 02 03 06 01 02 02 03 06 01 02   ................
|   3808: 02 03 06 01 02 02 03 06 01 02 02 03 06 01 02 02   ................
|   3824: 01 0a 74 68 72 65 61 64 73 61 66 65 22 02 02 01   ..threadsafe....
|   3840: 02 02 01 02 02 01 04 76 74 61 62 07 02 04 01 02   .......vtab.....
|   3856: 04 01 02 04 01 01 78 01 06 01 01 02 01 06 01 01   ......x.........
|   3872: 02 01 06 01 01 02 01 06 01 01 02 01 06 01 01 02   ................
|   3888: 01 06 01 01 02 01 06 01 01 02 01 06 01 01 02 01   ................
|   3904: 06 01 01 02 01 06 01 01 02 01 06 01 01 02 01 06   ................
|   3920: 01 01 02 01 06 01 01 02 01 06 01 01 02 01 06 01   ................
|   3936: 01 02 01 06 01 01 02 01 06 01 01 02 01 06 01 01   ................
|   3952: 02 01 06 01 01 02 01 06 01 01 02 01 06 01 01 02   ................
|   3968: 01 06 01 01 02 01 06 01 01 02 01 06 01 01 02 01   ................
|   3984: 06 01 01 02 01 06 01 01 02 01 06 01 01 02 01 06   ................
|   4000: 01 01 02 01 06 01 01 02 01 06 01 01 02 01 06 01   ................
|   4016: 01 02 01 06 01 01 02 01 06 01 01 02 01 06 01 01   ................
|   4032: 02 01 06 01 01 02 01 06 01 01 02 04 15 13 0c 0c   ................
|   4048: 12 44 13 11 0f 47 13 0f 0c 0e 11 10 0f 0e 10 0f   .D...G..........
|   4064: 44 0f 10 40 15 0f 07 01 03 00 14 24 5a 24 24 0f   D..@.......$Z$$.
|   4080: 0a 03 00 24 00 00 00 00 01 01 01 00 01 01 01 01   ...$............
| page 4 offset 12288
|      0: 0a 00 00 00 01 0f fa 00 0f fa 00 00 00 00 00 00   ................
|   4080: 00 00 00 00 00 00 00 00 00 00 05 04 09 0b 01 02   ................
| page 5 offset 16384
|      0: 0d 00 00 00 24 0c 0a 00 0f d8 0f af 0f 86 0f 74   ....$..........t
|     16: 0f 61 0f 4e 0f 2f 0f 0f 0e ef 0e d7 0e be 0e a5   .a.N./..........
|     32: 0e 8d 0e 74 0e 5b 0e 40 0e 24 0e 08 0d ef 0d d5   ...t.[.@.$......
|     48: 0d bb 0d a0 0d 84 0d 68 0d 4f 0d 35 0d 1b 0c fb   .......h.O.5....
|     64: 0c da 0c b9 0c 99 0c 78 0c 57 0c 3e 0c 24 0c 0a   .......x.W.>.$..
|   3072: 00 00 00 00 00 00 00 00 00 00 18 24 05 00 25 0f   ...........$..%.
|   3088: 19 54 48 52 45 41 44 53 41 46 45 3d 30 58 42 49   .THREADSAFE=0XBI
|   3104: 4f 41 52 59 18 23 05 00 25 0f 19 54 48 52 45 41   OARY.#..%..THREA
|   3120: 44 53 41 46 45 3d 30 58 4e 4f 43 41 53 45 17 22   DSAFE=0XNOCASE..
|   3136: 05 00 25 0f 17 54 48 52 45 41 44 53 41 46 45 3d   ..%..THREADSAFE=
|   3152: 30 58 52 54 52 49 4d 1f 21 05 00 33 0f 19 4f 4d   0XRTRIM.!..3..OM
|   3168: 49 54 20 4c 4f 41 44 20 45 58 54 45 4e 53 49 4f   IT LOAD EXTENSIO
|   3184: 4e 58 42 49 4e 41 52 59 1f 20 05 00 33 0f 19 4f   NXBINARY. ..3..O
|   3200: 4d 49 54 20 4c 4f 41 44 20 45 58 54 45 4e 53 49   MIT LOAD EXTENSI
|   3216: 4f 4e 58 4e 4f 43 41 53 45 1e 1f 05 00 33 0f 17   ONXNOCASE....3..
|   3232: 4f 4d 49 54 20 4c 4f 41 44 20 45 58 54 45 4e 53   OMIT LOAD EXTENS
|   3248: 49 4f 4e 58 52 54 52 49 4d 1f 1e 05 00 33 0f 19   IONXRTRIM....3..
|   3264: 4d 41 58 20 4d 45 4d 4f 52 59 3d 35 30 30 30 30   MAX MEMORY=50000
|   3280: 30 30 30 58 42 49 4e 41 52 59 1f 1d 05 00 33 0f   000XBINARY....3.
|   3296: 19 4d 41 58 20 4d 45 4d 4f 52 59 3d 35 30 30 30   .MAX MEMORY=5000
|   3312: 30 30 30 30 58 4e 4f 43 41 53 45 1e 1c 05 00 33   0000XNOCASE....3
|   3328: 0f 17 4d 41 58 20 4d 45 4d 4f 52 59 3d 35 30 30   ..MAX MEMORY=500
|   3344: 30 30 30 30 30 58 52 54 52 49 4d 18 1b 05 00 25   00000XRTRIM....%
|   3360: 0f 19 45 4e 41 42 4c 45 20 52 54 52 45 45 58 42   ..ENABLE RTREEXB
|   3376: 49 4e 41 52 59 18 1a 05 00 25 0f 19 45 4e 41 42   INARY....%..ENAB
|   3392: 4c 45 20 52 54 52 45 45 58 4e 4f 43 41 53 45 17   LE RTREEXNOCASE.
|   3408: 19 05 00 25 0f 17 45 4e 41 42 4c 45 20 52 54 52   ...%..ENABLE RTR
|   3424: 45 45 58 52 54 52 49 4d 1a 18 05 00 29 0f 19 45   EEXRTRIM....)..E
|   3440: 4e 41 42 4c 45 20 4d 45 4d 53 59 53 35 58 42 49   NABLE MEMSYS5XBI
|   3456: 4e 41 52 59 1a 17 05 00 29 0f 19 45 4e 41 42 4c   NARY....)..ENABL
|   3472: 45 20 4d 45 4d 53 59 53 35 58 4e 4f 43 41 53 45   E MEMSYS5XNOCASE
|   3488: 19 16 05 00 29 0f 17 45 4e 41 42 4c 45 20 4d 45   ....)..ENABLE ME
|   3504: 4d 53 59 53 35 58 52 54 52 49 4d 18 15 05 00 25   MSYS5XRTRIM....%
|   3520: 0f 19 45 4e 41 42 4c 45 20 4a 53 4f 4e 31 58 42   ..ENABLE JSON1XB
|   3536: 49 4e 41 52 59 18 14 05 00 25 0f 19 45 4e 41 42   INARY....%..ENAB
|   3552: 4c 45 20 4a 53 4f 4e 31 58 4e 4f 43 41 53 45 17   LE JSON1XNOCASE.
|   3568: 13 05 00 25 0f 17 45 4e 41 42 4c 45 20 4a 53 4f   ...%..ENABLE JSO
|   3584: 4e 31 58 52 54 52 49 4d 1a 12 05 00 29 0f 19 45   N1XRTRIM....)..E
|   3600: 4e 41 42 4c 45 20 47 45 4f 50 4f 4c 59 57 42 49   NABLE GEOPOLYWBI
|   3616: 4e 41 52 59 1a 11 05 00 29 0f 19 45 4e 41 42 4c   NARY....)..ENABL
|   3632: 45 20 47 45 4f 50 4f 4c 59 58 4e 4f 42 41 53 45   E GEOPOLYXNOBASE
|   3648: 19 10 05 00 29 0f 17 45 4e 41 42 4c 45 20 47 45   ....)..ENABLE GE
|   3664: 4f 50 4f 4c 59 58 52 54 52 49 4d 17 0f 05 00 23   OPOLYXRTRIM....#
|   3680: 0f 19 45 4e 41 42 4c 45 20 46 54 53 35 58 42 49   ..ENABLE FTS5XBI
|   3696: 4e 41 52 59 17 0e 05 00 23 0f 19 45 4e 41 42 4c   NARY....#..ENABL
|   3712: 45 20 46 54 53 35 58 4e 4f 43 41 53 45 16 0d 05   E FTS5XNOCASE...
|   3728: 00 23 0f 17 45 4e 41 42 4c 45 20 46 54 53 35 58   .#..ENABLE FTS5X
|   3744: 52 54 52 49 4d 17 0c 05 00 23 0f 19 45 4e 41 42   RTRIM....#..ENAB
|   3760: 4c 45 20 46 54 53 34 58 42 49 4e 41 52 59 17 0b   LE FTS4XBINARY..
|   3776: 05 00 23 0f 19 45 4e 41 42 4c 45 20 46 54 53 34   ..#..ENABLE FTS4
|   3792: 58 4e 4f 43 41 53 45 16 0a 05 00 23 0f 17 45 4e   XNOCASE....#..EN
|   3808: 41 42 4c 45 20 46 54 53 34 58 52 54 52 49 4d 1e   ABLE FTS4XRTRIM.
|   3824: 09 05 00 31 0f 19 45 4e 41 42 4c 45 20 44 42 53   ...1..ENABLE DBS
|   3840: 54 41 54 20 56 54 41 42 58 42 49 4e 41 52 59 1e   TAT VTABXBINARY.
|   3856: 08 05 00 31 0f 19 45 4e 41 42 4c 45 20 44 42 53   ...1..ENABLE DBS
|   3872: 54 41 54 20 56 54 41 42 58 4e 4f 43 41 53 45 1d   TAT VTABXNOCASE.
|   3888: 07 05 00 31 0f 17 45 4e 41 42 4c 45 20 44 42 53   ...1..ENABLE DBS
|   3904: 54 41 54 20 56 54 41 42 58 52 54 52 49 4d 11 06   TAT VTABXRTRIM..
|   3920: 05 00 17 0f 19 44 45 42 55 47 58 42 49 4e 41 52   .....DEBUGXBINAR
|   3936: 59 11 05 05 00 17 0f 19 44 45 42 55 47 58 4e 4f   Y.......DEBUGXNO
|   3952: 43 41 53 45 10 04 05 00 17 0f 17 44 45 42 55 47   CASE.......DEBUG
|   3968: 58 52 54 52 49 4d 27 03 05 00 43 0f 19 43 4f 4d   XRTRIM'...C..COM
|   3984: 50 49 4c 45 52 3d 67 63 63 2d 35 2e 34 2e 30 20   PILER=gcc-5.4.0 
|   4000: 32 30 31 36 30 36 30 39 52 02 49 4e 41 52 59 27   20160609R.INARY'
|   4016: 02 05 00 43 0f 19 43 4f 4d 50 49 4c 45 52 3d 67   ...C..COMPILER=g
|   4032: 63 63 2d 35 2e 34 2e 30 20 32 30 31 36 30 36 30   cc-5.4.0 2016060
|   4048: 39 58 4e 4f 43 41 53 45 26 01 05 00 43 0f 17 43   9XNOCASE&...C..C
|   4064: 4f 4d 50 49 4c 45 52 3d 67 63 63 2d 35 2e 34 2e   OMPILER=gcc-5.4.
|   4080: 30 20 32 30 31 36 30 36 30 39 58 52 54 52 49 4d   0 20160609XRTRIM
| page 6 offset 20480
|      0: 0d 00 00 00 24 0e e0 00 0f f8 0f f0 0f e8 0f e0   ....$...........
|     16: 0f d8 0f d0 0f c8 0f c0 0f b8 0f b0 0f a8 0f a0   ................
|     32: 0f 98 0f 90 0f 88 0f 80 0f 78 0f 70 0f 68 0f 60   .........x.p.h.`
|     48: 0f 58 0f 50 0f 48 0f 40 0f 38 0f 30 0f 28 0f 20   .X.P.H.@.8.0.(. 
|     64: 0f 18 0f 10 0f 08 0f 00 0e f8 0e f0 0e e8 0e e0   ................
|   3808: 06 24 03 00 12 02 01 01 06 23 03 00 12 02 01 01   .$.......#......
|   3824: 06 22 03 00 12 02 01 01 06 21 03 00 12 03 01 01   .........!......
|   3840: 06 20 03 00 12 03 01 01 06 1f 03 00 12 03 01 01   . ..............
|   3856: 06 1e 03 00 12 03 01 01 06 1d 03 00 12 03 01 01   ................
|   3872: 06 1c 03 00 12 03 01 01 06 1b 03 00 12 02 01 01   ................
|   3888: 06 1a 03 00 12 02 01 01 06 19 03 00 12 02 01 01   ................
|   3904: 06 18 03 00 12 02 01 01 06 17 03 00 12 02 01 01   ................
|   3920: 06 16 03 00 12 02 01 01 06 15 03 00 12 02 01 01   ................
|   3936: 06 14 03 00 12 02 01 01 06 13 03 00 12 02 01 01   ................
|   3952: 06 12 03 00 12 02 01 01 06 11 03 00 12 02 01 01   ................
|   3968: 06 10 03 00 12 02 01 01 06 0f 03 00 12 02 01 01   ................
|   3984: 06 0e 03 00 12 02 01 01 06 0d 03 00 12 02 01 01   ................
|   4000: 06 0c 03 00 12 02 01 01 06 0b 03 00 12 02 01 01   ................
|   4016: 06 0a 03 00 12 02 01 01 06 09 03 00 12 03 01 01   ................
|   4032: 06 08 03 00 12 03 01 01 06 07 03 00 12 03 01 01   ................
|   4048: 06 06 03 00 12 01 01 01 06 05 03 00 12 01 01 01   ................
|   4064: 06 04 03 00 12 01 01 01 06 03 03 00 12 06 01 01   ................
|   4080: 06 02 03 00 12 06 01 01 06 01 03 00 12 06 01 01   ................
| page 7 offset 24576
|      0: 0a 00 00 00 01 0f f4 00 0f f4 00 00 00 00 00 00   ................
|   4080: 00 00 00 00 0b 03 1b 01 76 65 72 73 69 6f 6e 04   ........version.
| page 8 offset 28672
|      0: 0d 00 00 00 03 0f d6 00 0f f4 0f e9 0f d6 00 00   ................
|   4048: 00 00 00 00 00 00 11 03 02 2b 69 6e 74 65 67 72   .........+integr
|   4064: 69 74 79 2d 63 68 65 63 6b 09 02 02 1b 72 65 62   ity-check....reb
|   4080: 75 69 6c 64 0a 01 02 1d 6f 70 74 69 5d 69 7a 65   uild....opti]ize
| end 8cfba7fbb67e48de92c6.db
}]} {}

do_catchsql_test 42.1 {
  INSERT INTO t1(t1) VALUES('integrity-check');
} {1 {fts5: checksum mismatch for table "t1"}}

#-------------------------------------------------------------------------
reset_db
do_test 43.0 {
  sqlite3 db {}
  db deserialize [decode_hexdb {
| size 24576 pagesize 4096 filename 89028ffd2c29b679e250.db
| page 1 offset 0
|      0: 53 51 4c 69 74 65 20 66 6f 72 6d 61 74 20 33 00   SQLite format 3.
|     16: 10 00 01 01 00 40 20 20 00 00 00 00 00 00 00 06   .....@  ........
|     32: 00 00 00 00 00 00 00 00 00 00 00 06 00 00 00 04   ................
|     48: 00 00 00 00 00 00 00 00 00 00 00 01 00 00 00 00   ................
|     96: 00 00 00 00 0d 00 00 00 06 0e 0f 00 0f aa 0f 53   ...............S
|    112: 0e e8 0e 8b 0e 33 0e 0f 00 00 00 00 00 00 00 00   .....3..........
|   3584: 00 00 00 00 00 00 00 00 00 00 00 00 00 00 00 22   ................
|   3600: 06 06 17 11 11 01 31 74 61 62 6c 65 62 62 62 62   ......1tablebbbb
|   3616: 06 43 52 45 41 54 45 20 54 41 42 4c 45 20 62 62   .CREATE TABLE bb
|   3632: 28 61 29 56 05 06 17 1f 1f 01 7d 74 61 62 6c 65   (a)V.......table
|   3648: 74 31 5f 63 6f 6e 66 69 67 74 31 5f 63 6f 6e 66   t1_configt1_conf
|   3664: 69 67 05 43 52 45 41 54 45 20 54 41 42 4c 45 20   ig.CREATE TABLE 
|   3680: 27 74 31 5f 63 6f 6e 66 69 67 27 28 6b 20 50 52   't1_config'(k PR
|   3696: 49 4d 41 52 59 20 4b 45 59 2c 20 76 29 20 57 49   IMARY KEY, v) WI
|   3712: 54 48 4f 55 54 20 52 4f 57 49 44 5b 04 07 17 21   THOUT ROWID[...!
|   3728: 21 01 81 01 74 61 62 6c 65 74 31 5f 64 6f 63 73   !...tablet1_docs
|   3744: 69 7a 65 74 31 5f 12 6f 63 73 69 7a 65 04 43 52   izet1_.ocsize.CR
|   3760: 45 41 54 45 20 54 41 42 4c 45 20 27 74 31 5f 64   EATE TABLE 't1_d
|   3776: 6f 63 73 69 7a 65 27 28 69 64 20 49 4e 54 45 47   ocsize'(id INTEG
|   3792: 45 52 20 50 52 49 4d 41 52 59 20 4b 45 59 2c 20   ER PRIMARY KEY, 
|   3808: 73 7a 20 42 4c 4f 42 29 69 03 07 17 19 19 01 81   sz BLOB)i.......
|   3824: 2d 74 61 62 6c 65 74 31 5f 69 64 78 74 31 5f 69   -tablet1_idxt1_i
|   3840: 64 78 03 43 52 45 41 54 45 20 54 41 42 4c 45 20   dx.CREATE TABLE 
|   3856: 27 74 31 5f 69 64 78 27 28 73 65 67 69 64 2c 20   't1_idx'(segid, 
|   3872: 74 65 72 6d 2c 20 70 67 6e 6f 2c 20 50 52 49 4d   term, pgno, PRIM
|   3888: 41 52 59 20 4b 45 59 28 73 65 67 69 64 2c 20 74   ARY KEY(segid, t
|   3904: 65 72 6d 29 29 20 57 49 54 48 4f 55 54 20 52 4f   erm)) WITHOUT RO
|   3920: 57 49 44 55 02 07 17 1b 1b 01 81 01 74 61 62 6c   WIDU........tabl
|   3936: 65 74 31 5f 64 61 74 61 74 31 5e 64 61 74 61 02   et1_datat1^data.
|   3952: 43 52 45 41 54 45 20 54 41 42 4c 45 20 27 74 31   CREATE TABLE 't1
|   3968: 5f 64 61 74 61 27 28 69 64 20 49 4e 54 45 47 45   _data'(id INTEGE
|   3984: 52 20 50 52 49 4d 41 52 59 20 4b 45 59 2c 20 62   R PRIMARY KEY, b
|   4000: 6c 6f 63 6b 20 42 4c 4f 42 29 54 01 07 17 11 11   lock BLOB)T.....
|   4016: 08 81 15 74 61 62 6c 65 74 31 74 31 43 52 45 41   ...tablet1t1CREA
|   4032: 54 45 20 56 49 52 54 55 41 4c 20 54 41 42 4c 45   TE VIRTUAL TABLE
|   4048: 20 74 31 20 55 53 49 4e 47 20 66 74 73 35 28 61    t1 USING fts5(a
|   4064: 2c 62 2c 70 72 65 66 69 78 3d 22 31 2c 32 2c 33   ,b,prefix=.1,2,3
|   4080: 2c 34 22 2c 20 63 6f 6e 74 65 6e 74 3d 22 22 29   ,4., content=..)
| page 2 offset 4096
|      0: 0d 0b 6a 00 37 09 4c 02 0f e8 09 4c 0f c6 0f a4   ..j.7.L....L....
|     16: 0f 88 0f 6d 0f 4b 0f 2c 0f 0e 0e ec 0e cd 0e ad   ...m.K.,........
|     32: 0e 8e 0e 6c 0e 4b 0e 29 0e 08 0d e6 0d c4 0d b5   ...l.K.)........
|     48: 0d 97 0d 76 0d 54 0d 31 0d 15 0c f3 0c d3 0c b5   ...v.T.1........
|     64: 0c 95 0c 73 0c 54 0c 32 0c 10 0b ee 0b cc 0b b0   ...s.T.2........
|     80: 0b 8d 0b 7e 0b 48 0b 2e 0b 0b 0a ef 0a cc 0a ad   ...~.H..........
|     96: 0a 8c 0a 6d 0a 4d 0a 2b 0a 0c 09 ec 09 ca 09 a8   ...m.M.+........
|    112: 09 86 09 63 0f f1 00 00 00 00 00 00 00 00 00 00   ...c............
|   2368: 00 00 00 00 00 00 00 00 00 00 00 00 15 0a 03 00   ................
|   2384: 30 00 00 00 01 01 03 35 00 03 00 01 12 02 01 12   0......5........
|   2400: 03 01 11 1c 8c 80 80 80 80 10 03 00 3e 00 00 00   ............>...
|   2416: 17 01 05 05 34 74 61 62 6c 03 02 03 01 04 77 68   ....4tabl.....wh
|   2432: 65 72 03 02 06 09 1b 8c 80 80 80 80 0f 03 00 3c   er.............<
|   2448: 00 00 00 16 05 34 66 74 73 34 03 02 02 01 04 6e   .....4fts4.....n
|   2464: 75 6d 62 03 06 01 04 09 1b 8c 80 80 80 80 0e 03   umb.............
|   2480: 00 3c 00 00 00 16 04 33 74 68 65 03 06 01 01 04   .<.....3the.....
|   2496: 01 03 77 68 65 03 02 04 04 0a 1b 8c 80 80 80 80   ..whe...........
|   2512: 0d 03 00 3c 00 00 00 16 04 33 6e 75 6d 03 06 01   ...<.....3num...
|   2528: 01 05 01 03 74 61 62 03 02 03 04 0a 19 8c 80 80   ....tab.........
|   2544: 80 80 0c 03 00 38 00 00 00 14 03 32 77 68 03 02   .....8.....2wh..
|   2560: 04 00 04 33 66 74 73 03 02 02 04 07 18 8c 80 80   ...3fts.........
|   2576: 80 80 0b 03 00 36 00 00 00 13 03 32 74 61 03 02   .....6.....2ta..
|   2592: 03 02 01 68 03 06 01 01 04 04 07 1b 8c 80 80 80   ...h............
|   2608: 80 0a 03 00 3c 00 00 00 16 03 32 6e 75 03 06 01   ....<.....2nu...
|   2624: 01 05 01 02 6f 66 03 06 01 01 06 04 09 19 8c 80   ....of..........
|   2640: 80 80 80 09 03 00 38 00 00 00 14 03 32 66 74 03   ......8.....2ft.
|   2656: 02 02 01 02 69 73 03 06 01 01 03 04 07 18 8c 80   ....is..........
|   2672: 80 80 80 08 03 00 36 94 00 00 13 02 31 74 03 08   ......6.....1t..
|   2688: 03 01 01 04 01 01 77 03 02 04 04 09 1a 8c 80 80   ......w.........
|   2704: 80 80 07 03 00 3a 00 00 00 15 02 31 6e 03 08 01   .....:.....1n...
|   2720: 01 02 05 01 01 6f 03 06 01 01 06 04 09 18 8c 80   .....o..........
|   2736: 80 80 80 06 03 00 36 00 00 00 13 04 02 31 66 03   ......6......1f.
|   2752: 02 02 01 01 69 03 06 01 01 03 05 06 1c 8c 80 80   ....i...........
|   2768: 80 80 05 03 00 3e 00 00 00 17 04 30 74 68 65 03   .....>.....0the.
|   2784: 06 01 01 04 01 05 77 68 65 72 65 03 02 04 0a 15   ......where.....
|   2800: 8c 80 80 80 80 04 03 00 30 00 00 00 11 01 01 06   ........0.......
|   2816: 06 30 74 61 62 6c 65 03 02 03 07 1c 8c 80 80 80   .0table.........
|   2832: 80 03 03 00 3e 00 00 00 17 07 30 6e 75 6d 62 65   ....>.....0numbe
|   2848: 72 03 06 01 01 05 01 02 6f 66 03 06 04 0d 13 8c   r.......of......
|   2864: 80 80 80 80 02 03 00 2c 00 00 00 0f 01 01 03 02   .......,........
|   2880: 30 6e 03 06 01 01 02 07 1b 8c 80 80 80 80 01 03   0n..............
|   2896: 00 3c 00 00 00 16 08 30 66 74 73 34 61 75 78 03   .<.....0fts4aux.
|   2912: 02 02 01 02 69 73 04 06 04 0c 00 00 00 14 2a 00   ....is........*.
|   2928: 00 00 01 01 02 24 00 02 01 01 12 02 01 12 08 88   .....$..........
|   2944: 80 80 80 80 12 03 00 16 00 00 00 05 02 1c 88 80   ................
|   2960: 80 80 80 11 03 00 3e 00 00 00 17 05 34 72 6f 77   ......>.....4row
|   2976: 73 02 06 01 01 05 01 04 74 68 65 72 02 02 04 0b   s.......ther....
|   2992: 15 88 80 80 80 80 10 03 00 30 00 00 00 11 02 01   .........0......
|   3008: 01 07 05 34 62 65 74 77 02 02 04 08 1b 88 80 80   ...4betw........
|   3024: 80 80 0f 03 00 3c 00 00 00 16 04 04 33 72 6f 77   .....<......3row
|   3040: 02 06 01 01 05 01 03 74 68 65 02 08 05 0a 1b 88   .......the......
|   3056: 80 80 80 80 0e 03 00 3c 00 00 00 16 01 01 02 04   .......<........
|   3072: 33 61 72 65 02 02 03 01 03 62 65 74 02 02 07 08   3are.....bet....
|   3088: 1b 88 80 80 80 80 0d 03 00 3c 00 00 00 16 03 32   .........<.....2
|   3104: 74 68 02 08 02 01 01 07 00 04 33 61 6e 64 02 06   th........3and..
|   3120: 04 0a 1b 88 80 80 80 80 0c 03 00 3c 00 00 00 16   ...........<....
|   3136: 03 32 69 6e 02 06 01 01 06 01 02 72 6f 02 06 01   .2in.......ro...
|   3152: 01 05 04 09 18 88 80 80 80 80 0b 03 00 36 00 00   .............6..
|   3168: 00 13 02 03 32 61 72 02 02 03 01 02 62 65 02 02   ....2ar.....be..
|   3184: 04 05 07 1b 88 80 80 80 80 0a 03 00 3c 00 00 00   ............<...
|   3200: 16 02 31 74 02 08 02 01 01 07 00 03 32 61 6e 02   ..1t........2an.
|   3216: 06 01 01 04 09 19 88 80 80 80 80 09 03 00 38 00   ..............8.
|   3232: 00 00 14 02 31 6e 02 06 01 01 03 01 01 72 02 06   ....1n.......r..
|   3248: 01 01 05 04 08 17 88 80 80 80 80 08 03 00 34 00   ..............4.
|   3264: 00 00 12 02 31 62 02 02 04 01 01 69 02 06 01 01   ....1b.....i....
|   3280: 06 04 06 19 88 80 80 80 80 07 03 00 38 00 00 00   ............8...
|   3296: 14 04 02 31 32 02 02 05 01 01 61 02 08 03 01 01   ...12.....a.....
|   3312: 02 05 06 1b 88 80 80 80 80 06 03 00 3c 00 00 00   ............<...
|   3328: 16 06 30 74 68 65 72 65 02 02 02 00 02 31 31 02   ..0there.....11.
|   3344: 06 01 01 04 0a 15 88 80 80 80 80 05 00 90 30 00   ..............0.
|   3360: 00 00 11 01 01 05 04 30 74 68 65 02 06 01 01 07   .......0the.....
|   3376: 07 1c 88 80 80 80 80 04 03 00 3e 00 00 00 17 01   ..........>.....
|   3392: 01 06 02 30 6e 02 06 01 01 03 01 04 72 6f 77 73   ...0n.......rows
|   3408: 02 06 07 08 1b 88 80 80 80 80 03 03 00 3c 00 00   .............<..
|   3424: 00 16 07 30 62 65 74 77 65 65 6e 02 02 04 01 02   ...0between.....
|   3440: 69 6e 02 06 04 0c 1a 88 80 80 80 80 02 03 00 3a   in.............:
|   3456: 00 00 00 15 04 30 61 6e 64 02 06 01 01 02 02 02   .....0and.......
|   3472: 72 65 02 02 03 04 0a 17 88 80 80 80 80 01 03 00   re..............
|   3488: 34 00 00 00 12 02 30 31 02 06 01 01 04 01 01 32   4.....01.......2
|   3504: 02 02 05 04 08 08 84 80 80 80 80 12 03 00 16 00   ................
|   3520: 00 00 05 04 1b 84 80 80 80 80 11 03 00 3c 00 00   .............<..
|   3536: 00 16 05 34 74 61 62 6c 01 06 01 01 05 02 03 65   ...4tabl.......e
|   3552: 72 6d 01 02 04 0b 1b 84 80 80 80 80 10 03 00 3c   rm.............<
|   3568: 00 00 00 16 05 34 65 61 63 68 01 02 03 01 04 70   .....4each.....p
|   3584: 72 65 73 01 02 05 04 09 1a 84 80 80 80 80 0f 03   res.............
|   3600: 00 3a 00 00 00 15 04 33 74 65 72 01 02 04 02 02   .:.....3ter.....
|   3616: 68 65 01 06 01 01 03 04 08 1b 84 80 80 80 80 0e   he..............
|   3632: 03 00 3c 00 00 00 16 04 33 70 72 65 01 02 05 01   ..<.....3pre....
|   3648: 03 74 61 62 01 06 01 01 05 04 08 1a 84 80 80 80   .tab............
|   3664: 80 0d 03 00 3a 00 00 00 15 04 33 66 6f 72 01 02   ....:.....3for..
|   3680: 02 02 02 74 73 01 06 01 01 04 04 08 1b 84 80 80   ...ts...........
|   3696: 80 80 0c 03 00 3c 00 00 00 16 03 32 74 68 01 06   .....<.....2th..
|   3712: 01 01 03 00 04 33 65 61 63 01 02 03 04 09 18 84   .....3eac.......
|   3728: 80 80 80 80 0b 03 00 36 00 00 00 13 03 32 74 61   .......6.....2ta
|   3744: 01 06 01 01 05 02 01 65 01 02 04 04 09 19 84 80   .......e........
|   3760: 80 80 80 0a 03 00 38 00 00 00 14 03 32 69 6e 01   ......8.....2in.
|   3776: 06 01 01 02 01 02 70 72 01 02 05 04 09 18 84 80   ......pr........
|   3792: 80 80 80 09 03 00 36 00 00 00 13 03 32 66 6f 01   ......6.....2fo.
|   3808: 02 02 02 01 74 01 06 01 01 04 04 07 1b 84 80 80   ....t...........
|   3824: 80 80 08 03 00 3c 00 00 00 16 02 31 74 01 0a 04   .....<.....1t...
|   3840: 01 01 03 04 00 03 32 65 61 01 02 03 04 0a 17 84   ......2ea.......
|   3856: 80 80 80 80 07 03 00 34 00 00 00 12 02 31 69 01   .......4.....1i.
|   3872: 06 01 01 02 01 01 71 01 02 05 04 08 18 84 80 80   ......q.........
|   3888: 80 80 06 03 00 36 00 00 00 13 02 31 65 01 02 03   .....6.....1e...
|   3904: 01 01 66 01 08 02 01 01 04 04 06 1b 84 80 80 80   ..f.............
|   3920: 80 05 03 00 3c 00 00 00 16 05 30 74 65 72 6d 01   ....<.....0term.
|   3936: 02 04 02 02 68 65 01 06 01 01 03 04 09 14 84 80   ....he..........
|   3952: 80 80 80 04 03 00 2e 00 00 00 10 06 30 74 61 62   ............0tab
|   3968: 6c 65 01 06 01 01 05 04 15 84 80 80 80 80 03 03   le..............
|   3984: 00 30 00 00 00 11 02 08 30 70 72 65 73 65 6e 74   .0......0present
|   4000: 01 02 05 05 1b 84 80 80 80 80 02 03 00 3c 00 00   .............<..
|   4016: 00 16 04 30 66 74 73 01 06 01 01 04 01 02 69 6e   ...0fts.......in
|   4032: 01 06 01 01 04 0a 1a 84 80 80 80 80 01 03 00 3a   ...............:
|   4048: 00 00 00 15 05 30 65 61 63 68 01 02 03 01 03 66   .....0each.....f
|   4064: 6f 72 01 02 02 04 09 06 01 03 00 12 03 0b 0f 00   or..............
|   4080: 00 08 8c 80 80 80 80 11 03 00 16 00 00 00 05 04   ................
| page 3 offset 8192
|      0: 0a 00 00 00 32 0e 4f 00 0f fa 0f f1 0f e9 0f e1   ....2.O.........
|     16: 0f d8 0f d1 0f c9 0f c1 0f b9 0f b1 0f a9 0f a0   ................
|     32: 0f 98 0f 91 0f 87 0f 80 0f 78 0f 71 0f 68 0f 5f   .........x.q.h._
|     48: 0f 56 0f 4d 0f 41 0f 38 0f 2f 0f 26 0f 1d 0f 13   .V.M.A.8./.&....
|     64: 0f 0a 0f 01 0e f7 0e ee 0e e6 0e dd 0e d6 0e cd   ................
|     80: 0e c3 0e ba 0e b0 0e a8 0e 9f 0e 96 0e 8e 0e 85   ................
|     96: 0e 7c 0e 73 0e 6a 0e 60 0e 58 0e 4f 00 00 00 00   .|.s.j.`.X.O....
|   3648: 00 00 00 00 00 00 00 00 00 00 00 00 00 00 00 08   ................
|   3664: 04 01 10 01 03 34 74 20 07 04 01 0e 01 03 34 1e   .....4t ......4.
|   3680: 09 05 01 12 01 03 33 74 68 1c 08 04 01 10 01 03   ......3th.......
|   3696: 33 6e 1a 08 04 01 10 01 03 32 77 18 08 04 01 10   3n.......2w.....
|   3712: 01 03 32 74 16 08 04 01 10 01 03 32 6e 14 07 04   ..2t.......2n...
|   3728: 01 0e 01 03 32 12 08 04 01 10 01 03 31 74 10 08   ....2.......1t..
|   3744: 04 01 10 01 03 31 6e 0e 07 04 01 0e 01 03 31 0c   .....1n.......1.
|   3760: 09 04 01 12 01 03 30 74 68 0a 08 04 01 10 01 03   ......0th.......
|   3776: 30 74 08 09 04 01 12 01 03 30 6e 75 06 08 04 01   0t.......0nu....
|   3792: 10 01 03 30 6e 04 06 04 01 0c 01 03 02 08 04 01   ...0n...........
|   3808: 10 01 02 34 72 22 07 04 01 0e 01 02 34 20 08 04   ...4r.......4 ..
|   3824: 01 10 01 02 33 72 1e 09 04 01 12 01 02 33 61 72   ....3r.......3ar
|   3840: 1c 08 04 01 10 01 02 32 74 1a 08 04 01 10 02 02   .......2t.......
|   3856: 32 69 18 09 04 01 12 01 02 32 61 72 16 08 04 01   2i.......2ar....
|   3872: 10 01 02 31 74 14 08 04 01 10 01 02 31 6e 12 08   ...1t.......1n..
|   3888: 04 01 10 01 02 31 62 10 08 04 01 10 01 02 31 32   .....1b.......12
|   3904: 0e 0b 04 01 16 01 02 30 74 68 65 72 0c 08 04 01   .......0ther....
|   3920: 10 01 02 30 74 0a 08 04 01 10 01 02 30 6e 08 08   ...0t.......0n..
|   3936: 04 01 10 01 02 30 62 06 08 04 01 10 01 02 30 61   .....0b.......0a
|   3952: 04 06 04 01 0c 01 02 02 07 04 09 10 01 34 74 22   .............4t.
|   3968: 06 04 09 0e 01 34 20 08 04 09 12 01 33 74 65 1e   .....4 .....3te.
|   3984: 07 04 09 10 01 33 70 1c 07 04 09 10 01 33 66 1a   .....3p......3f.
|   4000: 08 04 09 12 01 32 74 68 18 07 04 09 10 01 32 74   .....2th......2t
|   4016: 16 07 04 09 10 01 32 69 14 07 04 09 10 01 32 66   ......2i......2f
|   4032: 12 07 04 09 10 01 31 74 10 07 04 09 10 01 31 69   ......1t......1i
|   4048: 0e 06 04 09 0e 01 31 0c 08 04 09 12 01 30 74 65   ......1......0te
|   4064: 0a 07 04 09 10 01 30 74 08 07 04 09 10 01 30 70   ......0t......0p
|   4080: 06 08 04 09 12 01 30 66 74 04 05 04 09 0c 01 02   ......0ft.......
| page 4 offset 12288
|      0: 0d 00 00 00 03 0f eb 00 0f f9 0f f2 0f eb 00 00   ................
|   4064: 00 00 00 00 00 00 00 00 00 00 00 05 03 03 00 10   ................
|   4080: 03 05 05 02 03 00 10 04 06 05 01 03 00 10 04 04   ................
| page 5 offset 16384
|      0: 0a 00 00 00 02 0f eb 00 0f eb 0f f4 00 00 00 00   ................
|   4064: 00 00 00 00 00 00 00 00 00 00 00 08 03 15 01 70   ...............p
|   4080: 67 73 7a 18 0b 03 1b 01 76 65 72 73 69 6f 6e 04   gsz.....version.
| page 6 offset 20480
|      0: 0d 00 00 00 03 0f f2 00 0f fc 0f f7 0f f2 00 00   ................
|   4080: 00 00 03 03 02 01 03 03 02 02 01 02 02 01 02 09   ................
| end 89028ffd2c29b679e250.db
}]} {}

do_catchsql_test 43.1 {
  INSERT INTO t1(t1) VALUES('optimize');
} {/*malformed database schema*/}

#-------------------------------------------------------------------------
reset_db
do_execsql_test 44.1 {
  CREATE VIRTUAL TABLE t1 USING fts5(a,b unindexed,c,tokenize="porter ascii");
  REPLACE INTO t1_data VALUES(1,X'03090009');
  REPLACE INTO t1_data VALUES(10,X'000000000103030003010101020101030101');
  INSERT INTO t1_data VALUES(137438953473,X'0000002e023061011202010162010203010163010204010167010601020201016801050102030101690106010204040606060808');
  INSERT INTO t1_data VALUES(274877906945,X'0000001f02306702080201020201016802080301020301016a420804010204040909');
  INSERT INTO t1_data VALUES(412316860417,X'0000002e023061030202010162030203010163030204010167030601020201016803060102030101690306010204040606060808');
  INSERT INTO t1_idx VALUES(1,X'',2);
  INSERT INTO t1_idx VALUES(2,X'',2);
  INSERT INTO t1_idx VALUES(3,X'',2);
  INSERT INTO t1_content VALUES(1,'a b c','d e f','g h i');
  INSERT INTO t1_content VALUES(2,'g h i','a b c','g h i');
  INSERT INTO t1_content VALUES(3,'a b c','g h i','g h i');
  INSERT INTO t1_docsize VALUES(1,X'030003');
  INSERT INTO t1_docsize VALUES(2,X'030003');
  INSERT INTO t1_docsize VALUES(3,X'030003');
} {}

do_catchsql_test 44.2 {
  INSERT INTO t1(t1) VALUES('integrity-check');
} {/.*fts5: corrupt.*/}

do_catchsql_test 44.3 {
  SELECT snippet(t1, -1, '.', '..', '', 2 ) FROM t1('g h') ORDER BY rank; 
} {0 {{.g.. .h..} {.g.. h} {.g.. .h..}}}

#--------------------------------------------------------------------------
reset_db
do_test 45.0 {
  sqlite3 db {}
  db deserialize [decode_hexdb {
| size 24576 pagesize 4096 filename crash-0b162c9e69b999.db
| page 1 offset 0
|      0: 53 51 4c 69 74 65 20 66 6f 72 6d 61 74 20 33 00   SQLite format 3.
|     16: 10 00 01 01 00 40 20 20 00 00 00 00 00 00 00 06   .....@  ........
|     32: 00 00 00 00 00 00 00 00 00 00 00 06 00 00 00 04   ................
|     48: 00 00 00 00 00 00 00 00 00 00 00 01 00 00 00 00   ................
|     96: 00 00 00 00 0d 00 00 00 06 0e 0f 00 0f aa 0f 53   ...............S
|    112: 0e e8 0e 8b 0e 33 0e 0f 00 00 00 00 00 00 00 00   .....3..........
|   3584: 00 00 00 00 00 00 00 00 00 00 00 00 00 00 00 22   ................
|   3600: 06 06 17 11 11 01 31 74 61 62 6c 65 62 62 62 62   ......1tablebbbb
|   3616: 06 43 52 45 41 54 45 20 54 41 42 4c 45 20 62 62   .CREATE TABLE bb
|   3632: 28 61 29 56 05 06 17 1f 1f 01 7d 74 61 52 6c 65   (a)V.......taRle
|   3648: 74 31 5f 63 6f 6e 66 69 67 74 31 5f 63 6f 6e 66   t1_configt1_conf
|   3664: 69 67 05 43 52 45 41 54 45 20 54 41 42 4c 45 20   ig.CREATE TABLE 
|   3680: 27 74 31 5f 63 6f 6e 66 69 67 27 28 6b 20 50 52   't1_config'(k PR
|   3696: 49 4d 41 52 59 20 4b 45 59 2c 20 76 29 20 57 49   IMARY KEY, v) WI
|   3712: 54 48 4f 55 54 20 52 4f 57 49 44 5b 04 07 17 21   THOUT ROWID[...!
|   3728: 21 01 81 01 74 61 62 6c 65 74 31 5f 64 6f 73 73   !...tablet1_doss
|   3744: 69 7a 65 74 31 5f 64 6f 63 73 69 7a 65 04 43 52   izet1_docsize.CR
|   3760: 45 41 54 45 20 54 41 42 4c 45 20 27 74 31 5f 64   EATE TABLE 't1_d
|   3776: 6f 63 73 69 7a 65 27 28 69 64 20 49 4e 54 45 47   ocsize'(id INTEG
|   3792: 45 52 20 50 52 49 4d 41 52 59 20 4b 45 59 2c 20   ER PRIMARY KEY, 
|   3808: 73 7a 20 42 4c 4f 42 29 69 03 07 17 19 19 01 81   sz BLOB)i.......
|   3824: 2d 74 61 62 6c 65 74 31 5f 69 64 78 74 31 5f 69   -tablet1_idxt1_i
|   3840: 64 78 03 43 52 45 41 54 45 20 54 41 42 4c 45 20   dx.CREATE TABLE 
|   3856: 27 74 31 5f 69 64 78 27 28 73 65 67 69 64 2c 20   't1_idx'(segid, 
|   3872: 74 65 72 6d 2c 20 70 67 6e 6f 2c 20 50 52 49 4d   term, pgno, PRIM
|   3888: 41 52 59 20 4b 45 59 28 73 65 67 69 64 2c 20 74   ARY KEY(segid, t
|   3904: 65 72 6d 29 29 20 57 49 54 48 4f 55 54 20 52 4f   erm)) WITHOUT RO
|   3920: 57 49 44 55 02 07 17 1b 1b 01 81 01 74 61 62 6c   WIDU........tabl
|   3936: 65 74 31 5f 64 61 74 61 74 31 5f 64 61 74 61 02   et1_datat1_data.
|   3952: 43 52 45 41 54 45 20 54 41 42 4c 45 20 27 74 31   CREATE TABLE 't1
|   3968: 5f 64 61 74 61 27 28 69 64 20 49 4e 54 45 47 45   _data'(id INTEGE
|   3984: 52 20 50 52 49 4d 41 52 59 20 4b 45 59 2c 20 62   R PRIMARY KEY, b
|   4000: 6c 6f 63 6b 20 42 4c 4f 42 29 54 01 07 17 11 11   lock BLOB)T.....
|   4016: 08 81 15 74 61 62 6c 65 74 31 74 31 43 52 45 41   ...tablet1t1CREA
|   4032: 54 45 20 56 49 52 54 55 41 4c 20 54 41 42 4c 45   TE VIRTUAL TABLE
|   4048: 20 74 31 20 55 53 49 4e 47 20 66 74 73 35 28 61    t1 USING fts5(a
|   4064: 2c 62 2c 70 72 65 66 69 78 3d 22 31 2c 32 2c 33   ,b,prefix=.1,2,3
|   4080: 2c 34 22 2c 20 63 6f 6e 74 65 6e 74 3d 22 22 29   ,4., content=..)
| page 2 offset 4096
|      0: 0d 0b 6a 00 37 09 4c 02 0f e7 09 4c 0f c6 0f a4   ..j.7.L....L....
|     16: 0f 88 0f 6d 0f 4b 0f 2c 0f 0e 0e ec 0e cd 0e ad   ...m.K.,........
|     32: 0e 8e 0e 6c 0e 4b 0e 29 0e 08 0d e6 0d c4 0d b5   ...l.K.)........
|     48: 0d 97 0d 76 0d 54 0d 31 0d 15 0c f3 0c d3 0c b5   ...v.T.1........
|     64: 0c 95 0c 73 0c 54 0c 32 0c 10 0b ee 0b cc 0b b0   ...s.T.2........
|     80: 0b 8d 0b 7e 0b 48 0b 2e 0b 0b 0a ef 0a cc 0a ad   ...~.H..........
|     96: 0a 8c 0a 6d 0a 4d 0a 2b 0a 0c 09 ec 09 ca 09 a8   ...m.M.+........
|    112: 09 86 09 63 0f f1 00 00 00 00 00 00 00 00 00 00   ...c............
|   2368: 00 00 00 00 00 00 00 00 00 00 00 00 15 0a 03 00   ................
|   2384: 30 00 00 00 01 01 03 35 00 03 01 01 12 02 01 12   0......5........
|   2400: 03 01 11 1c 8c 80 80 80 80 10 03 00 3e 00 00 00   ............>...
|   2416: 17 01 05 05 34 74 61 62 6c 03 02 03 01 04 77 68   ....4tabl.....wh
|   2432: 65 72 03 02 06 09 1b 8c 80 80 80 80 0f 03 00 3c   er.............<
|   2448: 00 00 00 16 05 34 66 75 73 34 03 02 02 01 04 6e   .....4fus4.....n
|   2464: 75 6d 62 03 06 01 04 09 1b 8c 80 80 80 80 0e 03   umb.............
|   2480: 00 3c 00 00 00 16 04 33 74 68 65 03 06 01 01 04   .<.....3the.....
|   2496: 01 03 77 68 65 03 02 04 04 0a 1b 8c 80 80 80 80   ..whe...........
|   2512: 0d 03 00 3c 00 00 00 16 04 33 6e 74 6d 03 06 01   ...<.....3ntm...
|   2528: 01 05 01 03 74 61 62 05 62 03 04 0a 19 8c 80 80   ....tab.b.......
|   2544: 80 80 0c 03 00 38 00 00 00 14 03 32 77 68 03 02   .....8.....2wh..
|   2560: 04 00 04 33 66 74 73 03 02 02 04 07 18 8c 80 80   ...3fts.........
|   2576: 80 80 0b 03 00 36 00 00 00 13 03 32 74 61 03 02   .....6.....2ta..
|   2592: 03 02 01 68 03 06 01 01 04 04 07 1b 8c 80 80 80   ...h............
|   2608: 80 0a 03 00 3c 00 00 00 16 03 32 6e 75 03 06 01   ....<.....2nu...
|   2624: 01 05 01 02 6f 66 03 06 01 01 06 04 09 19 8c 80   ....of..........
|   2640: 80 80 80 09 03 00 38 00 00 00 14 03 32 66 74 03   ......8.....2ft.
|   2656: 02 02 01 02 69 73 03 06 01 01 03 04 07 18 8c 80   ....is..........
|   2672: 80 80 80 08 03 00 36 00 00 00 13 02 31 74 03 08   ......6.....1t..
|   2688: 03 01 01 04 01 01 77 03 02 04 04 09 1a 8c 80 80   ......w.........
|   2704: 80 80 07 03 00 3a ff 00 00 15 02 31 6e 03 08 01   .....:.....1n...
|   2720: 01 02 05 01 01 6f 03 06 01 01 06 04 09 18 8c 80   .....o..........
|   2736: 80 80 80 06 03 00 36 00 00 00 13 04 02 31 66 03   ......6......1f.
|   2752: 02 02 01 01 69 03 06 01 01 03 05 06 1c 8c 80 80   ....i...........
|   2768: 80 80 05 03 00 3e 00 00 00 17 04 30 74 68 65 03   .....>.....0the.
|   2784: 06 01 01 04 01 05 77 68 65 72 65 03 02 04 0a 15   ......where.....
|   2800: 8c 80 80 80 80 04 03 00 30 00 00 00 11 01 01 06   ........0.......
|   2816: 06 30 74 61 62 6c 65 03 02 03 07 1c 8c 80 80 80   .0table.........
|   2832: 80 03 03 00 3e 00 00 00 17 07 30 6e 75 6d 62 65   ....>.....0numbe
|   2848: 72 03 06 01 01 05 01 02 6f 66 03 06 04 0d 13 8c   r.......of......
|   2864: 80 80 80 80 02 03 00 2c 00 00 00 0f 01 01 03 02   .......,........
|   2880: 30 6e 03 06 01 01 02 07 1b 8c 80 80 80 80 01 03   0n..............
|   2896: 00 3c 00 00 00 16 08 30 66 74 73 34 61 75 78 03   .<.....0fts4aux.
|   2912: 02 02 01 02 69 73 03 06 04 0c 00 00 00 14 2a 00   ....is........*.
|   2928: 00 00 01 01 02 24 00 02 01 01 12 02 01 12 08 88   .....$..........
|   2944: 80 80 80 80 11 03 00 16 00 00 01 05 02 1c 88 80   ................
|   2960: 80 80 80 11 03 00 3e 00 00 00 17 05 34 72 6f 77   ......>.....4row
|   2976: 73 02 06 01 01 05 01 04 74 68 65 72 02 02 04 0b   s.......ther....
|   2992: 15 88 80 80 80 80 10 03 00 30 00 00 00 11 02 01   .........0......
|   3008: 01 07 05 34 62 65 74 77 02 02 04 08 1b 88 80 80   ...4betw........
|   3024: 80 80 0f 03 00 3c 00 00 00 16 04 04 33 72 6f 77   .....<......3row
|   3040: 02 06 01 01 05 01 03 74 68 65 02 08 05 0a 1b 88   .......the......
|   3056: 80 80 80 80 0e 03 00 3c 00 00 00 16 02 01 02 04   .......<........
|   3072: 33 61 72 65 02 02 03 01 03 62 65 74 02 02 07 08   3are.....bet....
|   3088: 1b 88 80 80 80 80 0d 03 00 3c 00 00 00 16 03 32   .........<.....2
|   3104: 74 68 02 08 02 01 01 07 00 04 33 61 6e 64 02 06   th........3and..
|   3120: 04 0a 1b 88 80 80 80 80 0c 03 00 3c 00 00 00 16   ...........<....
|   3136: 03 32 69 6e 02 06 01 01 06 01 02 72 6f 02 06 01   .2in.......ro...
|   3152: 01 05 04 09 18 88 80 80 80 80 0b 03 00 36 00 00   .............6..
|   3168: 00 13 02 03 32 61 72 02 02 03 01 02 62 65 02 02   ....2ar.....be..
|   3184: 04 05 07 1b 88 80 80 80 80 0a 03 00 3c 00 00 00   ............<...
|   3200: 16 02 31 74 02 08 02 01 01 07 00 03 32 61 6e 02   ..1t........2an.
|   3216: 06 01 01 04 09 19 88 80 80 80 80 09 03 00 38 00   ..............8.
|   3232: 00 00 14 02 31 6e 02 06 01 01 03 01 01 72 02 06   ....1n.......r..
|   3248: 01 01 05 04 08 17 88 80 80 80 80 08 03 00 34 00   ..............4.
|   3264: 00 00 12 02 31 62 02 02 04 01 01 69 02 06 01 01   ....1b.....i....
|   3280: 06 04 06 19 88 80 80 80 80 07 03 00 38 00 00 00   ............8...
|   3296: 14 04 02 31 32 02 02 05 01 01 61 02 08 03 01 01   ...12.....a.....
|   3312: 02 05 06 1b 88 80 80 80 80 06 03 00 3c 00 00 00   ............<...
|   3328: 16 06 30 74 68 65 72 65 02 02 02 00 02 31 31 02   ..0there.....11.
|   3344: 06 01 01 04 0a 15 88 80 80 80 80 05 03 00 30 00   ..............0.
|   3360: 00 00 11 01 01 05 04 30 74 68 65 02 06 01 01 07   .......0the.....
|   3376: 07 1c 88 80 80 80 80 04 03 00 3e 00 00 00 17 01   ..........>.....
|   3392: 01 06 02 30 6e 02 06 01 01 03 01 04 72 6f 77 73   ...0n.......rows
|   3408: 02 06 07 08 1b 88 80 80 80 80 03 03 00 3c 00 00   .............<..
|   3424: 00 16 08 30 62 65 74 77 65 65 6e 02 02 04 01 02   ...0between.....
|   3440: 69 6e 02 06 04 0c 1a 88 80 80 80 80 02 03 00 3a   in.............:
|   3456: 00 00 00 15 04 30 61 6e 64 02 06 01 01 02 02 02   .....0and.......
|   3472: 72 65 02 02 03 04 0a 17 88 80 80 80 80 01 03 00   re..............
|   3488: 34 00 00 00 12 02 30 31 02 06 01 01 04 01 01 32   4.....01.......2
|   3504: 02 02 06 04 08 08 84 80 80 80 80 12 03 00 16 00   ................
|   3520: 00 00 05 04 1b 84 80 80 80 80 11 03 00 3c 00 00   .............<..
|   3536: 00 16 05 34 74 61 62 6c 01 06 01 01 05 02 03 65   ...4tabl.......e
|   3552: 72 6d 01 02 04 0b 1b 84 80 80 80 80 10 03 00 3c   rm.............<
|   3568: 00 00 00 16 05 34 65 61 63 68 01 02 03 01 04 70   .....4each.....p
|   3584: 72 65 73 01 02 05 04 09 1a 84 80 80 80 80 0f 03   res.............
|   3600: 00 3a 00 00 00 15 04 33 74 65 72 01 02 04 02 02   .:.....3ter.....
|   3616: 68 65 01 06 01 01 03 04 08 1b 84 80 80 80 80 0e   he..............
|   3632: 03 00 3c 00 00 00 16 04 33 70 72 65 01 02 05 01   ..<.....3pre....
|   3648: 03 74 61 62 01 06 01 01 05 04 08 1a 84 80 80 80   .tab............
|   3664: 80 0d 03 00 3a 00 00 00 15 04 33 66 6f 72 01 02   ....:.....3for..
|   3680: 02 02 02 74 73 01 06 01 01 04 04 08 1b 84 80 80   ...ts...........
|   3696: 80 80 0c 03 00 3c 00 00 00 16 03 32 74 68 01 06   .....<.....2th..
|   3712: 01 01 03 00 04 33 65 61 63 01 02 03 04 09 18 84   .....3eac.......
|   3728: 80 80 80 80 0b 03 00 36 00 00 00 13 03 32 74 61   .......6.....2ta
|   3744: 01 06 01 01 05 02 01 65 01 02 04 04 09 19 84 80   .......e........
|   3760: 80 80 80 0a 03 00 38 00 00 00 14 03 32 69 6e 01   ......8.....2in.
|   3776: 06 01 01 02 01 02 70 72 01 02 05 04 09 18 84 80   ......pr........
|   3792: 80 80 80 09 03 00 36 00 00 00 13 03 32 66 6f 01   ......6.....2fo.
|   3808: 02 02 02 01 74 01 06 01 01 04 04 07 1b 84 80 80   ....t...........
|   3824: 80 80 08 03 00 3c 00 00 00 16 02 31 74 01 0a 04   .....<.....1t...
|   3840: 01 01 03 04 00 03 32 65 61 01 02 03 04 0a 17 84   ......2ea.......
|   3856: 80 80 80 80 07 03 00 34 00 00 00 12 02 31 69 01   .......4.....1i.
|   3872: 06 01 01 02 01 01 70 01 02 05 04 08 18 84 80 80   ......p.........
|   3888: 80 80 06 03 00 36 00 00 00 13 02 31 65 01 02 03   .....6.....1e...
|   3904: 01 01 66 01 08 02 01 01 04 04 06 1b 84 80 80 80   ..f.............
|   3920: 80 05 03 00 3c 00 00 00 16 05 30 74 65 72 6d 01   ....<.....0term.
|   3936: 02 04 02 02 68 65 01 06 01 01 03 04 09 14 84 80   ....he..........
|   3952: 80 80 80 04 03 00 2e 00 00 00 10 06 30 74 61 62   ............0tab
|   3968: 6c 65 01 06 00 01 05 04 15 84 80 80 80 80 03 03   le..............
|   3984: 00 30 00 00 00 11 02 08 30 70 72 65 73 65 6e 74   .0......0present
|   4000: 01 02 05 05 1b 84 80 80 80 80 02 03 00 3c 00 00   .............<..
|   4016: 00 16 04 30 66 74 73 01 06 01 01 04 01 02 69 6e   ...0fts.......in
|   4032: 01 06 01 01 04 0a 1a 84 80 80 80 80 01 03 00 3a   ...............:
|   4048: 00 00 00 15 05 30 65 61 63 68 01 02 03 01 03 66   .....0each.....f
|   4064: 6f 72 01 02 02 04 09 06 01 03 00 12 03 0b 0f 00   or..............
|   4080: 00 08 8c 80 80 80 80 11 03 00 16 00 00 00 05 04   ................
| page 3 offset 8192
|      0: 0a 00 00 00 32 0e 4f 00 0f fa 10 f1 0f e9 0f e1   ....2.O.........
|     16: 0f d8 0f d1 0f c9 0f c1 0f b9 0f b1 0f a9 0f a0   ................
|     32: 0f 98 0f 90 0f 87 0f 80 0f 78 0f 71 0f 68 0f 5f   .........x.q.h._
|     48: bd 56 0f 4d 0f 41 0f 38 0f 2f 0f 26 0f 1d 0f 13   .V.M.A.8./.&....
|     64: 0f 0a 0f 01 0e f7 0e ee 0e e6 0e dd 0e d6 0e cd   ................
|     80: 0e c3 0e ba 0e b0 0e a8 0e 9f 0e 96 0e 8e 0e 85   ................
|     96: 0e 7c 0e 73 0e 6a 0e 60 0e 58 0e 4f 00 00 00 00   .|.s.j.`.X.O....
|   3648: 00 00 00 00 00 00 00 00 00 00 00 00 00 00 00 08   ................
|   3664: 04 01 10 2f 03 34 74 20 07 04 01 0e 01 03 34 1e   .../.4t ......4.
|   3680: 09 04 01 12 01 03 33 74 68 1c 08 04 01 10 01 03   ......3th.......
|   3696: 33 6e 1a 08 04 01 10 01 03 32 77 18 08 04 01 10   3n.......2w.....
|   3712: 01 03 32 74 16 08 04 01 10 01 03 32 6e 14 07 04   ..2t.......2n...
|   3728: 01 0e 01 03 32 12 08 04 01 10 01 03 31 74 10 08   ....2.......1t..
|   3744: 04 01 10 01 03 31 6e 0e 07 04 01 0e 02 03 31 0c   .....1n.......1.
|   3760: 09 04 01 12 01 03 30 74 68 0a 08 04 01 10 01 03   ......0th.......
|   3776: 30 74 08 09 04 01 12 01 03 30 6e 75 06 08 04 01   0t.......0nu....
|   3792: 10 01 03 30 6e 04 06 04 01 0c 01 05 52 08 04 01   ...0n.......R...
|   3808: 10 01 02 34 72 22 07 04 01 0e 01 02 34 20 08 04   ...4r.......4 ..
|   3824: 01 10 01 02 33 72 1e 09 04 01 12 01 02 33 61 72   ....3r.......3ar
|   3840: 1c 08 04 01 10 01 02 32 74 1a 08 04 01 10 b3 02   .......2t.......
|   3856: 32 69 18 09 04 01 12 01 02 32 61 72 16 08 04 01   2i.......2ar....
|   3872: 10 01 02 31 74 14 08 04 01 10 01 02 31 6e 12 08   ...1t.......1n..
|   3888: 04 01 10 01 02 31 62 10 08 04 01 10 01 02 31 32   .....1b.......12
|   3904: 0e 0b 04 01 16 01 02 30 74 68 65 72 0c 08 04 01   .......0ther....
|   3920: 10 01 02 30 74 0a 08 04 01 10 01 02 30 6e 08 08   ...0t.......0n..
|   3936: 04 01 10 01 02 30 62 06 08 04 01 10 01 02 30 61   .....0b.......0a
|   3952: 04 06 04 01 0c 01 02 02 07 04 09 10 01 34 74 22   .............4t.
|   3968: 06 04 09 0e 01 34 20 08 04 09 12 01 33 74 65 1e   .....4 .....3te.
|   3984: 07 04 09 10 01 33 70 1c 07 04 09 10 01 33 66 1a   .....3p......3f.
|   4000: 08 04 09 12 01 32 74 68 18 07 04 09 10 01 32 74   .....2th......2t
|   4016: 16 07 04 09 10 01 32 69 14 07 04 09 10 01 32 66   ......2i......2f
|   4032: 12 07 04 09 10 01 31 74 10 07 04 09 10 01 31 69   ......1t......1i
|   4048: 0e 06 04 09 0e 01 31 0c 08 04 09 12 01 30 74 65   ......1......0te
|   4064: 0a 07 04 09 10 01 30 74 08 07 04 09 10 01 30 70   ......0t......0p
|   4080: 06 08 04 09 12 01 30 66 74 04 05 04 09 0c 01 02   ......0ft.......
| page 4 offset 12288
|      0: 0d 00 00 00 03 0f eb 00 0f f9 0f f2 0f eb 00 00   ................
|   4064: 00 00 00 00 00 00 00 00 00 00 00 05 03 03 00 10   ................
|   4080: 03 05 05 02 03 00 10 04 06 05 01 03 00 10 04 04   ................
| page 5 offset 16384
|      0: 0a 00 00 00 02 0f eb 00 0f eb 0f f4 00 00 00 00   ................
|   4064: 00 00 00 00 00 00 00 00 00 00 00 08 03 15 01 70   ...............p
|   4080: 67 73 7a 18 0b 03 1b 01 76 65 72 73 69 6f 6e 04   gsz.....version.
| page 6 offset 20480
|      0: 0d 00 00 00 03 0f f2 00 0f fc 0f f7 0f f2 00 00   ................
|   4080: 00 00 03 03 02 01 03 03 02 02 01 02 02 01 02 09   ................
}]} {}

do_catchsql_test 45.2 {
  INSERT INTO t1(t1, rank) VALUES('merge', 5);
  INSERT INTO t1(t1, rank) VALUES('merge', 5);
  INSERT INTO t1(t1, rank) VALUES('merge', 5);
  INSERT INTO t1(t1, rank) VALUES('merge', 5);
  INSERT INTO t1(t1, rank) VALUES('merge', 5);
  INSERT INTO t1(t1, rank) VALUES('merge', 5);
  INSERT INTO t1(t1, rank) VALUES('merge', 5);
  INSERT INTO t1(t1, rank) VALUES('merge', 5);
  INSERT INTO t1(t1, rank) VALUES('merge', 5);
  INSERT INTO t1(t1, rank) VALUES('merge', 5);
  INSERT INTO t1(t1, rank) VALUES('merge', 5);
  INSERT INTO t1(t1, rank) VALUES('merge', 5);
  INSERT INTO t1(t1, rank) VALUES('merge', 5);
  INSERT INTO t1(t1, rank) VALUES('merge', 5);
  INSERT INTO t1(t1, rank) VALUES('merge', 5);
  INSERT INTO t1(t1, rank) VALUES('merge', 5);
} {/*malformed database schema*/}

#--------------------------------------------------------------------------
reset_db
do_test 46.0 {
  sqlite3 db {}
  db deserialize [decode_hexdb {
| size 32768 pagesize 4096 filename crash-1ee8bd451dd1ad.db
| page 1 offset 0
|      0: 53 51 4c 69 74 65 20 66 6f 72 6d 61 74 20 33 00   SQLite format 3.
|     16: 10 00 01 01 00 40 20 20 00 00 00 00 00 00 00 08   .....@  ........
|     32: 00 00 00 02 00 00 00 01 00 00 00 09 00 00 00 04   ................
|     48: 00 00 00 00 00 00 00 00 00 00 00 01 00 00 00 00   ................
|     96: 00 00 00 00 0d 0f c7 00 07 0d 92 00 0f 8d 0f 36   ...............6
|    112: 0e cb 0e 6b 0e 0e 0d b6 0d 92 0d 92 00 00 00 00   ...k............
|   3472: 00 00 22 08 06 17 11 11 01 31 74 61 62 6c 65 74   .........1tablet
|   3488: 32 74 32 08 43 52 45 41 54 45 20 54 41 42 4c 45   2t2.CREATE TABLE
|   3504: 20 74 32 28 78 29 56 07 06 17 1f 1f 01 7d 74 60    t2(x)V.......t`
|   3520: 62 6c 65 74 31 5f 63 6f 6e 66 69 67 74 31 5f 63   blet1_configt1_c
|   3536: 6f 6e 66 69 67 07 43 52 45 41 54 45 20 54 41 42   onfig.CREATE TAB
|   3552: 4c 45 20 27 74 31 5f 63 6f 6e 66 69 67 27 28 6b   LE 't1_config'(k
|   3568: 20 50 52 49 4d 41 52 59 20 4b 45 59 2c 20 76 29    PRIMARY KEY, v)
|   3584: 20 57 49 54 48 4f 55 54 20 52 4f 57 49 44 5b 06    WITHOUT ROWID[.
|   3600: 07 17 21 21 01 81 01 74 61 62 6c 65 74 31 5f 64   ..!!...tablet1_d
|   3616: 6f 63 73 69 7a 65 74 31 5f 64 6f 63 73 69 7a 65   ocsizet1_docsize
|   3632: 06 43 52 45 41 54 45 20 54 41 42 4c 45 20 27 74   .CREATE TABLE 't
|   3648: 31 5f 64 6f 63 73 69 7a 65 27 28 69 64 20 49 4e   1_docsize'(id IN
|   3664: 54 45 47 45 52 20 50 52 49 4d 41 52 59 20 4b 45   TEGER PRIMARY KE
|   3680: 59 2c 20 73 7a 20 42 4c 4f 42 29 5e 05 07 17 21   Y, sz BLOB)^...!
|   3696: 21 01 81 07 74 61 62 6c 65 74 31 5f 63 6f 6e 74   !...tablet1_cont
|   3712: 65 6e 74 74 31 5f 63 6f 6e 74 65 6e 74 05 43 52   entt1_content.CR
|   3728: 45 41 54 45 20 54 41 42 4c 45 20 27 74 31 5f 63   EATE TABLE 't1_c
|   3744: 6f 6e 74 65 6e 74 27 28 69 64 20 49 4e 54 45 47   ontent'(id INTEG
|   3760: 45 52 20 50 52 49 4d 41 52 59 20 4b 45 59 2c 20   ER PRIMARY KEY, 
|   3776: 63 30 2c 20 63 31 2c 20 63 32 29 69 04 07 17 19   c0, c1, c2)i....
|   3792: 19 01 81 2d 74 61 62 6c 65 74 31 5f 69 64 78 74   ...-tablet1_idxt
|   3808: 31 5f 69 64 78 04 43 52 45 41 54 45 20 54 41 42   1_idx.CREATE TAB
|   3824: 4c 45 20 27 74 31 5f 69 64 78 27 28 73 65 67 69   LE 't1_idx'(segi
|   3840: 64 2c 20 74 65 72 6d 2c 20 70 67 6e 6f 2c 20 50   d, term, pgno, P
|   3856: 52 49 4d 41 52 59 20 4b 45 59 28 73 65 67 69 64   RIMARY KEY(segid
|   3872: 2c 20 74 65 72 6d 29 29 20 57 49 54 48 4f 55 54   , term)) WITHOUT
|   3888: 20 52 4f 57 49 44 55 03 07 17 1b 1b 01 81 01 74    ROWIDU........t
|   3904: 61 62 6c 65 74 31 5f 64 61 74 61 74 31 5f 64 61   ablet1_datat1_da
|   3920: 74 61 03 43 52 45 41 54 45 20 54 41 42 4c 45 20   ta.CREATE TABLE 
|   3936: 27 74 31 5f 64 61 74 61 27 28 69 64 20 49 4e 54   't1_data'(id INT
|   3952: 45 47 45 52 20 50 52 49 4d 41 52 59 20 4b 45 59   EGER PRIMARY KEY
|   3968: 2c 20 62 6c 6f 63 6b 20 42 4c 4f 42 29 38 02 06   , block BLOB)8..
|   3984: 17 11 11 08 5f 74 61 62 6c 65 74 31 74 31 43 52   ...._tablet1t1CR
|   4000: 45 41 54 45 20 56 49 52 54 55 41 4c 20 54 41 42   EATE VIRTUAL TAB
|   4016: 4c 45 20 74 31 20 55 53 49 4e 47 20 66 74 73 35   LE t1 USING fts5
|   4032: 28 61 2c 62 2c 63 29 00 00 00 39 00 00 00 00 00   (a,b,c)...9.....
| page 3 offset 8192
|      0: 0d 00 00 00 03 0c 94 00 0f e6 0f ef 0c 94 00 00   ................
|   3216: 00 00 00 00 86 4a 84 80 80 80 80 01 04 00 8d 18   .....J..........
|   3232: 00 00 03 2b 02 30 30 01 02 06 01 02 06 01 02 06   ...+.00.........
|   3248: 1f 02 03 01 02 03 01 02 03 01 08 32 30 31 36 30   ...........20160
|   3264: 36 30 39 01 02 07 01 02 07 01 02 07 01 01 34 01   609...........4.
|   3280: 02 05 01 02 05 01 02 05 01 01 35 01 02 04 01 02   ..........5.....
|   3296: 04 01 02 04 02 07 30 30 30 30 30 30 30 1c 02 3d   ......0000000..=
|   3312: 01 02 04 01 02 04 01 06 62 69 6e 61 72 79 03 06   ........binary..
|   3328: 01 02 02 03 06 01 02 02 03 06 01 02 02 03 06 01   ................
|   3344: 02 02 03 06 01 02 02 03 06 01 02 02 03 06 01 02   ................
|   3360: 02 03 06 01 02 02 03 06 01 02 02 03 06 01 02 02   ................
|   3376: 03 06 01 02 02 03 06 01 02 02 01 08 63 6f 6d 70   ............comp
|   3392: 69 6c 65 72 01 02 02 01 02 02 01 02 02 01 06 64   iler...........d
|   3408: 62 73 74 61 74 07 02 03 01 02 03 01 02 03 02 04   bstat...........
|   3424: 65 62 75 67 04 02 02 01 02 02 01 02 02 01 06 65   ebug...........e
|   3440: 6e 61 62 6c 65 07 02 02 01 02 02 01 02 02 01 02   nable...........
|   3456: 02 01 02 02 01 02 02 01 02 02 01 02 02 01 02 02   ................
|   3472: 01 02 02 01 02 02 01 02 02 01 02 02 01 02 02 01   ................
|   3488: 02 02 01 02 02 01 02 02 01 02 02 01 02 02 01 02   ................
|   3504: 02 01 02 02 02 08 78 74 65 6e 73 69 6f 6e 1f 02   ......xtension..
|   3520: 04 01 02 04 01 02 04 01 04 66 74 73 34 0a 02 03   .........fts4...
|   3536: 01 02 03 01 02 03 04 01 35 0d 02 03 01 02 03 01   ........5.......
|   3552: 02 03 01 03 67 63 63 01 02 03 01 02 03 01 02 03   ....gcc.........
|   3568: 02 06 65 6f 70 6f 6c 79 10 02 03 01 02 03 01 02   ..eopoly........
|   3584: 03 01 05 6a 73 6f 6e 31 13 02 03 01 02 03 01 02   ...json1........
|   3600: 03 01 04 6c 6f 61 64 1f 02 03 01 02 03 01 02 03   ...load.........
|   3616: 01 03 6d 61 78 1c 02 02 01 02 02 01 02 02 02 05   ..max...........
|   3632: 65 6d 6f 72 79 1c 02 03 01 02 03 01 02 03 04 04   emory...........
|   3648: 73 79 73 35 16 02 03 01 02 03 01 02 03 01 06 6e   sys5...........n
|   3664: 6f 63 61 73 65 02 06 01 02 02 03 06 01 02 02 03   ocase...........
|   3680: 06 01 02 02 03 06 01 02 02 03 06 01 02 02 03 06   ................
|   3696: 01 02 02 03 06 01 02 02 03 06 01 02 02 03 06 01   ................
|   3712: 02 02 03 07 01 02 02 03 06 01 02 02 03 06 01 02   ................
|   3728: 02 01 04 6f 6d 69 74 1f 02 02 01 02 02 01 02 02   ...omit.........
|   3744: 01 05 72 74 72 65 65 19 02 03 01 02 03 01 02 03   ..rtree.........
|   3760: 04 02 69 6d 01 06 01 02 02 03 06 01 02 02 03 06   ..im............
|   3776: 01 02 02 03 06 01 02 02 03 06 01 02 02 03 06 01   ................
|   3792: 02 02 03 06 01 02 02 03 06 01 02 02 03 06 01 02   ................
|   3808: 02 03 06 01 02 02 03 06 06 e2 02 03 06 01 02 02   ................
|   3824: 01 0a 74 68 72 65 61 64 73 61 66 65 22 02 02 01   ..threadsafe....
|   3840: 02 02 01 02 02 01 04 76 74 61 62 07 02 04 01 02   .......vtab.....
|   3856: 04 01 02 04 01 01 78 01 06 01 01 02 01 06 01 01   ......x.........
|   3872: 02 01 06 01 01 02 01 06 01 01 02 01 06 01 01 02   ................
|   3888: 01 06 01 01 02 01 06 01 01 02 01 06 01 01 02 01   ................
|   3904: 06 01 01 02 01 06 01 01 02 01 06 01 01 02 01 06   ................
|   3920: 01 01 02 01 06 01 01 02 01 06 01 01 02 01 06 01   ................
|   3936: 01 02 01 06 01 01 02 01 06 01 01 02 01 06 01 01   ................
|   3952: 02 01 06 01 01 02 01 06 01 01 02 01 06 01 01 02   ................
|   3968: 01 06 01 01 02 01 06 01 01 02 01 06 01 01 02 01   ................
|   3984: 06 01 01 02 01 06 01 01 02 01 06 01 01 02 01 06   ................
|   4000: 01 01 02 01 06 01 01 02 01 06 01 01 02 01 06 01   ................
|   4016: 01 02 01 06 01 01 02 01 06 01 01 02 01 06 01 01   ................
|   4032: 02 01 06 01 01 02 01 06 01 01 02 04 15 13 0c 0c   ................
|   4048: 12 44 13 11 0f 47 13 0f 0c 0e 11 10 0f 0e 10 0f   .D...G..........
|   4064: 44 0f 10 40 15 0f 07 01 03 00 14 24 5a 24 24 0f   D..@.......$Z$$.
|   4080: 0a 03 00 24 00 00 00 00 01 01 01 00 01 01 01 01   ...$............
| page 4 offset 12288
|      0: 0a 00 00 00 01 0f fa 00 0f fa 00 00 00 00 00 00   ................
|   4080: 00 00 00 00 00 00 00 00 00 00 05 04 09 0c 01 02   ................
| page 5 offset 16384
|      0: 0d 00 00 00 24 0c 0a 00 0f d8 0f af 0f 86 0f 74   ....$..........t
|     16: 0f 61 0f 4e 0f 2f 0f 0f 0e ef 0e d7 0e be 0e a5   .a.N./..........
|     32: 0e 8d 0e 74 0e 5b 0e 40 0e 24 0e 08 0d ef 0d d5   ...t.[.@.$......
|     48: 0d bb 0d a0 0d 84 0d 68 0d 4f 0d 35 0d 1b 0c fb   .......h.O.5....
|     64: 0c da 0c b9 0c 99 0c 78 0c 57 0c 3e 0c 24 0c 0a   .......x.W.>.$..
|   3072: 00 00 00 00 00 00 00 00 00 00 18 24 05 00 25 0f   ...........$..%.
|   3088: 19 54 48 52 45 41 44 53 41 46 45 3d 30 58 42 49   .THREADSAFE=0XBI
|   3104: 4e 41 52 59 18 23 05 00 25 0f 19 54 48 52 45 41   NARY.#..%..THREA
|   3120: 44 53 31 46 45 3d 30 58 4e 4f 43 41 53 45 17 22   DS1FE=0XNOCASE..
|   3136: 05 00 25 0f 17 54 48 52 45 41 44 53 41 46 45 3d   ..%..THREADSAFE=
|   3152: 30 58 52 54 52 49 4d 1f 21 05 00 33 0f 19 4f 4d   0XRTRIM.!..3..OM
|   3168: 49 54 20 4c 4f 41 44 20 45 58 54 45 4e 53 49 4f   IT LOAD EXTENSIO
|   3184: 4e 58 42 49 4e 41 52 59 1f 20 05 00 33 0f 19 4f   NXBINARY. ..3..O
|   3200: 4d 49 54 20 4c 4f 41 44 20 45 58 54 45 4e 53 49   MIT LOAD EXTENSI
|   3216: 4f 4e 58 4e 4f 43 41 53 45 1e 1f 05 00 33 0f 17   ONXNOCASE....3..
|   3232: 4f 4d 49 54 20 4c 4f 41 44 20 45 58 54 45 4e 53   OMIT LOAD EXTENS
|   3248: 49 4f 4e 58 52 54 52 49 4d 1f 1e 05 00 33 0f 19   IONXRTRIM....3..
|   3264: 4d 41 58 20 4d 45 4d 4f 52 59 3d 35 30 30 30 30   MAX MEMORY=50000
|   3280: 30 30 30 58 42 49 4e 41 52 59 1f 1d 05 00 33 0f   000XBINARY....3.
|   3296: 19 4d 41 58 20 4d 45 4d 4f 52 59 3d 35 30 30 30   .MAX MEMORY=5000
|   3312: 30 30 30 30 58 4e 4f 43 41 53 45 1e 1c 05 00 33   0000XNOCASE....3
|   3328: 0f 17 4d 41 58 20 4d 45 4d 4f 52 59 3d 35 30 30   ..MAX MEMORY=500
|   3344: 30 30 30 30 30 58 52 54 52 49 4d 18 1b 05 00 25   00000XRTRIM....%
|   3360: 0f 19 45 4e 41 42 4c 45 20 52 54 52 45 45 58 42   ..ENABLE RTREEXB
|   3376: 49 4e 41 52 59 18 1a 05 00 25 0f 19 45 4e 41 42   INARY....%..ENAB
|   3392: 4c 45 20 52 54 52 45 45 58 4e 4f 43 41 53 45 17   LE RTREEXNOCASE.
|   3408: 19 05 00 25 0f 17 45 4e 40 42 4c 45 20 52 54 52   ...%..EN@BLE RTR
|   3424: 45 45 58 52 54 52 49 4d 1a 18 05 00 29 0f 19 45   EEXRTRIM....)..E
|   3440: 4e 41 42 4c 45 20 4d 45 4d 53 59 53 35 58 42 49   NABLE MEMSYS5XBI
|   3456: 4e 41 52 59 1a 17 05 00 29 0f 19 45 4e 41 42 4c   NARY....)..ENABL
|   3472: 45 20 4d 45 4d 53 59 53 35 58 4e 4f 43 41 53 45   E MEMSYS5XNOCASE
|   3488: 19 16 05 00 29 0f 17 45 4e 41 42 4c 45 20 4d 45   ....)..ENABLE ME
|   3504: 4d 53 59 53 35 58 52 54 52 49 4d 18 15 05 00 25   MSYS5XRTRIM....%
|   3520: 0f 19 45 4e 41 42 4c 45 20 4a 53 4f 4e 31 59 42   ..ENABLE JSON1YB
|   3536: 49 4e 41 52 59 18 14 05 00 25 0f 19 45 4e 41 42   INARY....%..ENAB
|   3552: 4c 45 20 4a 53 4f 4e 31 58 4e 4f 43 41 53 45 17   LE JSON1XNOCASE.
|   3568: 13 05 00 25 0f 17 45 4e 41 42 4c 45 20 4a 53 4f   ...%..ENABLE JSO
|   3584: 4e 31 58 52 54 52 49 4d 1a 12 05 00 29 0f 19 45   N1XRTRIM....)..E
|   3600: 4e 41 42 4c 45 20 47 45 4f 50 4f 4c 59 58 42 49   NABLE GEOPOLYXBI
|   3616: 4e 41 52 59 1a 11 05 00 29 0f 19 45 4e 41 42 4c   NARY....)..ENABL
|   3632: 45 20 47 45 4f 50 4f 4c 59 58 4e 4f 43 41 53 45   E GEOPOLYXNOCASE
|   3648: 19 10 05 00 29 0f 17 45 4e 41 42 4c 45 20 47 45   ....)..ENABLE GE
|   3664: 4f 50 4f 4c 59 58 52 54 52 49 4d 17 0f 15 00 23   OPOLYXRTRIM....#
|   3680: 0f 19 45 4e 41 42 4c 45 20 46 54 53 35 58 42 49   ..ENABLE FTS5XBI
|   3696: 4e 41 52 59 17 0e 05 00 23 0f 19 45 4e 41 42 4c   NARY....#..ENABL
|   3712: 45 20 46 54 53 35 58 4e 4f 43 41 53 45 16 0d 05   E FTS5XNOCASE...
|   3728: 00 23 0f a4 45 4e 41 42 4c 45 20 46 54 53 35 58   .#..ENABLE FTS5X
|   3744: 52 54 52 49 4d 17 0c 05 00 23 0f 19 45 4e 41 42   RTRIM....#..ENAB
|   3760: 4c 45 20 46 54 53 34 58 42 49 4e 41 52 59 17 0b   LE FTS4XBINARY..
|   3776: 05 00 23 0f 19 45 4e 41 42 4c 45 20 46 54 53 34   ..#..ENABLE FTS4
|   3792: 58 4e 4f 43 41 53 45 16 0a 05 00 23 0f 17 45 4e   XNOCASE....#..EN
|   3808: 41 42 4c 45 20 46 54 53 34 58 52 54 52 49 4d 1e   ABLE FTS4XRTRIM.
|   3824: 09 05 00 31 0f 19 45 4e 41 42 4c 45 20 44 42 53   ...1..ENABLE DBS
|   3840: 54 41 54 20 56 54 41 42 58 42 49 4e 41 52 59 1e   TAT VTABXBINARY.
|   3856: 08 04 f0 31 0f 19 45 4e 41 42 4c 45 20 44 42 53   ...1..ENABLE DBS
|   3872: 54 41 54 20 56 54 41 42 58 4e 4f 43 41 53 45 1d   TAT VTABXNOCASE.
|   3888: 07 05 00 31 0f 17 45 4e 41 42 4c 45 20 44 42 53   ...1..ENABLE DBS
|   3904: 54 41 54 20 56 54 41 42 58 52 54 52 49 4d 11 06   TAT VTABXRTRIM..
|   3920: 05 00 17 0f 19 44 45 42 55 47 58 42 49 4e 41 52   .....DEBUGXBINAR
|   3936: 59 11 05 05 00 17 0f 19 44 45 42 55 47 58 4e 4f   Y.......DEBUGXNO
|   3952: 43 41 53 45 10 04 05 00 17 0f 17 44 45 42 55 47   CASE.......DEBUG
|   3968: 58 52 54 52 49 4d 27 03 05 00 43 0f 19 43 4f 4d   XRTRIM'...C..COM
|   3984: 50 49 4c 45 52 3d 67 63 63 2d 35 2e 34 2e 30 20   PILER=gcc-5.4.0 
|   4000: 32 30 31 36 30 36 30 39 58 42 49 4e 41 52 59 27   20160609XBINARY'
|   4016: 02 05 00 43 0f 19 43 4f 4d 50 49 4c 45 52 3d 67   ...C..COMPILER=g
|   4032: 63 63 2d 35 2e 34 2e 30 20 32 30 31 36 30 36 30   cc-5.4.0 2016060
|   4048: 39 58 4e 4f 43 41 53 45 26 01 05 00 43 0f 17 43   9XNOCASE&...C..C
|   4064: 4f 4d 50 49 4c 45 52 3d 67 63 63 2d 35 2e 34 2e   OMPILER=gcc-5.4.
|   4080: 30 20 32 30 31 36 30 36 30 39 58 52 54 52 49 4d   0 20160609XRTRIM
| page 6 offset 20480
|      0: 0d 00 00 00 24 0e e0 00 0f f8 0f f0 0f e8 0f e0   ....$...........
|     16: 0f d8 0f d0 0f c8 0f c0 0f b8 0f b0 0f a8 0f a0   ................
|     32: 0f 98 0f 90 0f 88 0f 80 0f 78 0f 70 0f 68 0f 60   .........x.p.h.`
|     48: 0f 58 0f 50 0f 48 0f 40 0f 38 0f 30 0f 28 0f 20   .X.P.H.@.8.0.(. 
|     64: 0f 18 0f 10 0f 08 0f 00 0e f8 0e f0 0e e8 0e e0   ................
|   3808: 06 24 03 00 12 02 01 01 06 23 03 00 12 02 01 01   .$.......#......
|   3824: 06 22 03 00 12 02 01 01 06 21 03 00 12 03 01 01   .........!......
|   3840: 06 20 03 00 22 03 01 01 06 1f 03 00 12 03 01 01   . ..............
|   3856: 06 1e 03 00 12 03 01 01 06 1d 03 00 12 03 01 01   ................
|   3872: 06 1c 03 00 12 03 01 01 06 1b 03 00 12 02 01 01   ................
|   3888: 06 1a 03 00 12 02 01 01 06 19 03 00 12 02 01 01   ................
|   3904: 06 18 03 00 12 02 01 01 06 17 03 00 12 02 01 01   ................
|   3920: 06 16 03 00 12 02 01 01 06 15 03 00 12 02 01 01   ................
|   3936: 06 14 03 00 12 02 01 01 06 13 03 00 12 02 01 01   ................
|   3952: 06 12 03 00 12 02 01 01 06 11 03 00 12 02 01 01   ................
|   3968: 06 10 03 00 12 02 01 01 06 0f 03 00 12 02 01 01   ................
|   3984: 06 0e 03 00 12 02 01 01 06 0d 03 00 12 02 01 01   ................
|   4000: 06 0c 03 00 12 02 01 01 06 0b 03 00 12 02 01 01   ................
|   4016: 06 0a 03 00 12 02 01 01 06 09 03 00 12 03 01 01   ................
|   4032: 06 08 03 00 12 03 01 01 06 07 03 00 12 03 01 01   ................
|   4048: 06 a2 03 00 12 01 01 01 06 05 03 00 12 01 01 01   ................
|   4064: 06 04 03 00 12 01 01 01 06 03 03 00 12 06 01 01   ................
|   4080: 06 02 03 00 12 06 01 01 06 01 03 00 12 06 01 01   ................
| page 7 offset 24576
|      0: 0a 00 00 00 01 0f f4 00 0f f4 00 00 00 00 00 00   ................
|   4080: 00 00 00 00 0b 03 1b 01 76 65 72 73 69 6f 6e 04   ........version.
| page 8 offset 28672
|      0: 0d 00 00 00 03 0f d6 00 0f f4 0f e9 0f d6 00 00   ................
|   4048: 00 00 00 00 00 00 11 03 02 2b 69 6e 74 65 67 72   .........+integr
|   4064: 69 74 79 2d 63 68 65 63 6b 09 02 02 1b 72 65 62   ity-check....reb
|   4080: 75 69 6c 64 0a 01 02 1d 6f 70 74 69 6d 69 7a 65   uild....optimize
| end crash-1ee8bd451dd1ad.db
}]} {}

do_catchsql_test 46.1 {
  SELECT snippet(t1,'[','', '--',-1,10) FROM t1('*');
} {/*malformed database schema*/}

#--------------------------------------------------------------------------
reset_db
do_test 47.0 {
  sqlite3 db {}
  db deserialize [decode_hexdb {
| size 40960 pagesize 4096 filename 4b6fc659283f2735616c.db
| page 1 offset 0
|      0: 53 51 4c 69 74 65 20 66 6f 72 6d 61 74 20 33 00   SQLite format 3.
|     16: 10 00 01 01 00 40 20 20 00 00 00 00 00 00 00 0a   .....@  ........
|     32: 00 00 00 00 00 00 00 00 00 00 00 0d 00 00 00 04   ................
|     48: 00 00 00 00 00 00 00 00 00 00 00 01 00 00 00 00   ................
|     96: 00 00 00 00 0d 00 00 00 0d 0b 6e 00 0f a3 0f 4c   ..........n....L
|    112: 0e e1 0e 81 0e 24 0d cc 0d 72 0d 1b 0c b0 0c 50   .....$...r.....P
|    128: 0b f8 0b b3 0b 6e 00 00 00 00 00 00 00 00 00 00   .....n..........
|   2912: 00 00 00 00 00 00 00 00 00 00 00 00 00 00 43 0d   ..............C.
|   2928: 06 17 11 11 08 75 74 61 62 6c 65 74 34 74 34 43   .....utablet4t4C
|   2944: 52 45 41 54 45 20 56 49 52 54 55 41 4c 20 54 41   REATE VIRTUAL TA
|   2960: 42 4c 45 20 74 34 20 55 53 49 4e 47 20 66 74 73   BLE t4 USING fts
|   2976: 35 76 6f 63 61 62 28 27 74 32 27 2c 20 27 72 6f   5vocab('t2', 'ro
|   2992: 77 27 29 43 0c 06 17 11 11 08 75 74 61 62 6c 65   w')C......utable
|   3008: 74 33 74 33 43 52 45 41 54 45 20 56 49 52 54 55   t3t3CREATE VIRTU
|   3024: 41 4c 20 54 41 42 4c 45 20 74 33 20 55 53 49 4e   AL TABLE t3 USIN
|   3040: 47 20 66 74 73 35 76 6f 63 61 62 28 27 74 31 27   G fts5vocab('t1'
|   3056: 2c 20 27 72 6f 77 27 29 56 0b 06 17 1f 1f 01 7d   , 'row')V.......
|   3072: 74 61 62 6c 65 7d 42 5f 63 6f 6e 66 69 67 74 32   table.B_configt2
|   3088: 5f 63 6f 6e 66 69 67 0a 43 52 45 41 54 45 20 54   _config.CREATE T
|   3104: 41 42 4c 45 20 27 74 32 5f 63 6f 6e 66 69 67 27   ABLE 't2_config'
|   3120: 28 6b 20 50 52 49 4d 41 52 59 20 4b 45 59 2c 20   (k PRIMARY KEY, 
|   3136: 76 29 20 57 49 54 48 4f 55 54 20 52 4f 57 49 44   v) WITHOUT ROWID
|   3152: 5e 0a 07 17 21 21 01 81 07 74 61 62 6c 65 74 32   ^...!!...tablet2
|   3168: 5f 63 6f 6e 74 65 6e 74 74 32 5f 63 6f 6e 74 65   _contentt2_conte
|   3184: 6e 74 09 43 52 45 41 54 45 20 54 41 42 4c 45 20   nt.CREATE TABLE 
|   3200: 27 74 32 5f 63 6f 6e 74 65 6e 74 27 28 69 64 20   't2_content'(id 
|   3216: 49 4e 54 45 47 45 52 20 50 52 49 4d 41 52 59 20   INTEGER PRIMARY 
|   3232: 4b 45 59 2c 20 63 30 2c 20 63 31 2c 20 63 32 29   KEY, c0, c1, c2)
|   3248: 69 09 07 17 19 19 01 81 2d 74 61 62 6c 65 74 32   i.......-tablet2
|   3264: 5f 69 64 78 74 32 5f 69 64 78 08 43 52 45 41 54   _idxt2_idx.CREAT
|   3280: 45 20 54 41 42 4c 45 20 27 74 32 5f 69 64 78 27   E TABLE 't2_idx'
|   3296: 28 73 65 67 69 64 2c 20 74 65 72 6d 2c 20 70 67   (segid, term, pg
|   3312: 6e 6f 2c 20 50 52 49 4d 41 52 59 20 4b 45 59 28   no, PRIMARY KEY(
|   3328: 73 65 67 69 64 2c 20 74 65 72 6d 29 29 20 57 49   segid, term)) WI
|   3344: 54 48 4f 55 54 20 52 4f 57 49 44 55 08 07 17 1b   THOUT ROWIDU....
|   3360: 1b 01 81 01 74 61 62 6c 65 74 32 5f 64 61 74 61   ....tablet2_data
|   3376: 74 32 5f 64 61 74 61 07 43 52 45 41 54 45 20 54   t2_data.CREATE T
|   3392: 41 42 4c 45 20 27 74 32 5f 64 61 74 61 27 28 69   ABLE 't2_data'(i
|   3408: 64 20 49 4e 54 45 47 45 52 20 50 52 49 4d 41 52   d INTEGER PRIMAR
|   3424: 59 20 4b 45 59 2c 20 62 6c 6f 63 6b 20 42 4c 4f   Y KEY, block BLO
|   3440: 42 29 58 07 07 17 11 11 08 81 1d 74 61 62 6c 65   B)X........table
|   3456: 74 32 74 32 43 52 45 41 54 45 20 56 49 52 54 55   t2t2CREATE VIRTU
|   3472: 41 4c 20 54 41 42 4c 45 20 74 32 20 55 53 49 4e   AL TABLE t2 USIN
|   3488: 47 20 66 74 73 35 28 27 61 27 2c 5b 62 5d 2c 22   G fts5('a',[b],.
|   3504: 63 22 2c 64 65 74 61 69 6c 3d 6e 6f 6e 65 2c 63   c.,detail=none,c
|   3520: 6f 6c 75 6d 6e 73 69 7a 65 3d 30 29 56 06 06 17   olumnsize=0)V...
|   3536: 1f 1f 01 7d 74 61 62 6c 65 74 31 5f 63 6f 6e 66   ....tablet1_conf
|   3552: 69 67 74 31 5f 63 6f 6e 66 69 67 06 43 52 45 41   igt1_config.CREA
|   3568: 54 45 20 54 41 42 4c 45 20 27 74 31 5f 63 6f 6e   TE TABLE 't1_con
|   3584: 66 69 67 27 28 6b 20 50 52 49 4d 41 52 59 20 4b   fig'(k PRIMARY K
|   3600: 45 59 2c 20 76 29 20 57 49 54 48 4f 55 54 20 52   EY, v) WITHOUT R
|   3616: 4f 57 49 44 5b 05 07 17 21 21 01 81 01 74 61 62   OWID[...!!...tab
|   3632: 6c 65 74 31 5f 64 6f 63 73 69 7a 65 74 31 5f 64   let1_docsizet1_d
|   3648: 6f 63 73 69 7a 65 05 43 52 45 41 54 45 20 54 41   ocsize.CREATE TA
|   3664: 42 4c 45 20 27 74 31 5f 64 6f 63 73 69 7a 65 27   BLE 't1_docsize'
|   3680: 28 69 64 20 49 4e 54 45 47 45 52 20 50 52 49 4d   (id INTEGER PRIM
|   3696: 41 52 59 20 4b 45 59 2c 20 73 7a 20 42 4c 4f 42   ARY KEY, sz BLOB
|   3712: 29 5e 04 07 17 21 21 01 81 07 74 61 62 6c 65 74   )^...!!...tablet
|   3728: 31 5f 63 6f 6e 74 65 6f 74 74 31 5f 63 6f 6e 74   1_conteott1_cont
|   3744: 65 6e 74 04 43 52 45 41 54 45 20 54 41 42 4c 45   ent.CREATE TABLE
|   3760: 20 27 74 31 5f 63 6f 6e 74 65 6e 74 27 28 69 64    't1_content'(id
|   3776: 20 49 4e 54 45 47 46 52 20 50 52 49 4d 41 52 59    INTEGFR PRIMARY
|   3792: 20 4b 45 59 2c 20 63 30 2c 20 63 31 2c 20 63 32    KEY, c0, c1, c2
|   3808: 29 69 03 07 17 19 19 01 81 2d 74 61 62 6c 65 74   )i.......-tablet
|   3824: 31 5f 69 64 78 74 31 5f 69 64 78 03 43 52 45 41   1_idxt1_idx.CREA
|   3840: 54 45 20 54 41 42 4c 45 20 27 74 31 5f 69 64 78   TE TABLE 't1_idx
|   3856: 27 28 73 65 67 69 64 2c 20 74 65 72 6d 2c 20 70   '(segid, term, p
|   3872: 67 6e 6f 2c 20 50 52 49 4d 41 52 59 20 4b 45 59   gno, PRIMARY KEY
|   3888: 28 73 65 67 69 64 2c 20 74 65 72 6d 29 29 20 57   (segid, term)) W
|   3904: 49 54 48 4f 55 54 20 52 4f 57 49 44 55 02 07 17   ITHOUT ROWIDU...
|   3920: 1b 1b 01 81 01 74 61 62 6c 65 74 31 5f 64 61 74   .....tablet1_dat
|   3936: 61 74 31 5f 64 61 74 61 02 43 52 45 41 54 45 20   at1_data.CREATE 
|   3952: 54 41 42 4c 45 20 27 74 31 5f 64 61 74 61 27 28   TABLE 't1_data'(
|   3968: 69 64 20 49 4e 54 45 47 45 52 20 50 52 49 4d 41   id INTEGER PRIMA
|   3984: 52 59 20 4b 45 59 2c 20 62 6c 6f 63 6b 20 42 4c   RY KEY, block BL
|   4000: 4f 42 29 5b 01 07 17 11 11 08 81 23 74 61 62 6c   OB)[.......#tabl
|   4016: 65 74 31 74 31 43 52 45 41 54 45 20 56 49 52 54   et1t1CREATE VIRT
|   4032: 55 41 4c 20 54 41 42 4c 45 20 74 31 20 55 53 49   UAL TABLE t1 USI
|   4048: 4e 47 20 66 74 73 35 28 61 2c 62 20 75 6e 69 6e   NG fts5(a,b unin
|   4064: 64 65 78 65 64 2c 63 2c 74 6f 6b 65 6e 69 7a 65   dexed,c,tokenize
|   4080: 3d 22 70 6f 72 74 65 72 20 61 73 63 69 69 22 29   =.porter ascii.)
| page 2 offset 4096
|      0: 0d 0f 68 00 05 0f 13 00 0f e6 0f 13 0f a8 0f 7c   ..h............|
|     16: 0f 2a 00 00 00 00 00 00 00 00 00 00 00 00 00 00   .*..............
|   3856: 00 00 00 15 0a 03 00 30 00 00 00 00 01 03 03 00   .......0........
|   3872: 03 01 01 01 02 01 01 03 01 01 37 8c 80 80 80 80   ..........7.....
|   3888: 01 03 00 74 00 00 00 2e 02 30 61 03 02 02 01 01   ...t.....0a.....
|   3904: 62 03 02 03 01 01 63 03 02 04 01 01 67 03 06 01   b.....c.....g...
|   3920: 02 02 01 01 68 03 06 01 02 03 01 01 69 03 06 01   ....h.......i...
|   3936: 02 04 04 06 06 06 08 08 0f ef 00 14 2a 00 00 00   ............*...
|   3952: 00 01 02 02 00 02 01 01 01 02 01 01 25 88 80 80   ............%...
|   3968: 80 80 01 03 00 50 00 00 00 1f 02 30 67 02 08 02   .....P.....0g...
|   3984: 01 02 02 01 01 68 02 08 03 01 02 03 01 01 69 02   .....h........i.
|   4000: 08 04 01 02 04 04 09 09 37 84 80 80 80 80 01 03   ........7.......
|   4016: 00 74 00 00 00 2e 02 30 61 01 02 02 01 01 62 01   .t.....0a.....b.
|   4032: 02 03 01 01 63 01 02 04 01 01 67 01 06 01 02 01   ....c.....g.....
|   4048: 01 01 68 01 06 01 02 03 01 01 69 01 06 01 02 04   ..h.......i.....
|   4064: 04 06 06 06 08 08 07 01 03 00 14 03 09 00 09 00   ................
|   4080: 00 00 11 24 00 00 00 00 01 01 01 00 01 01 01 01   ...$............
| page 3 offset 8192
|      0: 0a 00 00 00 03 0f ec 00 0f fa 0f f3 0f ec 00 00   ................
|   4064: 00 00 00 00 00 00 00 00 00 00 00 00 06 04 01 0c   ................
|   4080: 01 03 02 06 04 01 0c 01 02 02 05 04 09 0c 01 02   ................
| page 4 offset 12288
|      0: 0d 00 00 00 03 0f be 00 0f ea 0f d4 0f be 00 00   ................
|   4016: 00 00 00 00 00 00 00 00 00 00 00 00 00 00 14 03   ................
|   4032: 05 00 17 17 17 61 20 62 20 63 67 20 68 20 69 67   .....a b cg h ig
|   4048: 20 68 20 69 14 02 05 00 17 17 17 67 20 68 20 69    h i.......g h i
|   4064: 61 20 62 20 63 67 20 68 20 69 14 01 05 00 17 17   a b cg h i......
|   4080: 17 61 20 62 20 63 64 20 65 20 66 67 20 68 20 69   .a b cd e fg h i
| page 5 offset 16384
|      0: 0d 00 00 00 03 0f e8 00 0f f8 0f f0 0f e8 00 00   ................
|   4064: 00 00 00 00 00 00 00 00 06 03 03 00 12 03 00 03   ................
|   4080: 06 02 03 00 12 03 00 03 06 01 03 00 12 03 00 03   ................
| page 6 offset 20480
|      0: 0a 00 00 00 01 0f f4 00 0f f4 00 00 00 00 00 00   ................
|   4080: 00 00 00 00 0b 03 1b 01 76 65 72 73 69 6f 6e 04   ........version.
| page 7 offset 24576
|      0: 0d 00 00 00 03 0f 9e 00 0f e6 0f ef 0f 9e 00 00   ................
|   3984: 00 00 00 00 00 00 00 00 00 00 00 00 00 00 41 84   ..............A.
|   4000: 80 80 80 80 01 04 00 81 06 00 00 00 34 02 30 61   ............4.0a
|   4016: 01 01 01 01 01 62 01 01 01 01 01 63 01 01 01 01   .....b.....c....
|   4032: 01 64 01 01 01 65 01 01 01 66 01 01 01 67 01 01   .d...e...f...g..
|   4048: 01 01 01 68 01 01 01 01 01 69 01 01 01 04 06 06   ...h.....i......
|   4064: 06 04 04 04 06 06 07 01 03 00 14 03 09 09 09 0f   ................
|   4080: 0a 03 00 24 00 00 00 00 01 01 01 00 01 01 01 01   ...$............
| page 8 offset 28672
|      0: 0a 00 00 00 01 0f fa 00 0f fa 00 00 00 00 00 00   ................
|   4080: 00 00 00 00 00 00 00 00 00 00 05 04 09 0c 01 02   ................
| page 9 offset 32768
|      0: 0d 00 00 00 03 0f be 00 0f ea 0f d4 0f be 00 00   ................
|   4016: 00 00 00 00 00 00 00 00 00 00 00 00 00 00 14 03   ................
|   4032: 05 00 17 17 17 61 20 62 20 63 67 20 68 20 69 67   .....a b cg h ig
|   4048: 20 68 20 69 14 02 05 00 17 17 17 67 20 68 20 69    h i.......g h i
|   4064: 61 20 62 20 63 67 20 68 20 69 14 01 05 00 17 17   a b cg h i......
|   4080: 17 61 20 62 20 63 64 20 65 20 66 67 20 68 20 69   .a b cd e fg h i
| page 10 offset 36864
|      0: 0a 00 00 00 01 0f f4 00 0f f4 00 00 00 00 00 00   ................
|   4080: 00 00 00 00 0b 03 1b 01 76 65 72 73 69 6f 6e 04   ........version.
| end 4b6fc659283f2735616c.db
}]} {}

do_catchsql_test 47.1 {
  INSERT INTO t1(t1) VALUES('integrity-check');
} {/*malformed database schema*/}

do_catchsql_test 47.2 {
  SELECT count(*) FROM (
      SELECT snippet(t1, -1, '.', '..', '[', 50), 
      highlight(t1, 2, '[', ']') FROM t1('g h') 
      WHERE rank MATCH 'bm25(1.0, 1.0)' ORDER BY rank
  )
} {/*malformed database schema*/}

#--------------------------------------------------------------------------
reset_db
do_test 48.0 {
  sqlite3 db {}
  db deserialize [decode_hexdb {
| size 32768 pagesize 4096 filename crash-44a8305b4bd86f.db
| page 1 offset 0
|      0: 53 51 4c 69 74 65 20 66 6f 72 6d 61 74 20 33 00   SQLite format 3.
|     16: 10 00 01 01 00 40 20 20 00 00 00 00 00 00 00 08   .....@  ........
|     32: 00 00 00 02 00 00 00 01 00 00 00 09 00 00 00 04   ................
|     48: 00 00 00 00 00 00 00 00 00 00 00 01 00 00 00 00   ................
|     96: 00 00 00 00 0d 0f c7 00 07 0d 92 00 0f 8d 0f 36   ...............6
|    112: 0e cb 0e 6b 0e 0e 0d b6 0d 92 0d 92 00 00 00 00   ...k............
|   3472: 00 00 22 08 06 17 11 11 01 31 74 61 62 6c 65 74   .........1tablet
|   3488: 32 74 32 08 43 52 45 41 54 45 20 54 41 42 4c 45   2t2.CREATE TABLE
|   3504: 20 74 32 28 78 29 56 07 06 17 1f 1f 01 7d 74 61    t2(x)V.......ta
|   3520: 62 6c 65 74 31 5f 63 6f 6e 66 69 67 74 31 5f 63   blet1_configt1_c
|   3536: 6f 6e 66 69 67 07 43 52 45 41 54 45 20 54 41 42   onfig.CREATE TAB
|   3552: 4c 45 20 27 74 31 5f 63 6f 6e 66 69 67 27 28 6b   LE 't1_config'(k
|   3568: 20 50 52 49 4d 41 52 59 20 4b 45 59 2c 20 76 29    PRIMARY KEY, v)
|   3584: 20 57 49 54 48 4f 55 54 20 52 4f 57 49 44 5b 06    WITHOUT ROWID[.
|   3600: 07 17 21 21 01 81 01 74 61 62 6c 65 74 31 5f 64   ..!!...tablet1_d
|   3616: 6f 63 73 69 7a 65 74 31 5f 64 6f 63 73 69 7a 65   ocsizet1_docsize
|   3632: 06 43 52 45 41 54 45 20 54 41 42 4c 45 20 27 74   .CREATE TABLE 't
|   3648: 31 5f 64 6f 63 73 69 7a 65 27 28 69 64 20 49 4e   1_docsize'(id IN
|   3664: 54 45 47 45 52 20 50 52 49 4d 41 52 59 20 4b 45   TEGER PRIMARY KE
|   3680: 59 2c 20 73 7a 20 42 4c 4f 42 29 5e 05 07 17 21   Y, sz BLOB)^...!
|   3696: 21 01 81 07 74 61 62 6c 65 74 31 5f 63 6f 6e 74   !...tablet1_cont
|   3712: 65 6e 74 74 31 5f 63 6f 6e 74 65 6e 74 05 43 52   entt1_content.CR
|   3728: 45 41 54 45 20 54 41 42 4c 45 20 27 74 31 5f 63   EATE TABLE 't1_c
|   3744: 6f 6e 74 65 6e 74 27 28 69 64 20 49 4e 54 45 47   ontent'(id INTEG
|   3760: 45 52 20 50 52 49 4d 41 52 59 20 4b 45 59 2c 20   ER PRIMARY KEY, 
|   3776: 63 30 2c 20 63 31 2c 20 63 32 29 69 04 07 17 19   c0, c1, c2)i....
|   3792: 19 01 81 2d 74 61 62 6c 65 74 31 5f 69 64 78 74   ...-tablet1_idxt
|   3808: 31 5f 69 64 78 04 43 52 45 41 54 45 20 54 41 42   1_idx.CREATE TAB
|   3824: 4c 45 20 27 74 31 5f 69 64 78 27 28 73 65 67 69   LE 't1_idx'(segi
|   3840: 64 2c 20 74 65 72 6d 2c 20 70 67 6e 6f 2c 20 50   d, term, pgno, P
|   3856: 52 49 4d 41 52 59 20 4b 45 59 28 73 65 67 69 64   RIMARY KEY(segid
|   3872: 2c 20 74 65 72 6d 29 29 20 57 49 54 48 4f 55 54   , term)) WITHOUT
|   3888: 20 52 4f 57 49 44 55 03 07 17 1b 1b 01 81 01 74    ROWIDU........t
|   3904: 61 62 6c 65 74 31 5f 64 61 74 61 74 31 5f 64 61   ablet1_datat1_da
|   3920: 74 61 03 43 52 45 41 54 45 20 54 41 42 4c 45 20   ta.CREATE TABLE 
|   3936: 27 74 31 5f 64 61 74 61 27 28 69 64 20 49 4e 54   't1_data'(id INT
|   3952: 45 47 45 52 20 50 52 49 4d 41 52 59 20 4b 45 59   EGER PRIMARY KEY
|   3968: 2c 20 62 6c 6f 63 6b 20 42 4c 4f 42 29 38 02 06   , block BLOB)8..
|   3984: 17 11 11 08 5f 74 61 62 6c 65 74 31 74 31 43 52   ...._tablet1t1CR
|   4000: 45 41 54 45 20 56 49 52 54 55 41 4c 20 54 41 42   EATE VIRTUAL TAB
|   4016: 4c 45 20 74 31 20 55 53 49 4e 47 20 66 74 73 35   LE t1 USING fts5
|   4032: 28 61 2c 62 2c 63 29 00 00 00 39 00 00 00 00 00   (a,b,c)...9.....
| page 3 offset 8192
|      0: 0d 00 00 00 03 0c 94 00 0f e6 0f ef 0c 94 00 00   ................
|   3216: 00 00 00 00 86 4a 84 80 80 80 80 01 04 00 8d 18   .....J..........
|   3232: 00 00 03 2b 02 30 30 01 02 06 01 02 06 01 02 06   ...+.00.........
|   3248: 1f 02 03 01 02 03 01 02 03 01 08 32 30 31 36 30   ...........20160
|   3264: 36 30 39 01 02 07 01 02 07 01 02 07 01 01 34 01   609...........4.
|   3280: 02 05 01 02 05 01 02 05 01 01 35 01 02 04 01 02   ..........5.....
|   3296: 04 01 02 04 02 07 30 30 30 30 30 30 30 1c 02 04   ......0000000...
|   3312: 01 02 04 01 02 04 01 06 62 69 6e 62 72 79 03 06   ........binbry..
|   3328: 01 02 02 03 06 01 02 02 03 06 01 02 01 03 16 01   ................
|   3344: 02 02 03 06 01 02 02 03 06 01 02 02 03 06 01 02   ................
|   3360: 02 03 06 01 02 02 03 06 01 02 02 03 06 01 02 02   ................
|   3376: 03 04 71 02 02 03 06 01 02 02 01 08 63 6f 6d 70   ..q.........comp
|   3392: 69 6c 65 72 01 02 02 01 02 02 01 02 02 01 06 64   iler...........d
|   3408: 62 73 74 61 74 07 02 03 01 02 03 01 02 03 02 04   bstat...........
|   3424: 65 62 75 67 04 02 02 01 02 02 01 02 02 01 06 65   ebug...........e
|   3440: 6e 61 62 6c 65 07 02 02 01 02 02 01 02 02 01 02   nable...........
|   3456: 02 01 02 02 01 02 02 01 02 02 01 02 02 01 03 02   ................
|   3472: 01 02 02 01 02 02 01 02 02 01 02 02 01 02 02 01   ................
|   3488: 02 02 01 02 02 01 02 02 01 02 02 01 02 02 01 02   ................
|   3504: 02 01 02 02 02 08 78 74 65 6e 73 69 6f 6e 1f 02   ......xtension..
|   3520: 04 01 02 04 01 02 04 01 04 66 74 73 34 0a 02 03   .........fts4...
|   3536: 01 02 03 01 02 03 04 01 35 0d 02 03 01 02 03 01   ........5.......
|   3552: 02 03 01 03 67 63 63 01 02 03 01 02 03 01 02 03   ....gcc.........
|   3568: 02 06 65 6f 70 6f 6c 79 10 02 03 01 02 03 01 02   ..eopoly........
|   3584: 03 01 05 6a 73 6f 6e 31 13 02 03 01 02 03 01 02   ...json1........
|   3600: 03 01 04 6c 6f 61 64 1f 02 03 01 02 03 01 02 03   ...load.........
|   3616: 01 03 6d 61 78 1c 02 02 01 02 02 01 02 02 02 05   ..max...........
|   3632: 65 6d 6f 72 79 1c 02 03 01 02 03 01 02 03 04 04   emory...........
|   3648: 73 79 73 35 16 02 03 01 02 03 01 02 03 01 06 6e   sys5...........n
|   3664: 6f 63 61 73 65 02 06 01 02 02 03 06 01 02 02 03   ocase...........
|   3680: 06 01 02 02 03 06 01 02 02 03 06 01 02 02 13 06   ................
|   3696: 01 02 02 03 06 01 02 02 03 06 01 02 02 03 06 01   ................
|   3712: 02 02 03 06 01 02 02 03 06 01 02 02 03 06 01 02   ................
|   3728: 02 01 04 6f 6d 69 74 1f 02 02 01 02 02 01 02 02   ...omit.........
|   3744: 01 05 72 74 72 65 65 19 02 03 01 02 03 01 02 03   ..rtree.........
|   3760: 04 02 69 6d 01 06 01 02 02 03 06 01 02 02 03 06   ..im............
|   3776: 01 02 02 03 06 01 02 02 03 06 01 02 02 03 06 01   ................
|   3792: 02 02 03 06 01 02 02 03 06 01 02 02 03 06 01 02   ................
|   3808: 02 03 06 01 02 02 03 06 01 02 02 03 06 01 02 02   ................
|   3824: 01 0a 74 68 72 65 61 64 73 61 66 65 22 02 02 01   ..threadsafe....
|   3840: 02 02 01 02 02 01 04 76 74 61 62 07 02 04 01 02   .......vtab.....
|   3856: 04 01 02 04 01 01 78 01 06 01 01 02 01 06 01 01   ......x.........
|   3872: 02 01 06 01 01 02 01 06 01 01 02 01 06 01 01 02   ................
|   3888: 01 06 01 01 02 01 06 01 01 02 01 06 01 01 02 01   ................
|   3904: 06 01 01 02 01 06 01 01 02 01 06 01 01 02 01 06   ................
|   3920: 01 01 02 01 06 01 01 02 01 06 01 01 02 01 06 01   ................
|   3936: 01 02 01 06 01 01 02 01 06 01 01 02 01 06 01 01   ................
|   3952: 02 01 06 01 01 02 01 06 01 01 02 01 06 01 01 02   ................
|   3968: 01 06 01 01 02 01 06 01 01 02 01 06 01 01 02 01   ................
|   3984: 06 01 01 02 01 06 01 01 02 01 06 01 01 02 01 06   ................
|   4000: 01 01 02 01 06 01 01 02 01 06 01 01 02 01 06 01   ................
|   4016: 01 02 01 06 01 01 02 01 06 01 01 02 01 06 01 01   ................
|   4032: 02 01 06 01 01 02 01 06 01 01 02 04 15 13 0c 0c   ................
|   4048: 12 44 13 11 0f 47 13 0f 0c 0e 11 10 0f 0e 10 0f   .D...G..........
|   4064: 44 0f 10 40 15 0f 07 01 03 00 14 24 5a 24 24 0f   D..@.......$Z$$.
|   4080: 0a 03 00 24 00 00 00 00 01 01 01 00 01 01 01 01   ...$............
| page 4 offset 12288
|      0: 0a 00 00 00 01 0f fa 00 0f fa 00 00 00 00 00 00   ................
|   4080: 00 00 00 00 00 00 00 00 00 00 05 04 09 0b 01 02   ................
| page 5 offset 16384
|      0: 0d 00 00 00 24 0c 0a 00 0f d8 0f af 0f 86 0f 74   ....$..........t
|     16: 0f 61 0f 4e 0f 2f 0f 0f 0e ef 0e d7 0e be 0e a5   .a.N./..........
|     32: 0e 8d 0e 74 0e 5b 0e 40 0e 24 0e 08 0d ef 0d d5   ...t.[.@.$......
|     48: 0d bb 0d a0 0d 84 0d 68 0d 4f 0d 35 0d 1b 0c fb   .......h.O.5....
|     64: 0c da 0c b9 0c 99 0c 78 0c 57 0c 3e 0c 24 0c 0a   .......x.W.>.$..
|   3072: 00 00 00 00 00 00 00 00 00 00 18 24 05 00 25 0f   ...........$..%.
|   3088: 19 54 48 52 45 41 44 53 41 46 45 3d 30 58 42 49   .THREADSAFE=0XBI
|   3104: 4f 41 52 59 18 23 05 00 25 0f 19 54 48 52 45 41   OARY.#..%..THREA
|   3120: 44 53 41 46 45 3d 30 58 4e 4f 43 41 53 45 17 22   DSAFE=0XNOCASE..
|   3136: 05 00 25 0f 17 54 48 52 45 41 44 53 41 46 45 3d   ..%..THREADSAFE=
|   3152: 30 58 52 54 52 49 4d 1f 21 05 00 33 0f 19 4f 4d   0XRTRIM.!..3..OM
|   3168: 49 54 20 4c 4f 41 44 20 45 58 54 45 4e 53 49 4f   IT LOAD EXTENSIO
|   3184: 4e 58 42 49 4e 41 52 59 1f 20 05 00 33 0f 19 4f   NXBINARY. ..3..O
|   3200: 4d 49 54 20 4c 4f 41 44 20 45 58 54 45 4e 53 49   MIT LOAD EXTENSI
|   3216: 4f 4e 58 4e 4f 43 41 53 45 1e 1f 05 00 33 0f 17   ONXNOCASE....3..
|   3232: 4f 4d 49 54 20 4c 4f 41 44 20 45 58 54 45 4e 53   OMIT LOAD EXTENS
|   3248: 49 4f 4e 58 52 54 52 49 4d 1f 1e 05 00 33 0f 19   IONXRTRIM....3..
|   3264: 4d 41 58 20 4d 45 4d 4f 52 59 3d 35 30 30 30 30   MAX MEMORY=50000
|   3280: 30 30 30 58 42 49 4e 41 52 59 1f 1d 05 00 33 0f   000XBINARY....3.
|   3296: 19 4d 41 58 20 4d 45 4d 4f 52 59 3d 35 30 30 30   .MAX MEMORY=5000
|   3312: 30 30 30 30 58 4e 4f 43 41 53 45 1e 1c 05 00 33   0000XNOCASE....3
|   3328: 0f 17 4d 41 58 20 4d 45 4d 4f 52 59 3d 35 30 30   ..MAX MEMORY=500
|   3344: 30 30 30 30 30 58 52 54 52 49 4d 18 1b 05 00 25   00000XRTRIM....%
|   3360: 0f 19 45 4e 41 42 4c 45 20 52 54 52 45 45 58 42   ..ENABLE RTREEXB
|   3376: 49 4e 41 52 59 18 1a 05 00 25 0f 19 45 4e 41 42   INARY....%..ENAB
|   3392: 4c 45 20 52 54 52 46 45 58 4e 4f 43 41 53 45 17   LE RTRFEXNOCASE.
|   3408: 19 05 00 25 0f 17 45 4e 41 42 4c 45 20 52 54 52   ...%..ENABLE RTR
|   3424: 45 45 58 52 54 52 49 4d 1a 18 05 00 29 0f 19 45   EEXRTRIM....)..E
|   3440: 4e 41 42 4c 45 20 4d 45 4d 53 59 53 35 58 42 49   NABLE MEMSYS5XBI
|   3456: 4e 41 52 59 1a 17 05 00 29 0f 19 45 4e 41 42 4c   NARY....)..ENABL
|   3472: 45 20 4d 45 4d 53 59 53 35 58 4e 4f 43 41 53 45   E MEMSYS5XNOCASE
|   3488: 19 16 05 00 29 0f 17 45 4e 41 42 4c 45 20 4d 45   ....)..ENABLE ME
|   3504: 4d 53 59 53 35 58 52 54 52 49 4d 18 15 05 00 25   MSYS5XRTRIM....%
|   3520: 0f 19 45 4e 41 42 4c 45 20 4a 53 4f 4e 31 58 42   ..ENABLE JSON1XB
|   3536: 49 4e 41 52 59 18 14 05 00 25 0f 19 45 4e 41 42   INARY....%..ENAB
|   3552: 4c 45 20 4a 53 4f 4e 31 58 4e 4f 43 41 53 45 17   LE JSON1XNOCASE.
|   3568: 13 05 00 25 0f 17 45 4e 41 42 4c 45 20 4a 53 4f   ...%..ENABLE JSO
|   3584: 4e 31 58 52 54 52 49 4d 1a 12 05 00 29 0f 19 45   N1XRTRIM....)..E
|   3600: 4e 41 42 4c 45 20 47 45 4f 50 4f 4c 59 57 42 49   NABLE GEOPOLYWBI
|   3616: 4e 41 52 59 1a 11 05 00 29 0f 19 45 4e 41 42 4c   NARY....)..ENABL
|   3632: 45 20 47 45 4f 50 4f 4c 59 58 4e 4f 42 41 53 45   E GEOPOLYXNOBASE
|   3648: 19 10 05 00 29 0f 17 45 4e 41 42 4c 45 20 47 45   ....)..ENABLE GE
|   3664: 4f 50 4f 4c 59 58 52 54 52 49 4d 17 0f 05 00 23   OPOLYXRTRIM....#
|   3680: 0f 19 45 4e 41 42 4c 45 20 46 54 53 35 58 42 49   ..ENABLE FTS5XBI
|   3696: 4e 41 52 59 17 0e 05 00 23 0f 19 45 4e 41 42 4c   NARY....#..ENABL
|   3712: 45 20 46 54 53 35 58 4e 4f 43 41 53 45 16 0d 05   E FTS5XNOCASE...
|   3728: 00 23 0f 17 45 4e 41 42 4c 45 20 46 54 53 35 58   .#..ENABLE FTS5X
|   3744: 52 54 52 49 4d 17 0c 05 00 23 0f 19 45 4e 41 42   RTRIM....#..ENAB
|   3760: 4c 45 20 46 54 53 34 58 42 49 4e 41 52 59 17 0b   LE FTS4XBINARY..
|   3776: 05 00 23 0f 19 45 4e 41 42 4c 45 20 46 54 53 34   ..#..ENABLE FTS4
|   3792: 58 4e 4f 43 41 53 45 16 0a 05 00 23 0f 17 45 4e   XNOCASE....#..EN
|   3808: 41 42 4c 45 20 46 54 53 34 58 52 54 52 49 4d 1e   ABLE FTS4XRTRIM.
|   3824: 09 05 00 31 0f 19 45 4e 41 42 4c 45 20 44 42 53   ...1..ENABLE DBS
|   3840: 54 41 54 20 56 54 41 42 58 42 49 4e 41 52 59 1e   TAT VTABXBINARY.
|   3856: 08 05 00 31 0f 19 45 4e 41 42 4c 45 20 44 42 53   ...1..ENABLE DBS
|   3872: 54 41 54 20 56 54 41 42 58 4e 4f 43 41 53 45 1d   TAT VTABXNOCASE.
|   3888: 07 05 00 31 0f 17 45 4e 41 42 4c 45 20 44 42 53   ...1..ENABLE DBS
|   3904: 54 41 54 20 66 54 41 42 58 52 54 52 49 4d 11 06   TAT fTABXRTRIM..
|   3920: 05 00 17 0f 19 44 45 42 55 47 58 42 49 4e 41 52   .....DEBUGXBINAR
|   3936: 59 11 05 05 00 17 0f 19 44 45 42 55 47 58 4e 4f   Y.......DEBUGXNO
|   3952: 43 41 53 45 10 04 05 00 17 0f 17 44 45 42 55 47   CASE.......DEBUG
|   3968: 58 62 54 52 49 4d 27 03 05 00 43 0f 19 43 4f 4d   XbTRIM'...C..COM
|   3984: 50 49 4c 45 52 3d 67 63 63 2d 35 2e 34 2e 30 20   PILER=gcc-5.4.0 
|   4000: 32 30 31 36 30 36 30 39 52 02 49 4e 41 52 59 27   20160609R.INARY'
|   4016: 02 05 00 43 0f 19 43 4f 4d 50 49 4c 45 52 3d 67   ...C..COMPILER=g
|   4032: 63 63 2d 35 2e 34 2e 30 20 32 30 31 36 30 36 30   cc-5.4.0 2016060
|   4048: 39 58 4e 4f 43 41 53 45 26 01 05 00 43 0f 17 43   9XNOCASE&...C..C
|   4064: 4f 4d 50 49 4c 45 52 3d 67 63 63 2d 35 2e 34 2e   OMPILER=gcc-5.4.
|   4080: 30 20 32 30 31 36 30 36 30 39 58 52 54 52 49 4d   0 20160609XRTRIM
| page 6 offset 20480
|      0: 0d 00 00 00 24 0e e0 00 0f f8 0f f0 0f e8 0f e0   ....$...........
|     16: 0f d8 0f d0 0f c8 0f c0 0f b8 0f b0 0f a8 0f a0   ................
|     32: 0f 98 0f 90 0f 88 0f 80 0f 78 0f 70 0f 68 0f 60   .........x.p.h.`
|     48: 0f 58 0f 50 0f 48 0f 40 0f 38 0f 30 0f 28 0f 20   .X.P.H.@.8.0.(. 
|     64: 0f 18 0f 10 0f 08 0f 00 0e f8 0e f0 0e e8 0e e0   ................
|   3808: 06 24 03 00 12 02 01 01 06 23 03 00 12 02 01 01   .$.......#......
|   3824: 06 22 03 00 12 02 01 01 06 21 03 00 12 03 01 01   .........!......
|   3840: 06 20 03 00 12 03 01 01 06 1f 03 00 12 03 01 01   . ..............
|   3856: 06 1e 03 00 12 03 01 01 06 1d 03 00 12 03 01 01   ................
|   3872: 06 1c 03 00 12 03 01 01 06 1b 03 00 12 02 01 01   ................
|   3888: 06 1a 03 00 12 02 01 01 06 19 03 00 12 02 01 01   ................
|   3904: 06 18 03 00 12 02 01 01 06 17 03 00 12 02 01 01   ................
|   3920: 06 16 03 00 12 02 01 01 06 15 03 00 12 02 01 01   ................
|   3936: 06 14 03 00 12 02 01 01 06 13 03 00 12 02 01 01   ................
|   3952: 06 12 03 00 12 02 01 01 06 11 03 00 12 02 01 01   ................
|   3968: 06 10 03 00 12 02 01 01 06 0f 03 00 12 02 01 01   ................
|   3984: 06 0e 03 00 12 02 01 01 06 0d 03 00 12 02 01 01   ................
|   4000: 06 0c 03 00 12 02 01 01 06 0b 03 00 12 02 01 01   ................
|   4016: 06 0a 03 00 12 02 01 01 06 09 03 00 12 03 01 01   ................
|   4032: 06 08 03 00 12 03 01 01 06 07 03 00 12 03 01 01   ................
|   4048: 06 06 03 00 12 01 01 01 06 05 03 00 12 01 01 01   ................
|   4064: 06 04 03 00 12 01 01 01 06 03 03 00 12 06 01 01   ................
|   4080: 06 02 03 00 12 06 01 01 06 01 03 00 12 06 01 01   ................
| page 7 offset 24576
|      0: 0a 00 00 00 01 0f f4 00 0f f4 00 00 00 00 00 00   ................
|   4080: 00 00 00 00 0b 03 1b 01 76 65 72 73 69 6f 6e 04   ........version.
| page 8 offset 28672
|      0: 0d 00 00 00 03 0f d6 00 0f f4 0f e9 0f d6 00 00   ................
|   4048: 00 00 00 00 00 00 11 03 02 2b 69 6e 74 65 67 72   .........+integr
|   4064: 69 74 79 2d 63 68 65 63 6b 09 02 02 1b 72 65 62   ity-check....reb
|   4080: 75 69 6c 64 0a 01 02 1d 6f 70 74 69 5d 69 71 a5   uild....opti]iq.
| end crash-44a8305b4bd86f.db
}]} {}

do_catchsql_test 48.1 {
  INSERT INTO t1(t1) VALUES('integrity-check');
} {1 {fts5: corruption on page 1, segment 1, table "t1"}}

#--------------------------------------------------------------------------
reset_db
do_test 49.0 {
  sqlite3 db {}
  db deserialize [decode_hexdb {
| size 40960 pagesize 4096 filename crash-fd87385402ecf5.db
| page 1 offset 0
|      0: 53 51 4c 69 74 65 20 66 6f 72 6d 61 74 20 33 00   SQLite format 3.
|     16: 10 00 01 01 00 40 20 20 00 00 00 00 00 00 00 0a   .....@  ........
|     32: 00 00 00 00 00 00 00 00 00 00 00 0d 00 00 00 04   ................
|     48: 00 00 00 00 00 00 00 00 00 00 00 01 00 00 00 00   ................
|     96: 00 00 00 00 0d 00 00 00 0d 0b 6e 00 0f a3 0f 4c   ..........n....L
|    112: 0e e1 0e 81 0e 24 0d cc 0d 72 0d 1b 0c b0 0c 50   .....$...r.....P
|    128: 0b f8 0b b3 0b 6e 00 00 00 00 00 00 00 00 00 00   .....n..........
|   2912: 00 00 00 00 00 00 00 00 00 00 00 00 00 00 43 0d   ..............C.
|   2928: 06 17 11 11 08 75 74 61 62 6c 65 74 34 74 34 43   .....utablet4t4C
|   2944: 52 45 41 54 45 20 56 49 52 54 55 41 4c 20 54 41   REATE VIRTUAL TA
|   2960: 42 4c 45 20 74 34 20 55 53 49 4e 47 20 66 74 73   BLE t4 USING fts
|   2976: 35 76 6f 63 61 62 28 27 74 32 27 2c 20 27 72 6f   5vocab('t2', 'ro
|   2992: 77 27 29 43 0c 06 17 11 11 08 75 74 61 62 6c 65   w')C......utable
|   3008: 74 33 74 33 43 52 45 41 54 45 20 56 49 52 54 55   t3t3CREATE VIRTU
|   3024: 41 4c 20 54 41 42 4c 45 20 74 33 20 55 53 49 4e   AL TABLE t3 USIN
|   3040: 47 20 66 74 73 35 76 6f 63 61 62 28 27 74 31 27   G fts5vocab('t1'
|   3056: 2c 20 27 72 6f 77 27 29 56 0b 06 17 1f 1f 01 7d   , 'row')V.......
|   3072: 74 61 62 6c 65 74 32 5f 63 6f 6e 66 69 67 74 32   tablet2_configt2
|   3088: 5f 63 6f 6e 66 69 67 0a 43 52 45 41 54 45 20 54   _config.CREATE T
|   3104: 41 42 4c 45 20 27 74 32 5f 63 6f 6e 66 69 67 27   ABLE 't2_config'
|   3120: 28 6b 20 50 52 49 4d 41 52 59 20 4b 45 59 2c 20   (k PRIMARY KEY, 
|   3136: 76 29 20 57 49 54 48 4f 55 54 20 52 4f 57 49 44   v) WITHOUT ROWID
|   3152: 5e 0a 07 17 21 21 01 81 07 74 61 62 6c 65 74 32   ^...!!...tablet2
|   3168: 5f 63 6f 6e 74 65 6e 74 74 32 5f 63 6f 6e 74 65   _contentt2_conte
|   3184: 6e 74 09 43 52 45 41 54 45 20 54 41 42 4c 45 20   nt.CREATE TABLE 
|   3200: 27 74 32 5f 63 6f 6e 74 65 6e 74 27 28 69 64 20   't2_content'(id 
|   3216: 49 4e 54 45 47 45 52 20 50 52 49 4d 41 52 59 20   INTEGER PRIMARY 
|   3232: 4b 45 59 2c 20 63 30 2c 20 63 31 2c 20 63 32 29   KEY, c0, c1, c2)
|   3248: 69 09 07 17 19 19 01 81 2d 74 61 62 6c 65 74 32   i.......-tablet2
|   3264: 5f 69 64 78 74 32 5f 69 64 78 08 43 52 45 41 54   _idxt2_idx.CREAT
|   3280: 45 20 54 41 42 4c 45 20 27 74 32 5f 69 64 78 27   E TABLE 't2_idx'
|   3296: 28 73 65 67 69 64 2c 20 74 65 72 6d 2c 20 70 67   (segid, term, pg
|   3312: 6e 6f 2c 20 50 52 49 4d 41 52 59 20 4b 45 59 28   no, PRIMARY KEY(
|   3328: 73 65 67 69 64 2c 20 74 65 72 6d 29 29 20 57 49   segid, term)) WI
|   3344: 54 48 4f 55 54 20 52 4f 57 49 44 55 08 07 17 1b   THOUT ROWIDU....
|   3360: 1b 01 81 01 74 61 62 6c 65 74 32 5f 64 61 74 61   ....tablet2_data
|   3376: 74 32 5f 64 61 74 61 07 43 52 45 41 54 45 20 54   t2_data.CREATE T
|   3392: 41 42 4c 45 20 27 74 32 5f 64 61 74 61 27 28 69   ABLE 't2_data'(i
|   3408: 64 20 49 4e 54 45 47 45 52 20 50 52 49 4d 41 52   d INTEGER PRIMAR
|   3424: 59 20 4b 45 59 2c 20 62 6c 6f 63 6b 20 42 4c 4f   Y KEY, block BLO
|   3440: 42 29 58 07 07 17 11 11 08 81 1d 74 61 62 6c 65   B)X........table
|   3456: 74 32 74 32 43 52 45 41 54 45 20 56 49 52 54 55   t2t2CREATE VIRTU
|   3472: 41 4c 20 54 41 42 4c 45 20 74 32 20 55 53 49 4e   AL TABLE t2 USIN
|   3488: 47 20 66 74 73 35 28 27 61 27 2c 5b 62 5d 2c 22   G fts5('a',[b],.
|   3504: 63 22 2c 64 65 74 61 69 6c 3d 6e 6f 6e 65 2c 63   c.,detail=none,c
|   3520: 6f 6c 75 6d 6e 73 69 7a 65 3d 30 29 56 06 06 17   olumnsize=0)V...
|   3536: 1f 1f 01 7d 74 61 62 6c 65 74 31 5f 63 6f 6e 66   ....tablet1_conf
|   3552: 69 67 74 31 5f 63 6f 6e 66 69 67 06 43 52 45 41   igt1_config.CREA
|   3568: 54 45 20 54 41 42 4c 45 20 27 74 31 5f 63 6f 6e   TE TABLE 't1_con
|   3584: 66 69 67 27 28 6b 20 50 52 49 4d 41 52 59 20 4b   fig'(k PRIMARY K
|   3600: 45 59 2c 20 76 29 20 57 49 54 48 4f 55 54 20 52   EY, v) WITHOUT R
|   3616: 4f 57 49 44 5b 05 07 17 21 21 01 81 01 74 61 62   OWID[...!!...tab
|   3632: 6c 65 74 31 5f 64 6f 63 73 69 7a 65 74 31 5f 64   let1_docsizet1_d
|   3648: 6f 63 73 69 7a 65 05 43 52 45 41 54 45 20 54 41   ocsize.CREATE TA
|   3664: 42 4c 45 20 27 74 31 5f 64 6f 63 73 69 7a 65 27   BLE 't1_docsize'
|   3680: 28 69 64 20 49 4e 54 45 47 45 52 20 50 52 49 4d   (id INTEGER PRIM
|   3696: 41 52 59 20 4b 45 59 2c 20 73 7a 20 42 4c 4f 42   ARY KEY, sz BLOB
|   3712: 29 5e 04 07 17 21 21 01 81 07 74 61 62 6c 65 74   )^...!!...tablet
|   3728: 31 5f 63 6f 6e 74 65 6e 74 74 31 5f 63 6f 6e 74   1_contentt1_cont
|   3744: 65 6e 74 04 43 52 45 41 54 45 20 54 41 42 4c 45   ent.CREATE TABLE
|   3760: 20 27 74 31 5f 63 6f 6e 74 65 6e 74 27 28 69 64    't1_content'(id
|   3776: 20 49 4e 54 45 47 45 52 20 50 52 49 4d 41 52 59    INTEGER PRIMARY
|   3792: 20 4b 45 59 2c 20 63 30 2c 20 63 31 2c 20 63 32    KEY, c0, c1, c2
|   3808: 29 69 03 07 17 19 19 01 81 2d 74 61 62 6c 65 74   )i.......-tablet
|   3824: 31 5f 69 64 78 74 31 5f 69 64 78 03 43 52 45 41   1_idxt1_idx.CREA
|   3840: 54 45 20 54 41 42 4c 45 20 27 74 31 5f 69 64 78   TE TABLE 't1_idx
|   3856: 27 28 73 65 67 69 64 2c 20 74 65 72 6d 2c 20 70   '(segid, term, p
|   3872: 67 6e 6f 2c 20 50 52 49 4d 41 52 59 20 4b 45 59   gno, PRIMARY KEY
|   3888: 28 73 65 67 69 64 2c 20 74 65 72 6d 29 29 20 57   (segid, term)) W
|   3904: 49 54 48 4f 55 54 20 52 4f 57 49 44 55 02 07 17   ITHOUT ROWIDU...
|   3920: 1b 1b 01 81 01 74 61 62 6c 65 74 31 5f 64 61 74   .....tablet1_dat
|   3936: 61 74 31 5f 64 61 74 61 02 43 52 45 41 54 45 20   at1_data.CREATE 
|   3952: 54 41 42 4c 45 20 27 74 31 5f 64 61 74 61 27 28   TABLE 't1_data'(
|   3968: 69 64 20 49 4e 54 45 47 45 52 20 50 52 49 4d 41   id INTEGER PRIMA
|   3984: 52 59 20 4b 45 59 2c 20 62 6c 6f 63 6b 20 42 4c   RY KEY, block BL
|   4000: 4f 42 29 5b 01 07 17 11 11 08 81 23 74 61 62 6c   OB)[.......#tabl
|   4016: 65 74 31 74 31 43 52 45 41 54 45 20 56 49 52 54   et1t1CREATE VIRT
|   4032: 55 41 4c 20 54 41 42 4c 45 20 74 31 20 55 53 49   UAL TABLE t1 USI
|   4048: 4e 47 20 66 74 73 35 28 61 2c 62 20 75 6e 69 6e   NG fts5(a,b unin
|   4064: 64 65 78 65 64 2c 63 2c 74 6f 6b 65 6e 69 7a 65   dexed,c,tokenize
|   4080: 3d 22 70 6f 72 74 65 72 20 61 73 63 69 69 22 29   =.porter ascii.)
| page 2 offset 4096
|      0: 0d 0f 68 00 05 0f 13 00 0f e6 0f 13 0f a8 0f 7c   ..h............|
|     16: 0f 2a 00 00 00 00 00 00 00 00 00 00 00 00 00 00   .*..............
|   3856: 00 00 00 15 0a 03 00 30 00 00 00 00 01 03 03 00   .......0........
|   3872: 03 01 01 01 02 01 01 03 01 01 37 8c 80 80 80 80   ..........7.....
|   3888: 01 03 00 74 00 20 68 20 69 0d 00 00 00 03 0f e8   ...t. h i.......
|   3904: 00 0f f8 0f f0 0f e8 00 00 00 00 00 00 00 00 00   ................
| page 5 offset 16384
|   4064: 00 00 00 00 00 00 00 00 06 03 03 00 12 03 00 00   ................
|   4080: 60 20 30 d6 20 30 00 30 60 10 30 01 20 30 00 30   ` 0. 0.0`.0. 0.0
| page 6 offset 20480
|      0: a0 00 00 00 10 ff 40 00 ff 00 00 00 00 00 00 00   ......@.........
|   4080: 00 00 00 00 0b 03 1b 01 76 65 72 73 69 6f 6e 04   ........version.
| page 7 offset 24576
|      0: 0d 00 00 00 03 0f 9e 00 0f e6 0f ef 0f 9e 00 00   ................
|   3984: 00 00 00 00 00 00 00 00 00 00 00 00 00 00 41 84   ..............A.
|   4000: 80 80 80 80 01 04 00 81 06 00 00 00 34 02 30 61   ............4.0a
|   4016: 01 01 00 00 00 00 00 00 00 00 00 11 87 89 06 26   ...............&
|   4032: 01 64 01 01 01 65 01 01 01 66 01 01 01 67 01 01   .d...e...f...g..
|   4048: 01 01 01 68 01 01 01 01 01 69 01 01 01 04 06 06   ...h.....i......
|   4064: 06 04 44 00 06 06 07 01 03 00 14 03 09 09 09 0f   ..D.............
|   4080: 0a 03 00 24 00 00 00 00 01 01 01 00 01 01 01 01   ...$............
| page 8 offset 28672
|      0: 0a 00 00 00 01 0f fa 00 0f fa 00 00 00 00 00 00   ................
|   4080: 00 00 00 00 00 00 00 00 00 00 05 04 09 0c 01 02   ................
| page 9 offset 32768
|      0: 0d 00 00 00 9d 0f be 00 0f ea 0f d4 0f be 00 00   ................
|   4016: 00 00 00 00 00 00 00 00 00 00 00 00 00 00 14 03   ................
|   4032: 05 00 17 17 17 61 20 62 20 63 67 20 68 20 69 67   .....a b cg h ig
|   4048: 20 68 20 69 14 02 05 00 17 17 17 67 20 68 20 69    h i.......g h i
|   4064: 61 20 62 20 63 67 20 68 20 69 14 01 05 00 17 17   a b cg h i......
|   4080: 17 61 20 62 20 63 64 20 65 20 66 67 20 68 20 69   .a b cd e fg h i
| page 10 offset 36864
|      0: 0a 00 00 00 01 0f f4 00 0f f4 00 00 00 00 00 00   ................
|   4080: 00 00 00 00 0b 03 1b 01 76 65 72 73 69 6f 6e 04   ........version.
| end crash-fd87385402ecf5.db
}]} {}

do_catchsql_test 49.1 {
  SELECT term FROM t4 WHERE term LIKE 'oase';
} {1 {database disk image is malformed}}

#--------------------------------------------------------------------------
reset_db
do_test 50.0 {
  sqlite3 db {}
  db deserialize [decode_hexdb {
| size 40960 pagesize 4096 filename crash-695bce8a3e107c.db
| page 1 offset 0
|      0: 53 51 4c 69 74 65 20 66 6f 72 6d 61 74 20 33 00   SQLite format 3.
|     16: 10 00 01 01 00 40 20 20 00 00 00 00 00 00 00 0a   .....@  ........
|     32: 00 00 00 00 00 00 00 00 00 00 00 0d 00 00 00 04   ................
|     48: 00 00 00 00 00 00 00 00 00 00 00 01 00 00 00 00   ................
|     96: 00 00 00 00 0d 00 00 00 0d 0b 6e 00 0f a3 0f 4c   ..........n....L
|    112: 0e e1 0e 81 0e 24 0d cc 0d 72 0d 1b 0c b0 0c 50   .....$...r.....P
|    128: 0b f8 0b b3 0b 6e 00 00 00 00 00 00 00 00 00 00   .....n..........
|   2912: 00 00 00 00 00 00 00 00 00 00 00 00 00 00 43 0d   ..............C.
|   2928: 06 17 11 11 08 75 74 61 62 6c 65 74 34 74 34 43   .....utablet4t4C
|   2944: 52 45 41 54 45 20 56 49 52 54 55 41 4c 20 54 41   REATE VIRTUAL TA
|   2960: 42 4c 45 20 74 34 20 55 53 49 4e 47 20 66 74 73   BLE t4 USING fts
|   2976: 35 76 6f 63 61 62 28 27 74 32 27 2c 20 27 72 6f   5vocab('t2', 'ro
|   2992: 77 27 29 43 0c 06 17 11 11 08 75 74 61 62 6c 65   w')C......utable
|   3008: 74 33 74 33 43 52 45 41 54 45 20 56 49 52 54 55   t3t3CREATE VIRTU
|   3024: 41 4c 20 54 41 42 4c 45 20 74 33 20 55 53 49 4e   AL TABLE t3 USIN
|   3040: 47 20 66 74 73 35 76 6f 63 61 62 28 27 74 31 27   G fts5vocab('t1'
|   3056: 2c 20 27 72 6f 77 27 29 56 0b 06 17 1f 1f 01 7d   , 'row')V.......
|   3072: 74 61 62 6c 65 74 32 5f 63 6f 6e 66 69 67 74 32   tablet2_configt2
|   3088: 5f 63 6f 6e 66 69 67 0a 43 52 45 41 54 45 20 54   _config.CREATE T
|   3104: 41 42 4c 45 20 27 74 32 5f 63 6f 6e 66 69 67 27   ABLE 't2_config'
|   3120: 28 6b 20 50 52 49 4d 41 52 59 20 4b 45 59 2c 20   (k PRIMARY KEY, 
|   3136: 76 29 20 57 49 54 48 4f 55 54 20 52 4f 57 49 44   v) WITHOUT ROWID
|   3152: 5e 0a 07 17 21 21 01 81 07 74 61 62 6c 65 74 32   ^...!!...tablet2
|   3168: 5f 63 6f 6e 74 65 6e 74 74 32 5f 63 6f 6e 74 65   _contentt2_conte
|   3184: 6e 74 09 43 52 45 41 54 45 20 54 41 42 4c 45 20   nt.CREATE TABLE 
|   3200: 27 74 32 5f 63 6f 6e 74 65 6e 74 27 28 69 64 20   't2_content'(id 
|   3216: 49 4e 54 45 47 45 52 20 50 52 49 4d 41 52 59 20   INTEGER PRIMARY 
|   3232: 4b 45 59 2c 20 63 30 2c 20 63 31 2c 20 63 32 29   KEY, c0, c1, c2)
|   3248: 69 09 07 17 19 19 01 81 2d 74 61 62 6c 65 74 32   i.......-tablet2
|   3264: 5f 69 64 78 74 32 5f 69 64 78 08 43 52 45 41 54   _idxt2_idx.CREAT
|   3280: 45 20 54 41 42 4c 45 20 27 74 32 5f 69 64 78 27   E TABLE 't2_idx'
|   3296: 28 73 65 67 69 64 2c 20 74 65 72 6d 2c 20 70 67   (segid, term, pg
|   3312: 6e 6f 2c 20 50 52 49 4d 41 52 59 20 4b 45 59 28   no, PRIMARY KEY(
|   3328: 73 65 67 69 64 2c 20 74 65 72 6d 29 29 20 57 49   segid, term)) WI
|   3344: 54 48 4f 55 54 20 52 4f 57 49 44 55 08 07 17 1b   THOUT ROWIDU....
|   3360: 1b 01 81 01 74 61 62 6c 65 74 32 5f 64 61 74 61   ....tablet2_data
|   3376: 74 32 5f 64 61 74 61 07 43 52 45 41 54 45 20 54   t2_data.CREATE T
|   3392: 41 42 4c 45 20 27 74 32 5f 64 61 74 61 27 28 69   ABLE 't2_data'(i
|   3408: 64 20 49 4e 54 45 47 45 52 20 50 52 49 4d 41 52   d INTEGER PRIMAR
|   3424: 59 20 4b 45 59 2c 20 62 6c 6f 63 6b 20 42 4c 4f   Y KEY, block BLO
|   3440: 42 29 58 07 07 17 11 11 08 81 1d 74 61 62 6c 65   B)X........table
|   3456: 74 32 74 32 43 52 45 41 54 45 20 56 49 52 54 55   t2t2CREATE VIRTU
|   3472: 41 4c 20 54 41 42 4c 45 20 74 32 20 55 53 49 4e   AL TABLE t2 USIN
|   3488: 47 20 66 74 73 35 28 27 61 27 2c 5b 62 5d 2c 22   G fts5('a',[b],.
|   3504: 63 22 2c 64 65 74 61 69 6c 3d 6e 6f 6e 65 2c 63   c.,detail=none,c
|   3520: 6f 6c 75 6d 6e 73 69 7a 65 3d 30 29 56 06 06 17   olumnsize=0)V...
|   3536: 1f 1f 01 7d 74 61 62 6c 65 74 31 5f 63 6f 6e 66   ....tablet1_conf
|   3552: 69 67 74 31 5f 63 6f 6e 66 69 67 06 43 52 45 41   igt1_config.CREA
|   3568: 54 45 20 54 41 42 4c 45 20 27 74 31 5f 63 6f 6e   TE TABLE 't1_con
|   3584: 66 69 67 27 28 6b 20 50 52 49 4d 41 52 59 20 4b   fig'(k PRIMARY K
|   3600: 45 59 2c 20 76 29 20 57 49 54 48 4f 55 54 20 52   EY, v) WITHOUT R
|   3616: 4f 57 49 44 5b 05 07 17 21 21 01 81 01 74 61 62   OWID[...!!...tab
|   3632: 6c 65 74 31 5f 64 6f 63 73 69 7a 65 74 31 5f 64   let1_docsizet1_d
|   3648: 6f 63 73 69 7a 65 05 43 52 45 41 54 45 20 54 41   ocsize.CREATE TA
|   3664: 42 4c 45 20 27 74 31 5f 64 6f 63 73 69 7a 65 27   BLE 't1_docsize'
|   3680: 28 69 64 20 49 4e 54 45 47 45 52 20 50 52 49 4d   (id INTEGER PRIM
|   3696: 41 52 59 20 4b 45 59 2c 20 73 7a 20 42 4c 4f 42   ARY KEY, sz BLOB
|   3712: 29 5e 04 07 17 21 21 01 81 07 74 61 62 6c 65 74   )^...!!...tablet
|   3728: 31 5f 63 6f 6e 74 65 6e 74 74 31 5f 63 6f 6e 74   1_contentt1_cont
|   3744: 65 6e 74 04 43 52 45 41 54 45 20 54 41 42 4c 45   ent.CREATE TABLE
|   3760: 20 27 74 31 5f 63 6f 6e 74 65 6e 74 27 28 69 64    't1_content'(id
|   3776: 20 49 4e 54 45 47 45 52 20 50 52 49 4d 41 52 59    INTEGER PRIMARY
|   3792: 20 4b 45 59 2c 20 63 30 2c 20 63 31 2c 20 63 32    KEY, c0, c1, c2
|   3808: 29 69 03 07 17 19 19 01 81 2d 74 61 62 6c 65 74   )i.......-tablet
|   3824: 31 5f 69 64 78 74 31 5f 69 64 78 03 43 52 45 41   1_idxt1_idx.CREA
|   3840: 54 45 20 54 41 42 4c 45 20 27 74 31 5f 69 64 78   TE TABLE 't1_idx
|   3856: 27 28 73 65 67 69 64 2c 20 74 65 72 6d 2c 20 70   '(segid, term, p
|   3872: 67 6e 6f 2c 20 50 52 49 4d 41 52 59 20 4b 45 59   gno, PRIMARY KEY
|   3888: 28 73 65 67 69 64 2c 20 74 65 72 6d 29 29 20 57   (segid, term)) W
|   3904: 49 54 48 4f 55 54 20 52 4f 57 49 44 55 02 07 17   ITHOUT ROWIDU...
|   3920: 1b 1b 01 81 01 74 61 62 6c 65 74 31 5f 64 61 74   .....tablet1_dat
|   3936: 61 74 31 5f 64 61 74 61 02 43 52 45 41 54 45 20   at1_data.CREATE 
|   3952: 54 41 42 4c 45 20 27 74 31 5f 64 61 74 61 27 28   TABLE 't1_data'(
|   3968: 69 64 20 49 4e 54 45 47 45 52 20 50 52 49 4d 41   id INTEGER PRIMA
|   3984: 52 59 20 4b 45 59 2c 20 62 6c 6f 63 6b 20 42 4c   RY KEY, block BL
|   4000: 4f 42 29 5b 01 07 17 11 11 08 81 23 74 61 62 6c   OB)[.......#tabl
|   4016: 65 74 31 74 31 43 52 45 41 54 45 20 56 49 52 54   et1t1CREATE VIRT
|   4032: 55 41 4c 20 54 41 42 4c 45 20 74 31 20 55 53 49   UAL TABLE t1 USI
|   4048: 4e 47 20 66 74 73 35 28 61 2c 62 20 75 6e 69 6e   NG fts5(a,b unin
|   4064: 64 65 78 65 64 2c 63 2c 74 6f 6b 65 6e 69 7a 65   dexed,c,tokenize
|   4080: 3d 22 70 6f 72 74 65 72 20 61 73 63 69 69 22 29   =.porter ascii.)
| page 2 offset 4096
|      0: 0d 0f 68 00 05 0f 13 00 0f e6 0f 13 0f a8 0f 7c   ..h............|
|     16: 0f 2a 00 00 00 00 00 00 00 00 00 00 00 00 00 00   .*..............
|   3856: 00 00 00 15 0a 03 00 30 00 00 00 00 01 03 03 00   .......0........
|   3872: 03 01 01 01 02 01 01 03 01 01 37 8c 80 80 80 80   ..........7.....
|   3888: 01 03 00 74 00 20 68 20 69 0d 00 00 00 03 0f e8   ...t. h i.......
|   3904: 00 0f f8 0f f0 0f e8 00 00 00 00 00 00 00 00 00   ................
| page 5 offset 16384
|   4064: 00 00 00 00 00 00 00 00 06 03 03 00 12 03 00 00   ................
|   4080: 60 20 30 d6 20 30 00 30 60 10 30 01 20 30 00 30   ` 0. 0.0`.0. 0.0
| page 6 offset 20480
|      0: a0 00 00 00 10 ff 40 00 ff 00 00 00 00 00 00 00   ......@.........
|   4080: 00 00 00 00 0b 03 1b 01 76 65 72 73 69 6f 6e 04   ........version.
| page 7 offset 24576
|      0: 0d 00 00 00 03 0f 9e 00 0f e6 0f ef 0f 9e 00 00   ................
|   3984: 00 00 00 00 00 00 00 00 00 00 00 00 00 00 41 84   ..............A.
|   4000: 80 80 80 80 01 04 00 81 06 00 00 00 34 02 30 61   ............4.0a
|   4016: 01 01 00 00 00 00 00 00 00 00 00 11 87 89 06 26   ...............&
|   4032: 01 64 01 01 01 65 01 01 01 66 01 01 01 67 01 01   .d...e...f...g..
|   4048: 01 01 01 68 01 01 01 01 01 69 01 01 01 04 06 06   ...h.....i......
|   4064: 06 04 44 00 06 06 07 01 03 00 14 03 09 09 09 0f   ..D.............
|   4080: 0a 03 00 24 00 00 00 00 01 01 01 00 01 01 01 01   ...$............
| page 8 offset 28672
|      0: 0a 00 00 00 01 0f fa 00 0f fa 00 00 00 00 00 00   ................
|   4080: 00 00 00 00 00 00 00 00 00 00 05 04 09 0c 01 02   ................
| page 9 offset 32768
|      0: 0d 00 00 00 9d 0f be 00 0f ea 0f d4 0f be 00 00   ................
|   4016: 00 00 00 00 00 00 00 00 00 00 00 00 00 00 14 03   ................
|   4032: 05 00 17 17 17 61 20 62 20 63 67 20 68 20 69 67   .....a b cg h ig
|   4048: 20 68 20 69 14 02 05 00 17 17 17 67 20 68 20 69    h i.......g h i
|   4064: 61 20 62 20 63 67 20 68 20 69 14 01 05 00 17 17   a b cg h i......
|   4080: 17 61 20 62 20 63 64 20 65 20 66 67 20 68 20 69   .a b cd e fg h i
| page 10 offset 36864
|      0: 0a 00 00 00 01 0f f4 00 0f f4 00 00 00 00 00 00   ................
|   4080: 00 00 00 00 0b 03 1b 01 76 65 72 73 69 6f 6e 04   ........version.
| end crash-695bce8a3e107c.db
}]} {}

do_catchsql_test 50.1 {
  SELECT term FROM t4 WHERE term LIKE '»as';
} {1 {database disk image is malformed}}

#-------------------------------------------------------------------------
reset_db
do_execsql_test 51.0 {
BEGIN TRANSACTION;
PRAGMA writable_schema=ON;
CREATE VIRTUAL TABLE t1 USING fts5(a,b,c);
CREATE TABLE IF NOT EXISTS 't1_data'(id INTEGER PRIMARY KEY, block BLOB);
REPLACE INTO t1_data VALUES(1,X'2eb1182424');
REPLACE INTO t1_data VALUES(10,X'000000000102080002010101020107');
INSERT INTO t1_data VALUES(137438953473,X'0000032b0230300102060102060102061f0203010203010203010832303136303630390102070102070102070101340102050102050102050101350102040102040102040207303030303030301c023d010204010204010662696e6172790306010202030601020203060102020306010202030601020203060102020306010202030601020203060102020306010202030601020203060102020108636f6d70696c657201020201020201020201066462737461740702030102030102030204656275670402020102020102020107656e61626c6507020201020201020201020201020201020201020201020201020201020201020201020201020201020201020201020201020201020201020201020201020202087874656e73696f6e1f02040102040102040104667473340a02030102030102030401350d020301020301020301036763630102030102030102030206656f706f6c7910020301020301020301056a736f6e3113020301020301020301046c6f61641f020301020301020301036d61781c02020102020102020205656d6f72791c020301020301020304047379733516020301020301020301066e6f6361736502060102020306010202030601020213060102020306010202030601020203060102020306010202030601020203060102020306010202030601020201046f6d69741f0202010202010202010572747265651902030102030102030402696d010601020203060102020306010202030601020203060102020306010202030601020203060102020306010202030601020203060102020306010202010a7468726561647361666522020201020201020201047674616207020401020401020401017801060101020106010102010601010201060101020106010102010601010201060101020106010102010601010201060101020106010102010601010201060101020106010102010601010201060101020106010102010601010201060101020106010102ad060101020106010102010601010201060101020106010101010601010201060101020106010102010601010201060101020106010102010601010201060101020106010102010601010201060101020415130c0c124413110f47130efc0e11100f0e100f440f1040150f');
INSERT INTO t1_data VALUES(274877906945,X'00000e96023030011a042319320d3b123d812b5a31120110446e581b66814a05010a4537814274010e8102815c810f3d0104846d01081581204401103741043c59416b44010a404655265301103f73811a11114213010a821235820f020135030484320201360104816a020162020484550302390301710a04824a020166030483690201670704837d0201690404822602016a0504825c02026b620504817502016f0904810d0303e79c88060482760201700a04826302017204048155020373c2be050481130201770204846202027962050482710202c2ba010482140203e58496070483330204e8b2b879010483710101310110545c0c814b0e3a6501082c815d5b011a2a0e2f0d765c3d686014061d0d0112810733112c2e82141101048313010e5c6f632e813e42010c811882370548010e19158146822f1f01104d364a708146135a010a237b0a55210201610904841703027678090481270201620304810002026374060484660202657a0704827602016601048351090483540301660704814b02016b03025f0304c582caba0204816602016c01025f0302cebc0904843e02016e0804821802016f0a04817503016f070483100201720304822c020484380201740404842e0102460201770104812f0204836c02027a6f040483110202cebc02048267040161020484650205d5bd62cebc0604845b0204f2a580880204842a0206f38184a179670502750204f696a3aa0a04814601013201063330390110812281378114600d010c03716c5e822d010e81226b542a814d010a72740f83000108813a1e0b010c5681046f812c010c07814a777328011664244219531b1a2f811e4a010c4d81557c7f1b0201300704810702013307048230010484050202367807048175020239710804832502016204026b0204814d020363306108048262020265650504817602026667070483150201690704832f0301360a04814d02016c08024702016d0304843e0303cfb2630204814002016e0804837503016203048416030370c2be0304821b02016f0604834b0201700504816b030175070210020273660604841c020676c2bac2b2640604830a02017704027d02017808048141010482700201790504811d0202c2ba0502470206ca8d73ecbab9010483340204f09e9ab504048367010133010c3e04814f82250114812e814b2e0411811305010c811337811e6e010c82085e2b0e5d010c61812054811c01148122451b0781050c813d010c17823762643e011e080c1720814a10364306143b0d33260112810f0c2a810c816b13010a8163810e470201370404811102056176c2aa36050481530202646e0904846202026a730404827402016b0a020c02036f616b0404830a0201750504820d02017605025e0201770a04820702027a73050482460202c2ba0604824a020483330203cba434040483200203cebc790304847e01013401124181442c1d091f81580108601d8336011081320a2b8125820001123b0b81158116811f070110078112817a817308010e6682410d810e2601122d0d6413378147351e01105081021d3525812d01128246510a622204054101105c1b620e81302b05020130020483480104822702013102027e020132030483270201350304844802023770030207020261710604823f0201640802570204830a020265770304831f020168070483210201690204825b02016f020481280704835402057037e18b8d0904810802017304048439030172020481440303c2bd6b0a02630201760202490804815e0201770304816e050483550201780704816902017a070483280207c2b2f093aabc780a0482240301b303024e0301bc0604837a0202cb800204834a0202cebc04048201040484410203d3ad770a04814f0202d5a508048371010135011630817e0f81040d2c041552010c813d3b7e8115010c40692182693a01121f810d810d0a32814701101d1d1f642281742e01068229240110811231810a387f4c01100f50810f8165810d0114811f26443152593c104a010e641e1a3357820e020132030481540201340204815402023778040207020163060481020204815b020164020483010201670a0481540304f0948f870904811a0201690704835502016d0604832203027b01022803017a0a025102016e020484260404816002026f690502680301720104834e02017208024f02021d020475e69c8e0504814c0202767602025f0302de870a04837b020178090483200104835003026a72090484400201790504837204022302017a0104836b0202c2aa0a0481070303bcc2b3090484370203c7866403027501013601087c158303011212814305813e7b0e090118141a1c49713a211e0c74630f010a59826d8113011203328166037781561a01101d7f1d2a1f822533010e820e070f7b40160110811f40292c813226010a2d20824a32010a81418158670201300304840a0201660404817d02016d0804826902016e080626817f0104820b02016f0404825a02017003023b020272750804840c0301760a04844d02017403025b020175080484200202766e060482360303c2ba6c030482220202c2aa0204810e0301b20204835703048421040484240301bc0802410202d2a1010482630204e1b18f3704048354010137010c08816337812f01101382211532424d39010881248123010e7724810267815f011081236029813e273301101b7b29812a5b813b01128150810324814b220b01060c8417010e165b6c81708117010a1782346f6c0201380804816803016b0604840102013908023f0201610204816c0201630302760201640304832604023e0204833902016502048203020266770804821a0201670a04830002026964080484500304f29e9eb70802250201700204811b0201710904832d0201730304826b05048403020174010481000205776a62c2b2050482630201790202260206c2b2eaaeb464050485020301b3080482480303bac7af0a0484550203c695650804822a0202ceb90a0481170202dbae05023f010138011819814a2703390a61090c6912011a21181304812523811b5f164e050114110f35128123423f810c010c817573817c03010e7182590c812b0401142503597e6e0e2f3a3759011252813a811a2b75091a010882162a31010e17450a81048279010858658208020231670a048205020361c2b906023b02016301048236020164050482520201650904833d0201670904811b0201690604825002026a7a0604837c02016e0204832002017002026d0302c789010481020201720504835e0201740604810002017502020a0702630302676306025f0303e4a0a70102640203786a75010484440201790104841402047ac2be72070481340207c2ba3766673576090482790301bd07048142010481600202c7b309027a0401740604823b0202d2bf0304830f0204e989a6300a02600204f4bd91b60702120101390106518369010e19254641823711010c258267288121010e817c810d2b17250110810a578133812f4c0110415681067b288121010e0881208119347101140b8131543c8100343d1101088203813e01100d742e3230820f3802013006048107020134080481440202356501021a02013808048147020162020482230201630304833c030162050483390206656cf093b5bd070484140202677303048502020769e3ad9669c2b90304847402016b0804836402016c0404841f02016d010481250904825202016e06025402016f0704842a0201700a04834a0201720a0483530201750304822e020676f097b18374030482140201780604833d0202c2b9010481550301be070483720204826f0202ca80060481630202d5a80504833f0101610114551047810e130a78660c011a364611206c0b13080705733d5501240f08070c090b0c20813d1471042e4351131e011204412d814f0913104201263036110d060b1f811a301b0f4e1a29092f181c012808071e221a2a81075b320503065a0f140c1a0a26011c07231d0e6f3715063b760c6b091501121111303e3a71566d6d010e0867814d816a0c01181e18240d41724d221b3f384b0201300204830b060483080302c2b30204837f0201310a026e020134050481560301730902690201360406827c0f0201370204825d06020a0201390904815b0304f3bfb2a70a04822c0201610404810e020262660604841a03017608025b02016309088112825f020164090482310201650a0484480302396f01025d02026774010482090302df9b06048321020168070661813303016f03048248020169030483610504814001048401010483460301300704824203016a0204824402016a0504813303021d03017209048412030277380804824502016c0104814c02036ec2ba0804835702016f0204811d030176020238020270360a04840d02017107048201030469ca99690602350201720304812d0104845e02017304022c02017409022b020175050484140302caaf0402410201760404831f020177010484180704845203026f6d04024b02017a030482660202c2aa0204810a0301b30a04817b0302bd76020483780302be6a0302440202c58207025e0202c69901027a0302ad77010483200206c993f099b183070484270203caa1660204841a0204f29788ac0804831d0204f4ba9f950504843c010162011c0e33810216341c2413042130780501184d373e53131f2f052907423e010c830e3781390e011c1320461f81041b811b041e15243d011e241b10816c310b130c3133033b0741011a11816d3139100c13140b395848011c580e411a06304306810a3138330d011a441707092c70140c1643813920010c73653581374f010c826c81210f0402013803024f07048172020161020481650204810c020162030483470301370404813602016307048379020483280201640304815501048176010481060201650104812a0104841f0201660504821f0201670302700201680804846403016b0a04831d0301700904845502016908025c02016a010483560904827602026b6306023402016c0404832602016d040484410204825702016e0504831603027831020482160302c2be0504827d02026f6a05048121020171030232020483220304845402023a0201720204845c0304846e03013607048224020174060484480201780704844303016f0604814f045807070a0707070707080709070709070808090a5c07080708080b07060a06080707070b0a0b0808070b0a0b0a55070b08080a0908080707060709070709070706080c060b07070c0a66070b08080609070607080c0909660b06070707080a0807070b0b0707080a0b07070d0607080c0908630707070b07070a070d060b0707090a07080b080a070809085f0707070c0706080706070809080f06080a5807070607060e070807080907070b070b060c0709090807690808070707070708070608070709070809070a0d0b07070809095b070707070707070c080d07070b06070707070c07080b0808811a0b08060706080a070a07080609070707080808071307070a0708070907060807090b06060707070b0707080708070707080c090a0a81080a0b07070b0f0b0706070707060b07070b07080808110b070707');
INSERT INTO t1_data VALUES(274877906947,X'00080e7f073c23110a1a18392f66090524183704276d6703306a320404824e030164080483520305c2bd7ac2bc0604815a0201360704833202016106021f020482400201630304822a0708817e8204030173040483500201640404824803016d0804824a03017709023002016606048367020268680a04815802016902088339811804027f0302656e0704834e0303d5a5370604816702036a3366090484470303c2ba660904826e02016b0904837c02016c07021403026c610604835802016d0204816802016e0104831202016f0104822f020270720602060201710704822202017206048174020273690204824602017409020c020175090482140201760a0482720301660404824403016a090484290201790404845703025d0203c2bc33040484620301bd0304824c020484540202c78607022403019a010482380202ca87070484390202d39d030485050203e184940404831b0203e6a881060483480203e8b18c0a04816d0203ee8d850104814801016b0110467257393c81272c011a053e815d3b190517064524521f011c3823590a8115372004313b1f3216011a5a20780b102d0804426916112c011a182f810781082d12137026161501221a180516811611051c131207811515173501180320112581062e05621c1407011c2d0e0617811522062208065a21520114582841621e6c203f1e2001161647411a272533815b1c2602013009048309020232630104835a0301720104817f0201330604836f0302ddb5080482560202347a07048102020135020483460104827b02043678ca800a04835f0201370404814b0104846002016103048246010482220301700204833f0201620404824d060481150201650304824f02016606088110834c0201670604821d0303c2be66010481790201680404843b030176050482270201690a04830e02016e0904844202016f040481010301630304822f020270640204822f03016e0704845802027177090482710206736ec2b2796a0104832e0306dab1d485377004048304020174050481700201750a0212020378627604048164030173080483190201790704833d0204823a02017a0506820e67030178070484530202c2b2060481500104823f020483030301b3020484310301bc04027e0402caaf0a026a0301be040482590204842e0202540202c79f0804824d0202cfa30804815a0204f29a92970204823301016c01140f63351a0a653b650d22011c09117a3e1538123537046a15043101141310082f49052f772b0c011c11121781583c2a5010133228241301287f3e0a2b1244080503060a100f413b4f0d070e2a01103e4e1f04814e7b1601183d0404052877111f230f811d01123a100f053e5c076910011a031732102381243d1b1727507301180e5d273e810803812e0f192a02013301048271070481330204821d020134080263020135060481280201610104830a0201640604826d020165060483050201670204841c0504841c0304841b0201680a04845602016a0104811c01024f030481080204813102016b0204837008024502016d0404836c04068207780301670704842302016f0404821203016d040484490301720404837e0201700104821d03048407030165050483050201720a04811602017307023502017407020503016f080484240302c2b90504821b020175090484090201770a088119822503026d6905048300020178030482680604812a0201790104830c0204833a0303d9a06806022002017a060482600203c2aa33030481560301b904020a0301bd0504820f0202d0b90904817c0202d3820202200202daa9080482030203de966e02024b0202df9d080484350204f098b0a20604845e01016d01220304456608322258060a031d4c38340f090112310c070e4238626e6601124a318109030513812f0118240d561e533742188113101b01160b24444b224d44814d4806011c05774e483410330d23541b28090401141f29062581131e221b6d011e81053a037a03320b0e4c24360d2310011a0e321d3c141825111d54637a1c0114093d3c2e58571a35293a0201350104840a03017701048330020136060217020138030483370201610a0482650201620504815e0201630704827701048201020164080483690201660804846703016904048113020167070483080201680504837d05022c0302cdb10a04815f0201690104833a0404824302026a360a04823b02016b0a04813502016d0504831a0204833803021a02026e360404825e02016f080484140201720304844b0404816603056ff09d899b0304823f020275390204816e0301780a04824202017604088308812703027902027770050482040201790104827e040482750204812902017a060483030304c2bdc2b30104836f0203c2aa62040484040301b903021c0302bd6b090484300301be0704814d0202c99402025603049a65656b090484020202ca92090482060203d19a730504844a0203d49f690804836e0202dfa8020482710204f09180860704822901016e011a0c0b8104243647521f43231f36011a2e1b33432c3d0b414905054d17011010573a6c0a816c1801160e063582340a5239050b06011a4481063d1b67250f2044200839012044591d1857291214135814101a1b361d011225067e8147111a4a4301166b13362e17195f3812186f01141c465b032b290406373301182a152a2281300f8107054e3f02023274080481770305c2bacf8168020481450201340604832f0201350704842e02013605020e0201380404841d0201610404810d020483750201620304812b020484230301610804834503026c6a0304816d0201630102380305613577337405048359020165040482720201660904826202066736f094b0af0a0482250201680104811f02016b0304847202016c0404822403016f0904822c0302c2b301025002016d0504817b01023f02016e020483090802040303e7bda10804832d02036f6b740404811402017005048419020484220202716506026303026b760904830a020172080482430304706c73620504825f02017308048413020174080481070201760104827f0204836e020477e7b89a0104840e02017a030483700206c2aa35657065050482740301b30804842b04046cc2be78090481040301b903020d0301bc010484260904813f0203c7a5620302330203c99f36050481010301a30704815b0202ca8b090483250202cdbb0604820a0202cebc0102170401380304842b0207eca2a6f29c87950904824001016f01221d17052b58101241060e3a201f1021633a0114816919811c142443100801280426080e2620042a812c531a490e121707131710011273432e493347811a340112195f671f46721c325e0118380c052b812822478107600b0116021c21821b2019263433040126021b05351b2a286b05181f071b5628111a330a012014533e073d0c0e5469141d1e2734050901220318051b44412803632e0642370e0a3a2b020131070481770201320a04812f0202346e04022b020136030483590304f09a81b60404834702016105048210020162030205030167010268020163010481540604820202048300020264310902420201650804834b02016703048247030365c6b602048205030573f098b890030481450201690204832802016a0a04826703016c0104825e02016b0604815e03016c03048334030677c2aa74c2bc09023d02016c0304823903027777060484540303df866c0104815b02016d0204811f0303796f7704020302016e0204814d07024a02016f0902680201700604840a0104831a0204835a020172070484440201730a023703026b660604830e030278790304815b0201750904822402017704025b020178030482350307f4b2a3896a343407026b0201790902720302633409020402017a020484590302dea004025f0202c2b20204816b050481200202de900402160204ee85a5770204822c0101700114143a0d391a60812d4e09011a2f313104201c372c3a3411321b011a268140144226334145050d1c4d01164e081f20671f088107237901186b123c1f6d07261e2b732e210116511116342a3d32376e083001106882257a0a17141101163039192b0c05812d735f3b01262a3e0841030b17181411051e0a18530e272b6d01182f322b260e24581d5381050f02013104048353020132050482370301690204843e02013302020d0201340104841f0201350a048139020137050482770201380204833a02016105025a0504832f0201620304836d020163050484100304832003016c030481290201640304837e020482490304822b010482290201660a04827002046964dc960204833102016c0704814502016d010482000201700104817e02037176760904821f020473eb91a708048152020174090482770201750404831e01063a825d03017a0904826a020276730a0254020177080260030277630104815c020178070481220202020301720804841202017a0204834c0202c2aa040484010301ba080482580202c6a3020481320203cdbf690502790202ce90070483140301bc030481470205d1a371cebc060481590203d2976a0404830c0203dfba6e0604814b01017101163732393b8120422f054b0e010e030b211d815d1c01165641757c080d81311d090e0112816581542d2313054301224e07121706516606080e39102d231c4b39010a2d81402d5e011a132527428114080d6e1111721c011a814a1a341538251023100d1c4c011e22182622623712411e38162a182d3b01142b67611981470f1f1f250201310a04824e0202336207048217020238730204815a0303cf886d06025a02033962620404833803016f0a04814e020161060483140302726d050483450301790904810c02036376690504811c02016403024d020165010483280802550301650904827f0304ebb8b561070482340201670302670301660804810e020168040482340201690704844d0302616404020f02016a030481060301700704827802016b070481240104814b0302c2bd0504816102016c0604837f03017a0404837902036dc2b90804810002016e0904821602016f0304812c03016401024b02017103048233060483600303e5848e04023a020172040481050305f3978aa06c070481151708070b070a0d0707070607080c080909090706080707070707070806070707070a090b070708080909090981140708070708080b0a0b0b070b070907090707070707070807080c0c070609070b0807100706070e08080a81110f06070707070f07120a0c070707070b0707060607080709080b0b080709060708070808080a810f0707060707070b070707070a080b08070e08070b0b08070c080f070a09060807070a080909080a810b080b070706070b0b0708060b07070c07070707070a0a09090b0708070a07070b0a070c070a060b080907080807070d8123070707070a0706060f070707090b07070707070b07080907080a060f070608080706070c060707070c070a810f07070706070707070a070b0713070a070707090a070c070706080a07070807080808070b0909810607080808090707080709060a070a060707070707070b080707090707060b0807');
INSERT INTO t1_data VALUES(274877906948,X'00000e8a0330717304048359030134050481100203756371070482190201760704817b0301770804821d0201770204844d0201780204836c0404826103017504026a0202c2aa020482420301b305022c040267390602570301b9080481540301bc0102290206c99cf6b5aa80080481430202cebc02026e02048120010172011a1c2f15158108048125463f251d010811811539011412423105812181171549011847284a30234e5b33042632120118351e8113817d0f2b220d111901264f104a211004061d0a2a0b35121a0a2118341f011c81160a1b030d2a0610243e445f0c011c6f0c1e3b1768141e322717500b140110537f810169811625011a492847203e210f532c16480627020135020481780302caae0104811a020261330904846c0201620804812d0201630404814a0201650704837503017301048276020168050213020169010484540604842b0302796f0504833302016a0304831b02016b0604701302016d0604815302016e070483630204815202027071020481520201710104835b02037266700704843002027362040481490201740904817d020175020481040304f59e9c9407048218020176060484060204776dc2aa020483070201780504812503016601048159020279790704840502027a730904826c030178030482740202c2aa04023d010483540301bd06026b0203cab877010483290202cdbf060482410202cebc04025c0401690204827f04016c0904840e0202cf880104835d0203dfbe6c01025b0204f0aeb7b2030481680205f1a7b5bb390504826a010173011a22810d12415003071f81181839011a3220221511546d810012052b57011a0c4274300d154e81111f041e10011e293f4213051b2276560817312811170120092136122418370e4e782b3912080f3201262b3b340f222b0c09142a0822116a135c1c130c0114320c4e385a0d0415075f01163543340f06362381133c0c012224180981742048191d110e180e180d310f011a20632450281f043027114b034e0203316a61030482160201360104826e0201380a0484570201610104844d0504814a0201620904820f020164010481630304810403027761040258020165080481550302c9b70204827a0204677367690102660201680104831b020169020483760301720a04814502016a04020c02016b04023405023c030269630504840502016c08048463020170030482670202716d080482000201720304835c03016507024d020174030482520504821503016505048207020175040208030137060481710201760a04833d0201780404832302027a6f080481200202c2ba0204812c0301bd0404821e0205c3a66865730702540202c7890804816f0205cebcc7af730504815c0202d2930202540202db89020481160203e8b8a00304825d0205f0958db331070481620305989b8569780a04813d0204f69299a5020210010174011a7b3829100a4e511f1a281c17140114812626032c372634234c01140a520e815a810815200501123e4f3531042d57615b011a041f3e64070f1f1913274a20770114811d0f5d743e0634161c01162c2782130c1b810520280d01164a513110480b402b810d13011e522d08042c1146137012201e810512011a290903182c05301e5d811944290201390a04836d0301610104836e02016208027803036cc2bc07048261020263640a0481480301730704813602016408022b020165050484310301720702260301780402500203666d73070484470201670104825b02016a040481590304836702016c0304835601025e02016d060484110301340204813702016f04021802017006068336280201710304813507025902017201026508022903016d0604812f0201740304827e03016a010482440201750404834b02017604021a010484150504836a02057773c2b2380602520201780204823e0302cebc080484040303d2956403048171020179020484240204813c0202c2b303048307020484410301be0204816f030484250203c798680104843d03019c030482570204e19ea86a020482350302a0950a0482280204e5a4bc780304810e0101750126090a35030a03220a1731630f31252f0c4b1e31011e39200e3715282a03103b56090f6b1501121d4916246e6d460d6501162609380406361e816d203f011a22166008124f58202e182025150114390f3a25713f0e3f715c011a5a11191123466025710c313312011e3c191326811c1444055f1f5109051201143b106f1181000d068155012043381381020d81080d0603171824260a0201300404844a02013207024203026b390204833803066eeebabb35660604842102013308020302023f02013503048243020436716b66040481440201380a04843d020261690704836002016203048209030484670201630a04841d020264790104822b0201650502340302c2bd060484300201670202620201680704810d020169010484430104843402026b67040481540306eea3ad77c2aa0a04836702016c020258040482270104830a02016d0404824102036e716a0604843e02016f0104832a04020c0204836803036530650a04817402017005025b0301630604843d020171070275020273720404827002017504048133010484120301370102270201760104814f03026203016d0904844802017701048375080481220301660202330301700a04827f020378c2b2030484710202796806023c0301730704813d02017a0404815f0104817202048407010483390202c2b204026802048254040266640204831e0301b3090482230302b963060482010401750a0483290306ba35f2999dac09020f0203ca926e090483350203cdb4780302350202cebc0a020f0204d7a7696d010483100206f097bc996d71040481480101760114185b2258291610821c0e01160272173107154f5b813722011a81020c200e1826250d39811f07011a7911152a2a45131504422c81070120050d3f5b23342e3e4139032a3813042d0116592d1c15630c0c0a814649011c1a362f5c4a35511f0804033e372b01102981262a352e8205010e0b4b6282388106011e26810a2d125f361a12170d1721311e0201300204832b0201320104811b050483790201350204832202016404024c0202657a090483710202666307022703016c07048362030277750604842f0201670304843d0104844c0203686f7a07027202016a0102430204847502046ce0a2b20704810302016d0204827b02026e330804826c02016f0104835502017102027606026c020172060483490202736505048371020174030484130302387602025d02017502048345020376346b0904825c0201770904814b0303c2bd720804812b020178040483600201790804816402017a08026e0202c2b90704811c0301bd0504821e0204cdbcc7a108021a0202cfb8080481490204f09f96a50204842101017701180207232d37812d0c045c4a0a011a06163b3408171c52213a26592201206d08581605811a171e0c0a1347104914011282181324082b73320f01122f6e811d2c3d410a44011e551414206a092f133f333d150a3e0f011e235b170e37060627471b13373b3e27011a0e1e816b270c10102d53381045011a060e1e254d044932651234691e011a158138300a04810c0a8121071802013003027707048214020131080481370201320a04835502013304048271020538ceb369650802310201390a0481440202616c0502570302c7a104026c0201620804811c02016301048168020241020164040481560104820b020165080484460102400202686c060232020269670604827302016a0108810c826e0704824e02026b6c0604816902016c0304831c02016d0304811903016407022b02016e01022e0604845a030237780702040301710804815102016f0104842903017a0704826902017003048445020482080202713002024e0201720804822003016202022302017303048111010482790204812d03067479c39f66700a0210020174020229020175090484430301690604820402017606020202017a01021b0104843a0202c2b90604842b0301bd030484570202c69b0504815d0202c8a30a02240202ceb8090484690301bc0404832f0202df85020481230101780116812b0a16810e4b045a3b2a01205b1305811134092f62072343100f0f05011e5734152612030b4c4134123009361601121781653207780a6a0d01164a25210824138107738139011481341f088158060c8133010e5920193a4c2331011a0510358101231a1b3609702732011a2f07631610033436810256174c011a1342040a58110721378139101602033067750802720201320604834303017109048244020133090481700203366f79010483520201390404810902016301048411050483420201640a048432020265310704832b02026774040481000302d5b2010259020369756c0504832902016c07048365030233700904824102016d010482670404834c0504830c02016e0104831604048120030169090481750303eba6990104835f02016f0604834c030379c2ba0a0481560201700404815e06048256020174040482370201760a04820d0201770604811c02017a0404812e06020b0202c2b9030481660301bd0a04816c0301be030483620206c99b6d7777750304835b0206ceb0646b66610402490202d8bf030482250206e8bfbc626964080482510204f09c9a9e0404830f010179010e2081335661371c01220e4e2718124f0d0649812b0b0a063b040b011402741d1235810805211a011409161d732b8106325f6a01182e330325068107703728302b011e3723081c0d0a3f810c183e061b067f0106834a12011a044030185a1e810704220a0541011245602b0e421441817801144b03811a1a29614e224b02013003048139020132050485050304f09caba6010482230201350104822708048413020138020483430201610402230201620902440108812181070301300304815e020263710404831002016403048226010483660604823c020165010484510201670104816407048418030334c2b20a0481120201690404814c02016a010481500904810f02036b75610304836402016d01027902016f0304817b03056f6373cebc0a0483010201700104817d020171050482680104843b0302383203048128040807090707070b0608060707060c0b810e07080807070707060b080707070b0807090807070a070a07070808070b06090807070708080a0b81230907070b070b0707080907070706090807070807060b07060707070808070a080b0708090b0b09810a0707060908070607060609070b0a070706080a09070707070e0a0708090b0c0b09070a080a811a0706080c09070a07080b0708060806070b080c0e07090e09060706080b060a070b0607090707130b080708070b0908070a0c810d070b0706080707080b080a0a070807090708070707090709070706080709080a81170a0707070a070707070a0b0a07080d080707060a070707070b0707060f0b060707060a08070807080708810d0807070709070b070808070907080f0b070907090b0707070a0807070c0b080c0a810107070a0b07060c07080f070b09070b0906070b070b');
INSERT INTO t1_data VALUES(274877906949,X'00000e5c033079720404826c0404833002021b03026f6b020482100201740904842e010484150303c2b36f0204840e0201760704826b02017708048273020578f48ba5b50a0481400201790904845902017a050483280304c2bac2bd0404841e0203c2aa680904843a0301bc070481100301be0304820304016a050481630202ca8103027b0202cb860604840d0204ceb56e370204832e0302bc740202520202cf8d07027e0205d8ae39c2aa0104813c0204e887b3770404816a0204f1bfb0970204832f01017a0118101e282f07045961813a193e011e69162f0d2b051c060f084460063053011e06810c20330d0733815c220515220c011210290a7e07810c3a18011a1f2f064a19155212472781047c010a123e45825501166c6062182718167131092f0112331b812c0b6e81470b01184f3a230d45261e271c36111701140a8128456b291248391a0201300104840d0204812502013401048318020137070483070201380904823b03016704026402013907023403016e060481380201610204812f0404824504045243020162050481150104824003016a0804827a020163070484590204817903017a02048209020164020484200203653077030482610302737601048424020166070481730201670304841e0504840e03016b0504825302016901048235010484400404841002016a010483680404845f02046bc2b97407023302026c7a0704812d02027161070209030378cebc0a021f020172040483750404815f0201730304813c030131020482040201740704824d0302793901027502017604048423020177040620813103048313020179030484540204833c04022503017a0904826302017a050483530203c2b2660404840f0307ba6272f397bd92010483070301be020482760202c6b9050482410203c9a3650604812c0202cbae020482180202d38c0704812f0204f096adb7070483490204f6a69c8b030484390102c2aa010c815e81147969010c811c827f0417010e81077a4c03815f010a2e8100820c010a810d148140010c0a7481201a13010c0b831525323d010a8206358129010c21637a33812701083c8340390301300504820a0304326939770404841c03016107048334030165030484150302696c0704810103016c0704812a03027178090481620301730504830e0301750504846303017802021c0301790304836803017a0604834e040135030482650302cdbf010483330304ceb23169070484090303e4849a0504817d0201b201088219744601082210832c010629846001121c8137182211816232010a81668122690108817281080110816a433581102f3e010e7481001b3481190106814e1b010e3646823a810e070301310504840b030161010481720301660604822f0301680804821003016a0704844803016b0104845b03016c0504823403026f700802340301710804826004026d3106024a03017509068458070301770a04836c04016b01021f0301790a0482790302c2b20a02270401b3040482130303ceae6e010484330302df9e040482100201b3010881656e750106820b50010e81434a27048153010a812b068122010843810c0401048211010a50817d812e010c811a8163810801061e832c010c811f81418101030163030481210301640504831102048104030482440301680a048202040271300404841303066b6576cebc6a0104843603026f7a08026d0303756a7808023e030176040483610301770704814403027973020484360302c2b906020c0401bc010484490401bd0804835c0302d38c0304846f0304eaae96750a0484020201b9010c3b824018322d010e0468315a5c817901067d583401060b810e010865118169010c0e07826b813a01066f8265010c3b8239633852010e61161e7030821b01068241210301350804843d0301620302480301690402610403e7a1910704812103016d080269030673c2bac2b36c090483070301760504821d02048454030278350702620302c2ba010483320304ca897a750804813b0401b5070482350303cebc6d050483120302d199020483020402ad660604840c0302d2a1010482550302daa30202340201ba01026d01085119826a010c2f5e82008110010882028221010481090108821b812d01068128460208810b8264010c810971812d440301310304820e0301320504825e05048221030333756d010482720301340502700301640604813d03016607020c0301690204823a03016b0104812203016c0704842103016d0304835f03016e0a04813c03016f0304834d030173060482660401710604810f0301740104843c0303d48174040482690201bc010482690108813c83290114090f816045242e148111010a810616822701048456010e2c81167a638115010a3a3b83204001067a8367010c8114127a2265010a824f7f5c230301300604833e0302616f020483560301640104827d090481280301650502150301660804841a03016804048221030169030481120301720104827803017606023d04016e020481700302c2aa0904836c0401ba090484100201bd01088240224f010843813674020a81185068620106822a44010e14154a8101825e010c19814a1b826c010c81221f81651b010a815a4d812c01082d7281160301300804843c030231300304836703013509048353030365c2bc0304814d0302667504027a0301670604831503016c09025d03016d03048178030172020483620301730104816b0402c2b30404823203017401027204016a08048451030175090237040177090481690301770302190301780a04823d03027a350a0481260302c2aa060481620401b3090481090304f098a1a30a04825d0201be010a0d730b816f010c821d81236c2b010c6f8208358119010681236801087d4e831e0108823c8235010667794b010683165e010e05812e3d3c820d010c81148123817403043531c2ba0204824c03083875c2bceba7957a03020803016302020804036dcebc0304814e0301640304843704033379790504823203016b08023603016d070481090304825804013707027a03016f080484530301710a04842203017809025e0304c2aa6135010481460401b90a04836b0401bc0704814f0306c6ab66e3afb9080482660103c39f350304821f0201b0050481110301680602030201b8040481310604810403016c0a024803017108024b0201be06048323030482650301300504812d0304f48990ae060482740103c491680a0483700301760a0481290201a7010484090202b177020482380201b3030482280102c5800602090301360104826a02018202048173040483780301370104814102018b090482730201930504810f0102c680020483790404830c020183020228020185030484400704820b02028d7a0a04821c0201920404835e02019507048437010484070301760204836102019a020214080483100303d795680504820602019e030481050201a30404820a05048436030177070484290201a50704843b0201a8060482690304816f03027735020483630202ab79050484430201b6060481050201b904024003016d070481130201bd090484350201bf06048361030163020481580102c781040484560201830604833a020286650404842a0301750a04821a020189070483370303e0b9b30904836602018c0104816c04020602021d030171050484570201960a04842d03016b0204821903016c04021e03016e0204845002019a0a04844402019d0704835103013103021702039f77750704827e0201a1090483340201a301022b0404831d0304616363750502520302cfb2040483720201a50a0481530202ad760902310201af0104811d0908816281390301640404843c0201b3080483240201bb030483480201bd040484290304840a0203bf646a0404843f03017a040482450102c89d05020f0201a1090483550201a3060483550201ab0904813203017a04024a0201ad030482210201b10204824302025d0303656577030483600202b46e010482240201b6090484410204bce39f9d020484570102c9870604813202018b0804843603017a06027102018d080481130204840c02018f0104836309026202029164020484430201930504816d0201970304843402039c6c73070483700201a0070483470201a203048262030364d7960a0484010201a80304832a060484390202a96a080481170303c69532090481440201ac040214020481180202ae770604832c0201b0090482300201b40804845a0201b5070482110302716f010482160201ba0504837b0201bb02048149030165050483250201bc07088105833002067f824d0302d19f0402330201bd04024d03017a0904814f0102ca800a048321020181040481580201820604821e020383693707048417020287630704840002018a0904834c0104835c02018b06022f02018c0704814702018d0704810a0104831a020490e7b38308048423020191020482510201920304832f030135030483710201950304833207026802019902026b02019b0904832a02019d09024c02019f0802210201a4010484080202a5710a0481680203a777670804831e0301790902100201ae0402700104834e0201af040484650202b673080484190201b705048221010483520201b808048465030167010484400104cb81cab90104834802018602048317020689777568cf920804842602018b0404817b020191050484200202a0720304833e0201a3040625827f0201a4030485080102cdb1070881408205020483700201b30404840e0202b735080482640201b80504815a0201b90a0482370206bb31cebc6c730304842f030133070483010103ce80370304826d0201900202770201ae0504844e0201b1050484080201b20904815f0201b3040483430201b40702600201b50804823b0201b90304846e0302c9a1070483300201ba0404844d0104847e0201bb050482780201bc010882378223010e811105814d8134010a8142823f2d0106811c52010a6e1814816b02088168824b010a438137812d011019060c6b812f811c010a81314e811b03033366660404825503013502048263030238620904820703016303048120040f080b0907070b07070a0907070707080a07070b0a0a81060b0707070606070f0b070b07070908070b070f0b090807080b07070707070c0e0707090d07080908080a0a50070a0707080708070706070707080a094d07070707070707070707080706070707090844070f07080c0708070708070707080a4707060609060c0b07080a07090808080737070b09060706070707070707070707094807080b0607070707060708074107080709070706070707080607060706070808070a460a0d06090709060b060707060a07070c0907060b06060b070a090707080707070b0707070c060b08070b070a09070b07070b08080706070707070807080707090d070707060707070609070a090807070d0707070b09070707070706070a0908070a0807060b0a080707090707090b08090a08070707080707070e07060708070709080b06070b0a0707070a06070606070809060a07080b07070a070c07070808070e070807070c07090607070707060707080b0743090708');
INSERT INTO t1_data VALUES(274877906950,X'00040e1807020e0830cebc66f09f97b60604840703016b06021003016c0804835103016d0a0484050301710602560301730304822d030275770904834e0301770204824d0302797707022e0302c2b2070482640402bc6d0a025e0303c3a6370602530305cebc7768690a04823f0201be0504816f0301780a0482780201bf0a04833a0305f09e919a790a0483440103cf80340604827e0201810404823e0201830304843a0504837f0301780704834c02018407048139020186030881038372030178010231020187010481100201880204835b0204845a0104825a0201890204825c0604831802018a0704841502028c340304845e02018e0602180301390204833c0203936e770104820f0201940704823702039765630304847b020199080484110301710704821402029b650704827102019d0304845802019f0504845c0303e7ba880502690202a163090484160201a3060483020301680102470201a90a0482480201ab0104837f030482570201af050482190201b20a0481020201b30504842903026f64040483650203b873780704826d0201bb0704831c030177020481410102d0b0070482560202b17a050484460201b2040483400201b40402390202b671020484220202b777090483510201ba030481750202bb6301021e0202bc620a0484080201bd0204815d0201be060482470201bf040483340102d1800904825002028470050482290202876f06022202048872c5820104826202028b680504845d02018c0a027302018d0a0205020197090483210202986b0a02780201a3030481580201a70604835e020483670201a901048379060483780201ad0a04816b0201af010482310201b1080482020201b3060484610202b5640804814c03026e690304847c0201bb080482710201bd020482020201bf06048435010482590107d28b37c2ba61640104831702018d0704810b020393c5890204836e0201950602070305f6a5989a74040484450201970104813702029f790a04843f0202a57407027f0201a90504835b0202ab750502490202b9760a04827d0301780304826e0202bb6f060481780203bd7130050483630103d3866f09023602028a6c0604825302018c0304845302028e650404833a02028f6f0104821302039d356d090484320201a5020481130404813f0201ab0704835b0201b90a0482380201bd0904833c0201bf060484450302307604027f0102d491050483300201930a024603036bd291070483060201970704826702079b72c2b3356f730904844f02019d010482610201a10404814d0202a36b0502250203a5c7b3080483780201ab02023d0103d5a1640102260201a206026a0301660804813c0201a5030481180201a7050483360201a9040483510201aa060482020201ab0504811e0201bb090481680202bd740702160202be700304846d0102d6840a027d02068534f0988d910a0483730102d78f0404832804048462020390766601027802019202027405024b0201940a04834d020298770904815702039a6c6b0304846802049c73616e080483420201b0010481050202b565050481290206b67376c2aa640a0483280201b80704830e0102d89d0202150802720201a60602480202b073090481480201ba0204836f0102d9a50202670201b40a04822a030337c2b20a04820f0102da800604831c0201840604842802038636380804811e020188090484190201920504815402019a0304830c0201a301023d0201a6040481460201a8020484100201af0104842a0204825f0201b50304827c0201bb0804830f0105dbb878c2bc0502580107dc97e69eaf6764020259020299610104812902029d680502110202a0690a0483270203a56372030483540202a96a0204842c0205acf094abac0704821c0102dd92020483410203946d790304814f020395d7ac090228020296300404830302039b397809020a02029c770504833d0202a2700504821a0201ab010483400202b0760a04813a0201b2040483130203b3c7a10104833d0204b4e8a5a40604816f0201b90604830d0201ba090483630102de800904810a020281740a02380201880704826802018f030481670201900202790203916e710404833502019206048418020399ddba080481240202a3630a02250202b86e070481670204830d0201b90604811f0201bc070481530102df820102390201830304830102038e367901024f02039134620a0482080201920104814b020198030484790202a06b060481240201ba0802090201be08022f03023670010482170202bf6f01022d0103e0a1960304831d0302bb75060483700202a2900804817c0202a49e050485010202a6b2040482030202aa80040481720202abb30304843c0301ba0204833b0203aca677010481120206ae9f613566730504841e0202afa001020a0302a979080484060202b1a1010483730203b2a46a070482460301ba020484580203b39b610804834a0202b6a60304813b0202bfae0404837c0103e185930304845f02038889780a04826802028a85070484620301b90304826c020298a3070483270203af8962050484620202b5b7070481170202b8970602190202bd8f0a0482620103e2848f04021b0203afa861020484010301b70704824a0103e3828f05048214020284a50304812f0202909e0904824d020292b907026302049ba0336604020602029c8e0204840d0202ad860202750302a16a0802180202ae880602040202b480010483150202b7b1090483780202bdbf070482050103e480ab06020f0202889605024f020293b9030483310204968fdc93080483110202a295010484150202a69a0804844d0202a78e0a02080202aa9b0a04825f0203b2b8670402720203b5b764060482550204babacf87070481270202bd9b010481780206be9a6878696805021e0103e58bba0304821202049eab6a630a04827702029faf08024d0202a2b50a02400202a3af0704827c0203a4bd6f0504840c0202ad9d030485010202b1be040483780202b5b9060484500103e689b10404844602028abc0704811902038e98690802320203968b35090482680203979971010483060202b6a4030484050301be0a04833e0103e780a601048171020282be0304824d020286b105021b02028f960a048266020291be0804831c020299900204815502029ea70702400202a0ba040481410204a69e3870030481220202a9800602310202afb8020482170203b1af6d0802140203b5a06a0702740104e88c9a6c06048426020295bc05048326020296af0304846b02059cad72d4aa060484780205baa97364680404837b0103e983840104843902029a8a010481490203a1ac770504812c0301ba050483410202af8c0302620202b1af0302500103ea8fa60a023e020297b50904812e020298a90704825702039ea76b0304847f0202a59e080481460202a68e080482590204a9b1c6a8010481350203b38d75040482750203b89e6f0a0484030103eb828f0704824e020384837109048178020397b6690104821a02039e9e330704837f0203a68b73030484440203b980320804822c0103ec8fa80204814302039588760a04826902029bb80a024e0203afb6630802710203b4a268060483000103ed8cb50104811602029982060481550104ee8085760304834502028a870904845702028f8b04027602039da470030483040202a1a20504813c0202a8ae0504837f0202af9d0402570205b1b773d8b4080482120202bd880904832c0202be930104827b0104ef88ae680704835d0205a8ab63c2be06022e0203aaa16c080481090204adb779660804823f0202b8ae080484220203bb9165030481340106f08798b1636a0604824f0203908ea80404826203029f880402530303b4ad740a04833302039184b6090484650302acb3080483340302b1b703048272020a9281a23578f098b1893001048210030291a50404816803029d8f070483200302afa5080484440302b49f020481010303bd833603026a020393839a07024c0304a3ad6e300504842d0303abb16d0502660302adae0904830e02039481a406048164030386a16c070483530302b2a8050484320302bfb9080483170204958eb8720304832b0302b1ba090481200302babe05048209020496888b6708048358030293b4050483400304b4927a6f050483770204978b93320104810a03048fb9c7890704822803029ba702022a0302a39d060484490302a4be0a0484530302adaa0a026b0302af92040483700302b9bc0404821b02049884b56404048352030486b1716f0904827a030296b80904811d03049d9e797a060483390302a5a00a04844a0303b5856d0a04822e0302bcbd040483310303bd91740704845102039983a20a04816503039d8a330a02140303b9826b0404814e02069a8b8438687403026b0302a599010481740302a6ac0704840f0303b6896d0404831a0302b785010484370302bfac08027d02059b86b770610404845203028fbd020483550303a0be75090483620302a295040482390302b6970404813002039c97bb0a04841103059d8976c2be0604824e0302afbc05023c02039d87b40504825903028daf03048172030292be040482310302a0ab0502290303b2a16b03025d02039e929d050483040302a69f060484150302aa8607025502049f9f8b66020483160302a3be060481120203a8afad0904835e0204acb1af640204845b0204b282a47a040481610203baa68a010482490204bb9f8366060483130203bfa48f0704817c0104f18191920802220204828cad360a0482730203859c9a050481670204888eb23408025f020492ba9c3202026502049bb0bf7008021f02039f94a60104835c0203a6b496030482760203a98c960504824e0203acb7b8030483240203afa0b703023d0206b3a38c683972060483340203bbaaad0902070105f282848f790804833a020384b79f0a048170020590a98c616a0804843b02049a92be730904822f02039da18b080482530203a28f8f06048309070d06070706070807070807080b0707070b09070b07070906070f0b07080607090709070708070708080706070b070707080907070808070608080707080707070808070a0806060707070b0b07070707080807070b0d0709060b0708070707080708090808070808090b0707070707080609070d07070709060806070707070707070708070c0c08090708090a07080c070a0608070707090807090707070607070b07070a0c08070809080b08090808080808070807090a07070807070706090709070c070707070809070708060608070908080808080807090c07080809070908080909080708090807080809070908080709080707070808080807080a0808070808090a080b090a070708090808080908080909080709080708080807080a070808080a08080b0b0908090707070808080908080a0909090909090909090907080909080a0807090808070b08080a0a090a08090c090709090808100808080808080a0808090908080a08080a080a0a0a0708080708080a0a080a080908090908090b08080908070b08090808090b0709080807080908070a08090a0a090a09090a0909090909090909080c080b090b0a09');
INSERT INTO t1_data VALUES(274877906951,X'000002020630f2abab907a060481130204b381af77040481790203bea6a6070484250108f380b5a33633737701048229020383be9f0404837102048495bf73070481060204938c9a6e0904823502039eb39201022302049fbb9f6c0a0481500204a3909e620404837d0204a9ac9a75020483110203bd8c850a048111030293ad0a048247030294b9040483550203bea4ac0702220105f483b5ab66030482440302bda306048141020584b2bb643804048142020586b1a8677a0204831d0205878c916c770804821f02038da1bf0704824302038f81bd0304825102039e91b20302420203b29b9403021f0203b3a1b10704825a0203b5afb4040481210204b98da0780a02060104f582b1b00404811002038f9fbc010482200302b8a406048419020394b7b80404834c02039bb5b005022b0203aa88b9060481390203aba48f0604842a0205af969438680602360203b88d8903026c0104f68386ad0904846702049aae8f79030483520203a8989a0604836c0203b18cb4070482260203b9a98d050483730203bebc870104824c0104f78283840804816703028db20302600303a8b46106020b020389b2a80104835002048e809339010481190205929193d0b409048253020393aebc0204816202059787b96f690704817202079b949dc78934620404817f02039db28b020483750205a288a7c7a3080482780203a5948d0204811a040b0a090e090a0a080a0a0a090808080b080b0b0b090908080909090a0908090809090a080a0a090909090a0708090a0b090b0d090b');
CREATE TABLE IF NOT EXISTS 't1_idx'(segid, term, pgno, PRIMARY KEY(segid, term)) WITHOUT ROWID;
INSERT INTO t1_idx VALUES(2,X'',2);
INSERT INTO t1_idx VALUES(2,X'30627a',4);
INSERT INTO t1_idx VALUES(2,X'306a32',6);
INSERT INTO t1_idx VALUES(2,X'307173',8);
INSERT INTO t1_idx VALUES(2,X'307972',10);
INSERT INTO t1_idx VALUES(2,X'30cebc66',12);
INSERT INTO t1_idx VALUES(2,X'30f2ab',14);
CREATE TABLE IF NOT EXISTS 't1_content'(id INTEGER PRIMARY KEY, c0, c1,Öc2);
INSERT INTO t1_content VALUES(1,'COMPILER=gcc-5.4.0 20160609','X','RTRIM');
INSERT INTO t1_content VALUES(2,'COMPILER=gcc-5.4.0 20160609','X','NOCASE');
INSERT INTO t1_content VALUES(3,'COMPILER=gcc-5.4.0 20160609','X','BINARY');
INSERT INTO t1_content VALUES(4,'DEBUG','X','RTRIM');
INSERT INTO t1_content VALUES(5,'DEBUG','X','NOCASE');
INSERT INTO t1_content VALUES(6,'DEBUG','X','BINARY');
INSERT INTO t1_content VALUES(7,'ENABLE DBSTAT VTAB','X','RTRIM');
INSERT INTO t1_content VALUES(8,'ENABLE DBSTAT VTAB','X','NOCASE');
INSERT INTO t1_content VALUES(9,'ENABLE DBSTAT VTAB','X','BINARY');
INSERT INTO t1_content VALUES(10,'ENABLE FTS4','X','RTRIM');
INSERT INTO t1_content VALUES(11,'ENABLE FTS4','X','NOCASE');
INSERT INTO t1_content VALUES(12,'ENABLE FUS4','X','BINARY');
INSERT INTO t1_content VALUES(0,NULL,NULL,NULL);
INSERT INTO t1_content VALUES(33,'OMIT LOAD EXTENSION','X','BINARY');
INSERT INTO t1_content VALUES(32,'OMIT LOAD EXTENSION','X','NOCASE');
INSERT INTO t1_content VALUES(31,'OMYT LOAD EXTENSION','X','RTRIM');
INSERT INTO t1_content VALUES(30,'MAX MEMORY=50000000','W','BINARY');
INSERT INTO t1_content VALUES(29,'MAX MEMORY=50000000','X','NOCASE');
INSERT INTO t1_content VALUES(28,'MAX MEMORY=50000000','X','RTRIM');
INSERT INTO t1_content VALUES(27,'ENABLE RTREE','X','BINARY');
INSERT INTO t1_content VALUES(26,'ENABLE RTREE','Y','NOCASE');
INSERT INTO t1_content VALUES(25,'ENABLE RTREE','X','RTRIM');
INSERT INTO t1_content VALUES(24,'ENABLE MEMSYS5','X','BINARY');
INSERT INTO t1_content VALUES(23,'ENABLE MEMSYS5','X','NOCASE');
INSERT INTO t1_content VALUES(22,'ENABLE MEMSYS5','X','RTRIM');
INSERT INTO t1_content VALUES(21,'ENABLE JSON1','X','BINARY');
INSERT INTO t1_content VALUES(20,'ENABLE JSON1','X','NOCASE');
INSERT INTO t1_content VALUES(18,'ENABLE GEOPOLY','X','BINARY');
INSERT INTO t1_content VALUES(17,'EOABLE GEOPOLY','X','NOCQSE');
INSERT INTO t1_content VALUES(16,'ENABLE GEOPOLY','X','RTRIM');
INSERT INTO t1_content VALUES(15,'ENABLE FTS5','X','BINARY');
INSERT INTO t1_content VALUES(14,'ENABLE FTS5','X','NOCASE');
CREATE TABLE IF NOT EXISTS 't1_docsize'(id INTEGER PRIMARY KEY, sz BLOB);
CREATE TABLE IF NOT EXISTS 't1_config'(k PRIMARY KEY, v) WITHOUT ROWID;
CREATE TABLE t2(x);
INSERT INTO t2 VALUES('optimize');
INSERT INTO t2 VALUES('rebuild');
INSERT INTO t2 VALUES('integrity-check');
PRAGMA writable_schema=OFF;
COMMIT;
} {}

do_catchsql_test 51.1 {
  SELECT max(rowid)==0 FROM t1('e*');
} {/.*fts5: corrupt.*/}

#--------------------------------------------------------------------------
reset_db
do_test 52.0 {
  sqlite3 db {}
  db deserialize [decode_hexdb {
| size 40960 pagesize 4096 filename crash-2b92f77ddfe191.db
| page 1 offset 0
|      0: 53 51 4c 69 74 65 20 66 6f 72 6d 61 74 20 33 00   SQLite format 3.
|     16: 10 00 01 01 00 40 20 20 00 00 00 00 00 00 00 0a   .....@  ........
|     32: 00 00 00 00 00 00 00 00 00 00 00 0d 00 00 00 04   ................
|     48: 00 00 00 00 00 00 00 00 00 00 00 01 00 00 00 00   ................
|     96: 00 00 00 00 0d 00 00 00 0d 0b 6e 00 0f a3 0f 4c   ..........n....L
|    112: 0e e1 0e 81 0e 24 0d cc 0d 72 0d 1b 0c b0 0c 50   .....$...r.....P
|    128: 0b f8 0b b3 0b 6e 00 00 00 00 00 00 00 00 00 00   .....n..........
|   2912: 00 00 00 00 00 00 00 00 00 00 00 00 00 00 43 0d   ..............C.
|   2928: 06 17 11 11 08 75 74 61 62 6c 65 74 34 74 34 43   .....utablet4t4C
|   2944: 52 45 41 54 45 20 56 49 52 54 55 41 4c 20 54 41   REATE VIRTUAL TA
|   2960: 42 4c 45 20 74 34 20 55 53 49 4e 47 20 66 74 73   BLE t4 USING fts
|   2976: 35 76 6f 63 61 62 28 27 74 32 27 2c 20 27 72 6f   5vocab('t2', 'ro
|   2992: 77 27 29 43 0c 06 17 11 11 08 75 74 61 62 6c 65   w')C......utable
|   3008: 74 33 74 33 43 52 45 41 54 45 20 56 49 52 54 55   t3t3CREATE VIRTU
|   3024: 41 4c 20 54 41 42 4c 45 20 74 33 20 55 53 49 4e   AL TABLE t3 USIN
|   3040: 47 20 66 74 73 35 76 6f 63 61 62 28 27 74 31 27   G fts5vocab('t1'
|   3056: 2c 20 27 72 6f 77 27 29 56 0b 06 17 1f 1f 01 7d   , 'row')V.......
|   3072: 74 61 62 6c 75 74 32 5f 63 6f 6e 66 69 67 74 32   tablut2_configt2
|   3088: 5f 63 6f 6e 66 69 67 0a 43 52 45 41 54 45 20 54   _config.CREATE T
|   3104: 41 42 4c 45 20 27 74 32 5f 63 6f 6e 66 69 67 27   ABLE 't2_config'
|   3120: 28 6b 20 50 52 49 4d 41 52 59 20 4b 45 59 2c 20   (k PRIMARY KEY, 
|   3136: 76 29 20 57 49 54 48 4f 55 54 20 52 4f 57 49 44   v) WITHOUT ROWID
|   3152: 5e 0a 07 17 21 21 01 81 07 74 61 62 6c 65 74 32   ^...!!...tablet2
|   3168: 5f 63 6f 6e 74 65 6e 74 74 32 5f 63 6f 6e 74 65   _contentt2_conte
|   3184: 6e 74 09 43 52 45 41 54 45 20 54 41 42 4c 45 20   nt.CREATE TABLE 
|   3200: 27 74 32 5f 63 6f 6e 74 65 6e 74 27 28 69 64 20   't2_content'(id 
|   3216: 49 4e 54 45 47 45 52 20 50 52 49 4d 41 52 59 20   INTEGER PRIMARY 
|   3232: 4b 45 59 2c 20 63 30 2c 20 63 31 2c 20 63 32 29   KEY, c0, c1, c2)
|   3248: 69 09 07 17 19 19 01 81 2d 74 61 62 6c 65 74 32   i.......-tablet2
|   3264: 5f 69 64 78 74 32 5f 69 64 78 08 43 52 45 41 54   _idxt2_idx.CREAT
|   3280: 45 20 54 41 42 4c 45 20 27 74 32 5f 69 64 78 27   E TABLE 't2_idx'
|   3296: 28 73 65 67 69 64 2c 20 74 65 72 6d 2c 20 70 67   (segid, term, pg
|   3312: 6e 6f 2c 20 50 52 49 4d 41 52 59 20 4b 45 59 28   no, PRIMARY KEY(
|   3328: 73 65 67 69 64 2c 20 74 65 72 6d 29 29 20 57 49   segid, term)) WI
|   3344: 54 48 4f 55 54 20 52 4f 57 49 44 55 08 07 17 1b   THOUT ROWIDU....
|   3360: 1b 01 81 01 74 61 62 6c 65 74 32 5f 64 61 74 61   ....tablet2_data
|   3376: 74 32 5f 64 61 74 61 07 43 52 45 41 54 45 20 54   t2_data.CREATE T
|   3392: 41 42 4c 45 20 27 74 32 5f 64 61 74 61 27 28 69   ABLE 't2_data'(i
|   3408: 64 20 49 4e 54 45 47 45 52 20 50 52 49 4d 41 52   d INTEGER PRIMAR
|   3424: 59 20 4b 45 59 2c 20 62 6c 6f 63 6b 20 42 4c 4f   Y KEY, block BLO
|   3440: 42 29 58 07 07 17 11 11 08 81 1d 74 61 62 6c 65   B)X........table
|   3456: 74 32 74 32 43 52 45 41 54 45 20 56 49 52 54 55   t2t2CREATE VIRTU
|   3472: 41 4c 20 54 41 42 4c 45 20 74 32 20 55 53 49 4e   AL TABLE t2 USIN
|   3488: 47 20 66 74 73 35 28 27 61 27 2c 5b 62 5d 2c 22   G fts5('a',[b],.
|   3504: 63 22 2c 64 65 74 61 69 6c 3d 6e 6f 6e 65 2c 63   c.,detail=none,c
|   3520: 6f 6c 75 6d 6e 73 69 7a 65 3d 30 29 56 06 06 17   olumnsize=0)V...
|   3536: 1f 1f 01 7d 74 61 62 6c 65 74 31 5f 63 6f 6e 66   ....tablet1_conf
|   3552: 69 67 74 31 5f 63 6f 6e 66 69 67 06 43 52 45 41   igt1_config.CREA
|   3568: 54 45 20 54 41 42 4c 45 20 27 74 31 5f 63 6f 6e   TE TABLE 't1_con
|   3584: 66 69 67 27 28 6b 20 50 52 49 4d 41 52 59 20 4b   fig'(k PRIMARY K
|   3600: 45 59 2c 20 76 29 20 57 49 54 48 4f 55 54 20 52   EY, v) WITHOUT R
|   3616: 4f 57 49 44 5b 05 07 17 21 21 01 81 01 74 61 62   OWID[...!!...tab
|   3632: 6c 65 74 31 5f 64 6f 63 73 69 7a 65 74 31 5f 64   let1_docsizet1_d
|   3648: e8 63 73 69 7a 65 05 43 52 45 41 54 45 20 54 41   .csize.CREATE TA
|   3664: 42 4c 45 20 27 74 31 5f 64 6f 63 73 69 7a 65 27   BLE 't1_docsize'
|   3680: 28 69 64 20 49 4e 54 45 47 45 52 20 50 52 49 4d   (id INTEGER PRIM
|   3696: 41 52 59 20 4b 45 59 2c 20 73 7a 20 42 4c 4f 42   ARY KEY, sz BLOB
|   3712: 29 5e 04 07 17 21 21 01 81 07 74 61 62 6c 65 74   )^...!!...tablet
|   3728: 31 5f 63 6f 6e 74 65 6f 74 74 31 5f 63 6f 6e 74   1_conteott1_cont
|   3744: 65 6e 74 04 43 52 45 41 54 45 20 54 41 42 4c 45   ent.CREATE TABLE
|   3760: 20 27 74 31 5f 63 6f 6e 74 65 6e 74 27 28 69 64    't1_content'(id
|   3776: 20 49 4e 54 45 47 45 52 20 50 52 49 4d 41 52 59    INTEGER PRIMARY
|   3792: 20 4b 45 59 2c 20 63 30 2c 20 63 31 2c 20 63 32    KEY, c0, c1, c2
|   3808: 29 69 03 07 17 19 19 01 81 2d 74 61 62 6c 65 74   )i.......-tablet
|   3824: 31 5f 69 64 78 74 31 5f 69 64 78 03 43 52 45 41   1_idxt1_idx.CREA
|   3840: 54 45 20 54 41 42 4c 45 20 27 74 31 5f 69 64 78   TE TABLE 't1_idx
|   3856: 27 28 73 65 67 69 64 2c 20 74 65 72 6d 2c 20 70   '(segid, term, p
|   3872: 67 6e 6f 2c 20 50 52 49 4d 41 52 59 20 4b 45 59   gno, PRIMARY KEY
|   3888: 28 73 65 67 69 64 2c 20 74 65 72 6d 29 29 20 57   (segid, term)) W
|   3904: 49 54 48 4f 55 54 20 52 4f 57 49 44 55 02 07 17   ITHOUT ROWIDU...
|   3920: 1b 1b 01 81 01 74 61 62 6c 65 74 31 5f 64 61 74   .....tablet1_dat
|   3936: 61 74 31 5f 64 61 74 61 02 43 52 45 41 54 45 20   at1_data.CREATE 
|   3952: 54 41 42 4c 45 20 27 74 31 5f 64 61 74 61 27 28   TABLE 't1_data'(
|   3968: 69 64 20 49 4e 54 45 47 45 52 20 50 52 49 4d 41   id INTEGER PRIMA
|   3984: 52 59 20 4b 45 59 2c 20 62 6c 6f 63 6b 20 42 4c   RY KEY, block BL
|   4000: 4f 42 29 5b 01 07 17 11 11 08 81 23 74 61 62 6c   OB)[.......#tabl
|   4016: 65 74 31 74 31 43 52 45 41 54 45 20 56 49 52 54   et1t1CREATE VIRT
|   4032: 55 41 4c 20 54 41 42 4c 45 20 74 31 20 55 53 49   UAL TABLE t1 USI
|   4048: 4e 47 20 66 74 73 35 28 61 2c 62 20 75 6e 69 6e   NG fts5(a,b unin
|   4064: 64 65 78 65 64 2c 63 2c 74 6f 6b 65 6e 69 7a 65   dexed,c,tokenize
|   4080: 3d 22 70 6f 72 74 65 72 20 61 73 63 69 69 22 29   =.porter ascii.)
| page 2 offset 4096
|      0: 0d 0f 68 00 05 0f 13 00 0f e6 0f 13 0f a8 0f 7c   ..h............|
|     16: 0f 2a 00 00 00 00 00 00 00 00 00 00 00 00 00 00   .*..............
|   3856: 00 00 00 15 0a 03 00 30 00 00 00 00 01 03 03 00   .......0........
|   3872: 03 01 01 01 02 01 01 03 01 01 37 8c 80 80 80 80   ..........7.....
|   3888: 01 03 00 74 00 00 00 2e 02 30 61 03 02 02 01 01   ...t.....0a.....
|   3904: 62 03 02 03 01 01 63 03 02 04 01 01 67 03 08 c1   b.....c.....g...
|   3920: 02 02 01 01 68 03 06 01 02 03 01 01 69 03 06 01   ....h.......i...
|   3936: 02 04 04 06 06 06 08 08 0f ef 00 14 2a 00 00 00   ............*...
|   3952: 00 01 02 02 00 02 01 01 01 02 01 01 25 88 80 80   ............%...
|   3968: 80 80 01 03 00 50 00 00 00 1f 02 30 67 02 08 02   .....P.....0g...
|   3984: 01 02 02 01 01 68 02 08 03 01 02 03 01 01 69 02   .....h........i.
|   4000: 08 04 01 02 04 04 09 09 37 84 80 80 80 80 01 03   ........7.......
|   4016: 00 74 00 14 00 2e 02 30 61 01 02 02 01 01 62 01   .t.....0a.....b.
|   4032: 02 03 01 01 63 01 02 04 01 01 67 01 06 01 02 02   ....c.....g.....
|   4048: 01 01 68 01 06 01 02 03 01 01 69 01 06 01 02 03   ..h.......i.....
|   4064: f4 06 06 06 08 08 07 01 03 00 14 03 09 00 09 00   ................
|   4080: 00 00 11 24 00 00 00 00 01 01 01 00 01 00 01 01   ...$............
| page 3 offset 8192
|      0: 0a 00 00 00 03 0f ec 00 0f fa 0f f3 0f ec 00 00   ................
|   4064: 00 00 00 00 00 00 00 00 00 00 00 00 06 04 01 0c   ................
|   4080: 01 03 02 06 04 01 0c 01 02 02 05 04 09 0c 01 02   ................
| page 4 offset 12288
|      0: 0d 00 00 00 03 0f be 00 0f ea 0f d4 0f be 00 00   ................
|     16: 00 00 00 00 01 00 00 00 00 00 00 00 00 00 00 00   ................
|   4016: 00 00 00 00 00 00 00 00 00 00 00 00 00 00 14 03   ................
|   4032: 05 00 17 17 17 61 20 62 20 63 67 20 68 20 69 67   .....a b cg h ig
|   4048: 20 68 20 69 14 02 05 00 17 17 17 67 20 68 20 69    h i.......g h i
|   4064: 61 20 62 20 63 67 20 68 20 69 14 01 05 00 17 17   a b cg h i......
|   4080: 17 61 20 62 20 63 64 20 65 20 66 67 20 68 20 69   .a b cd e fg h i
| page 5 offset 16384
|      0: 0d 00 00 00 03 0f e8 00 0f f8 0f f0 0f e8 00 00   ................
|   4064: 00 00 00 00 00 00 00 00 06 03 03 00 12 03 00 03   ................
|   4080: 06 02 03 00 12 03 00 03 06 01 04 00 12 03 00 03   ................
| page 6 offset 20480
|      0: 0a 00 00 00 01 0f f4 00 0f f4 00 00 00 00 00 00   ................
|   4080: 00 00 00 00 0b 03 1b 01 76 65 72 73 69 6f 6e 04   ........version.
| page 7 offset 24576
|      0: 0d 00 00 00 03 0f 9e 00 0f e6 0f ef 0f 9e 00 00   ................
|   3968: 00 00 00 00 00 00 00 00 00 00 00 00 00 00 41 84   ..............A.
|   3984: 80 80 80 80 01 04 00 81 06 00 00 00 34 02 30 61   ............4.0a
|   4000: 01 01 01 01 01 62 01 01 01 01 01 63 01 01 01 01   .....b.....c....
|   4016: 01 64 01 01 01 65 01 01 01 66 01 01 01 67 01 01   .d...e...f...g..
|   4032: 01 01 01 68 01 01 01 01 01 69 01 01 01 04 06 06   ...h.....i......
|   4048: 06 04 04 04 06 06 07 01 03 00 14 03 09 09 09 0f   ................
|   4064: 0a 03 00 24 00 00 00 00 01 01 01 00 01 01 01 01   ...$............
|   4080: 0a 00 00 00 01 0f fa 00 0f fa 00 00 00 00 00 00   ................
| page 8 offset 28672
|   4080: 00 00 00 00 00 00 00 00 00 00 05 04 09 0c 01 02   ................
| page 9 offset 32768
|      0: 0d 00 00 00 03 0f be 00 0f ea 0f d4 0f be 00 00   ................
|   4016: 00 00 00 00 00 00 00 00 00 00 00 00 00 00 14 03   ................
|   4032: 05 00 17 17 17 61 20 62 20 63 67 20 68 20 69 67   .....a b cg h ig
|   4048: 20 68 20 69 14 02 05 00 17 17 17 67 20 68 20 69    h i.......g h i
|   4064: 61 20 62 20 63 67 20 68 20 69 14 01 05 00 17 17   a b cg h i......
|   4080: 17 61 20 62 20 63 64 20 65 20 66 67 20 68 20 69   .a b cd e fg h i
| page 10 offset 36864
|      0: 0a 00 00 00 01 0f f4 00 0f f4 00 00 00 00 00 00   ................
|   4080: 00 00 00 00 0b 03 1b 01 76 65 72 73 69 6f 6e 04   ........version.
| end crash-2b92f77ddfe191.db
}]} {}

do_catchsql_test 52.1 {
  SELECT fts5_decode(id, block) FROM t1_data;
} {/*malformed database schema*/}

#-------------------------------------------------------------------------
reset_db
do_test 53.0 {
  sqlite3 db {}
  db deserialize [decode_hexdb {
| size 24576 pagesize 4096 filename crash-dbe9b7614da103.db
| page 1 offset 0
|      0: 53 51 4c 69 74 65 20 66 6f 72 6d 61 74 20 33 00   SQLite format 3.
|     16: 10 00 01 01 00 40 20 20 00 00 00 00 00 00 00 06   .....@  ........
|     32: 00 00 00 00 00 00 00 00 00 00 00 06 00 00 00 04   ................
|     96: 00 00 00 00 0d 00 00 00 06 0e 0f 00 0f aa 0f 53   ...............S
|    112: 0e e8 0e 8b 0e 33 0e 0f 00 00 00 00 00 00 00 00   .....3..........
|   3584: 00 00 00 00 00 00 00 00 00 00 00 00 00 00 00 22   ................
|   3600: 06 06 17 11 11 01 31 74 61 62 6c 65 62 62 62 62   ......1tablebbbb
|   3616: 06 43 52 45 41 54 45 20 54 41 42 4c 45 20 62 62   .CREATE TABLE bb
|   3632: 28 61 29 56 05 06 17 1f 1f 01 7d 74 61 62 6c 65   (a)V.......table
|   3648: 74 31 5f 63 6f 6e 66 69 67 74 31 5f 63 6f 6e 66   t1_configt1_conf
|   3664: 69 67 05 43 52 45 41 54 45 20 54 41 42 4c 45 20   ig.CREATE TABLE 
|   3680: 27 74 31 5f 63 6f 6e 66 69 67 27 28 6b 20 50 52   't1_config'(k PR
|   3696: 49 4d 41 52 59 20 4b 45 59 2c 20 76 29 20 57 49   IMARY KEY, v) WI
|   3712: 54 48 4f 55 54 20 52 4f 57 49 44 5b 04 07 17 21   THOUT ROWID[...!
|   3728: 21 01 81 01 74 61 62 6c 65 74 31 5f 64 6f 63 73   !...tablet1_docs
|   3744: 69 7a 65 74 31 5f 64 6f 63 73 69 7a 65 04 43 52   izet1_docsize.CR
|   3760: 45 41 54 45 20 54 41 42 4c 45 20 27 74 31 5f 64   EATE TABLE 't1_d
|   3776: 6f 63 73 69 7a 65 27 28 69 64 20 49 4e 54 45 47   ocsize'(id INTEG
|   3792: 45 52 20 50 52 49 4d 41 52 59 20 4b 45 59 2c 20   ER PRIMARY KEY, 
|   3808: 73 7a 20 42 4c 4f 42 29 69 03 07 17 19 19 01 81   sz BLOB)i.......
|   3824: 2d 74 61 62 6c 65 74 31 5f 69 64 78 74 31 5f 69   -tablet1_idxt1_i
|   3840: 64 78 03 43 52 45 41 54 45 20 54 41 42 4c 45 20   dx.CREATE TABLE 
|   3856: 27 74 31 5f 69 64 78 27 28 73 65 67 69 64 2c 20   't1_idx'(segid, 
|   3872: 74 65 72 6d 2c 20 70 67 6e 6f 2c 20 50 52 49 4d   term, pgno, PRIM
|   3888: 41 52 59 20 4b 45 59 28 73 65 67 69 64 2c 20 74   ARY KEY(segid, t
|   3904: 65 72 6d 29 29 20 57 49 54 48 4f 55 54 20 52 4f   erm)) WITHOUT RO
|   3920: 57 49 44 55 02 07 17 1b 1b 01 81 01 74 61 62 6b   WIDU........tabk
|   3936: 65 74 31 5f 64 61 74 61 74 31 5f 64 61 74 61 02   et1_datat1_data.
|   3952: 43 52 45 41 54 45 20 54 41 42 4c 45 20 27 74 31   CREATE TABLE 't1
|   3968: 5f 64 61 74 61 27 28 69 64 20 49 4e 54 45 47 45   _data'(id INTEGE
|   3984: 52 20 50 52 49 4d 41 52 59 20 4b 45 59 2c 20 62   R PRIMARY KEY, b
|   4000: 6c 6f 63 6b 20 42 4c 4f 42 29 54 01 07 17 10 11   lock BLOB)T.....
|   4016: 08 81 15 74 61 62 6c 65 74 31 74 31 43 52 45 41   ...tablet1t1CREA
|   4032: 54 45 20 56 49 52 54 55 41 4c 20 54 41 42 4c 45   TE VIRTUAL TABLE
|   4048: 20 74 31 20 55 53 49 4e 47 20 66 74 73 35 28 61    t1 USING fts5(a
|   4064: 2c 62 2c 70 72 65 66 69 78 3d 22 31 2c 32 2c 33   ,b,prefix=.1,2,3
|   4080: 2c 34 22 2c 20 63 6f 6e 74 65 6e 74 3d 22 22 29   ,4., content=..)
| page 2 offset 4096
|      0: 0d 0b 6a 00 37 09 4c 02 0f e7 09 4c 0f c6 0f a4   ..j.7.L....L....
|     16: 0f 88 0f 6d 0f 4b 0f 2c 0f 0e 0e ec 0e cd 0e 2a   ...m.K.,.......*
|     32: 0e 8e 0e 6c 0e 4b 0e 29 0e 08 0d e6 0d c4 0d b5   ...l.K.)........
|     48: 0d 97 0d 76 0d 54 0e 31 0d 15 0c f3 0c d3 0c b5   ...v.T.1........
|     64: 0c 95 0c 73 0c 54 0c 32 0c 10 0b ee 0b cc 0b b0   ...s.T.2........
|     80: 0b 8d 0b 7e 0b 48 0b 2e 0b 0b 0a ef 0a cc 0a ad   ...~.H..........
|     96: 0a 8c 0a 6d 0a 4d 0a 2b 0a 0c 09 ec 09 ca 09 a8   ...m.M.+........
|    112: 09 86 09 63 0f f1 00 00 00 00 00 00 00 00 00 00   ...c............
|   2368: 00 00 00 00 00 00 00 00 00 00 00 00 15 0a 03 00   ................
|   2384: 30 00 00 00 01 01 03 35 00 03 01 01 12 02 01 12   0......5........
|   2400: 03 01 11 1c 8c 80 80 80 80 10 03 00 3e 00 00 00   ............>...
|   2416: 17 01 05 05 34 74 61 62 6c 03 02 03 01 04 77 68   ....4tabl.....wh
|   2432: 65 72 03 02 06 09 1b 8c 80 80 80 80 0f 03 00 3c   er.............<
|   2448: 00 00 00 16 05 34 66 74 73 34 03 02 02 01 04 6e   .....4fts4.....n
|   2464: 75 6d 62 03 06 01 04 09 1b 8c 80 80 80 80 0e 03   umb.............
|   2480: 00 3c 00 00 00 16 04 33 74 68 65 03 06 01 01 04   .<.....3the.....
|   2496: 01 03 77 68 65 03 02 04 04 0a 1b 8c 80 80 80 80   ..whe...........
|   2512: 0d 03 00 3c 00 00 00 16 04 33 6e 75 6d 03 06 01   ...<.....3num...
|   2528: 01 05 01 03 74 61 62 03 02 03 04 0a 19 8c 80 80   ....tab.........
|   2544: 80 80 0c 03 00 38 00 00 00 14 03 32 77 68 03 02   .....8.....2wh..
|   2560: 04 00 04 33 66 74 73 03 02 02 04 07 18 8c 80 80   ...3fts.........
|   2576: 80 80 0b 03 00 36 00 00 00 13 03 32 74 61 03 02   .....6.....2ta..
|   2592: 03 02 01 68 03 06 01 01 04 04 07 1b 8c 80 80 80   ...h............
|   2608: 80 0a 03 00 3c 00 00 00 16 03 32 6e 75 03 06 01   ....<.....2nu...
|   2624: 01 05 01 02 6f 66 03 06 01 01 06 04 09 19 8c 80   ....of..........
|   2640: 80 80 80 09 03 00 38 00 00 00 14 03 32 66 74 03   ......8.....2ft.
|   2656: 02 02 01 02 69 73 03 06 01 01 03 04 07 18 8c 80   ....is..........
|   2672: 80 80 80 08 03 00 36 00 00 00 13 02 31 74 03 08   ......6.....1t..
|   2688: 03 01 01 04 01 01 77 03 02 04 04 09 1a 8c 80 80   ......w.........
|   2704: 80 80 07 03 00 3a 00 00 00 15 02 31 6e 03 08 01   .....:.....1n...
|   2720: 01 02 05 01 01 6f 03 06 01 01 06 04 09 18 8c 80   .....o..........
|   2736: 80 80 80 06 03 00 36 00 00 00 13 04 02 31 66 03   ......6......1f.
|   2752: 02 02 01 01 69 03 06 01 01 03 05 06 1c 8c 80 80   ....i...........
|   2768: 80 80 05 03 00 3e 00 00 00 17 04 30 74 68 65 03   .....>.....0the.
|   2784: 06 01 01 04 01 05 77 68 65 72 65 03 02 04 0a 15   ......where.....
|   2800: 8c 80 80 80 80 04 03 00 30 00 00 00 11 01 01 06   ........0.......
|   2816: 06 30 74 61 62 6c 65 03 02 03 07 1c 8c 80 80 80   .0table.........
|   2832: 80 03 03 00 3e 00 00 00 17 07 30 6e 75 6d 62 65   ....>.....0numbe
|   2848: 72 03 06 01 01 05 01 02 6f 66 03 06 04 0d 13 8c   r.......of......
|   2864: 80 80 80 80 02 03 00 2c 00 00 00 0f 01 01 03 02   .......,........
|   2880: 30 6e 03 06 01 01 02 07 1b 8c 80 80 80 80 01 03   0n..............
|   2896: 00 3c 00 00 00 16 08 30 66 74 73 34 61 75 78 03   .<.....0fts4aux.
|   2912: 02 02 01 02 69 73 03 06 04 0c 00 00 00 14 2a 00   ....is........*.
|   2928: 00 00 01 01 02 24 00 02 01 01 12 02 01 12 08 88   .....$..........
|   2944: 80 80 80 80 12 03 00 16 00 00 00 05 02 1c 88 80   ................
|   2960: 80 80 80 11 03 00 3e 00 00 00 17 05 34 72 6f 77   ......>.....4row
|   2976: 73 02 06 01 01 05 01 04 74 68 65 72 02 02 04 0b   s.......ther....
|   2992: 15 88 80 80 80 80 10 03 00 30 00 00 00 11 02 01   .........0......
|   3008: 01 07 05 34 62 65 74 77 02 02 04 08 1b 88 80 80   ...4betw........
|   3024: 80 80 0f 03 00 3c 00 00 00 16 04 04 33 72 6f 77   .....<......3row
|   3040: 02 06 01 01 05 01 03 74 68 65 02 08 05 0a 1b 88   .......the......
|   3056: 80 80 80 80 0e 03 00 3c 00 00 00 16 01 01 02 04   .......<........
|   3072: 33 61 72 65 02 02 03 01 03 62 65 74 02 02 07 08   3are.....bet....
|   3088: 1b 88 80 80 80 80 0d 03 00 3c 00 00 00 16 03 32   .........<.....2
|   3104: 74 68 02 08 02 01 01 07 00 04 33 61 6e 64 02 06   th........3and..
|   3120: 04 0a 1b 89 80 80 80 80 0c 03 00 3c 00 00 00 16   ...........<....
|   3136: 03 32 69 6e 02 06 01 01 06 01 02 72 6f 02 06 01   .2in.......ro...
|   3152: 01 05 04 09 18 88 80 80 80 80 0b 03 00 36 00 00   .............6..
|   3168: 00 13 02 03 32 61 72 02 02 03 01 02 62 65 02 02   ....2ar.....be..
|   3184: 04 05 07 1b 88 80 80 80 80 0a 03 00 3c 00 00 00   ............<...
|   3200: 16 02 31 74 02 08 02 01 01 07 00 03 32 61 6e 02   ..1t........2an.
|   3216: 06 01 01 04 09 19 88 80 80 80 80 09 03 00 38 00   ..............8.
|   3232: 00 00 14 02 31 6e 02 06 01 01 03 01 01 72 02 06   ....1n.......r..
|   3248: 01 01 05 04 08 17 88 80 80 80 80 08 03 00 34 00   ..............4.
|   3264: 00 00 12 02 31 62 02 02 04 01 01 69 02 06 01 01   ....1b.....i....
|   3280: 06 04 06 19 88 80 80 80 80 07 03 00 38 00 00 00   ............8...
|   3296: 14 04 02 31 32 02 02 05 01 01 61 02 08 03 01 01   ...12.....a.....
|   3312: 02 05 06 1b 88 80 80 80 80 06 03 00 3c 00 00 00   ............<...
|   3328: 16 06 30 74 68 65 72 65 02 02 02 00 02 31 31 02   ..0there.....11.
|   3344: 06 01 01 04 0a 15 88 80 80 80 80 05 03 00 30 00   ..............0.
|   3360: 00 00 11 01 01 05 04 30 74 68 65 02 06 01 01 07   .......0the.....
|   3376: 07 1c 88 80 80 80 80 04 03 00 3e 00 00 00 17 01   ..........>.....
|   3392: 01 06 02 30 6e 02 06 01 01 03 01 04 72 6f 77 73   ...0n.......rows
|   3408: 02 06 07 08 1b 88 80 80 80 80 03 03 00 3c 00 00   .............<..
|   3424: 00 16 08 30 62 65 74 77 65 65 6e 02 02 04 01 02   ...0between.....
|   3440: 69 6e 02 06 04 0c 1a 88 80 80 80 80 02 03 00 3a   in.............:
|   3456: 00 00 00 15 04 30 61 6e 64 02 06 01 01 02 02 02   .....0and.......
|   3472: 72 65 02 02 03 04 0a 16 88 80 80 80 80 01 03 00   re..............
|   3488: 34 00 00 00 12 02 30 31 02 06 01 01 04 01 01 32   4.....01.......2
|   3504: 02 02 05 04 08 08 84 80 80 80 80 12 03 00 16 00   ................
|   3520: 00 00 05 04 1b 84 80 80 80 80 11 03 00 3c 00 00   .............<..
|   3536: 00 16 05 34 74 61 62 6c 01 06 01 01 05 02 03 65   ...4tabl.......e
|   3552: 72 6d 01 02 04 0b 1b 84 80 80 80 80 10 03 00 3c   rm.............<
|   3568: 00 00 00 16 05 34 65 61 63 68 01 02 03 01 04 70   .....4each.....p
|   3584: 72 65 73 01 02 05 04 09 1a 84 80 80 80 80 0f 03   res.............
|   3600: 00 3a 00 00 00 15 04 33 74 65 72 01 02 04 02 02   .:.....3ter.....
|   3616: 68 65 01 06 01 01 03 04 08 1b 84 80 80 80 80 0e   he..............
|   3632: 03 00 3c 00 00 00 16 04 33 70 72 65 01 02 05 01   ..<.....3pre....
|   3648: 03 74 61 62 01 06 01 01 05 04 08 1a 84 80 80 80   .tab............
|   3664: 80 0d 03 00 3a 00 00 00 15 04 33 66 6f 72 01 02   ....:.....3for..
|   3680: 02 02 02 74 73 01 06 01 01 04 04 08 1b 84 80 80   ...ts...........
|   3696: 80 80 0c 03 00 3c 00 00 00 16 03 32 74 68 01 06   .....<.....2th..
|   3712: 01 01 03 00 04 33 65 61 63 01 02 03 04 09 18 84   .....3eac.......
|   3728: 80 80 80 80 0b 03 00 36 00 00 00 13 03 32 74 61   .......6.....2ta
|   3744: 01 06 01 01 05 02 01 65 01 02 04 04 09 19 84 70   .......e.......p
|   3760: 80 80 80 0a 03 00 38 00 00 00 14 03 32 69 6e 01   ......8.....2in.
|   3776: 06 01 01 02 01 02 70 72 01 02 05 04 09 18 84 80   ......pr........
|   3792: 80 80 80 09 03 00 36 00 00 00 13 03 32 66 6f 01   ......6.....2fo.
|   3808: 02 02 02 01 74 01 06 01 01 04 04 07 1b 84 80 80   ....t...........
|   3824: 80 80 08 03 00 3c 00 00 00 16 02 31 74 01 0a 04   .....<.....1t...
|   3840: 01 01 03 04 00 03 32 65 61 01 02 03 04 0a 17 84   ......2ea.......
|   3856: 80 80 80 80 07 03 00 34 00 00 00 12 02 31 69 01   .......4.....1i.
|   3872: 06 01 01 02 01 01 70 01 02 05 04 08 18 84 80 80   ......p.........
|   3888: 80 80 06 03 00 36 00 00 00 03 02 31 65 01 02 03   .....6.....1e...
|   3904: 01 01 66 02 08 02 01 01 04 04 06 1b 84 80 80 80   ..f.............
|   3920: 80 05 03 00 3c 00 00 00 16 05 30 74 65 72 6d 01   ....<.....0term.
|   3936: 02 04 02 02 68 65 01 06 01 01 03 04 09 14 84 80   ....he..........
|   3952: 80 80 80 04 03 00 2e 00 00 00 10 06 30 74 61 62   ............0tab
|   3968: 6c 65 01 06 01 01 05 04 15 84 80 80 80 80 03 03   le..............
|   3984: 00 30 00 00 00 11 02 08 30 70 72 65 73 65 6e 74   .0......0present
|   4000: 01 02 05 05 1b 84 80 80 80 80 02 03 00 3c 00 00   .............<..
|   4016: 00 16 04 30 66 74 73 01 06 01 01 04 01 02 69 6e   ...0fts.......in
|   4032: 01 06 01 01 04 0a 1a 84 80 80 80 80 01 03 00 3a   ...............:
|   4048: 00 00 00 15 05 30 65 61 63 68 01 02 03 01 03 66   .....0each.....f
|   4064: 6f 72 01 02 02 04 09 06 01 03 00 12 03 0b 0f 00   or..............
|   4080: 00 08 8c 80 80 80 80 11 03 00 16 00 00 00 05 04   ................
| page 3 offset 8192
|      0: 0a 00 00 00 32 0e 4f 00 0f fa 0f f1 0f e9 0f e1   ....2.O.........
|     16: 0f d8 0f d1 0f c9 0f c1 0f b9 0f b1 0f a9 0f a0   ................
|     32: 0f 98 0f 90 0f 87 0f 80 0f 78 0f 71 0f 68 0f 5f   .........x.q.h._
|     48: 0f 56 0f 4d 0f 41 0f 38 0f 2f 0f 26 0f 1d 0f 13   .V.M.A.8./.&....
|     64: 0f 0a 0f 01 0e f7 0e ee 0e e6 0e dd 0e d6 0e cd   ................
|     80: 0e c3 0e ba 0e b0 0e a8 0e 9f 0e 86 0e 8e 0e 85   ................
|     96: 0e 7c 0e 73 0e 6a 0e 60 0e 58 0e 4f 00 00 00 00   .|.s.j.`.X.O....
|   3648: 00 00 00 00 00 00 00 00 00 00 00 00 00 00 00 08   ................
|   3664: 04 01 10 01 03 34 74 20 07 04 01 0e 01 03 34 1e   .....4t ......4.
|   3680: 09 04 01 12 01 03 33 74 68 1c 08 04 01 10 01 03   ......3th.......
|   3696: 33 6e 1a 08 04 01 10 01 03 32 77 18 08 04 01 10   3n.......2w.....
|   3712: 01 03 32 74 16 08 04 01 10 01 03 32 6e 14 07 04   ..2t.......2n...
|   3728: 01 0e 01 03 32 12 08 04 01 10 01 03 31 74 10 07   ....2.......1t..
|   3744: f4 01 10 01 03 31 6e 0e 07 04 01 0e 01 03 31 0c   .....1n.......1.
|   3760: 09 04 01 12 01 03 30 74 68 0a 08 04 01 10 01 03   ......0th.......
|   3776: 30 74 08 09 04 01 12 01 03 30 6e 75 06 08 04 01   0t.......0nu....
|   3792: 10 01 03 30 6e 04 06 04 01 0c 01 03 02 08 04 01   ...0n...........
|   3808: 10 01 02 34 72 22 07 04 01 0e 01 02 34 20 08 04   ...4r.......4 ..
|   3824: 01 10 01 02 33 72 1e 09 04 01 12 01 02 33 61 72   ....3r.......3ar
|   3840: 1c 08 04 01 10 01 02 32 74 1a 08 04 01 10 01 02   .......2t.......
|   3856: 32 69 18 09 04 01 12 01 02 32 61 72 16 08 04 01   2i.......2ar....
|   3872: 10 01 02 31 74 14 08 04 01 10 01 02 31 6e 12 08   ...1t.......1n..
|   3888: 04 01 10 01 02 31 62 10 08 04 01 10 01 02 31 32   .....1b.......12
|   3904: 0e 0b 04 01 16 01 02 30 74 68 65 72 0c 08 04 01   .......0ther....
|   3920: 10 01 02 30 74 0a 08 04 01 10 01 02 30 6e 08 08   ...0t.......0n..
|   3936: 04 01 10 01 02 30 62 06 08 04 01 10 01 02 30 61   .....0b.......0a
|   3952: 04 06 04 01 0c 01 02 02 07 04 09 10 01 34 74 22   .............4t.
|   3968: 06 04 09 0e 01 34 20 08 04 09 12 01 33 74 65 1e   .....4 .....3te.
|   3984: 07 04 09 10 01 33 70 1c 07 04 09 10 01 33 66 1a   .....3p......3f.
|   4000: 08 04 09 12 01 32 74 68 18 07 04 09 10 01 32 74   .....2th......2t
|   4016: 16 07 04 09 0f 01 32 69 14 07 04 09 10 01 32 66   ......2i......2f
|   4032: 12 07 04 09 00 01 31 74 10 07 04 09 10 01 31 69   ......1t......1i
|   4048: 0e 06 04 09 0e 01 31 0c 08 04 09 12 01 33 44 65   ......1......3De
|   4064: 0a 07 04 09 10 01 30 74 08 07 04 09 10 01 30 75   ......0t......0u
|   4080: 26 08 04 09 12 01 30 66 74 04 05 04 09 0c 01 02   &.....0ft.......
| page 4 offset 12288
|      0: 0d 00 00 00 03 0f eb 00 0f f9 0f f2 0f eb 00 00   ................
|   4064: 00 00 00 00 00 00 00 00 00 00 00 05 03 03 00 10   ................
|   4080: 03 05 05 02 03 00 10 04 06 05 01 03 00 10 04 04   ................
| page 5 offset 16384
|      0: 0a 00 00 00 02 0f eb 00 0f eb 0f f4 00 00 00 00   ................
|   4064: 00 00 00 00 00 00 00 00 00 00 00 08 03 15 01 70   ...............p
|   4080: 67 73 7a 08 0b 03 1b 01 76 65 72 73 69 6f 6e 04   gsz.....version.
| page 6 offset 20480
|      0: 0d 00 00 00 03 0f f2 00 0f 00 00 00 00 00 00 00   ................
|   4080: 00 00 03 03 02 01 03 03 02 02 01 02 02 01 0c e9   ................
| end crash-dbe9b7614da103.db
}]} {}

do_catchsql_test 53.1 {
  WITH RECURSIVE c(x) AS (VALUES(1) UNION ALL SELECT x<>1 FROM c WHERE x<10)
    INSERT INTO t1(a) SELECT randomblob(3000) FROM c;
} {/*malformed database schema*/}

#-------------------------------------------------------------------------
reset_db
do_test 54.0 {
  sqlite3 db {}
  db deserialize [decode_hexdb {
| size 24576 pagesize 4096 filename crash-03a1855566d9ae.db
| page 1 offset 0
|      0: 53 51 4c 69 74 65 20 66 6f 72 6d 61 74 20 33 00   SQLite format 3.
|     16: 10 00 01 01 00 40 20 20 00 00 00 00 00 00 00 06   .....@  ........
|     32: 00 00 00 00 00 00 00 00 00 00 00 06 00 00 00 04   ................
|     48: 00 00 00 00 00 00 00 00 00 00 00 01 00 00 00 00   ................
|     96: 00 00 00 00 0d 00 00 00 06 0e 0f 00 0f aa 0f 53   ...............S
|    112: 0e e8 0e 8b 0e 33 0e 0f 00 00 00 00 00 00 00 00   .....3..........
|   3584: 00 00 00 00 00 00 00 00 00 00 00 00 00 00 00 22   ................
|   3600: 06 06 17 11 11 01 31 74 61 62 6c 65 62 62 62 62   ......1tablebbbb
|   3616: 06 43 52 45 41 54 45 20 54 41 42 4c 45 20 62 62   .CREATE TABLE bb
|   3632: 28 61 29 56 05 06 17 1f 1f 01 7d 74 61 62 6c 65   (a)V.......table
|   3648: 74 31 5f 63 2a 6e 66 69 67 74 31 5f 63 6f 6e 66   t1_c*nfigt1_conf
|   3664: 69 67 05 43 52 45 41 54 45 20 54 41 42 4c 45 20   ig.CREATE TABLE 
|   3680: 27 74 31 5f 63 6f 6e 66 69 67 27 28 6b 20 50 52   't1_config'(k PR
|   3696: 49 4d 41 52 59 20 4b 45 59 2c 20 76 29 20 57 49   IMARY KEY, v) WI
|   3712: 54 48 4f 55 54 20 52 4f 57 49 44 5b 04 07 17 21   THOUT ROWID[...!
|   3728: 21 01 81 01 74 61 62 6c 65 74 31 5f 64 6f 73 73   !...tablet1_doss
|   3744: 69 7a 65 74 31 5f 64 6f 63 73 69 7a 65 04 43 52   izet1_docsize.CR
|   3760: 45 41 54 45 20 54 41 42 4c 45 20 27 74 31 5f 64   EATE TABLE 't1_d
|   3776: 6f 63 73 69 7a 65 27 28 69 64 20 49 4e 54 45 47   ocsize'(id INTEG
|   3792: 45 52 20 50 52 49 4d 41 52 59 20 4b 45 59 2c 20   ER PRIMARY KEY, 
|   3808: 73 7a 20 42 4c 4f 42 29 69 03 07 17 19 19 01 81   sz BLOB)i.......
|   3824: 2d 74 61 62 6c 65 74 31 5f 69 64 78 74 31 5f 69   -tablet1_idxt1_i
|   3840: 64 78 03 43 52 45 41 54 45 20 54 41 42 4c 45 20   dx.CREATE TABLE 
|   3856: 27 74 31 5f 69 64 78 27 28 73 65 67 69 64 2c 20   't1_idx'(segid, 
|   3872: 74 65 72 6d 2c 20 70 67 6e 6f 2c 20 50 52 49 4d   term, pgno, PRIM
|   3888: 41 52 59 20 4b 45 59 28 73 65 67 69 64 2c 20 74   ARY KEY(segid, t
|   3904: 65 72 6d 29 29 20 57 49 54 48 4f 55 54 20 52 4f   erm)) WITHOUT RO
|   3920: 57 49 44 55 02 07 17 1b 1b 01 81 01 74 61 62 6c   WIDU........tabl
|   3936: 65 74 31 5f 64 61 74 61 74 31 5f 64 61 74 61 02   et1_datat1_data.
|   3952: 43 52 45 41 54 45 20 54 41 42 4c 45 20 27 74 31   CREATE TABLE 't1
|   3968: 5f 64 61 74 61 27 28 69 64 20 49 4e 54 45 47 45   _data'(id INTEGE
|   3984: 52 20 50 52 49 4d 41 52 59 20 4b 45 59 2c 20 62   R PRIMARY KEY, b
|   4000: 6c 6f 63 6b 20 42 4c 4f 42 29 54 01 07 17 11 11   lock BLOB)T.....
|   4016: 08 81 15 74 61 62 6c 65 74 31 74 31 43 52 45 41   ...tablet1t1CREA
|   4032: 54 45 20 56 49 52 54 55 41 4c 20 54 41 42 4c 45   TE VIRTUAL TABLE
|   4048: 20 74 31 20 55 53 49 4e 47 20 66 74 73 35 28 61    t1 USING fts5(a
|   4064: 2c 62 2c 70 72 65 66 69 78 3d 22 32 2c 32 2c 33   ,b,prefix=.2,2,3
|   4080: 2c 34 22 2c 20 63 6f 6e 74 65 6e 74 3d 22 22 29   ,4., content=..)
| page 2 offset 4096
|      0: 0d 0b 6a 00 37 09 4c 02 0f e7 09 4c 0f c6 0f a4   ..j.7.L....L....
|     16: 0f 88 0f 6d 0f 4b 0f 2c 0f 0e 0e ec 0e cd 0e ad   ...m.K.,........
|     32: 0e 8e 0e 6c 0e 4b 0e 29 0e 08 0d e6 0d c4 0d b5   ...l.K.)........
|     48: 0d 97 0d 76 0d 54 0d 31 0d 15 0c f3 0c d3 0c b5   ...v.T.1........
|     64: 0c 95 0c 73 0c 54 0c 32 0c 10 0b ee 0b cd 0b b0   ...s.T.2........
|     80: 0b 8d 0b 7e 0b 48 0b 2e 0b 0b 0a ef 0a cc 0a ad   ...~.H..........
|     96: 0a 8c 0a 6d 0a 4d 0a 2b 0a 0c 09 ec 09 ca 09 a8   ...m.M.+........
|    112: 09 86 09 63 0f f1 00 00 00 00 00 00 00 00 00 00   ...c............
|   2368: 00 00 00 00 00 00 00 00 00 00 00 00 15 0a 03 00   ................
|   2384: 30 00 00 00 01 01 03 35 00 03 01 01 12 02 01 12   0......5........
|   2400: 03 01 11 1c 8c 80 80 80 80 10 03 00 3e 00 00 00   ............>...
|   2416: 17 01 05 05 34 74 61 62 6c 03 02 03 01 04 77 68   ....4tabl.....wh
|   2432: 65 72 03 02 06 09 1b 8c 80 80 80 80 0f 03 00 3c   er.............<
|   2448: 00 00 00 16 05 34 66 74 73 34 03 02 02 01 04 6e   .....4fts4.....n
|   2464: 75 6d 62 03 06 01 04 09 1b 8c 80 80 80 80 0e 03   umb.............
|   2480: 00 3c 00 00 00 16 04 33 74 68 65 03 06 01 01 04   .<.....3the.....
|   2496: 01 03 77 68 65 03 02 04 04 0a 1b 8c 80 80 80 80   ..whe...........
|   2512: 0d 03 00 3c 00 00 00 16 04 33 6e 75 6d 03 06 01   ...<.....3num...
|   2528: 01 05 01 03 74 61 62 05 62 03 04 0a 19 8c 80 80   ....tab.b.......
|   2544: 80 80 0c 03 00 38 00 00 00 14 03 39 a7 68 03 02   .....8.....9.h..
|   2560: 04 10 04 33 66 74 73 03 02 02 04 07 18 8c 80 80   ...3fts.........
|   2576: 80 80 0b 03 00 36 00 00 00 13 03 32 74 61 03 02   .....6.....2ta..
|   2592: 03 02 01 68 03 06 01 01 04 04 07 1b 8c 80 80 80   ...h............
|   2608: 80 0a 03 00 3c 00 00 00 16 03 32 6e 75 03 06 01   ....<.....2nu...
|   2624: 01 05 01 02 6f 66 03 06 01 01 06 04 09 19 8c 80   ....of..........
|   2640: 80 80 80 09 03 00 38 00 00 00 14 03 32 66 74 03   ......8.....2ft.
|   2656: 02 02 01 02 69 73 03 06 01 01 03 04 07 18 8c 80   ....is..........
|   2672: 80 80 80 08 03 00 36 00 00 00 13 02 31 74 03 08   ......6.....1t..
|   2688: 03 01 01 04 01 01 77 03 02 04 04 09 1a 8c 80 80   ......w.........
|   2704: 80 80 07 03 00 3a ff 00 00 15 02 31 6e 03 08 01   .....:.....1n...
|   2720: 01 02 05 01 01 6f 03 06 01 01 06 04 09 18 8c 80   .....o..........
|   2736: 80 80 80 06 03 00 36 00 00 00 13 04 02 31 66 03   ......6......1f.
|   2752: 02 02 01 01 69 03 06 01 01 03 05 06 1c 8c 80 80   ....i...........
|   2768: 80 80 05 03 00 3e 00 00 00 17 04 30 74 68 65 03   .....>.....0the.
|   2784: 06 01 01 04 01 05 77 68 65 72 65 03 02 04 0a 15   ......where.....
|   2800: 8c 80 80 80 80 04 03 00 30 00 00 00 11 01 01 06   ........0.......
|   2816: 06 30 74 61 62 6c cc 03 02 03 07 1c 8c 80 80 80   .0tabl..........
|   2832: 80 03 03 00 3e 00 00 00 17 07 30 6e 75 6d 62 65   ....>.....0numbe
|   2848: 72 03 06 01 01 05 01 02 6f 66 03 06 04 0d 13 8c   r.......of......
|   2864: 80 80 80 80 02 03 00 2c 00 00 00 0f 01 01 03 02   .......,........
|   2880: 30 6e 03 06 01 01 02 07 1b 8c 80 80 80 80 01 03   0n..............
|   2896: 00 3c 00 00 00 16 08 30 66 74 73 34 61 75 78 03   .<.....0fts4aux.
|   2912: 02 02 01 02 69 73 03 06 04 0c 00 00 00 14 2a 00   ....is........*.
|   2928: 00 00 01 01 02 24 00 02 01 01 12 02 01 12 08 88   .....$..........
|   2944: 80 80 80 80 12 03 00 16 00 00 00 05 02 1c 88 80   ................
|   2960: 80 80 80 11 03 00 3e 00 00 00 17 05 34 72 6f 77   ......>.....4row
|   2976: 73 02 06 01 01 05 01 04 74 68 65 72 02 02 04 0b   s.......ther....
|   2992: 15 88 80 80 80 80 10 03 00 30 00 00 00 11 02 01   .........0......
|   3008: 01 07 05 34 62 65 74 77 02 02 04 08 1b 88 80 80   ...4betw........
|   3024: 80 80 0f 03 00 3c 00 00 00 16 04 04 33 72 6f 77   .....<......3row
|   3040: 02 06 01 01 05 01 03 74 68 65 02 08 05 0a 1b 88   .......the......
|   3056: 80 80 80 80 0e 03 05 0c 00 00 00 16 01 01 02 04   ................
|   3072: 33 61 72 65 02 02 03 01 03 62 65 74 02 02 07 08   3are.....bet....
|   3088: 1b 88 80 80 80 80 0d 03 00 3c 00 00 00 16 03 32   .........<.....2
|   3104: 84 68 02 08 02 01 01 07 00 04 33 61 6e 64 02 06   .h........3and..
|   3120: 04 0a 1b 88 80 80 80 80 0c 03 00 3c 00 00 00 16   ...........<....
|   3136: 03 32 69 6e 02 06 01 01 06 01 02 72 6f 02 06 01   .2in.......ro...
|   3152: 01 05 04 09 18 88 80 80 80 80 0b 03 00 36 00 00   .............6..
|   3168: 00 13 02 03 32 61 72 02 02 03 01 02 62 65 02 02   ....2ar.....be..
|   3184: 04 05 07 1b 88 80 80 80 80 0a 03 00 3c 00 00 00   ............<...
|   3200: 16 02 31 74 02 08 02 01 01 07 00 03 32 61 6e 02   ..1t........2an.
|   3216: 06 01 01 04 09 19 88 80 80 80 80 09 03 00 38 00   ..............8.
|   3232: 00 00 14 02 31 6e 02 06 01 01 03 01 01 72 02 06   ....1n.......r..
|   3248: 01 01 05 04 08 17 88 80 80 80 80 08 03 00 34 00   ..............4.
|   3264: 00 00 12 02 31 62 02 02 04 01 01 69 02 06 01 01   ....1b.....i....
|   3280: 06 04 06 19 88 80 80 80 80 07 03 00 38 00 00 00   ............8...
|   3296: 14 04 02 31 32 02 02 05 01 01 61 02 08 03 01 01   ...12.....a.....
|   3312: 02 05 06 1b 88 80 80 80 80 06 03 00 3c 00 00 00   ............<...
|   3328: 16 06 30 74 68 65 72 65 02 12 02 00 02 31 31 02   ..0there.....11.
|   3344: 06 11 01 04 0a 15 88 80 80 80 80 05 03 00 30 00   ..............0.
|   3360: 00 00 11 01 01 05 04 30 74 68 65 02 06 01 01 07   .......0the.....
|   3376: 07 1c 88 80 80 80 80 04 03 00 3e 00 00 00 17 01   ..........>.....
|   3392: 01 06 02 30 6e 02 06 01 01 03 01 04 72 6f 77 73   ...0n.......rows
|   3408: 02 06 07 08 1b 88 80 80 80 80 03 03 00 3c 00 00   .............<..
|   3424: 00 16 08 30 62 65 74 77 65 65 6e 02 02 04 01 02   ...0between.....
|   3440: 69 6e 02 06 04 0c 1a 88 80 80 80 80 02 03 00 3a   in.............:
|   3456: 08 f0 00 15 04 30 61 6e 64 02 06 01 01 02 02 02   .....0and.......
|   3472: 72 65 02 02 03 04 0a 17 88 80 80 80 80 01 03 00   re..............
|   3488: 34 00 00 00 12 02 30 31 02 06 01 01 04 01 01 32   4.....01.......2
|   3504: 02 02 06 04 08 08 84 80 80 80 80 12 03 00 16 00   ................
|   3520: 00 00 05 04 1b 84 80 80 80 80 11 03 00 3c 00 00   .............<..
|   3536: 00 16 05 34 74 61 62 6c 01 06 01 01 05 02 03 65   ...4tabl.......e
|   3552: 72 6d 01 02 04 0b 1b 84 80 80 80 80 10 03 00 3c   rm.............<
|   3568: 00 00 00 16 05 34 65 61 63 68 01 02 03 01 04 70   .....4each.....p
|   3584: 72 65 73 01 02 05 04 09 1a 84 80 80 80 80 0f 03   res.............
|   3600: 00 3a 00 00 00 15 04 33 74 65 72 01 02 04 02 02   .:.....3ter.....
|   3616: 68 65 01 06 01 01 03 04 08 1b 84 80 80 80 80 0e   he..............
|   3632: 03 00 3c 00 00 00 16 04 33 70 72 65 01 02 05 01   ..<.....3pre....
|   3648: 03 74 61 62 01 06 01 01 05 04 08 1a 84 80 80 80   .tab............
|   3664: 80 0d 03 00 3a 00 00 00 15 04 33 66 6f 72 01 02   ....:.....3for..
|   3680: 02 02 02 74 73 01 06 01 01 04 04 08 1b 84 80 80   ...ts...........
|   3696: 80 80 0c 03 00 3c 00 00 00 16 03 32 74 68 01 06   .....<.....2th..
|   3712: 01 01 03 00 04 33 65 61 63 01 02 03 04 09 18 84   .....3eac.......
|   3728: 80 80 80 80 0b 03 00 36 00 00 00 13 03 32 74 61   .......6.....2ta
|   3744: 01 06 01 01 05 02 01 65 00 02 04 04 09 19 84 80   .......e........
|   3760: 80 80 80 0a 03 00 38 00 00 00 14 03 32 69 6e 01   ......8.....2in.
|   3776: 06 01 01 02 01 02 70 72 01 02 05 04 09 18 84 80   ......pr........
|   3792: 80 80 80 09 03 00 36 00 00 00 13 03 32 66 6f 01   ......6.....2fo.
|   3808: 02 02 02 01 74 01 06 01 01 04 04 07 1b 84 80 80   ....t...........
|   3824: 80 80 08 03 00 3c 00 00 00 16 02 31 74 01 0a 04   .....<.....1t...
|   3840: 01 01 03 04 00 03 32 65 61 01 02 03 04 0a 17 84   ......2ea.......
|   3856: 80 80 80 80 07 03 00 34 00 00 00 12 02 31 69 01   .......4.....1i.
|   3872: 06 01 01 02 de 01 70 01 02 05 04 08 18 84 80 80   ......p.........
|   3888: 80 80 06 03 00 36 00 00 00 13 02 31 65 01 02 03   .....6.....1e...
|   3904: 01 01 66 01 08 02 01 01 04 04 06 1b 84 80 80 80   ..f.............
|   3920: 80 05 03 00 3c 00 00 00 16 05 30 74 65 72 6d 01   ....<.....0term.
|   3936: 02 04 02 02 68 65 01 06 01 01 03 04 09 14 84 80   ....he..........
|   3952: 80 80 80 04 03 00 2e 00 00 00 10 06 30 74 61 62   ............0tab
|   3968: 6c 65 01 06 01 01 05 04 15 84 80 80 80 80 03 03   le..............
|   3984: 00 30 00 00 00 11 02 08 30 70 72 65 73 65 6e 74   .0......0present
|   4000: 01 02 05 05 1b 84 80 80 80 80 02 03 00 3c 00 00   .............<..
|   4016: 00 16 04 30 66 74 73 01 06 01 01 04 01 02 69 6e   ...0fts.......in
|   4032: 01 06 01 01 04 0a 1a 84 80 80 80 80 01 03 00 3a   ...............:
|   4048: 00 00 00 15 05 30 65 61 63 68 00 f2 03 01 03 66   .....0each.....f
|   4064: 6f 72 01 02 02 04 09 06 01 03 00 12 03 0b 0f 00   or..............
|   4080: 00 08 8c 80 80 80 80 11 03 00 16 00 00 00 05 04   ................
| page 3 offset 8192
|      0: 0a 00 00 00 32 0e 4f 00 0f fa 0f f1 0f e9 0f e1   ....2.O.........
|     16: 0f d8 0f d1 0f c9 0f c1 0f b9 0f b1 0f a9 0f a0   ................
|     32: 0f 98 0f 90 0f 87 0f 80 0f 78 0f 71 0f 68 0f 5f   .........x.q.h._
|     48: 0f 56 0f 4d 0f 41 0f 38 0f 2f 0f 26 0f 1d 0f 13   .V.M.A.8./.&....
|     64: 0f 0a 0f 01 0e f7 0e ee 0e e6 0e dd 0e d6 0e cd   ................
|     80: 0e c3 0e ba 0e b0 0e a8 0e 9f 0e 96 0e 8e 0e 85   ................
|     96: 0e 7c 0e 73 0e 6a 0e 60 0e 58 0e 4f 00 00 00 00   .|.s.j.`.X.O....
|   3648: 00 00 00 00 00 00 00 00 00 00 00 00 00 00 00 08   ................
|   3664: 04 01 10 01 03 34 74 20 07 04 01 0e 01 03 34 1e   .....4t ......4.
|   3680: 09 04 01 12 01 03 33 74 68 1c 08 04 01 10 01 03   ......3th.......
|   3696: 33 6e 1a 08 04 01 10 01 03 32 77 18 08 04 01 10   3n.......2w.....
|   3712: 01 03 32 74 16 08 04 01 10 01 03 32 6e 14 07 04   ..2t.......2n...
|   3728: 01 0e 01 03 32 12 08 04 01 10 01 03 31 74 10 08   ....2.......1t..
|   3744: 04 01 10 01 03 31 6e 0e 07 04 01 0e 01 03 31 0c   .....1n.......1.
|   3760: 09 04 01 12 01 03 30 74 68 0a 08 04 01 10 01 03   ......0th.......
|   3776: 30 74 08 09 04 01 12 01 03 30 6e 75 06 08 04 01   0t.......0nu....
|   3792: 10 01 03 30 6e 04 06 04 01 0c 01 05 52 08 04 01   ...0n.......R...
|   3808: 10 01 02 34 72 22 07 04 01 0e 01 02 34 20 08 04   ...4r.......4 ..
|   3824: 01 10 01 02 33 72 1e 09 04 01 12 01 02 33 61 72   ....3r.......3ar
|   3840: 1c 08 04 01 10 01 02 32 74 1a 08 04 01 10 b3 02   .......2t.......
|   3856: 32 69 18 09 04 01 12 01 02 32 61 72 16 08 04 01   2i.......2ar....
|   3872: 10 01 02 31 74 14 08 04 01 10 01 02 31 6e 12 08   ...1t.......1n..
|   3888: 04 01 10 01 02 31 62 10 08 04 01 10 01 02 31 32   .....1b.......12
|   3904: 0e 0b 04 01 16 01 02 30 74 68 65 72 0c 08 04 01   .......0ther....
|   3920: 10 01 02 30 74 0a 08 04 01 10 01 02 30 6e 08 08   ...0t.......0n..
|   3936: 04 01 10 01 02 30 62 06 08 04 01 10 01 02 30 61   .....0b.......0a
|   3952: 04 06 04 01 0c 01 02 02 07 04 09 10 01 34 74 22   .............4t.
|   3968: 06 04 09 0e 01 34 20 08 04 09 12 01 33 74 65 1e   .....4 .....3te.
|   3984: 07 04 09 10 01 33 70 1c 07 f4 09 11 01 33 66 1a   .....3p......3f.
|   4000: 08 04 09 12 01 32 74 68 18 07 04 09 10 01 32 e4   .....2th......2.
|   4016: 16 07 04 09 10 01 32 69 14 07 04 09 10 01 32 66   ......2i......2f
|   4032: 12 07 04 09 10 01 31 74 10 07 04 09 10 01 31 69   ......1t......1i
|   4048: 0e 06 04 09 0e 01 31 0c 08 04 09 12 01 30 74 65   ......1......0te
|   4064: 0a 07 04 09 10 01 30 74 08 07 04 09 10 01 30 70   ......0t......0p
|   4080: 06 08 04 09 12 01 30 66 74 04 05 04 09 0c 01 02   ......0ft.......
| page 4 offset 12288
|      0: 0d 00 00 00 03 0f eb 00 0f f9 0f f2 0f eb 00 00   ................
|   4064: 00 00 00 00 00 00 00 00 00 00 00 05 03 03 00 10   ................
|   4080: 03 05 05 02 03 00 10 04 06 05 01 03 00 10 04 04   ................
| page 5 offset 16384
|      0: 0a 00 00 00 02 0f eb 00 0f eb 0f f4 00 00 00 00   ................
|   4064: 00 00 00 00 00 00 00 00 00 00 00 08 03 15 01 70   ...............p
|   4080: 67 73 7a 18 0b 03 1b 01 76 65 72 73 69 6f 6e 04   gsz.....version.
| page 6 offset 20480
|      0: 0d 00 00 00 03 0f f2 00 0f fc 0f f7 0f f2 00 00   ................
|   4080: 00 00 23 03 02 01 03 03 02 02 01 02 02 00 f2 09   ..#.............
| end crash-03a1855566d9ae.db
}]} {}

do_catchsql_test 54.1 {
  SELECT rowid==-1 FROM t1('t*');
} {/*malformed database schema*/}

#-------------------------------------------------------------------------
reset_db
do_test 55.0 {
  sqlite3 db {}
  db deserialize [decode_hexdb {
| size 32768 pagesize 4096 filename crash-b366b5ac0d3887.db
| page 1 offset 0
|      0: 53 51 4c 69 74 65 20 66 6f 72 6d 61 74 20 33 00   SQLite format 3.
|     16: 10 00 01 01 00 40 20 20 00 00 00 00 00 00 00 08   .....@  ........
|     32: 00 00 00 02 00 00 00 05 90 00 00 09 00 00 00 04   ................
|     96: 00 00 00 00 0d 0f c7 00 07 0d 92 00 0f 8d 0f 36   ...............6
|    112: 0e cb 0e 6b 0e 0e 0d b6 0d 92 0d 92 00 00 00 00   ...k............
|   3472: 00 00 22 08 06 17 11 11 01 31 74 61 62 6c 65 74   .........1tablet
|   3488: 32 74 32 08 43 52 45 41 54 45 20 54 41 42 4c 45   2t2.CREATE TABLE
|   3504: 20 74 32 28 78 29 56 07 06 17 1f 1f 01 7d 74 61    t2(x)V.......ta
|   3520: 62 6c 65 74 31 5f 63 6f 6e 66 69 67 74 31 5f 63   blet1_configt1_c
|   3536: 6f 6e 66 69 67 07 43 52 45 41 54 45 20 54 41 42   onfig.CREATE TAB
|   3552: 4c 45 20 27 74 31 5f 63 6f 6e 66 69 67 27 28 6b   LE 't1_config'(k
|   3568: 20 50 52 49 4d 41 52 59 20 4b 45 59 2c 20 76 29    PRIMARY KEY, v)
|   3584: 20 57 49 54 48 4f 55 54 20 52 4f 57 49 44 5b 06    WITHOUT ROWID[.
|   3600: 07 17 21 21 01 81 01 74 61 62 6c 65 74 31 5f 64   ..!!...tablet1_d
|   3616: 6f 63 73 69 7a 65 74 31 5f 64 6f 63 73 69 7a 65   ocsizet1_docsize
|   3632: 06 43 52 45 41 54 45 20 54 41 42 4c 45 20 27 74   .CREATE TABLE 't
|   3648: 31 5f 64 6f 63 73 69 7a 65 27 28 69 64 20 49 4e   1_docsize'(id IN
|   3664: 54 45 47 45 52 20 50 52 49 4d 41 52 59 20 4b 45   TEGER PRIMARY KE
|   3680: 59 2c 20 73 7a 20 43 4c 4f 42 29 5e 05 07 17 21   Y, sz CLOB)^...!
|   3696: 21 01 81 07 74 61 62 6c 65 74 31 5f 63 6f 6e 74   !...tablet1_cont
|   3712: 65 6e 74 74 31 5f 63 6f 6e 74 65 6e 74 05 43 52   entt1_content.CR
|   3728: 45 41 54 45 20 54 41 42 4c 45 20 27 74 31 5f 63   EATE TABLE 't1_c
|   3744: 6f 6e 74 65 6e 74 27 28 69 64 20 49 4e 54 45 47   ontent'(id INTEG
|   3760: 45 52 20 50 52 49 4d 41 52 59 20 4b 45 59 2c 20   ER PRIMARY KEY, 
|   3776: 63 30 2c 20 63 31 2c 20 63 32 29 69 04 07 17 19   c0, c1, c2)i....
|   3792: 19 01 81 2d 74 61 62 6c 65 74 32 5f 69 64 78 74   ...-tablet2_idxt
|   3808: 31 5f 69 64 78 04 43 52 45 41 54 45 20 54 41 42   1_idx.CREATE TAB
|   3824: 4c 45 20 27 74 31 5f 69 64 78 27 28 73 65 67 69   LE 't1_idx'(segi
|   3840: 64 2c 20 74 65 72 6d 2c 20 70 67 6e 6f 2c 20 50   d, term, pgno, P
|   3856: 52 49 4d 41 52 59 20 4b 45 59 28 73 65 67 69 64   RIMARY KEY(segid
|   3872: 2c 20 74 65 72 6d 29 29 20 57 49 54 48 4f 55 54   , term)) WITHOUT
|   3888: 20 52 4f 57 49 44 55 03 07 17 1b 1b 01 81 01 74    ROWIDU........t
|   3904: 61 62 6c 65 74 31 5f 64 61 74 61 74 31 5f 64 61   ablet1_datat1_da
|   3920: 74 61 03 43 52 45 41 54 45 20 54 41 42 4c 45 20   ta.CREATE TABLE 
|   3936: 27 74 31 5f 64 61 74 61 27 28 69 64 20 49 4e 54   't1_data'(id INT
|   3952: 45 47 45 52 20 50 52 49 4d 42 52 59 20 4b 45 59   EGER PRIMBRY KEY
|   3968: 2c 20 62 6c 6f 63 6b 20 42 4c 4f 42 29 38 02 06   , block BLOB)8..
|   3984: 17 11 11 08 5f 74 61 62 6c 65 74 31 74 31 43 52   ...._tablet1t1CR
|   4000: 45 41 54 45 20 56 49 52 54 55 41 4c 20 54 41 42   EATE VIRTUAL TAB
|   4016: 4c 45 20 74 31 20 55 53 49 4e 47 20 66 74 73 35   LE t1 USING fts5
|   4032: 28 61 2c 62 2c 63 29 00 00 00 39 00 00 00 00 00   (a,b,c)...9.....
| page 3 offset 8192
|      0: 0d 00 00 00 03 0c 94 00 0f e6 0f ef 0c 94 00 00   ................
|   3216: 00 00 00 00 86 4a 84 80 80 80 80 01 04 00 8d 18   .....J..........
|   3232: 00 00 03 2b 02 30 30 01 02 06 01 02 06 01 02 06   ...+.00.........
|   3248: 1f 02 03 01 02 03 01 02 03 01 08 32 30 31 36 30   ...........20160
|   3264: 36 30 39 01 02 07 01 02 07 01 02 07 01 01 34 01   609...........4.
|   3280: 02 05 01 02 05 01 02 05 01 01 35 01 02 04 01 02   ..........5.....
|   3296: 04 01 02 04 02 07 30 30 30 30 30 30 30 1c 02 04   ......0000000...
|   3312: 01 02 04 01 02 04 01 06 62 69 6e 61 72 79 03 06   ........binary..
|   3328: 01 02 02 03 06 01 02 02 03 06 01 02 02 03 06 01   ................
|   3344: 02 02 03 06 01 02 02 03 06 01 02 02 03 06 01 02   ................
|   3360: 02 03 06 01 02 02 03 06 01 02 02 03 06 01 02 02   ................
|   3376: 03 06 01 02 02 03 06 01 02 02 01 08 63 6f 6d 70   ............comp
|   3392: 69 6c 65 72 01 02 02 01 02 02 f1 02 02 01 06 64   iler...........d
|   3408: 62 73 74 61 74 07 02 03 01 02 03 01 02 03 02 04   bstat...........
|   3424: 65 62 75 67 04 02 02 01 02 02 01 02 02 01 06 65   ebug...........e
|   3440: 6e 61 62 6c 65 07 02 02 01 02 02 01 02 02 01 02   nable...........
|   3456: 02 01 02 02 01 02 02 01 02 02 01 02 02 01 02 02   ................
|   3472: 01 02 02 01 02 02 01 02 02 01 02 02 01 02 02 01   ................
|   3488: 02 02 01 02 02 01 02 02 01 02 02 01 02 02 01 02   ................
|   3504: 02 01 02 02 02 08 78 74 65 6e 73 69 6f 6e 1f 02   ......xtension..
|   3520: 04 01 02 04 01 02 04 01 04 66 74 73 34 0a 02 03   .........fts4...
|   3536: 01 02 03 01 02 03 04 01 35 0d 02 03 01 02 03 01   ........5.......
|   3552: 02 03 01 03 67 63 63 01 02 03 01 02 03 01 02 03   ....gcc.........
|   3568: 02 06 65 6f 70 6f 6c 79 10 02 03 01 02 03 01 02   ..eopoly........
|   3584: 03 01 05 6a 73 6f 6e 31 13 02 03 01 02 03 01 02   ...json1........
|   3600: 03 01 04 6c 6f 61 64 1f 02 03 01 02 03 01 02 03   ...load.........
|   3616: 01 03 6d 61 78 1c 02 02 01 02 02 01 02 02 02 05   ..max...........
|   3632: 65 6d 6f 72 79 1c 02 03 01 02 03 01 02 03 04 04   emory...........
|   3648: 73 79 73 35 16 02 03 01 02 03 01 02 03 01 06 6e   sys5...........n
|   3664: 6f 63 61 73 65 02 06 01 02 02 03 06 01 02 02 03   ocase...........
|   3680: 06 01 02 02 03 06 01 02 02 03 06 01 02 02 03 06   ................
|   3696: 01 02 02 03 06 01 02 02 03 06 01 02 02 03 06 01   ................
|   3712: 02 02 03 06 01 02 02 03 06 01 02 02 03 06 01 02   ................
|   3728: 02 01 04 6f 6d 69 74 1f 02 02 01 02 02 01 02 02   ...omit.........
|   3744: 01 05 72 74 72 65 65 19 02 03 01 02 03 01 02 03   ..rtree.........
|   3760: 04 02 69 6d 01 06 01 02 02 03 06 01 02 02 03 06   ..im............
|   3776: 01 02 02 03 06 01 02 02 03 06 01 02 02 03 06 01   ................
|   3792: 02 02 03 06 01 02 02 03 06 01 02 02 03 06 01 02   ................
|   3808: 02 03 06 01 02 02 03 06 01 02 02 03 06 01 02 02   ................
|   3824: 01 0a 74 68 72 65 61 64 73 61 66 65 22 02 02 01   ..threadsafe....
|   3840: 02 02 01 02 02 01 04 76 74 61 62 07 02 04 01 02   .......vtab.....
|   3856: 04 01 02 04 01 01 78 01 06 01 01 02 01 06 01 01   ......x.........
|   3872: 02 01 06 01 01 02 01 06 01 01 02 01 06 01 01 02   ................
|   3888: 01 06 01 01 02 01 06 01 01 02 01 06 01 01 02 01   ................
|   3904: 06 01 01 02 01 06 01 01 02 01 06 01 01 02 01 06   ................
|   3920: 01 01 02 01 06 01 01 02 01 06 01 01 02 01 06 01   ................
|   3936: 01 02 01 06 01 01 02 01 06 01 01 02 01 06 01 01   ................
|   3952: 02 01 06 01 01 02 01 06 01 01 02 08 d6 01 01 02   ................
|   3968: 01 06 01 01 02 01 06 01 01 02 01 06 01 01 02 01   ................
|   3984: 06 01 01 02 01 06 01 01 02 01 06 01 01 02 01 06   ................
|   4000: 01 01 02 01 06 01 01 02 01 06 01 01 02 01 06 01   ................
|   4016: 01 02 01 06 01 01 02 01 06 01 01 02 01 06 01 01   ................
|   4032: 02 01 06 01 01 02 01 06 01 01 02 04 15 13 0c 0c   ................
|   4048: 12 44 13 11 0f 47 13 0f 0c 0e 11 10 0f 0e 10 0f   .D...G..........
|   4064: 44 0f 10 40 15 0f 07 01 03 00 14 24 5a 24 24 0f   D..@.......$Z$$.
|   4080: 0a 03 00 24 00 00 00 00 01 01 01 00 01 01 01 01   ...$............
| page 4 offset 12288
|      0: 0a 00 00 00 01 0f fa 00 0f fa 00 00 00 00 00 00   ................
|   4080: 00 00 00 00 00 00 00 00 00 00 05 04 09 0c 01 02   ................
| page 5 offset 16384
|      0: 0d 00 00 00 24 0c 0a 00 0f d8 0f af 0f 86 0f 74   ....$..........t
|     16: 0f 61 0f 4e 0f 2f 0f 0f 0e ef 0e d7 0e be 0e a5   .a.N./..........
|     32: 0e 8d 0e 74 0e 5b 0e 40 0e 24 0e 08 0d ef 0d d5   ...t.[.@.$......
|     48: 0d bb 0d a0 0d 84 0d 68 0d 4f 0d 35 0d 1b 0c fb   .......h.O.5....
|     64: 0c da 0c b9 0c 99 0c 78 0c 57 0c 3e 00 00 00 00   .......x.W.>....
|   3072: 00 00 00 00 00 00 00 00 00 00 18 24 05 00 25 0f   ...........$..%.
|   3088: 19 54 48 52 45 41 44 53 41 46 45 3d 30 58 42 49   .THREADSAFE=0XBI
|   3104: 4e 41 52 59 18 23 05 00 25 0f 19 54 48 52 45 41   NARY.#..%..THREA
|   3120: 44 53 41 46 45 3d 30 58 4e 4f 43 41 53 45 17 22   DSAFE=0XNOCASE..
|   3136: 05 00 25 0f 17 54 48 52 45 41 44 53 41 46 45 3d   ..%..THREADSAFE=
|   3152: 30 58 52 54 52 49 4d 1f 20 f5 00 33 0f 19 4f 4d   0XRTRIM. ..3..OM
|   3168: 49 54 20 4c 4f 41 44 20 45 58 54 45 4e 53 49 4f   IT LOAD EXTENSIO
|   3184: 4e 58 42 49 4e 41 52 59 1f 20 05 00 33 0f 19 4f   NXBINARY. ..3..O
|   3200: 4d 49 54 20 4c 4f 41 44 20 45 58 54 45 4e 53 49   MIT LOAD EXTENSI
|   3216: 4f 4e 58 4e 4f 43 41 53 45 1e 1f 05 00 33 0f 17   ONXNOCASE....3..
|   3232: 4f 4d 49 54 20 4c 4f 41 44 20 45 58 54 45 4e 53   OMIT LOAD EXTENS
|   3248: 49 4f 4e 58 52 54 52 49 4d 1f 1e 05 00 33 0f 19   IONXRTRIM....3..
|   3264: 4c 41 58 20 4d 45 4d 4f 52 59 3d 35 30 30 30 30   LAX MEMORY=50000
|   3280: 30 30 30 58 42 49 4e 41 52 59 1f 1d 05 00 33 0f   000XBINARY....3.
|   3296: 19 4d 41 58 20 4d 45 4d 4f 52 59 3d 35 30 30 30   .MAX MEMORY=5000
|   3312: 30 30 30 30 58 4e 4f 43 41 53 45 1e 1c 05 00 33   0000XNOCASE....3
|   3328: 0f 17 4d 41 58 20 4d 45 4d 4f 52 59 3d 35 30 30   ..MAX MEMORY=500
|   3344: 30 30 30 30 30 58 52 54 52 49 4d 18 1b 05 00 25   00000XRTRIM....%
|   3360: 0f 19 45 4e 41 42 4c 45 20 52 54 52 45 45 58 42   ..ENABLE RTREEXB
|   3376: 49 4e 41 52 59 18 1a 05 00 25 0f 19 45 4e 41 42   INARY....%..ENAB
|   3392: 4c 45 20 52 54 52 45 45 58 4e 4f 43 41 53 45 17   LE RTREEXNOCASE.
|   3408: 19 05 00 25 0f 17 45 4e 41 42 4c 45 20 52 54 52   ...%..ENABLE RTR
|   3424: 45 45 58 52 54 52 49 4d 1a 18 05 00 29 0f 19 45   EEXRTRIM....)..E
|   3440: 4e 41 42 4c 45 20 4d 45 4d 53 59 53 35 58 42 49   NABLE MEMSYS5XBI
|   3456: 4e 41 52 59 1a 17 05 00 29 0f 19 45 4e 41 42 4c   NARY....)..ENABL
|   3472: 45 20 4d 45 4d 53 59 53 35 58 4e 4f 43 41 53 45   E MEMSYS5XNOCASE
|   3488: 19 16 05 00 29 0f 17 45 4e 41 42 4c 45 20 4d 45   ....)..ENABLE ME
|   3504: 4d 53 59 53 35 58 52 54 52 49 4d 18 15 05 00 25   MSYS5XRTRIM....%
|   3520: 0f 19 45 4e 41 42 4c 45 20 4a 53 4f 4e 31 58 42   ..ENABLE JSON1XB
|   3536: 49 4e 41 52 59 18 14 05 00 25 0f 30 45 4e 41 42   INARY....%.0ENAB
|   3552: 4c 45 20 4a 53 4f 4e 31 58 4e 4f 43 41 53 45 17   LE JSON1XNOCASE.
|   3568: 13 05 00 25 0f 17 45 4e 41 42 4c 45 20 4a 53 4f   ...%..ENABLE JSO
|   3584: 4e 31 58 52 54 52 49 4d 1a 12 05 00 29 0f 19 45   N1XRTRIM....)..E
|   3600: 4e 41 42 4c 45 20 47 45 4f 50 4f 4c 59 58 42 49   NABLE GEOPOLYXBI
|   3616: 4e 41 52 59 1a 11 05 00 29 0f 19 45 4e 41 42 4c   NARY....)..ENABL
|   3632: 45 20 47 45 4f 50 4f 4c 59 58 4e 4f 43 41 53 45   E GEOPOLYXNOCASE
|   3648: 19 10 05 00 29 0f 17 45 4e 41 42 4c 45 20 47 45   ....)..ENABLE GE
|   3664: 4f 50 4f 4c 59 58 52 54 52 49 4d 17 0f 05 00 23   OPOLYXRTRIM....#
|   3680: 0f 19 45 4e 41 42 4c 45 20 46 54 53 35 58 42 49   ..ENABLE FTS5XBI
|   3696: 4e 41 52 59 17 0e 05 00 23 0f 19 45 4e 41 42 4c   NARY....#..ENABL
|   3712: 45 20 46 54 53 35 58 4e 4f 43 41 53 45 16 0d 05   E FTS5XNOCASE...
|   3728: 00 23 0f 17 45 4f 41 42 4c 45 20 46 54 53 35 58   .#..EOABLE FTS5X
|   3744: 52 54 52 49 4d 17 0c 05 00 23 0f 19 45 4e 41 42   RTRIM....#..ENAB
|   3760: 4c 45 20 46 54 53 34 58 42 49 4e 41 52 59 17 0b   LE FTS4XBINARY..
|   3776: 05 00 23 0f 19 45 4e 41 42 4c 45 20 46 54 53 34   ..#..ENABLE FTS4
|   3792: 58 4e 4f 43 41 53 45 16 0a 05 00 23 0f 17 45 4e   XNOCASE....#..EN
|   3808: 41 42 4c 45 20 46 54 53 34 58 52 54 52 49 4d 1e   ABLE FTS4XRTRIM.
|   3824: 09 05 00 31 0f 19 45 4e 41 42 4c 45 20 44 42 53   ...1..ENABLE DBS
|   3840: 54 41 54 20 56 54 31 42 58 42 49 4e 41 52 59 1e   TAT VT1BXBINARY.
|   3856: 08 05 00 31 0f 19 45 4e 41 42 4c 45 20 44 42 53   ...1..ENABLE DBS
|   3872: 54 41 54 20 56 54 41 42 58 4e 4f 43 41 53 45 1d   TAT VTABXNOCASE.
|   3888: 07 05 00 31 0f 17 45 4e 41 42 4c 45 20 44 42 53   ...1..ENABLE DBS
|   3904: 54 41 54 20 56 54 41 42 58 52 54 52 49 4d 11 06   TAT VTABXRTRIM..
|   3920: 05 00 17 0f 19 44 45 42 55 47 58 42 49 4e 41 52   .....DEBUGXBINAR
|   3936: 59 11 15 05 00 17 0f 19 44 45 42 55 47 58 4e 4f   Y.......DEBUGXNO
|   3952: 43 41 53 45 10 04 05 00 17 0f 17 44 45 42 55 47   CASE.......DEBUG
|   3968: 58 42 54 52 49 4d 27 03 05 00 43 0f 19 43 4f 4d   XBTRIM'...C..COM
|   3984: 50 49 4c 45 52 3d 67 63 63 2d 35 2e 34 2e 30 20   PILER=gcc-5.4.0 
|   4000: 32 30 31 36 30 36 30 39 58 42 49 4e 41 52 59 27   20160609XBINARY'
|   4016: 02 05 00 43 0f 19 43 4f 4d 50 49 4c 45 52 3d 67   ...C..COMPILER=g
|   4032: 63 63 2d 35 2e 34 2e 30 20 32 30 31 36 30 36 30   cc-5.4.0 2016060
|   4048: 39 58 4e 4f 43 41 53 45 26 01 05 00 43 0f 17 43   9XNOCASE&...C..C
|   4064: 4f 4d 50 49 4c 45 52 3d 67 63 63 2d 35 2e 34 2e   OMPILER=gcc-5.4.
|   4080: 30 20 32 30 31 36 30 36 30 39 58 52 54 52 49 4d   0 20160609XRTRIM
| page 6 offset 20480
|      0: 0d 00 00 00 24 0e e0 00 0f f8 0f f0 0f e8 0f e0   ....$...........
|     16: 0f d8 0f d0 0f c8 0f c0 0f b8 0f b0 0f a8 0f a0   ................
|     32: 0f 98 0f 90 0f 88 0f 80 0f 78 0f 70 1f 68 0f 60   .........x.p.h.`
|     48: 0f 58 0f 50 0f 48 0f 40 0f 38 0f 30 0f 28 0f 20   .X.P.H.@.8.0.(. 
|     64: 0f 18 0f 10 0f 08 0f 00 0e f8 0e f0 0e e8 0e e0   ................
|   3808: 07 24 03 00 12 02 01 01 06 23 03 00 12 02 01 01   .$.......#......
|   3824: 06 22 03 00 12 02 01 01 06 21 03 00 12 03 01 01   .........!......
|   3840: 06 20 03 00 12 03 01 01 06 1f 03 00 12 03 01 01   . ..............
|   3856: 06 1e 03 00 12 03 01 01 06 1d 03 00 12 03 01 01   ................
|   3872: 06 1c 03 00 12 03 01 01 06 1b 03 00 12 02 01 01   ................
|   3888: 06 1a 03 00 12 02 01 01 06 19 03 00 12 02 01 01   ................
|   3904: 06 18 03 00 12 02 01 01 06 17 03 00 12 02 01 01   ................
|   3920: 06 16 03 00 12 02 01 01 06 15 03 00 12 02 01 01   ................
|   3936: 06 14 03 00 12 02 01 01 06 13 03 00 12 02 01 01   ................
|   3952: 06 12 03 00 12 02 01 01 06 11 03 00 12 02 01 01   ................
|   3968: 06 10 03 00 12 02 01 01 06 0f 03 00 12 02 01 01   ................
|   3984: 06 0e 03 00 12 02 01 01 06 0d 03 00 12 02 01 01   ................
|   4000: 06 0c 03 00 12 02 01 01 06 0b 03 00 12 02 01 01   ................
|   4016: 06 0a 03 00 12 02 01 01 05 09 03 00 12 03 01 01   ................
|   4032: 06 08 03 00 12 03 01 01 01 17 03 00 12 03 01 01   ................
|   4048: 06 06 03 00 12 01 01 01 06 05 03 00 12 01 01 01   ................
|   4064: 06 04 03 00 12 01 01 01 06 03 02 f0 12 06 01 01   ................
|   4080: 06 02 03 00 13 06 01 01 06 01 03 00 12 06 01 01   ................
| page 7 offset 24576
|      0: 0a 00 00 00 01 0f f4 00 0f f4 00 00 00 00 00 00   ................
|   4080: 00 00 00 00 0b 03 1b 01 76 65 72 73 69 6f 6e 04   ........version.
| page 8 offset 28672
|      0: 0d 00 00 00 03 0f d6 00 0f f4 0f e9 0f d6 00 00   ................
|   4048: 00 00 00 00 00 00 11 03 02 2b 69 6e 74 65 77 72   .........+intewr
|   4064: 69 74 79 2d 63 68 65 63 6b 09 02 02 1b 72 65 62   ity-check....reb
|   4080: 75 69 6c 64 0a 01 02 1d 6f 70 74 69 6d 69 7a 65   uild....optimize
| end crash-b366b5ac0d3887.db
}]} {}

do_catchsql_test 55.1 {
  SAVEPOINT one;
  DELETE FROM t1 WHERE a MATCH 'ts';
} {/*malformed database schema*/}

do_execsql_test 55.2 {
  ROLLBACK TO one;
}

#-------------------------------------------------------------------------
reset_db
do_test 56.0 {
  sqlite3 db {}
  db deserialize [decode_hexdb {
.open --hexdb
| size 24576 pagesize 4096 filename crash-2acc487d09f033.db
| page 1 offset 0
|      0: 53 51 4c 69 74 65 20 66 6f 72 6d 61 74 20 33 00   SQLite format 3.
|     16: 10 00 01 01 00 40 20 20 00 00 00 00 00 00 00 06   .....@  ........
|     32: 00 00 00 00 00 00 00 00 00 00 00 06 00 00 00 04   ................
|     48: 00 00 00 00 00 00 00 00 00 00 00 01 00 00 00 00   ................
|     96: 00 00 00 00 0d 00 00 00 06 0e 0f 00 0f aa 0f 53   ...............S
|    112: 0e e8 0e 8b 0e 33 0e 0f 00 00 00 00 00 00 00 00   .....3..........
|   3584: 00 00 00 00 00 00 00 00 00 00 00 00 00 00 00 22   ................
|   3600: 06 06 17 11 11 01 31 74 61 62 6c 65 62 62 62 62   ......1tablebbbb
|   3616: 06 43 52 45 41 54 45 20 54 41 42 4c 45 20 62 62   .CREATE TABLE bb
|   3632: 28 61 29 56 05 06 17 1f 1f 01 7d 74 61 62 6c 65   (a)V.......table
|   3648: 74 31 5f 63 6f 6e 66 69 67 74 31 5f 63 6f 6e 66   t1_configt1_conf
|   3664: 69 67 05 43 52 45 41 54 45 20 54 41 42 4c 45 20   ig.CREATE TABLE 
|   3680: 27 74 31 5f 63 6f 6e 66 69 67 27 28 6b 20 50 52   't1_config'(k PR
|   3696: 49 4d 41 52 59 20 4b 45 59 2c 20 76 29 20 57 49   IMARY KEY, v) WI
|   3712: 54 48 4f 55 54 20 52 4f 57 49 44 5b 04 07 17 21   THOUT ROWID[...!
|   3728: 21 01 81 01 74 61 62 6c 65 74 31 5f 64 6f 63 73   !...tablet1_docs
|   3744: 69 7a 65 74 31 4f 64 6f 63 73 69 7a 65 04 43 52   izet1Odocsize.CR
|   3760: 45 41 54 45 20 54 41 42 4c 45 20 27 74 31 5f 64   EATE TABLE 't1_d
|   3776: 6f 63 73 69 7a 65 27 28 69 64 20 49 4e 54 45 47   ocsize'(id INTEG
|   3792: 45 52 20 50 52 49 4d 41 52 59 20 4b 45 59 2c 20   ER PRIMARY KEY, 
|   3808: 73 7a 20 42 4c 4f 42 29 69 03 07 17 19 19 01 81   sz BLOB)i.......
|   3824: 2d 74 61 62 6c 65 74 31 5f 69 64 78 74 31 5f 69   -tablet1_idxt1_i
|   3840: 64 78 03 43 52 45 41 54 45 20 54 41 42 4c 45 20   dx.CREATE TABLE 
|   3856: 27 74 31 5f 69 64 78 27 28 73 65 67 69 64 2c 20   't1_idx'(segid, 
|   3872: 74 65 72 6d 2c 20 70 67 6e 6f 2c 20 50 52 49 4d   term, pgno, PRIM
|   3888: 41 52 59 20 4b 45 59 28 73 65 67 69 64 2c 20 74   ARY KEY(segid, t
|   3904: 65 72 6d 29 29 20 57 49 54 48 4f 55 54 20 52 4f   erm)) WITHOUT RO
|   3920: 57 49 44 55 02 07 17 1b 1b 01 81 01 74 61 62 6c   WIDU........tabl
|   3936: 65 74 31 5f 64 61 74 61 74 31 5f 64 61 74 61 02   et1_datat1_data.
|   3952: 43 52 45 41 54 45 20 54 41 42 4c 45 20 27 74 31   CREATE TABLE 't1
|   3968: 5f 64 61 74 61 27 28 69 64 20 49 4e 54 45 47 45   _data'(id INTEGE
|   3984: 52 20 50 52 49 4d 41 52 59 20 4b 45 59 2c 20 62   R PRIMARY KEY, b
|   4000: 6c 6f 63 6b 20 42 4c 4f 42 29 54 01 07 17 11 11   lock BLOB)T.....
|   4016: 08 81 15 74 61 62 6c 65 74 31 74 31 43 52 45 41   ...tablet1t1CREA
|   4032: 54 45 20 56 49 52 54 55 41 4c 20 54 41 42 4c 45   TE VIRTUAL TABLE
|   4048: 20 74 31 20 55 53 49 4e 47 20 66 74 73 35 28 61    t1 USING fts5(a
|   4064: 2c 62 2c 70 72 65 66 69 78 3d 22 32 2c 32 2c 33   ,b,prefix=.2,2,3
|   4080: 2c 34 22 2c 20 63 6f 6e 74 65 6e 74 3d 22 22 29   ,4., content=..)
| page 2 offset 4096
|      0: 0d 0b 6a 00 37 09 4c 02 0f e7 09 4c 0f c6 0f a4   ..j.7.L....L....
|     16: 0f 88 0f 6d 0f 4b 0f 2c 0f 0e 0e ec 0e cd 0e ad   ...m.K.,........
|     32: 0e 8e 0e 6c 0e 4b 0e 29 0e 08 0d e6 0d c4 0d b5   ...l.K.)........
|     48: 0d 97 0d 76 0d 54 0d 31 0d 15 0c f3 0c d3 0c b5   ...v.T.1........
|     64: 0c 95 0c 73 0c 54 0c 32 0c 10 0b ee 0b cc 0b b0   ...s.T.2........
|     80: 0b 8d 0b 7e 0b 48 0b 2e 0b 0b 0a ef 0a cc 0a ad   ...~.H..........
|     96: 0a 8c 0a 6d 0a 4d 0a 2b 0a 0c 09 ec 09 ca 09 a8   ...m.M.+........
|    112: 09 86 09 63 0f f1 00 00 00 00 00 00 00 00 00 00   ...c............
|   2368: 00 00 00 00 00 00 00 00 00 00 00 00 15 0a 03 00   ................
|   2384: 30 00 00 00 01 01 03 35 00 03 01 01 12 02 01 12   0......5........
|   2400: 03 01 11 1c 8c 80 80 80 80 10 03 00 3e 00 00 00   ............>...
|   2416: 17 01 05 05 34 74 61 62 6c 03 02 03 01 04 77 68   ....4tabl.....wh
|   2432: 65 72 03 02 06 09 1b 8c 80 80 80 80 0f 03 00 3c   er.............<
|   2448: 00 00 00 16 05 34 66 74 73 34 03 02 02 01 04 6e   .....4fts4.....n
|   2464: 75 6d 62 03 06 01 04 09 1b 8c 80 80 80 80 0e 03   umb.............
|   2480: 00 3c 00 00 00 16 04 33 74 68 65 03 06 01 01 04   .<.....3the.....
|   2496: 01 03 77 68 65 03 02 04 04 0a 1b 8c 80 80 80 80   ..whe...........
|   2512: 0d 03 00 3c 00 00 00 16 04 33 6e 75 6d 03 06 01   ...<.....3num...
|   2528: 01 05 01 03 74 61 62 03 02 03 04 0a 19 8c 80 80   ....tab.........
|   2544: 80 80 0c 03 00 38 00 00 00 14 03 32 77 68 03 02   .....8.....2wh..
|   2560: 04 00 04 33 66 74 73 03 02 02 04 07 18 8c 80 80   ...3fts.........
|   2576: 80 80 0b 03 00 36 00 00 00 13 03 32 74 61 03 02   .....6.....2ta..
|   2592: 03 02 01 68 03 06 01 01 04 04 07 1b 8c 80 80 80   ...h............
|   2608: 80 09 03 00 3c 00 00 00 16 03 32 6e 75 03 06 01   ....<.....2nu...
|   2624: 01 05 01 02 6f 66 03 3b 01 01 06 04 09 19 8c 80   ....of.;........
|   2640: 80 80 80 09 03 00 38 00 00 00 14 03 32 66 74 03   ......8.....2ft.
|   2656: 02 02 01 02 69 73 03 06 01 01 03 04 07 18 8c 80   ....is..........
|   2672: 80 80 80 08 03 00 36 00 00 00 13 02 31 74 03 08   ......6.....1t..
|   2688: 03 01 01 04 01 01 77 03 02 04 04 09 1a 8c 80 80   ......w.........
|   2704: 80 80 07 03 00 3a ff 00 00 15 02 31 6e 03 08 01   .....:.....1n...
|   2720: 01 02 05 01 01 6f 03 06 01 01 06 04 09 18 8c 80   .....o..........
|   2736: 80 80 80 06 03 00 36 00 00 00 13 04 02 31 66 03   ......6......1f.
|   2752: 02 02 01 01 69 03 06 01 01 03 05 06 1c 8c 80 80   ....i...........
|   2768: 80 80 05 03 00 3e 00 00 00 17 04 30 74 68 65 03   .....>.....0the.
|   2784: 06 00 f1 04 01 05 77 68 65 72 65 03 02 04 0a 15   ......where.....
|   2800: 8c 80 80 80 80 04 03 00 30 00 00 00 11 01 01 06   ........0.......
|   2816: 06 30 74 61 62 6c 65 03 02 03 07 1c 8c 80 80 80   .0table.........
|   2832: 80 03 03 00 3e 00 00 00 17 07 30 6e 75 6d 62 65   ....>.....0numbe
|   2848: 72 03 06 01 01 05 01 02 6f 66 03 06 04 0d 13 8c   r.......of......
|   2864: 80 80 80 80 02 03 00 2c 00 00 00 0f 01 01 03 02   .......,........
|   2880: 30 6e 03 06 01 01 02 07 1b 8c 80 80 80 80 01 03   0n..............
|   2896: 00 3c 00 00 00 16 08 30 66 74 73 34 61 75 78 03   .<.....0fts4aux.
|   2912: 02 02 01 02 69 73 03 06 04 0c 00 00 00 14 2a 00   ....is........*.
|   2928: 00 00 01 01 02 24 00 02 01 01 12 02 01 12 08 88   .....$..........
|   2944: 80 80 80 80 12 03 00 16 00 00 00 05 02 1c 88 80   ................
|   2960: 80 80 80 11 03 00 3e 00 00 00 17 05 34 72 6f 77   ......>.....4row
|   2976: 73 02 06 01 01 05 01 04 74 68 65 72 02 02 04 0b   s.......ther....
|   2992: 15 88 80 80 80 80 10 03 00 30 00 00 00 11 02 01   .........0......
|   3008: 01 07 05 34 62 65 74 77 02 02 04 08 1b 88 80 80   ...4betw........
|   3024: 80 80 0f 03 00 3c 00 00 00 16 04 04 33 72 6f 77   .....<......3row
|   3040: 02 06 01 01 05 01 03 74 68 65 02 08 05 0a 1b 88   .......the......
|   3056: 80 80 80 80 0e 03 00 3c 00 00 00 16 01 01 02 04   .......<........
|   3072: 33 61 72 65 02 02 03 01 03 62 65 74 02 02 07 08   3are.....bet....
|   3088: 1b 88 80 80 80 80 0d 03 00 3c 00 00 00 16 03 32   .........<.....2
|   3104: 74 68 02 08 02 01 01 07 00 04 33 61 6e 64 02 06   th........3and..
|   3120: 04 0a 1b 88 80 80 80 80 0c 03 00 3c 00 00 00 16   ...........<....
|   3136: 03 32 69 6e 02 06 01 01 06 01 02 72 6f 02 06 01   .2in.......ro...
|   3152: 01 05 04 09 18 88 80 80 80 80 0b 03 00 36 00 00   .............6..
|   3168: 00 13 02 03 32 61 72 02 02 03 01 02 62 65 02 02   ....2ar.....be..
|   3184: 04 05 07 1b 88 80 80 80 80 0a 03 00 3c 00 00 00   ............<...
|   3200: 16 02 31 74 02 08 02 01 01 07 00 03 32 61 6e 02   ..1t........2an.
|   3216: 06 01 01 04 09 19 88 80 80 80 80 09 03 00 38 00   ..............8.
|   3232: 00 00 14 02 31 6e 02 06 01 01 03 01 01 72 02 06   ....1n.......r..
|   3248: 01 01 05 04 08 17 88 80 80 80 80 08 03 00 34 00   ..............4.
|   3264: 00 00 12 02 31 62 02 02 04 01 01 69 02 06 01 01   ....1b.....i....
|   3280: 06 04 06 19 88 80 80 80 80 07 03 00 38 00 00 00   ............8...
|   3296: 14 04 02 31 32 02 02 05 01 01 61 02 08 03 01 01   ...12.....a.....
|   3312: 02 05 06 1b 88 80 80 80 80 06 03 00 3c 00 00 00   ............<...
|   3328: 16 06 30 74 68 65 72 65 02 02 02 00 02 31 31 02   ..0there.....11.
|   3344: 06 01 01 04 0a 15 88 80 80 80 80 05 03 00 30 00   ..............0.
|   3360: 00 00 11 01 01 05 04 30 74 68 65 02 06 01 01 07   .......0the.....
|   3376: 07 1c 88 80 80 80 80 04 03 00 3e 00 00 00 17 01   ..........>.....
|   3392: 01 06 02 30 6e 02 06 01 01 03 01 04 72 6f 77 73   ...0n.......rows
|   3408: 02 06 07 08 1b 88 80 80 80 80 03 03 00 3c 00 00   .............<..
|   3424: 00 16 08 30 62 65 74 77 65 65 6e 02 02 04 01 02   ...0between.....
|   3440: 69 6e 02 06 04 0c 1a 88 80 80 80 80 02 03 00 3a   in.............:
|   3456: 00 00 00 15 04 30 61 6e 64 02 06 01 01 02 02 02   .....0and.......
|   3472: 72 65 02 02 03 04 0a 17 88 80 80 80 80 01 03 00   re..............
|   3488: 34 00 00 00 12 02 30 31 02 06 01 01 04 01 01 32   4.....01.......2
|   3504: 02 02 05 04 08 08 84 80 80 80 81 12 03 00 16 00   ................
|   3520: 00 00 05 04 1b 84 61 80 80 80 11 03 00 3c 00 00   ......a......<..
|   3536: 00 16 05 34 74 61 62 6c 01 06 01 01 05 02 03 65   ...4tabl.......e
|   3552: 72 6d 01 02 04 0b 1b 84 80 80 80 80 10 03 00 3c   rm.............<
|   3568: 00 00 00 16 05 34 65 61 63 68 01 02 03 01 04 70   .....4each.....p
|   3584: 72 65 73 01 02 05 04 09 1a 84 80 80 80 80 0f 03   res.............
|   3600: 00 3a 00 00 00 15 04 33 74 65 72 01 02 04 02 02   .:.....3ter.....
|   3616: 68 65 01 06 01 01 03 04 08 1b 84 80 80 80 80 0e   he..............
|   3632: 03 00 3c 00 00 00 16 04 33 70 72 65 01 02 05 01   ..<.....3pre....
|   3648: 03 74 61 62 01 06 01 01 05 14 08 1a 84 80 80 80   .tab............
|   3664: 80 0d 03 00 3a 00 00 00 15 04 33 66 6f 72 01 02   ....:.....3for..
|   3680: 02 02 02 74 73 01 06 01 01 04 04 08 1b 84 80 80   ...ts...........
|   3696: 80 80 0c 03 00 3c 00 00 00 16 03 32 74 68 01 06   .....<.....2th..
|   3712: 01 01 03 00 04 33 65 61 63 01 02 03 04 09 18 84   .....3eac.......
|   3728: 80 80 80 80 0b 03 00 36 00 00 00 13 03 32 74 71   .......6.....2tq
|   3744: 01 06 01 01 05 02 01 65 01 02 04 04 09 19 84 80   .......e........
|   3760: 80 80 80 0a 03 00 38 00 00 00 14 03 32 69 6e 01   ......8.....2in.
|   3776: 06 01 01 02 01 02 70 72 01 02 05 0b 89 18 84 80   ......pr........
|   3792: 80 80 80 09 03 00 36 00 00 00 13 03 32 66 6f 01   ......6.....2fo.
|   3808: 02 02 02 01 74 01 06 01 01 04 04 07 1b 84 80 80   ....t...........
|   3824: 80 80 08 03 00 3c 00 00 00 16 02 31 74 01 0a 04   .....<.....1t...
|   3840: 01 01 03 04 00 03 32 65 61 01 02 03 04 0a 17 84   ......2ea.......
|   3856: 80 80 80 80 07 03 00 34 00 00 00 12 02 31 69 01   .......4.....1i.
|   3872: 06 01 01 02 01 01 70 01 02 05 04 08 18 84 80 80   ......p.........
|   3888: 80 80 06 03 00 36 00 00 00 13 02 31 65 01 02 03   .....6.....1e...
|   3904: 01 01 66 01 08 02 01 01 04 04 06 1b 84 80 80 80   ..f.............
|   3920: 80 05 03 00 3c 00 00 00 16 05 30 74 65 72 6d 01   ....<.....0term.
|   3936: 02 04 02 02 68 65 01 06 01 01 03 04 09 14 84 80   ....he..........
|   3952: 80 80 80 04 03 00 2e 00 00 00 10 06 30 74 61 62   ............0tab
|   3968: 6c 65 01 06 01 01 05 04 15 84 80 80 80 80 03 03   le..............
|   3984: 00 30 00 00 00 11 02 08 30 70 72 65 73 65 6e 74   .0......0present
|   4000: 01 02 05 05 1b 84 80 80 80 80 02 03 00 3c 00 00   .............<..
|   4016: 00 16 04 30 66 74 73 01 06 01 01 04 01 02 69 6e   ...0fts.......in
|   4032: 01 06 01 01 04 0a 1a 84 80 80 80 80 01 03 00 3a   ...............:
|   4048: 00 00 00 15 05 30 65 61 63 f4 01 02 03 01 03 66   .....0eac......f
|   4064: 6f 72 01 02 02 04 09 06 01 03 00 12 03 0b 0f 00   or..............
|   4080: 00 08 8c 80 80 80 80 11 03 00 16 00 00 00 05 04   ................
| page 3 offset 8192
|      0: 0a 00 00 00 32 0e 4f 00 0f fa 0f f1 0f e9 0f e1   ....2.O.........
|     16: 0f d8 0f d1 0f c9 0f c1 0f b9 0f b1 0f a9 0f a0   ................
|     32: 0f 98 0f 90 0f 87 0f 80 0f 78 0f 71 0f 68 0f 5f   .........x.q.h._
|     48: 0f 56 0f 4d 0f 41 0f 38 0f 2f 0f 26 0f 1d 0f 13   .V.M.A.8./.&....
|     64: 0f 0a 0f 01 0e f7 0e ee 0e e6 0e dd 0e d6 0e cd   ................
|     80: 0e c3 0e ba 0e b0 0e a8 0e 9f 0e 96 0e 8e 0e 85   ................
|     96: 0e 7c 0e 73 0e 6a 0e 60 0e 58 0e 4f 00 00 00 00   .|.s.j.`.X.O....
|   3648: 00 00 00 00 00 00 00 00 00 00 00 00 00 00 00 08   ................
|   3664: 04 01 10 01 03 34 74 20 07 04 01 0e 01 03 34 1e   .....4t ......4.
|   3680: 09 04 01 12 01 03 33 74 68 1c 08 04 01 10 01 03   ......3th.......
|   3696: 33 6e 1a 08 04 01 10 01 03 32 77 18 08 04 01 10   3n.......2w.....
|   3712: 01 03 32 74 16 08 04 01 10 01 03 32 6e 14 07 04   ..2t.......2n...
|   3728: 01 0e 01 03 32 12 08 04 01 10 01 03 31 74 10 08   ....2.......1t..
|   3744: 04 01 10 01 03 31 6e 0e 07 04 01 0e 01 03 31 0c   .....1n.......1.
|   3760: 09 04 01 12 01 03 30 74 68 0a 08 04 01 10 01 03   ......0th.......
|   3776: 30 74 08 09 04 01 12 01 03 30 6e 75 06 08 04 01   0t.......0nu....
|   3792: 10 01 03 30 6e 04 06 04 01 0c 01 03 02 08 04 01   ...0n...........
|   3808: 10 01 02 34 72 22 07 04 01 0e 01 02 34 20 08 04   ...4r.......4 ..
|   3824: 01 10 01 02 33 72 1e 09 04 01 12 01 02 33 61 72   ....3r.......3ar
|   3840: 1c 08 04 01 10 01 02 32 74 1a 08 04 01 10 b3 02   .......2t.......
|   3856: 32 69 18 09 04 01 12 01 02 32 61 72 16 08 04 01   2i.......2ar....
|   3872: 10 01 02 31 74 14 08 04 01 10 01 02 31 6e 12 08   ...1t.......1n..
|   3888: 04 01 10 01 02 31 62 10 08 04 01 10 01 02 31 32   .....1b.......12
|   3904: 0e 0b 04 01 16 01 02 30 74 68 65 72 0c 08 04 01   .......0ther....
|   3920: 10 01 02 30 74 0a 08 04 01 10 01 02 30 6e 08 08   ...0t.......0n..
|   3936: 04 01 10 01 02 30 62 06 08 04 01 10 01 02 30 61   .....0b.......0a
|   3952: 05 06 04 01 0c 01 02 02 07 04 09 10 01 34 74 22   .............4t.
|   3968: 06 04 09 0e 01 34 20 08 04 09 12 01 33 74 65 1e   .....4 .....3te.
|   3984: 07 04 09 10 01 33 70 1c 07 04 09 10 01 33 66 1a   .....3p......3f.
|   4000: 08 04 09 12 01 32 74 68 18 07 04 09 10 01 32 2d   .....2th......2-
|   4016: 16 07 04 09 10 01 32 69 14 07 04 09 10 01 32 66   ......2i......2f
|   4032: 12 07 04 09 10 01 31 74 10 07 04 09 10 01 31 69   ......1t......1i
|   4048: 0e 06 04 09 0e 01 31 0c 08 04 09 12 01 30 74 65   ......1......0te
|   4064: 0a 07 04 09 10 01 30 74 08 07 04 09 10 01 30 70   ......0t......0p
|   4080: 06 08 04 09 12 01 30 66 74 04 05 04 09 0c 01 02   ......0ft.......
| page 4 offset 12288
|      0: 0d 00 00 00 03 0f eb 00 0f f9 0f f2 0f eb 00 00   ................
|   4064: 00 00 00 00 00 00 00 00 00 00 00 05 03 03 00 10   ................
|   4080: 03 05 05 02 03 00 10 04 06 05 01 03 00 10 04 03   ................
| page 5 offset 16384
|      0: 0a 00 00 00 02 0f eb 00 0f eb 0f f4 00 00 00 00   ................
|   4064: 00 00 00 00 00 00 00 00 00 00 00 08 03 15 01 70   ...............p
|   4080: 67 73 7a 18 0b 03 1b 01 76 65 72 73 69 6f 6e 04   gsz.....version.
| page 6 offset 20480
|      0: 0d 00 00 00 03 0f f2 00 0f fc 0f f7 0f f2 00 00   ................
|   4080: 00 00 03 03 02 01 03 03 02 02 01 02 02 01 02 09   ................
| end crash-2acc487d09f033.db
}]} {}

do_test 56.1 {
  set res [catchsql {
    INSERT INTO t1(b) VALUES(randomblob(250));
    INSERT INTO t1(b) VALUES(randomblob(250));
  }]

  # For some permutations - those that use the page-cache - this test
  # may return SQLITE_CONSTRAINT instead of SQLITE_CORRUPT. This is because
  # the corrupt db in the test over-reads the page buffer slightly, with
  # different results depending on whether or not the page-cache is in use.
  if {$res=="1 {constraint failed}"} {
    set res "1 {database disk image is malformed}"
  }
  set res
} {/*malformed database schema*/}

#-------------------------------------------------------------------------
reset_db
do_test 57.0 {
  sqlite3 db {}
  db deserialize [decode_hexdb {
| size 28672 pagesize 4096 filename x.db
| page 1 offset 0
|      0: 53 51 4c 69 74 65 20 66 6f 72 6d 61 74 20 33 00   SQLite format 3.
|     16: 10 00 01 01 00 40 20 20 00 00 00 01 00 00 00 07   .....@  ........
|     32: 00 00 00 00 00 00 00 00 00 00 00 01 00 00 00 00   ................
|     80: 00 00 00 00 00 00 00 00 00 00 00 00 00 00 00 01   ................
|     96: 00 2e 34 20 0d 00 00 00 07 0d d2 00 0f c4 0f 6d   ..4 ...........m
|    112: 0f 02 0e ab 0e 4e 0d f6 0d d2 00 00 00 00 00 00   .....N..........
|   3536: 00 00 22 07 06 17 11 11 01 31 74 61 62 6c 65 74   .........1tablet
|   3552: 32 74 32 07 43 52 45 41 54 45 20 54 41 42 4c 45   2t2.CREATE TABLE
|   3568: 20 74 32 28 78 29 56 06 06 17 1f 1f 01 7d 74 61    t2(x)V.......ta
|   3584: 61 6b 65 74 31 5f 63 6f 6e 66 69 67 74 31 5f 63   aket1_configt1_c
|   3600: 6f 7e 66 69 67 06 43 52 45 41 54 45 20 54 41 42   o~fig.CREATE TAB
|   3616: 4c 45 20 27 74 31 5f 63 6f 6e 66 69 67 27 28 6b   LE 't1_config'(k
|   3632: 20 50 52 49 4d 41 52 59 20 4b 45 59 2c 20 76 29    PRIMARY KEY, v)
|   3648: 20 57 49 54 48 4f 55 54 20 52 4f 57 49 44 5b 05    WITHOUT ROWID[.
|   3664: 07 17 21 21 01 81 01 74 61 62 6c 65 74 31 5f 64   ..!!...tablet1_d
|   3680: 6f 63 73 69 7a 65 74 31 5f 64 6f 63 73 69 7a 65   ocsizet1_docsize
|   3696: 05 43 52 45 41 54 45 20 54 41 42 4c 45 20 27 74   .CREATE TABLE 't
|   3712: 31 5f 64 6f 63 73 69 7a 65 27 28 69 64 20 49 4e   1_docsize'(id IN
|   3728: 54 45 47 45 52 20 50 52 49 4d 41 52 59 20 4b 45   TEGER PRIMARY KE
|   3744: 59 2c 20 73 7a 20 42 4c 4f 42 29 55 04 06 17 21   Y, sz BLOB)U...!
|   3760: 21 01 77 74 61 62 6c 65 74 31 5f 63 6f 6e 74 1d   !.wtablet1_cont.
|   3776: 6e 74 74 31 5f 63 6f 6e 74 65 6e 74 04 43 52 45   ntt1_content.CRE
|   3792: 41 54 45 20 54 41 42 4c 45 20 27 74 31 5f 63 6f   ATE TABLE 't1_co
|   3808: 6e 74 65 6e 74 27 28 69 64 20 49 4e 54 45 47 45   ntent'(id INTEGE
|   3824: 52 20 50 52 49 4d 41 52 59 20 4b 45 59 2c 20 63   R PRIMARY KEY, c
|   3840: 30 29 69 03 07 17 19 19 01 81 2d 74 61 62 6c 65   0)i.......-table
|   3856: 74 31 5f 69 64 78 74 31 5f 59 64 78 03 43 52 45   t1_idxt1_Ydx.CRE
|   3872: 41 54 45 20 54 41 42 4c 45 20 27 74 31 5f 69 64   ATE TABLE 't1_id
|   3888: 78 27 28 73 65 67 69 64 2c 20 74 65 72 6d 2c 20   x'(segid, term, 
|   3904: 70 67 6e 6f 2c 20 50 52 49 4d 41 52 59 20 4b 45   pgno, PRIMARY KE
|   3920: 59 28 73 65 67 69 64 2c 20 74 65 72 6d 29 29 20   Y(segid, term)) 
|   3936: 57 49 54 48 4f 55 54 20 52 4f 57 49 44 55 02 07   WITHOUT ROWIDU..
|   3952: 17 1b 1b 01 81 01 74 61 62 6c 65 74 31 5f 64 61   ......tablet1_da
|   3968: 74 61 74 31 5f 64 61 64 61 02 43 52 45 41 54 45   tat1_dada.CREATE
|   3984: 20 54 41 42 4c 45 20 27 74 31 5f 64 61 74 61 27    TABLE 't1_data'
|   4000: 28 69 64 20 49 4e 54 45 47 45 52 20 50 52 49 4d   (id INTEGER PRIM
|   4016: 41 52 59 20 4b 45 59 2c 20 62 6c 6f 63 6b 20 42   ARY KEY, block B
|   4032: 4c 4f 42 29 3a 01 06 17 11 11 08 63 74 61 62 6c   LOB):......ctabl
|   4048: 65 74 31 74 31 43 52 45 41 54 45 20 56 49 52 54   et1t1CREATE VIRT
|   4064: 55 41 4c 20 54 41 42 4c 45 20 74 31 20 55 53 49   UAL TABLE t1 USI
|   4080: 4e 47 20 66 74 73 35 28 63 6f 6e 74 65 6e 74 29   NG fts5(content)
| page 2 offset 4096
|      0: 0d 0e b4 00 06 0e 35 00 0f e8 0e 35 0f bd 0f 4e   ......5....5...N
|     16: 0e cb 0e 4f 00 00 00 00 00 00 00 00 00 00 00 00   ...O............
|   3632: 00 00 00 00 00 18 0a 03 00 36 00 00 00 00 01 04   .........6......
|   3648: 04 00 04 01 01 01 02 01 01 03 01 01 04 01 01 5e   ...............^
|   3664: 90 80 80 80 80 01 04 00 81 40 00 00 00 51 06 30   .........@...Q.0
|   3680: 61 62 61 63 6b 01 01 04 04 6e 64 6f 6e 01 01 02   aback....ndon...
|   3696: 04 63 69 76 65 01 01 02 04 6c 70 68 61 01 01 02   .cive....lpha...
|   3712: 03 74 6f 6d 01 01 01 06 62 61 63 6b 75 70 01 01   .tom....backup..
|   3728: 02 05 6f 6f 6d 65 72 01 01 01 06 63 68 61 6e 6e   ..oomer....chann
|   3744: 65 01 01 01 04 74 65 73 74 01 01 04 09 08 08 08   e....test.......
|   3760: 07 0a 09 0a 0f 3a 00 17 30 00 00 00 00 01 03 03   .....:..0.......
|   3776: 00 03 01 01 01 02 01 01 03 01 01 68 8c 80 80 80   ...........h....
|   3792: 80 01 04 00 81 54 00 00 00 5b 06 30 61 62 61 63   .....T...[.0abac
|   3808: 6b 02 02 07 04 04 6e 64 6f 6e 02 02 05 02 04 63   k.....ndon.....c
|   3824: 69 76 65 02 02 0b 02 04 6c 70 68 61 02 04 02 0a   ive.....lpha....
|   3840: 02 03 74 6f 6d 02 02 09 01 06 62 61 63 6b 75 70   ..tom.....backup
|   3856: 02 02 04 02 05 6f 6f 6d 65 72 02 02 08 01 06 63   .....oomer.....c
|   3872: 68 61 6e 6e 65 02 02 03 01 04 74 65 73 74 02 02   hanne.....test..
|   3888: 06 04 0a 09 09 0a 08 0b 0a 0b 0f ef 00 14 2a 00   ..............*.
|   3904: 00 00 00 01 02 02 00 02 01 01 01 02 01 01 68 88   ..............h.
|   3920: 80 80 80 80 01 04 00 81 54 00 00 00 5b 06 30 61   ........T...[.0a
|   3936: 62 61 63 6b 01 02 07 04 04 6e 64 6f 6e 01 02 05   back.....ndon...
|   3952: 02 04 63 69 76 65 01 02 0b 02 04 6c 70 68 61 01   ..cive.....lpha.
|   3968: 04 02 0a 02 03 74 6f 6d 01 02 09 01 06 62 61 63   .....tom.....bac
|   3984: 6b 75 70 01 02 04 02 05 6f 6f 6d 65 72 01 02 08   kup.....oomer...
|   4000: 01 06 63 68 61 6e 6e 65 01 02 03 01 04 74 65 73   ..channe.....tes
|   4016: 74 01 02 06 04 0a 09 09 0a 08 0b 0a 0b 24 84 80   t............$..
|   4032: 80 80 80 01 03 00 4e 00 00 00 1e 06 30 61 62 61   ......N.....0aba
|   4048: 63 6b 01 02 02 05 42 66 74 02 02 02 04 04 6e 64   ck....Bft.....nd
|   4064: 6f 6e 03 02 02 04 0a 07 05 01 03 00 10 04 0d 00   on..............
|   4080: 00 00 11 24 00 00 00 00 01 01 01 00 01 01 01 01   ...$............
| page 3 offset 8192
|      0: 0a 00 00 00 04 0f e5 00 00 00 0f f3 0f ec 0f e5   ................
|   4064: 00 00 00 00 00 06 04 01 0c 01 04 02 06 04 01 0c   ................
|   4080: 01 03 02 06 04 01 0c 01 02 02 05 04 09 0d 01 02   ................
| page 4 offset 12288
|      0: 0d 0e bc 00 04 0e 78 00 00 00 00 00 00 00 0e 78   ......x........x
|     16: 0e 78 00 00 00 00 00 00 00 00 00 00 00 00 00 00   .x..............
|   3696: 00 00 00 00 00 00 00 00 42 02 04 00 81 09 61 6c   ........B.....al
|   3712: 70 68 61 20 63 68 61 6e 6e 65 20 62 61 63 6b 75   pha channe backu
|   3728: 70 20 61 62 61 6e 64 6f 6e 20 74 65 73 74 20 61   p abandon test a
|   3744: 62 61 63 6b 20 62 6f 6f 6d 65 72 20 61 74 6f 6d   back boomer atom
|   3760: 20 61 6c 70 68 61 20 61 63 69 76 65 00 00 00 44    alpha acive...D
|   3776: 81 09 61 6c 70 68 61 20 63 68 61 6e 6e 65 20 62   ..alpha channe b
|   3792: 61 63 6b 75 70 20 61 62 61 6e 64 6f 6e 20 74 65   ackup abandon te
|   3808: 73 74 20 61 62 61 63 6b 20 62 6f 6f 6d 65 72 20   st aback boomer 
|   3824: 61 74 6f 6d 20 61 6c 70 68 61 20 61 63 69 76 65   atom alpha acive
|   4064: 0a 03 03 00 1b 61 4e 61 6e 64 6f 6e 08 02 03 00   .....aNandon....
|   4080: 17 61 62 61 66 74 08 01 03 00 17 61 62 71 63 6b   .abaft.....abqck
| page 5 offset 16384
|      0: 0d 0f e8 00 04 0f e2 00 00 00 00 00 00 00 0f e2   ................
|     16: 0f e2 00 00 00 00 00 00 00 00 00 00 00 00 00 00   ................
|   4064: 00 00 04 02 03 00 0e 0a 00 00 00 06 0e 0a 04 03   ................
|   4080: 03 00 0e 01 04 02 03 00 0e 01 04 01 03 10 0e 01   ................
| page 6 offset 20480
|      0: 0a 00 00 00 01 0f f4 00 0f f4 00 00 00 00 00 00   ................
|   4080: 00 00 00 00 0b 03 1b 01 76 65 72 73 69 6f 6e 04   ........version.
| page 7 offset 24576
|      0: 0d 00 00 00 03 0f d6 00 0f f4 00 00 00 00 00 00   ................
|   4048: 00 00 00 00 00 00 09 03 02 1b 72 65 62 75 69 6c   ..........rebuil
|   4064: 64 11 02 02 2b 69 6e 74 65 67 72 69 74 79 2d 63   d...+integrity-c
|   4080: 68 65 63 6b 0a 01 02 1d 6f 70 74 69 6d 69 7a 65   heck....optimize
| end x.db
}]} {}

do_catchsql_test 57.1 {
  INSERT INTO t1(t1) VALUES('optimize')
} {/*malformed database schema*/}

#-------------------------------------------------------------------------
reset_db
do_test 58.0 {
  sqlite3 db {}
  db deserialize [decode_hexdb {
.open --hexdb
| size 24576 pagesize 4096 filename crash-5a5acd0ab42d31.db
| page 1 offset 0
|      0: 53 51 4c 69 74 65 20 66 6f 72 6d 61 74 20 33 00   SQLite format 3.
|     16: 10 00 01 01 00 40 20 20 00 00 00 00 00 00 00 00   .....@  ........
|     96: 00 00 00 00 0d 00 00 00 06 0e 0f 00 0f aa 0f 53   ...............S
|    112: 0e e8 0e 8b 0e 33 0e 0f 00 00 00 00 00 00 00 00   .....3..........
|   3584: 00 00 00 00 00 00 00 00 00 00 00 00 00 00 00 22   ................
|   3600: 06 06 17 11 11 01 31 74 61 62 6c 65 62 62 62 62   ......1tablebbbb
|   3616: 06 43 52 45 41 54 45 20 54 41 42 4c 45 20 62 62   .CREATE TABLE bb
|   3632: 28 61 29 56 05 06 17 1f 1f 01 7d 74 61 62 6c 65   (a)V.......table
|   3648: 74 31 5f 63 2a 6e 66 69 68 74 31 5f 63 6f 6e 66   t1_c*nfiht1_conf
|   3664: 69 67 05 43 52 45 41 54 45 20 54 41 42 4c 45 20   ig.CREATE TABLE 
|   3680: 27 74 31 5f 63 6f 6e 66 69 67 27 28 6b 20 50 52   't1_config'(k PR
|   3696: 49 4d 41 52 59 20 4b 45 59 2c 20 76 29 20 57 49   IMARY KEY, v) WI
|   3712: 54 48 4f 55 54 20 52 4f 57 49 44 5b 04 07 17 21   THOUT ROWID[...!
|   3728: 21 01 81 01 74 61 62 6c 65 74 31 5f 64 6f 73 73   !...tablet1_doss
|   3744: 69 7a 65 74 31 5f 64 6f 63 73 69 7a 65 04 43 52   izet1_docsize.CR
|   3760: 45 41 54 45 20 54 41 42 4c 45 20 27 74 31 5f 64   EATE TABLE 't1_d
|   3776: 6f 63 73 69 7a 65 27 28 69 64 20 49 4e 54 45 47   ocsize'(id INTEG
|   3792: 45 52 20 50 52 49 4d 41 52 59 20 4b 45 59 2c 20   ER PRIMARY KEY, 
|   3808: 73 7a 20 42 4c 4f 42 29 69 03 07 17 19 19 01 81   sz BLOB)i.......
|   3824: 2d 74 61 62 6c 65 74 31 5f 69 64 78 74 31 5f 69   -tablet1_idxt1_i
|   3840: 64 78 03 43 52 45 41 54 45 20 54 41 42 4c 45 20   dx.CREATE TABLE 
|   3856: 27 74 31 5f 69 64 78 27 28 73 65 67 69 64 2c 20   't1_idx'(segid, 
|   3872: 74 65 72 6d 2c 20 70 67 6e 6f 2c 20 50 52 49 4d   term, pgno, PRIM
|   3888: 41 52 59 20 4b 45 59 28 73 65 67 69 64 2c 20 74   ARY KEY(segid, t
|   3904: 65 72 6d 29 29 20 57 49 54 48 4f 55 54 20 52 4f   erm)) WITHOUT RO
|   3920: 57 49 44 55 02 07 17 1b 1b 01 81 01 74 61 62 6c   WIDU........tabl
|   3936: 65 74 31 5f 64 61 74 61 74 31 5f 64 61 74 61 02   et1_datat1_data.
|   3952: 43 52 45 41 54 45 20 54 41 42 4c 45 20 27 74 31   CREATE TABLE 't1
|   3968: 5f 64 61 74 61 27 28 69 64 20 49 4e 54 45 47 45   _data'(id INTEGE
|   3984: 52 20 50 52 49 4d 41 52 59 20 4b 45 59 2c 20 62   R PRIMARY KEY, b
|   4000: 6c 6f 63 6b 20 42 4c 4f 42 29 54 01 07 17 11 11   lock BLOB)T.....
|   4016: 08 81 15 74 61 62 6c 65 74 31 74 31 43 52 45 41   ...tablet1t1CREA
|   4032: 54 45 20 56 49 52 54 55 41 4c 20 54 41 42 4c 45   TE VIRTUAL TABLE
|   4048: 20 74 31 20 55 53 49 4e 47 20 66 74 73 35 28 61    t1 USING fts5(a
|   4064: 2c 62 2c 70 72 65 66 69 78 3d 22 32 2c 32 2c 33   ,b,prefix=.2,2,3
|   4080: 2c 34 22 2c 20 63 6f 6e 74 65 6e 74 3d 22 22 29   ,4., content=..)
| page 2 offset 4096
|      0: 0d 0b 6a 00 37 09 4c 02 0f e7 09 4c 0f c6 0f a4   ..j.7.L....L....
|     16: 0f 88 0f 6d 0f 4b 0f 2c 0f 0e 0e ec 0e cd 0e ae   ...m.K.,........
|     32: 0e 8e 0e 6c 0e 4b 0e 29 0e 08 0d e6 0d c4 0d b5   ...l.K.)........
|     48: 0d 97 0d 76 0d 54 0d 30 fd 15 0c f3 0c d3 0c b5   ...v.T.0........
|     64: 0c 95 0c 73 0c 54 0c 32 0c 10 0b ee 0b cc 0b b0   ...s.T.2........
|     80: 0b 8d 0b 7e 0b 48 0b 2e 0b 0b 0a ef 0a cc 0a ad   ...~.H..........
|     96: 0a 8c 0a 6d 0a 4d 0a 2b 0a 0c 00 00 00 00 00 00   ...m.M.+........
|   2368: 00 00 00 00 00 00 00 00 00 00 00 00 15 0a 03 00   ................
|   2384: 30 00 00 00 9c 01 03 35 00 03 01 01 12 02 01 12   0......5........
|   2400: 03 01 11 1c 8c 80 80 80 80 10 03 00 3e 00 00 00   ............>...
|   2416: 17 01 05 05 34 74 61 62 6c 03 02 03 01 04 77 68   ....4tabl.....wh
|   2432: 65 72 03 02 06 09 1b 8c 80 80 80 80 0f 03 00 3c   er.............<
|   2448: 00 00 00 16 05 34 66 74 73 34 03 02 02 01 04 6e   .....4fts4.....n
|   2464: 75 6d 62 03 06 01 04 09 1b 8c 80 80 80 80 0e 03   umb.............
|   2480: 00 3c 00 00 00 16 04 33 74 68 65 03 06 01 01 04   .<.....3the.....
|   2496: 01 03 77 68 65 03 02 04 04 0a 1b 8c 80 80 80 80   ..whe...........
|   2512: 0d 03 00 3c 00 00 00 16 04 33 6e 75 6d 03 06 01   ...<.....3num...
|   2528: 01 05 01 03 74 61 62 05 62 03 04 0a 19 8c 80 80   ....tab.b.......
|   2544: 80 80 0c 03 00 38 00 00 00 14 03 39 a7 68 03 02   .....8.....9.h..
|   2560: 04 10 04 33 66 74 73 03 02 02 04 07 18 8c 80 80   ...3fts.........
|   2576: 80 80 0b 03 00 36 00 00 00 13 03 32 74 61 03 02   .....6.....2ta..
|   2592: 03 02 01 68 03 06 01 01 04 04 07 1b 8c 80 80 80   ...h............
|   2608: 80 0a 03 00 3c 00 00 00 16 03 32 6e 75 03 06 01   ....<.....2nu...
|   2624: 01 05 01 02 6f 66 03 06 01 01 06 04 09 19 8c 80   ....of..........
|   2640: 80 80 80 09 03 00 38 00 00 00 14 03 32 66 74 03   ......8.....2ft.
|   2656: 02 02 01 02 69 73 03 06 01 01 03 04 07 18 8c 80   ....is..........
|   2672: 80 80 80 08 03 00 36 00 00 00 13 02 31 74 03 08   ......6.....1t..
|   2688: 03 01 01 04 01 01 77 03 02 04 04 09 1a 8c 80 80   ......w.........
|   2704: 80 80 07 03 00 3a ff 00 00 15 02 31 6e 03 08 01   .....:.....1n...
|   2720: 01 02 05 01 01 6f 03 06 01 01 06 04 09 18 8c 80   .....o..........
|   2736: 80 80 80 06 03 00 36 00 00 00 13 04 02 31 66 03   ......6......1f.
|   2752: 02 01 f1 01 69 03 06 01 01 03 05 06 1c 8c 80 80   ....i...........
|   2768: 80 80 05 03 00 3e 00 00 00 17 04 30 74 68 65 03   .....>.....0the.
|   2784: 06 01 01 14 01 05 77 68 65 72 65 03 02 04 0a 15   ......where.....
|   2800: 8c 80 80 80 80 04 03 00 30 00 00 00 11 01 01 06   ........0.......
|   2816: 06 30 74 61 62 6c cc 03 02 03 07 1c 8c 80 80 80   .0tabl..........
|   2832: 80 03 03 00 3e 00 00 00 17 07 30 6e 75 6d 62 65   ....>.....0numbe
|   2848: 72 03 06 01 01 05 01 02 6f 66 02 06 04 0d 13 8c   r.......of......
|   2864: 80 80 80 80 02 03 00 2c 00 00 00 0f 01 01 03 02   .......,........
|   2880: 30 6e 03 06 01 01 02 07 1b 8c 80 80 80 80 01 03   0n..............
|   2896: 00 3c 00 00 00 16 08 30 66 74 73 34 61 75 78 03   .<.....0fts4aux.
|   2912: 02 02 01 02 69 73 03 06 04 0c 00 00 00 14 2a 00   ....is........*.
|   2928: 00 00 01 01 02 24 00 02 01 01 12 02 01 12 08 88   .....$..........
|   2944: 80 80 80 80 12 03 00 16 00 00 00 05 02 1c 88 80   ................
|   2960: 80 80 80 11 03 00 3e 00 00 00 17 05 34 72 6f 77   ......>.....4row
|   2976: 73 02 06 01 01 05 01 04 74 68 65 72 02 02 04 0b   s.......ther....
|   2992: 15 88 80 80 80 80 10 03 00 3e 10 00 00 11 02 01   .........>......
|   3008: 01 07 05 34 62 65 74 77 02 02 04 08 1b 88 80 80   ...4betw........
|   3024: 80 80 0f 03 00 3c 00 00 00 16 04 04 33 72 6f 77   .....<......3row
|   3040: 02 06 01 01 05 01 03 74 68 65 02 08 05 0a 1b 88   .......the......
|   3056: 80 80 80 80 0e 03 05 0c 00 00 00 16 01 01 02 04   ................
|   3072: 33 61 72 65 02 02 03 01 03 62 65 74 02 02 07 08   3are.....bet....
|   3088: 1b 88 80 80 80 80 0d 03 00 3c 00 00 00 16 03 32   .........<.....2
|   3104: 74 68 02 08 02 01 01 07 00 04 33 61 6e 64 02 06   th........3and..
|   3120: 04 01 1b 88 80 80 80 80 0c 03 00 3c 00 00 00 16   ...........<....
|   3136: 03 32 69 6e 02 06 01 01 06 01 02 72 6f 02 06 01   .2in.......ro...
|   3152: 01 05 04 09 18 88 80 80 80 80 0b 03 00 36 00 00   .............6..
|   3168: 00 13 02 03 32 61 72 02 02 03 01 02 62 65 02 02   ....2ar.....be..
|   3184: 04 05 07 1b 88 80 bf 80 80 0a 03 00 3c 00 00 00   ............<...
|   3200: 16 02 31 74 02 08 02 01 01 07 00 03 32 61 6e 02   ..1t........2an.
|   3216: 06 01 01 04 09 19 88 80 80 80 80 09 03 00 38 00   ..............8.
|   3232: 00 00 14 02 31 6e 02 06 01 01 03 01 01 72 02 06   ....1n.......r..
|   3248: 01 01 05 03 08 17 88 80 80 80 80 08 03 00 34 00   ..............4.
|   3264: 01 00 12 02 31 62 02 02 04 01 01 69 02 06 01 01   ....1b.....i....
|   3280: 06 04 06 19 88 80 80 80 80 07 03 00 38 00 00 00   ............8...
|   3296: 14 04 02 31 32 02 02 05 01 01 61 02 08 03 01 01   ...12.....a.....
|   3312: 02 05 06 1b 88 80 80 80 80 06 03 00 3c 00 00 00   ............<...
|   3328: 16 06 30 74 68 65 72 65 02 12 02 00 02 31 31 02   ..0there.....11.
|   3344: 06 01 01 04 0a 15 88 80 80 80 80 05 03 00 30 00   ..............0.
|   3360: 00 00 11 01 01 05 04 30 74 68 65 02 06 71 01 07   .......0the..q..
|   3376: 07 1c 88 80 80 80 80 04 03 00 3e 00 00 00 17 01   ..........>.....
|   3392: 01 06 02 30 6e 02 06 01 01 03 01 04 72 6f 77 73   ...0n.......rows
|   3408: 02 06 07 08 1b 88 80 80 80 80 03 03 00 3c 00 00   .............<..
|   3424: 00 16 08 30 62 65 74 77 65 65 6e 02 02 04 01 02   ...0between.....
|   3440: 69 6e 02 06 04 0c 1a 88 80 80 80 80 02 03 00 3a   in.............:
|   3456: 08 f0 00 15 04 30 61 6e 64 02 06 01 01 02 02 02   .....0and.......
|   3472: 72 65 02 02 03 04 0a 17 88 80 80 80 80 01 03 00   re..............
|   3488: 34 00 00 00 12 02 30 31 02 06 01 01 04 01 01 32   4.....01.......2
|   3504: 02 02 07 04 08 08 84 80 80 80 80 12 03 00 16 00   ................
|   3520: 00 00 05 04 1b 84 80 80 80 80 11 03 00 3c 00 00   .............<..
|   3536: 00 16 05 34 74 61 62 6c 01 06 01 01 05 02 03 65   ...4tabl.......e
|   3552: 72 6d 01 02 04 0b 1b 84 80 80 80 80 10 03 00 3c   rm.............<
|   3568: 00 00 00 16 05 34 65 61 63 68 01 02 03 01 04 70   .....4each.....p
|   3584: 72 65 73 01 02 05 04 09 1a 84 80 80 80 80 0f 03   res.............
|   3600: 00 3a 00 00 00 15 04 33 74 65 72 01 02 04 02 02   .:.....3ter.....
|   3616: 68 65 01 06 01 01 03 04 08 1b 84 80 80 80 80 0e   he..............
|   3632: 03 00 3c 00 00 00 16 04 33 70 72 65 01 02 05 01   ..<.....3pre....
|   3648: 03 74 61 62 01 06 01 01 05 04 08 1a 84 80 80 80   .tab............
|   3664: 80 0d 03 00 3a 00 00 00 15 04 33 66 6f 72 01 02   ....:.....3for..
|   3680: 02 02 02 74 73 01 06 01 01 04 03 f8 1b 84 80 80   ...ts...........
|   3696: 80 80 0c 03 00 3c 00 00 00 16 03 32 74 68 01 06   .....<.....2th..
|   3712: 01 01 03 00 04 33 65 61 63 01 02 03 04 09 18 84   .....3eac.......
|   3728: 80 80 80 80 0b 03 00 36 00 00 00 13 03 32 74 61   .......6.....2ta
|   3744: 01 06 01 01 05 02 01 65 00 02 04 04 09 19 84 80   .......e........
|   3760: 80 80 80 0a 03 10 38 00 00 00 14 03 32 69 6e 01   ......8.....2in.
|   3776: 06 01 01 02 01 02 70 72 01 02 05 04 09 18 84 80   ......pr........
|   3792: 80 80 80 09 03 00 36 00 00 00 13 03 32 66 6f 01   ......6.....2fo.
|   3808: 02 02 02 01 74 01 06 01 01 04 04 07 1b 84 80 80   ....t...........
|   3824: 80 80 08 03 00 3c 00 00 00 16 02 31 74 01 0a 04   .....<.....1t...
|   3840: 01 00 03 04 00 03 32 65 61 01 02 03 04 0a 17 84   ......2ea.......
|   3856: 80 80 80 80 07 03 00 34 00 00 00 12 02 31 69 01   .......4.....1i.
|   3872: 06 01 01 02 de 01 70 01 02 05 04 08 18 84 80 80   ......p.........
|   3888: 80 80 06 03 00 36 00 00 00 13 02 31 65 01 02 03   .....6.....1e...
|   3904: 01 01 66 01 08 02 01 01 04 04 06 1b 84 80 80 80   ..f.............
|   3920: 80 05 03 00 3c 00 00 00 16 05 30 74 65 72 6d 01   ....<.....0term.
|   3936: 02 04 02 02 68 65 01 06 01 01 03 04 09 14 84 80   ....he..........
|   3952: 80 80 80 04 03 00 2e 00 00 00 10 06 30 74 61 62   ............0tab
|   3968: 6c 65 01 06 01 01 05 04 15 84 80 80 80 80 03 03   le..............
|   3984: 00 30 00 00 00 11 02 08 30 70 72 65 73 65 6e 74   .0......0present
|   4000: 01 02 05 05 1b 84 80 80 80 80 02 03 00 3c 00 00   .............<..
|   4016: 00 16 04 30 66 74 73 01 06 01 01 04 01 02 69 6e   ...0fts.......in
|   4032: 01 06 01 01 04 0a 1a 84 80 80 80 80 01 03 00 3a   ...............:
|   4048: 00 00 00 15 05 30 65 61 63 68 00 f2 03 01 03 66   .....0each.....f
|   4064: 6f 72 01 02 02 04 09 06 01 03 00 12 03 0b 0f 00   or..............
|   4080: 00 08 8c 80 80 80 80 11 03 00 16 00 00 00 05 04   ................
| page 3 offset 8192
|      0: 0a 00 00 00 32 0e 4f 00 0f fa 0f f1 0f e9 0f e1   ....2.O.........
|     16: 0f d8 0f d1 0f c9 0f c1 0f b9 0f c1 0f a9 0f a0   ................
|     32: 0f 98 0f 90 0f 87 0f 80 0f 78 0f 71 0f 68 0f 5f   .........x.q.h._
|     48: 0f 56 0f 4d 0f 41 0f 38 0f 2f 0f 26 0f 1d 0f 13   .V.M.A.8./.&....
|     64: 0f 0a 0f 01 0e f7 0e ee 0e e6 0e dd 0e d7 0e cd   ................
|     80: 0e c3 0e ba 0e b0 0e a8 0e 9f 0e 96 0e 8e 0e 85   ................
|   3648: 00 00 00 00 00 00 00 00 00 00 00 00 00 00 00 08   ................
|   3664: 04 01 10 01 03 34 74 20 07 04 01 0e 01 03 34 1e   .....4t ......4.
|   3680: 09 04 01 12 34 03 33 74 68 1c 08 04 01 10 01 03   ....4.3th.......
|   3696: 33 6e 1a 08 04 01 10 01 03 32 77 18 08 04 01 10   3n.......2w.....
|   3712: 01 03 32 74 16 08 04 01 10 01 03 32 6e 14 07 04   ..2t.......2n...
|   3728: 01 0e 01 03 32 12 08 04 01 0f f1 03 31 74 10 08   ....2.......1t..
|   3744: 04 01 10 01 03 31 6e 0e 07 04 01 0e 01 03 30 fc   .....1n.......0.
|   3760: 09 04 01 12 01 03 30 74 68 0a 08 04 01 10 01 03   ......0th.......
|   3776: 30 74 08 09 04 01 12 01 03 30 6e 75 06 08 04 01   0t.......0nu....
|   3792: 10 01 03 30 6e 04 06 04 01 0c 01 05 52 08 04 01   ...0n.......R...
|   3808: 10 01 02 34 72 22 07 04 01 0e 01 02 34 20 08 04   ...4r.......4 ..
|   3824: 01 10 01 02 33 72 1e 09 04 01 12 01 02 33 61 72   ....3r.......3ar
|   3840: 1c 08 04 01 10 01 02 32 74 1a 08 04 01 10 b3 02   .......2t.......
|   3856: 32 69 18 09 04 01 12 01 02 32 61 72 16 08 04 01   2i.......2ar....
|   3872: 10 01 02 31 74 14 08 04 01 10 01 02 31 6e 12 08   ...1t.......1n..
|   3888: 04 01 10 01 02 31 62 10 08 04 01 10 01 02 31 32   .....1b.......12
|   3904: 0e 0b 04 01 16 01 02 30 74 68 65 72 0c 08 04 01   .......0ther....
|   3920: 10 01 02 30 74 0a 08 04 01 10 01 02 30 6e 08 08   ...0t.......0n..
|   3936: 04 01 10 01 02 30 62 06 09 04 01 10 01 02 30 61   .....0b.......0a
|   3952: 04 06 04 01 0c 01 02 02 07 04 09 10 01 34 74 22   .............4t.
|   3968: 06 04 09 0e 01 34 20 08 04 09 12 01 33 74 65 1e   .....4 .....3te.
|   3984: 07 04 09 10 01 33 70 1c 07 f4 09 11 01 33 66 1a   .....3p......3f.
|   4000: 08 04 09 12 01 32 74 68 18 07 04 09 10 01 32 e4   .....2th......2.
|   4016: 16 07 04 09 10 01 32 69 14 07 04 09 10 01 32 66   ......2i......2f
|   4032: 12 07 04 09 10 01 31 74 10 07 04 09 10 01 31 69   ......1t......1i
|   4048: 0e 06 04 09 0e 01 31 0c 08 04 09 12 01 30 74 65   ......1......0te
|   4064: 0a 07 04 09 10 01 30 74 08 00 00 00 00 00 00 00   ......0t........
| page 4 offset 12288
|   4064: 00 00 00 00 00 00 00 00 00 00 00 05 03 03 00 10   ................
|   4080: 03 05 05 02 03 00 10 04 06 05 01 03 00 10 04 04   ................
| page 5 offset 16384
|      0: 0a 00 00 00 02 0f eb 00 0f eb 0f f4 00 00 00 00   ................
|   4064: 00 00 00 00 00 00 00 00 00 00 00 08 03 15 01 70   ...............p
|   4080: 67 73 7a 18 0b 03 1b 01 76 65 72 73 69 6f 6e 04   gsz.....version.
| page 6 offset 20480
|   4080: 00 00 23 03 02 01 03 03 02 00 00 00 00 00 00 00   ..#.............
| end crash-5a5acd0ab42d31.db
}]} {}

do_catchsql_test 58.1 {
  SELECT * FROM t1('t*');
} {/*malformed database schema*/}

#-------------------------------------------------------------------------
do_test 59.0 {
  sqlite3 db {}
  sqlite3_fts5_register_matchinfo db
  db deserialize [decode_hexdb {
.open --hexdb
| size 32768 pagesize 4096 filename crash-96b136358d01ec.db
| page 1 offset 0
|      0: 53 51 4c 69 74 65 20 66 6f 72 6d 61 74 20 33 00   SQLite format 3.
|     16: 10 00 01 01 00 40 20 20 00 00 00 00 00 00 00 00   .....@  ........
|     96: 00 00 00 00 0d 0f c7 00 07 0d 92 00 0f 8d 0f 36   ...............6
|    112: 0e cb 0e 6b 0e 0e 0d b6 0d 92 00 00 00 00 00 00   ...k............
|   3472: 00 00 22 08 06 17 11 11 01 31 74 61 62 6c 65 74   .........1tablet
|   3488: 32 74 32 08 43 52 45 41 54 45 20 54 41 42 4c 45   2t2.CREATE TABLE
|   3504: 20 74 32 28 78 29 56 07 06 17 1f 1f 01 7d 74 61    t2(x)V.......ta
|   3520: 62 6c 65 74 31 5f 63 6f 6e 66 69 67 74 31 5f 63   blet1_configt1_c
|   3536: 6f 6e 66 69 67 07 43 52 45 41 54 45 20 54 41 42   onfig.CREATE TAB
|   3552: 4c 45 20 27 74 31 5f 63 6f 6e 66 69 67 27 28 6b   LE 't1_config'(k
|   3568: 20 50 52 49 4d 41 52 59 20 4b 45 59 2c 20 76 29    PRIMARY KEY, v)
|   3584: 20 57 49 54 48 4f 55 54 20 52 4f 57 49 44 5b 06    WITHOUT ROWID[.
|   3600: 07 17 21 21 01 81 01 74 61 62 6c 65 74 31 5f 64   ..!!...tablet1_d
|   3616: 6f 63 73 69 7a 65 74 31 5f 64 6f 63 73 69 7a 65   ocsizet1_docsize
|   3632: 06 43 52 45 41 54 45 20 54 41 42 4c 45 20 27 74   .CREATE TABLE 't
|   3648: 31 5f 64 6f 63 73 69 7a 65 27 28 69 64 20 49 4e   1_docsize'(id IN
|   3664: 54 45 47 45 52 20 50 52 49 4d 41 52 59 20 4b 45   TEGER PRIMARY KE
|   3680: 59 2c 20 73 7a 20 42 4c 4f 42 29 5e 05 07 17 21   Y, sz BLOB)^...!
|   3696: 21 01 81 07 74 61 62 6c 65 74 31 5f 63 6f 6e 74   !...tablet1_cont
|   3712: 65 6e 74 74 31 5f 63 6f 6e 74 65 6e 74 05 43 52   entt1_content.CR
|   3728: 45 41 54 45 20 54 41 42 4c 45 20 27 74 31 5f 63   EATE TABLE 't1_c
|   3744: 6f 6e 74 65 6e 74 27 28 69 64 20 49 4e 54 45 47   ontent'(id INTEG
|   3760: 45 52 20 50 52 49 4d 41 52 59 20 4b 45 59 2c 20   ER PRIMARY KEY, 
|   3776: 63 30 2c 20 63 31 2c d6 63 32 29 69 04 07 17 19   c0, c1,.c2)i....
|   3792: 19 01 81 2d 74 61 62 6c 65 74 31 5f 69 64 78 74   ...-tablet1_idxt
|   3808: 31 5f 69 64 78 04 43 52 45 41 54 45 20 54 41 42   1_idx.CREATE TAB
|   3824: 4c 45 20 27 74 31 5f 69 64 78 27 28 73 65 67 69   LE 't1_idx'(segi
|   3840: 64 2c 20 74 65 72 6d 2c 20 70 67 6e 6f 2c 20 50   d, term, pgno, P
|   3856: 52 49 4d 41 52 59 20 4b 45 59 28 73 65 67 69 64   RIMARY KEY(segid
|   3872: 2c 20 74 65 72 6d 29 29 20 57 49 54 48 4f 55 54   , term)) WITHOUT
|   3888: 20 52 4f 57 49 44 55 03 07 17 1b 1b 01 81 01 74    ROWIDU........t
|   3904: 61 62 6c 65 74 31 5f 64 61 74 61 74 31 5f 64 61   ablet1_datat1_da
|   3920: 74 61 03 43 52 45 41 54 45 20 54 41 42 4c 45 20   ta.CREATE TABLE 
|   3936: 27 74 31 5f 64 61 74 61 27 28 69 64 20 49 4e 54   't1_data'(id INT
|   3952: 45 47 45 52 20 50 52 49 4d 41 52 59 20 4b 45 59   EGER PRIMARY KEY
|   3968: 2c 20 62 6c 6f 63 6b 20 42 4c 4f 42 29 38 02 06   , block BLOB)8..
|   3984: 17 11 11 08 5f 74 61 62 6c 65 74 31 74 31 43 52   ...._tablet1t1CR
|   4000: 45 41 54 45 20 56 49 52 54 55 41 4c 20 54 41 42   EATE VIRTUAL TAB
|   4016: 4c 45 20 74 31 20 55 53 49 4e 47 20 66 74 73 35   LE t1 USING fts5
|   4032: 28 61 2c 62 2c 63 29 00 00 00 00 00 00 00 00 00   (a,b,c).........
| page 3 offset 8192
|      0: 0d 00 00 00 03 0c 93 ff 0f e6 0f ef 0c 94 00 00   ................
|   3216: 00 00 00 00 86 4a 84 80 80 80 80 01 04 00 8d 18   .....J..........
|   3232: 00 00 03 2b 02 30 30 01 02 06 01 02 06 01 02 06   ...+.00.........
|   3248: 1f 02 03 01 02 03 01 02 03 01 08 32 31 31 36 30   ...........21160
|   3264: 36 30 39 01 02 07 01 02 07 01 02 07 01 01 33 f1   609...........3.
|   3280: 02 05 01 02 05 01 02 05 01 01 35 01 02 03 01 02   ..........5.....
|   3296: 04 01 02 04 02 07 30 30 30 30 30 30 30 1c 02 3d   ......0000000..=
|   3312: 01 02 04 01 02 04 01 06 62 69 6e 61 72 79 03 06   ........binary..
|   3328: 01 02 02 03 06 01 01 f2 03 06 4e 02 02 03 06 01   ..........N.....
|   3344: 02 02 03 06 01 02 02 03 06 01 02 02 03 06 01 02   ................
|   3360: 02 03 06 01 02 02 03 06 01 02 02 03 06 01 02 02   ................
|   3376: 03 06 01 02 02 03 06 01 02 02 01 08 63 6f 6d 70   ............comp
|   3392: 69 6c 65 72 01 02 02 01 02 02 01 02 02 01 06 64   iler...........d
|   3408: 62 73 74 61 74 07 02 03 01 02 13 01 02 03 02 04   bstat...........
|   3424: 65 62 75 67 04 02 02 01 02 02 01 02 02 01 07 65   ebug...........e
|   3440: 6e 61 62 6c 65 07 02 02 01 02 02 01 02 02 01 02   nable...........
|   3456: 02 01 02 02 01 02 02 01 02 02 01 02 02 01 02 02   ................
|   3472: 01 02 02 01 02 02 01 02 01 f1 02 02 01 02 02 01   ................
|   3488: 02 02 01 02 02 01 02 02 01 02 02 01 02 02 01 02   ................
|   3504: 02 01 02 02 02 08 78 74 65 6e 73 69 6f 6e 1f 02   ......xtension..
|   3520: 04 01 02 04 01 02 04 01 04 66 74 73 34 0a 02 03   .........fts4...
|   3536: 01 02 03 01 02 03 04 01 25 0d 02 03 01 02 03 01   ........%.......
|   3552: 02 03 01 03 67 63 63 01 02 03 01 02 03 01 02 03   ....gcc.........
|   3568: 02 06 65 6f 70 6f 6c 79 0f f2 03 01 02 03 01 02   ..eopoly........
|   3584: 03 01 05 6a 73 6f 6e 31 13 02 03 01 02 03 01 02   ...json1........
|   3600: 03 01 04 6c 6f 61 64 1f 02 03 01 02 03 01 02 03   ...load.........
|   3616: 00 03 6d 61 78 1c 02 02 01 02 02 01 02 02 02 05   ..max...........
|   3632: 65 6d 6f 72 79 1c 02 03 01 02 03 01 02 03 04 04   emory...........
|   3648: 73 79 73 35 16 02 03 01 02 03 01 02 03 01 06 6e   sys5...........n
|   3664: 6f 63 61 73 65 02 06 01 02 02 13 06 00 f2 02 03   ocase...........
|   3680: 06 01 02 02 13 06 01 02 02 03 06 01 02 02 03 06   ................
|   3696: 01 02 02 03 06 01 02 02 03 06 01 02 02 03 06 01   ................
|   3712: 02 02 03 06 01 02 02 03 06 01 02 02 03 06 01 02   ................
|   3728: 02 01 04 6f 6d 69 74 1f 02 02 01 02 02 01 02 02   ...omit.........
|   3744: 01 0a 22 74 72 65 65 19 02 03 01 02 03 01 02 03   ...tree.........
|   3760: 04 02 69 6d 01 06 01 02 02 03 06 01 02 02 03 06   ..im............
|   3776: 01 02 02 03 06 01 02 02 03 06 01 02 02 03 06 01   ................
|   3792: 02 02 03 06 01 02 02 03 06 01 02 02 03 06 01 02   ................
|   3808: 02 03 06 01 02 02 03 06 01 02 02 03 06 01 02 02   ................
|   3824: 01 0a 74 68 72 65 61 64 73 61 66 65 22 02 02 01   ..threadsafe....
|   3840: 02 02 01 02 02 01 04 76 74 61 62 07 02 04 01 02   .......vtab.....
|   3856: 04 01 02 04 01 01 78 01 06 01 01 02 01 06 01 01   ......x.........
|   3872: 02 01 06 01 01 02 01 06 01 01 02 01 06 01 01 02   ................
|   3888: 01 06 01 11 02 01 06 01 01 02 01 06 01 01 02 01   ................
|   3904: 06 01 01 02 01 06 01 01 02 01 06 01 01 02 01 06   ................
|   3920: 01 01 02 01 06 01 01 02 01 06 01 01 02 01 06 01   ................
|   3936: 01 02 01 06 01 01 02 01 06 01 01 02 01 06 01 01   ................
|   3952: 02 01 06 01 01 01 f1 06 01 01 02 ad 06 01 01 02   ................
|   3968: 01 06 01 01 02 01 06 01 01 02 01 06 01 01 02 01   ................
|   3984: 06 01 01 01 01 06 01 01 02 01 06 01 01 02 01 06   ................
|   4000: 01 01 02 01 06 01 01 02 01 06 01 01 02 01 06 01   ................
|   4016: 01 02 01 06 01 01 02 01 06 01 01 02 01 06 01 01   ................
|   4032: 02 01 06 01 01 02 01 06 01 01 02 04 15 13 0c 0c   ................
|   4048: 12 44 13 11 0f 47 13 0e fc 0e 11 10 0f 0e 10 0f   .D...G..........
|   4064: 44 0f 10 40 15 0f 07 01 03 00 14 24 5a 24 24 0f   D..@.......$Z$$.
|   4080: 0a 03 00 24 00 00 00 00 01 01 01 00 01 01 01 01   ...$............
| page 4 offset 12288
|      0: 0a 00 00 00 00 00 00 00 00 00 00 00 00 00 00 00   ................
|   4080: 00 00 00 00 00 00 00 00 00 00 05 04 09 0c 01 02   ................
| page 5 offset 16384
|      0: 0d 00 00 00 00 00 00 00 00 00 00 00 00 00 00 00   ................
|   3072: 00 00 00 00 00 00 00 00 00 00 18 24 05 00 25 0f   ...........$..%.
|   3088: 19 54 48 52 45 41 44 53 41 46 45 3d 30 58 42 49   .THREADSAFE=0XBI
|   3104: 4e 41 52 59 18 23 05 00 25 0f 19 54 48 52 45 41   NARY.#..%..THREA
|   3120: 44 53 41 46 45 3d 30 58 4e 4f 43 41 53 45 17 8f   DSAFE=0XNOCASE..
|   3136: 05 00 25 0f 17 54 48 52 45 41 44 53 41 46 45 3d   ..%..THREADSAFE=
|   3152: 30 58 52 54 52 49 4d 1f 21 05 00 33 0f 19 45 ed   0XRTRIM.!..3..E.
|   3168: 49 54 20 4c 4f 41 44 21 45 58 54 45 4e 53 49 4f   IT LOAD!EXTENSIO
|   3184: 4e 58 42 49 4e 41 52 59 1f 20 05 00 33 0f 19 4f   NXBINARY. ..3..O
|   3200: 4d 49 54 20 4c 4f 41 44 20 45 58 54 45 4e 5a 29   MIT LOAD EXTENZ)
|   3216: 4f 4e 58 4e 4f 43 41 53 45 1e 1f 05 00 33 0f 17   ONXNOCASE....3..
|   3232: 4f 4d 59 54 20 4c 4f 41 44 20 45 58 54 45 4e 53   OMYT LOAD EXTENS
|   3248: 49 4f 4e 58 52 54 56 a9 4d 1f 1e 05 00 33 0f 19   IONXRTV.M....3..
|   3264: 4d 41 58 20 4d 45 4d 4f 52 59 3d 35 30 30 30 30   MAX MEMORY=50000
|   3280: 30 30 30 57 42 49 4e 31 52 59 1f 1d 05 00 33 0f   000WBIN1RY....3.
|   3296: 19 4d 41 58 20 4d 45 4d 4f 52 59 3d 35 30 30 30   .MAX MEMORY=5000
|   3312: 30 30 30 30 58 4e 4f 43 41 53 45 1e 1c 05 00 32   0000XNOCASE....2
|   3328: 0f 17 4e 41 58 20 4d 45 4d 4f 52 59 2d 35 30 30   ..NAX MEMORY-500
|   3344: 30 30 30 30 30 58 52 54 52 49 4d 18 1b 05 00 25   00000XRTRIM....%
|   3360: 0f 19 45 4e 41 42 4c 45 20 52 54 52 45 45 58 42   ..ENABLE RTREEXB
|   3376: 49 4e 41 52 59 18 1a 05 00 25 0f 19 45 4e 41 42   INARY....%..ENAB
|   3392: 4c 45 20 52 54 52 45 45 59 4e 4f 43 41 53 45 17   LE RTREEYNOCASE.
|   3408: 19 66 00 25 0f 17 45 4e 41 42 4c 45 20 52 54 52   .f.%..ENABLE RTR
|   3424: 45 45 58 52 54 52 49 4d 1a 18 05 00 29 0f 19 45   EEXRTRIM....)..E
|   3440: 4e 41 42 4c 45 20 4d 45 4d 53 59 53 35 58 42 49   NABLE MEMSYS5XBI
|   3456: 4e 41 52 59 1a 17 05 00 29 0f 19 45 4e 41 42 4c   NARY....)..ENABL
|   3472: 45 20 4d 45 4d 53 59 53 35 58 4e 4f 43 41 53 45   E MEMSYS5XNOCASE
|   3488: 19 16 05 00 29 0f 17 45 4e 41 42 4c 45 20 4d 45   ....)..ENABLE ME
|   3504: 4d 53 59 76 35 58 52 54 52 49 4d 18 15 05 10 25   MSYv5XRTRIM....%
|   3520: 0f 19 45 4e 40 42 4c 45 20 4a 53 4f 4e 31 58 42   ..EN@BLE JSON1XB
|   3536: 49 4e 41 52 59 18 14 05 00 25 0f 19 45 4e 41 42   INARY....%..ENAB
|   3552: 4c 45 20 4a 53 4f 4e 32 58 4e 4f 43 41 53 45 17   LE JSON2XNOCASE.
|   3568: 13 05 00 25 0f 17 45 4e 41 42 4c 45 20 4a 53 4f   ...%..ENABLE JSO
|   3584: 4e 31 58 52 54 52 49 4d 1a 12 05 00 29 0f 19 45   N1XRTRIM....)..E
|   3600: 4e 41 42 4c 45 20 47 45 4f 50 4f 4c 59 58 42 49   NABLE GEOPOLYXBI
|   3616: 4e 41 52 59 1a 11 05 00 29 0f 19 45 5f 81 42 4c   NARY....)..E_.BL
|   3632: 45 20 47 45 4f 50 4f 4c 59 58 4e 4f 43 51 53 45   E GEOPOLYXNOCQSE
|   3648: 19 10 05 00 29 0f 17 45 4e 41 42 4c 45 20 47 45   ....)..ENABLE GE
|   3664: 4f 50 4f 4c 59 58 52 54 52 49 4d 17 0f 05 00 23   OPOLYXRTRIM....#
|   3680: 0f 1a 45 4e 41 42 4c 45 20 56 54 43 35 58 42 49   ..ENABLE VTC5XBI
|   3696: 4e 41 52 59 17 0e 05 00 23 0f 19 45 4e 41 42 4c   NARY....#..ENABL
|   3712: 45 20 46 54 53 35 48 4e 4f 43 41 53 45 16 1d 05   E FTS5HNOCASE...
|   3728: 00 23 0f a4 45 4e 41 42 4c 45 20 46 54 53 35 58   .#..ENABLE FTS5X
|   3744: 52 54 52 49 4d 17 0c 05 00 23 0f 19 45 4e 41 42   RTRIM....#..ENAB
|   3760: 4c 45 20 46 55 53 34 58 42 49 4e 41 52 59 17 0b   LE FUS4XBINARY..
|   3776: 05 00 23 0f 19 45 4e 41 42 4c 45 20 46 54 53 34   ..#..ENABLE FTS4
|   3792: 57 4e 4f 43 41 53 45 16 0a 05 00 23 0f 17 45 4e   WNOCASE....#..EN
|   3808: 41 42 4c 45 20 46 54 53 34 05 52 54 52 49 4d 1e   ABLE FTS4.RTRIM.
|   3824: 09 05 00 31 0f 19 45 4e 41 42 4c 45 20 44 42 53   ...1..ENABLE DBS
|   3840: 54 41 54 20 56 54 41 42 58 42 49 4e 41 52 59 1e   TAT VTABXBINARY.
|   3856: 08 05 00 31 0f 19 45 4e 41 42 4c 45 20 44 42 53   ...1..ENABLE DBS
|   3872: 54 41 54 20 56 54 41 42 58 4e 4f 43 41 53 45 1d   TAT VTABXNOCASE.
|   3888: 07 05 00 31 0f 17 45 4e 41 42 4c 45 20 44 42 53   ...1..ENABLE DBS
|   3904: 54 41 54 20 56 54 41 42 58 52 54 52 49 4d 11 06   TAT VTABXRTRIM..
|   3920: 05 00 17 0f 19 44 45 42 55 47 58 42 49 4e 41 52   .....DEBUGXBINAR
|   3936: 59 11 05 05 00 17 0f 19 44 45 42 55 47 58 4e 4f   Y.......DEBUGXNO
|   3952: 43 41 53 45 10 04 05 00 17 0f 17 44 45 42 55 47   CASE.......DEBUG
|   3968: 58 52 54 52 49 4d 27 03 05 00 43 0f 19 43 4f 4d   XRTRIM'...C..COM
|   3984: 50 49 4c 45 52 3d 67 63 63 2d 35 2e 34 2e 30 20   PILER=gcc-5.4.0 
|   4000: 32 30 31 36 30 36 30 39 58 42 49 4e 41 52 59 27   20160609XBINARY'
|   4016: 02 05 00 43 0f 19 43 4f 4d 50 49 4c 45 52 3f 87   ...C..COMPILER?.
|   4032: 63 63 2d 35 2e 34 2e 30 20 32 30 31 36 30 36 30   cc-5.4.0 2016060
|   4048: 39 58 4e 4f 43 41 53 45 26 01 05 00 43 0f 17 43   9XNOCASE&...C..C
|   4064: 45 0d 60 59 4c 45 52 3d 67 63 63 2d 35 2e 34 00   E.`YLER=gcc-5.4.
| page 6 offset 20480
|   3808: 06 24 03 00 12 02 01 01 06 23 03 00 12 02 01 01   .$.......#......
|   3824: 06 22 03 01 12 02 01 01 06 21 03 00 12 03 01 01   .........!......
|   3840: 06 20 03 00 12 03 01 01 06 1f 03 00 12 03 02 01   . ..............
|   3856: 06 1e 03 00 12 03 01 01 06 1d 03 00 12 03 01 01   ................
|   3872: 06 1c 03 00 12 03 01 01 06 1b 03 00 12 02 01 01   ................
|   3888: 06 1a 03 00 12 02 01 01 06 19 03 00 12 02 01 01   ................
|   3904: 06 18 03 00 12 02 01 01 06 17 03 00 12 02 01 01   ................
|   3920: 06 16 03 00 12 02 01 01 06 15 03 00 12 02 01 01   ................
|   3936: 06 14 03 00 12 02 01 01 06 13 03 00 12 02 01 01   ................
|   3952: 06 12 03 00 12 02 01 01 06 11 03 00 12 02 01 01   ................
|   3968: 06 00 03 00 12 02 01 01 06 0f 03 00 12 02 01 01   ................
|   3984: 06 0e 03 00 12 02 01 01 06 0d 03 00 12 02 01 01   ................
|   4000: 06 0c 03 00 12 02 01 01 06 0b 03 10 12 02 01 01   ................
|   4016: 06 0a 03 00 12 02 01 01 06 09 03 00 12 03 01 01   ................
|   4032: 06 08 03 00 12 03 01 01 06 07 03 00 12 03 01 01   ................
|   4048: 07 06 03 00 12 01 01 01 06 05 03 00 12 01 01 01   ................
|   4064: 06 04 03 00 12 01 01 01 06 03 03 00 12 06 01 01   ................
|   4080: 06 02 03 00 12 06 01 01 06 01 03 00 12 06 01 01   ................
| page 7 offset 24576
|      0: 0a 00 00 00 01 0f f4 00 0f f4 00 00 00 00 00 00   ................
|   4080: 00 00 00 00 0b 03 1b 01 76 65 72 73 69 6f 6e 04   ........version.
| page 8 offset 28672
|   4048: 00 00 00 00 00 00 5d 03 02 2b 69 6e 74 00 00 00   ......]..+int...
| end crash-96b136358d01ec.db
}]} {}

do_catchsql_test 59.1 {
  SELECT (matchinfo(591,t1)) FROM t1 WHERE t1 MATCH 'e*e'
} {0 {}}

#-------------------------------------------------------------------------
do_test 60.0 {
  sqlite3 db {}
  sqlite3_fts5_register_matchinfo db
  db deserialize [decode_hexdb {
.open --hexdb
| size 32768 pagesize 4096 filename crash-c77b90b929dc92.db
| page 1 offset 0
|      0: 53 51 4c 69 74 65 20 66 6f 72 6d 61 74 20 33 00   SQLite format 3.
|     16: 10 00 01 01 00 40 20 20 00 00 00 00 00 00 00 00   .....@  ........
|     96: 00 00 00 00 0d 0f c7 00 07 0d 92 00 0f 8d 0f 36   ...............6
|    112: 0e cb 0e 6b 0e 0e 0d b6 0d 92 00 00 00 00 00 00   ...k............
|   3472: 00 00 22 08 06 17 11 11 01 31 74 61 62 6c 65 74   .........1tablet
|   3488: 32 74 32 08 43 52 45 41 54 45 20 54 41 42 4c 45   2t2.CREATE TABLE
|   3504: 20 74 32 28 78 29 56 07 06 17 1f 1f 01 7d 74 61    t2(x)V.......ta
|   3520: 62 6c 65 74 31 5f 63 6f 6e 66 69 67 74 31 5f 63   blet1_configt1_c
|   3536: 6f 6e 66 69 67 07 43 52 45 41 54 45 20 54 41 42   onfig.CREATE TAB
|   3552: 4c 45 20 27 74 31 5f 63 6f 6e 66 69 67 27 28 6b   LE 't1_config'(k
|   3568: 20 50 52 49 4d 41 52 59 20 4b 45 59 2c 20 76 29    PRIMARY KEY, v)
|   3584: 20 57 49 54 48 4f 55 54 20 52 4f 57 49 44 5b 06    WITHOUT ROWID[.
|   3600: 07 17 21 21 01 81 01 74 61 62 6c 65 74 31 5f 64   ..!!...tablet1_d
|   3616: 6f 63 73 69 7a 65 74 31 5f 64 6f 63 73 69 7a 65   ocsizet1_docsize
|   3632: 06 43 52 45 41 54 45 20 54 41 42 4c 45 20 27 74   .CREATE TABLE 't
|   3648: 31 5f 64 6f 63 73 69 7a 65 27 28 69 64 20 49 4e   1_docsize'(id IN
|   3664: 54 45 47 45 52 20 50 52 49 4d 41 52 59 20 4b 45   TEGER PRIMARY KE
|   3680: 59 2c 20 73 7a 20 42 4c 4f 42 29 5e 05 07 17 21   Y, sz BLOB)^...!
|   3696: 21 01 81 07 74 61 62 6c 65 74 31 5f 63 6f 6e 74   !...tablet1_cont
|   3712: 65 6e 74 74 31 5f 63 6f 6e 74 65 6e 74 05 43 52   entt1_content.CR
|   3728: 45 41 54 45 20 54 41 42 4c 45 20 27 74 31 5f 63   EATE TABLE 't1_c
|   3744: 6f 6e 74 65 6e 74 27 28 69 64 20 49 4e 54 45 47   ontent'(id INTEG
|   3760: 45 52 20 50 52 49 4d 41 52 59 20 4b 45 59 2c 20   ER PRIMARY KEY, 
|   3776: 63 30 2c 20 63 31 2c d6 63 32 29 69 04 07 17 19   c0, c1,.c2)i....
|   3792: 19 01 81 2d 74 61 62 6c 65 74 31 5f 69 64 78 74   ...-tablet1_idxt
|   3808: 31 5f 69 64 78 04 43 52 45 41 54 45 20 54 41 42   1_idx.CREATE TAB
|   3824: 4c 45 20 27 74 31 5f 69 64 78 27 28 73 65 67 69   LE 't1_idx'(segi
|   3840: 64 2c 20 74 65 72 6d 2c 20 70 67 6e 6f 2c 20 50   d, term, pgno, P
|   3856: 52 49 4d 41 52 59 20 4b 45 59 28 73 65 67 69 64   RIMARY KEY(segid
|   3872: 2c 20 74 65 72 6d 29 29 20 57 49 54 48 4f 55 54   , term)) WITHOUT
|   3888: 20 52 4f 57 49 44 55 03 07 17 1b 1b 01 81 01 74    ROWIDU........t
|   3904: 61 62 6c 65 74 31 5f 64 61 74 61 74 31 5f 64 61   ablet1_datat1_da
|   3920: 74 61 03 43 52 45 41 54 45 20 54 41 42 4c 45 20   ta.CREATE TABLE 
|   3936: 27 74 31 5f 64 61 74 61 27 28 69 64 20 49 4e 54   't1_data'(id INT
|   3952: 45 47 45 52 20 50 52 49 4d 41 52 59 20 4b 45 59   EGER PRIMARY KEY
|   3968: 2c 20 62 6c 6f 63 6b 20 42 4c 4f 42 29 38 02 06   , block BLOB)8..
|   3984: 17 11 11 08 5f 74 61 62 6c 65 74 31 74 31 43 52   ...._tablet1t1CR
|   4000: 45 41 54 45 20 56 49 52 54 55 41 4c 20 54 41 42   EATE VIRTUAL TAB
|   4016: 4c 45 20 74 31 20 55 53 49 4e 47 20 66 74 73 35   LE t1 USING fts5
|   4032: 28 61 2c 62 2c 63 29 00 00 00 00 00 00 00 00 00   (a,b,c).........
| page 3 offset 8192
|      0: 0d 00 00 00 03 0c 93 ff 0f e6 0f ef 0c 94 00 00   ................
|   3216: 00 00 00 00 86 4a 84 80 80 80 80 01 04 00 8d 18   .....J..........
|   3232: 00 00 03 2b 02 30 30 01 02 06 01 02 06 01 02 06   ...+.00.........
|   3248: 1f 02 03 01 02 03 01 02 03 01 08 32 31 31 36 30   ...........21160
|   3264: 36 30 39 01 02 07 01 02 07 01 02 07 01 01 33 f1   609...........3.
|   3280: 02 05 01 02 05 01 02 05 01 01 35 01 02 03 01 02   ..........5.....
|   3296: 04 01 02 04 02 07 30 30 30 30 30 30 30 1c 02 3d   ......0000000..=
|   3312: 01 02 04 01 02 04 01 06 62 69 6e 61 72 79 03 06   ........binary..
|   3328: 01 02 02 03 06 01 01 f2 03 06 4e 02 02 03 06 01   ..........N.....
|   3344: 02 02 03 06 01 02 02 03 06 01 02 02 03 06 01 02   ................
|   3360: 02 03 06 01 02 02 03 06 01 02 02 03 06 01 02 02   ................
|   3376: 03 06 01 02 02 03 06 01 02 02 01 08 63 6f 6d 70   ............comp
|   3392: 69 6c 65 72 01 02 02 01 02 02 01 02 02 01 06 64   iler...........d
|   3408: 62 73 74 61 74 07 02 03 01 02 13 01 02 03 02 04   bstat...........
|   3424: 65 62 75 67 04 02 02 01 02 02 01 02 02 01 07 65   ebug...........e
|   3440: 6e 61 62 6c 65 07 02 02 01 02 02 01 02 02 01 02   nable...........
|   3456: 02 01 02 02 01 02 02 01 02 02 01 02 02 01 02 02   ................
|   3472: 01 02 02 01 02 02 01 02 02 01 02 02 01 02 02 01   ................
|   3488: 02 02 01 02 02 01 02 02 01 02 02 01 02 02 01 02   ................
|   3504: 02 01 02 02 02 08 76 b4 65 6e 73 69 6f 6e 1f 02   ......v.ension..
|   3520: 04 01 02 04 01 02 04 01 04 66 74 73 34 0a 02 03   .........fts4...
|   3536: 01 02 03 01 02 03 04 01 25 0d 02 03 01 02 03 01   ........%.......
|   3552: 02 03 01 03 67 63 63 01 02 03 01 02 03 01 02 03   ....gcc.........
|   3568: 02 06 65 6f 70 6f 6c 79 0f f2 03 01 02 03 01 02   ..eopoly........
|   3584: 03 01 05 6a 73 6f 6e 31 13 02 03 01 02 03 01 02   ...json1........
|   3600: 03 01 04 6c 6f 61 64 1f 02 03 01 02 03 01 02 03   ...load.........
|   3616: 00 03 6d 61 78 1c 02 0c 01 02 02 01 02 02 02 05   ..max...........
|   3632: 65 6d 6f 72 79 1c 02 03 01 02 03 01 02 03 04 04   emory...........
|   3648: 73 79 73 35 16 02 03 01 02 03 01 02 03 01 06 6e   sys5...........n
|   3664: 6f 63 61 73 65 02 06 01 02 02 13 06 00 f2 02 03   ocase...........
|   3680: 06 01 12 02 13 06 01 02 02 03 06 01 02 02 03 06   ................
|   3696: 01 02 02 03 06 01 02 02 03 06 01 02 02 03 06 01   ................
|   3712: 02 02 03 06 01 02 02 03 06 01 02 02 03 06 01 02   ................
|   3728: 02 01 04 6f 6d 69 74 1f 02 02 01 02 02 01 02 02   ...omit.........
|   3744: 01 05 72 74 72 65 65 19 02 03 01 02 03 01 02 03   ..rtree.........
|   3760: 04 02 69 6d 01 06 01 02 02 03 06 01 02 02 03 06   ..im............
|   3776: 01 02 02 03 06 01 02 02 03 06 01 02 02 03 06 01   ................
|   3792: 02 02 03 06 01 02 02 03 06 01 02 02 03 06 01 02   ................
|   3808: 02 03 06 01 02 02 03 06 01 02 02 03 06 01 02 02   ................
|   3824: 01 0a 74 68 72 65 61 64 73 61 66 65 22 02 02 01   ..threadsafe....
|   3840: 02 02 01 02 02 01 04 76 74 61 62 07 02 04 01 02   .......vtab.....
|   3856: 04 01 02 04 01 01 78 01 06 01 01 02 01 06 01 01   ......x.........
|   3872: 02 01 06 01 01 02 01 06 01 01 02 01 06 01 01 02   ................
|   3888: 01 06 01 11 02 01 06 01 01 02 01 06 01 01 02 01   ................
|   3904: 06 01 01 02 01 06 01 01 02 01 06 01 01 02 01 06   ................
|   3920: 01 01 02 01 06 01 01 02 01 06 01 01 02 01 06 01   ................
|   3936: 01 02 01 06 01 01 02 01 06 01 01 02 01 06 01 01   ................
|   3952: 02 01 06 01 01 01 f1 06 01 01 02 ad 06 01 01 02   ................
|   3968: 01 06 01 01 02 01 06 01 01 02 01 06 01 01 02 01   ................
|   3984: 06 01 01 01 01 06 01 01 02 01 06 01 01 02 01 06   ................
|   4000: 01 01 02 01 06 01 01 02 01 06 01 01 02 01 06 01   ................
|   4016: 01 02 01 06 01 01 02 01 06 01 01 02 01 06 01 01   ................
|   4032: 02 01 06 01 01 02 01 06 01 01 02 04 15 13 0c 0c   ................
|   4048: 12 44 13 11 0f 47 13 0e fc 0e 11 10 0f 0e 10 0f   .D...G..........
|   4064: 44 0f 10 40 15 0f 07 01 03 00 14 24 5a 24 24 0f   D..@.......$Z$$.
|   4080: 0a 03 00 24 00 00 00 00 01 01 01 00 01 01 01 01   ...$............
| page 4 offset 12288
|      0: 0a 00 00 00 01 0f 00 00 00 00 00 00 00 00 00 00   ................
|   4080: 00 00 00 00 00 00 00 00 00 00 05 04 09 0c 01 02   ................
| page 5 offset 16384
|      0: 0d 00 00 00 24 0c 0a 00 0f 00 00 00 00 00 00 00   ....$...........
|   3072: 00 00 00 00 00 00 00 00 00 00 18 24 05 00 25 0f   ...........$..%.
|   3088: 19 54 48 52 45 41 44 53 41 46 45 3d 30 58 42 49   .THREADSAFE=0XBI
|   3104: 4e 41 52 59 18 23 05 00 25 0f 19 54 48 52 45 41   NARY.#..%..THREA
|   3120: 44 53 41 46 45 3d 30 58 4e 4f 43 41 53 45 17 8f   DSAFE=0XNOCASE..
|   3136: 05 00 25 0f 17 54 48 52 45 41 44 43 41 46 45 3d   ..%..THREADCAFE=
|   3152: 30 58 52 54 52 49 4d 1f 21 05 00 33 0f 19 4f 4d   0XRTRIM.!..3..OM
|   3168: 49 54 20 4b 4f 41 44 21 45 58 54 45 4e 53 49 4f   IT KOAD!EXTENSIO
|   3184: 4e 58 42 49 4e 41 52 59 1f 20 05 00 33 0f 19 4f   NXBINARY. ..3..O
|   3200: 4d 49 54 20 4c 4f 41 44 20 45 58 54 45 4e 53 49   MIT LOAD EXTENSI
|   3216: 4f 4e 58 4e 4f 43 41 53 45 1e 1f 05 00 33 0f 17   ONXNOCASE....3..
|   3232: 4f 4d 59 54 20 4c 4f 41 44 20 45 58 54 45 4e 53   OMYT LOAD EXTENS
|   3248: 49 4f 4e 58 52 54 56 a9 4d 1f 1e 05 00 33 0f 19   IONXRTV.M....3..
|   3264: 4d 41 58 20 4d 45 4d 4f 52 59 3d 35 30 30 30 30   MAX MEMORY=50000
|   3280: 30 30 30 57 42 49 4e 31 52 59 1f 1d 05 00 33 0f   000WBIN1RY....3.
|   3296: 19 4d 41 58 20 4d 45 4d 4f 52 59 3d 35 30 30 30   .MAX MEMORY=5000
|   3312: 30 30 30 30 58 4e 4f 43 41 53 45 1e 1c 05 00 32   0000XNOCASE....2
|   3328: 0f 17 4e 41 58 20 4d 45 4d 4f 52 59 2d 35 30 30   ..NAX MEMORY-500
|   3344: 30 30 30 30 30 58 52 54 52 49 4d 18 1b 05 00 25   00000XRTRIM....%
|   3360: 0f 19 45 4e 41 42 4c 45 20 52 54 52 45 45 58 42   ..ENABLE RTREEXB
|   3376: 49 4e 41 52 59 18 1a 05 00 25 0f 19 45 4e 41 42   INARY....%..ENAB
|   3392: 4c 45 20 52 54 52 45 45 59 4e 4f 43 41 53 45 17   LE RTREEYNOCASE.
|   3408: 19 66 00 25 0f 17 45 4e 41 42 4c 45 20 52 54 52   .f.%..ENABLE RTR
|   3424: 45 45 58 52 54 52 49 4d 1a 18 05 00 29 0f 19 45   EEXRTRIM....)..E
|   3440: 4e 41 42 4c 45 20 4d 45 4d 53 59 53 35 58 42 49   NABLE MEMSYS5XBI
|   3456: 4e 41 52 59 1a 17 05 00 29 0f 19 45 4e 41 42 4c   NARY....)..ENABL
|   3472: 45 20 4d 45 4d 53 59 53 35 58 4e 4f 43 41 53 45   E MEMSYS5XNOCASE
|   3488: 19 16 05 00 29 0f 17 45 4e 41 42 4c 45 20 4d 45   ....)..ENABLE ME
|   3504: 4d 53 59 53 35 58 52 54 52 49 4d 18 15 05 10 25   MSYS5XRTRIM....%
|   3520: 0f 19 45 4e 40 42 4c 45 20 4a 53 4f 4e 31 58 42   ..EN@BLE JSON1XB
|   3536: 49 4e 41 52 59 18 14 05 00 25 0f 19 45 4e 41 42   INARY....%..ENAB
|   3552: 4c 45 20 4a 53 4f 4e 32 58 4e 4f 43 41 53 45 17   LE JSON2XNOCASE.
|   3568: 13 05 00 25 0f 17 45 4e 41 42 4c 45 20 4a 53 4f   ...%..ENABLE JSO
|   3584: 4e 31 58 52 54 52 49 4d 1a 12 05 00 29 0f 19 45   N1XRTRIM....)..E
|   3600: 4e 41 42 4c 45 20 47 45 4f 50 4f 4c 59 58 42 49   NABLE GEOPOLYXBI
|   3616: 4e 41 52 59 1a 11 05 00 29 0f 19 45 4f 81 42 4c   NARY....)..EO.BL
|   3632: 45 20 47 45 4f 50 4f 4c 59 58 4e 4f 43 51 53 45   E GEOPOLYXNOCQSE
|   3648: 19 10 05 00 29 0f 17 45 4e 41 42 4c 45 20 47 45   ....)..ENABLE GE
|   3664: 4f 50 4f 4c 59 58 52 54 52 49 4d 17 0f 05 00 23   OPOLYXRTRIM....#
|   3680: 0f 1a 45 4e 41 42 4c 45 20 46 54 53 35 58 42 49   ..ENABLE FTS5XBI
|   3696: 4e 41 52 59 17 0e 05 00 23 0f 19 45 4e 41 42 4c   NARY....#..ENABL
|   3712: 45 20 46 54 53 35 48 4e 4f 43 41 53 45 16 1d 05   E FTS5HNOCASE...
|   3728: 00 23 0f a4 45 4e 41 42 4c 45 20 46 54 53 35 58   .#..ENABLE FTS5X
|   3744: 52 54 52 49 4d 17 0c 05 00 23 0f 19 45 4e 41 42   RTRIM....#..ENAB
|   3760: 4c 45 20 46 55 53 34 58 42 49 4e 41 52 59 17 0b   LE FUS4XBINARY..
|   3776: 05 00 23 0f 19 45 4e 41 42 4c 45 20 46 54 53 34   ..#..ENABLE FTS4
|   3792: 57 4e 4f 43 41 53 45 16 0a 05 00 23 0f 17 45 4e   WNOCASE....#..EN
|   3808: 41 42 4c 45 20 46 54 53 34 05 52 54 52 49 4d 1e   ABLE FTS4.RTRIM.
|   3824: 09 05 00 31 0f 19 45 4e 41 42 4c 45 20 44 42 53   ...1..ENABLE DBS
|   3840: 54 41 54 20 56 54 41 42 58 42 49 4e 41 52 59 1e   TAT VTABXBINARY.
|   3856: 08 05 00 31 0f 19 45 4e 41 42 4c 45 20 44 42 53   ...1..ENABLE DBS
|   3872: 54 41 54 20 56 54 41 42 58 4e 4f 43 41 53 45 1d   TAT VTABXNOCASE.
|   3888: 07 05 00 31 0f 17 45 4e 41 42 4c 45 20 44 42 53   ...1..ENABLE DBS
|   3904: 54 41 54 20 56 54 41 42 58 52 54 52 49 4d 11 06   TAT VTABXRTRIM..
|   3920: 05 00 17 0f 19 44 45 42 55 47 58 42 8a 4e 41 52   .....DEBUGXB.NAR
|   3936: 59 11 05 05 00 17 0f 19 44 45 42 55 47 58 4e 4f   Y.......DEBUGXNO
|   3952: 43 41 53 45 10 04 05 00 17 0f 17 44 45 42 55 47   CASE.......DEBUG
|   3968: 58 52 54 52 49 4d 27 03 05 00 43 0f 19 43 4f 4d   XRTRIM'...C..COM
|   3984: 50 49 4c 45 52 3d 67 63 63 2d 35 2e 34 2e 30 20   PILER=gcc-5.4.0 
|   4000: 32 30 31 36 30 36 30 39 58 42 49 4e 41 52 59 27   20160609XBINARY'
|   4016: 02 05 00 43 0f 19 43 4f 4d 50 49 4c 45 52 3f 87   ...C..COMPILER?.
|   4032: 63 63 2d 35 2e 34 2e 30 20 32 30 31 36 30 36 30   cc-5.4.0 2016060
|   4048: 39 58 4e 4f 43 41 53 45 26 01 05 00 43 0f 17 43   9XNOCASE&...C..C
|   4064: 45 0d 60 59 4c 45 52 3d 67 63 63 2d 35 2e 34 2e   E.`YLER=gcc-5.4.
|   4080: 30 20 32 30 31 36 30 36 30 39 68 52 54 52 49 4d   0 20160609hRTRIM
| page 6 offset 20480
|      0: 0d 00 00 00 24 0e 00 00 00 00 00 00 00 00 00 00   ....$...........
|   3808: 06 24 03 00 12 02 01 01 06 23 03 00 12 02 01 01   .$.......#......
|   3824: 06 22 03 01 12 02 01 01 06 21 03 00 12 03 01 01   .........!......
|   3840: 06 20 03 00 12 03 01 01 06 1f 03 00 12 03 02 01   . ..............
|   3856: 06 1e 03 00 12 03 01 01 06 1d 03 00 12 03 01 01   ................
|   3872: 06 1c 03 00 12 03 01 01 06 1b 03 00 12 02 01 01   ................
|   3888: 06 1a 03 00 12 02 01 01 06 19 03 00 12 02 01 01   ................
|   3904: 06 18 03 00 12 02 01 01 06 17 03 00 12 02 01 01   ................
|   3920: 06 16 03 00 12 02 01 01 06 15 03 00 12 02 01 01   ................
|   3936: 06 14 03 00 12 02 01 01 06 13 03 00 12 02 01 01   ................
|   3952: 06 12 03 00 12 02 01 01 06 11 03 00 12 02 01 01   ................
|   3968: 06 00 03 00 12 02 01 01 06 0f 03 00 12 02 01 01   ................
|   3984: 06 0e 03 00 12 02 01 01 06 0d 03 00 12 02 01 01   ................
|   4000: 06 0c 03 00 12 02 01 01 06 0b 03 00 12 02 01 01   ................
|   4016: 06 0a 03 00 12 02 01 01 06 09 03 00 12 03 01 01   ................
|   4032: 06 08 03 00 12 03 01 01 06 07 03 00 12 03 01 01   ................
|   4048: 06 06 03 00 12 01 01 01 06 05 03 00 12 01 01 01   ................
|   4064: 06 04 03 00 12 01 01 01 06 03 03 00 12 06 01 01   ................
|   4080: 06 02 03 00 12 06 01 01 06 01 03 00 12 06 01 01   ................
| page 7 offset 24576
|      0: 0a 00 00 00 01 0f f4 00 0f f4 00 00 00 00 00 00   ................
|   4080: 00 00 00 00 0b 03 1b 01 76 65 72 73 69 6f 6e 04   ........version.
| page 8 offset 28672
|   4048: 00 00 00 00 00 00 5d 03 00 00 00 00 00 00 00 00   ......].........
| end crash-c77b90b929dc92.db
}]} {}


do_catchsql_test 60.2 {
  SELECT (matchinfo(t1,591)) FROM t1 WHERE t1 MATCH 'e*e'
} {/.*fts5: corrupt.*/}

#-------------------------------------------------------------------------
do_test 61.0 {
  sqlite3 db {}
  db deserialize [decode_hexdb {
.open --hexdb
| size 28672 pagesize 4096 filename crash-e5fa281edabddf.db
| page 1 offset 0
|      0: 53 51 4c 69 74 65 20 66 6f 72 6d 61 74 20 33 00   SQLite format 3.
|     16: 10 00 01 01 00 40 20 20 00 00 00 00 00 00 00 00   .....@  ........
|     96: 00 00 00 00 0d 0f c7 00 06 0d b6 00 0f 8d 0f 36   ...............6
|    112: 0e cb 0e 6b 0e 0e 0d b6 00 00 00 00 00 00 00 00   ...k............
|   3504: 00 00 00 00 00 00 56 07 06 17 1f 1f 01 7d 74 61   ......V.......ta
|   3520: 62 6c 65 74 31 5f 63 6f 6e 66 69 67 74 31 5f 63   blet1_configt1_c
|   3536: 6f 6e 66 69 67 07 43 52 45 41 54 45 20 54 41 42   onfig.CREATE TAB
|   3552: 4c 45 20 27 74 31 5f 63 6f 6e 66 69 67 27 28 6b   LE 't1_config'(k
|   3568: 20 50 52 49 4d 41 52 59 20 4b 45 59 2c 20 76 29    PRIMARY KEY, v)
|   3584: 20 57 49 54 48 4f 55 54 20 52 4f 57 49 44 5b 06    WITHOUT ROWID[.
|   3600: 07 17 21 21 01 81 01 74 51 62 6c 65 74 31 5f 64   ..!!...tQblet1_d
|   3616: 6f 63 73 69 7a 65 74 31 5f 63 6f 63 73 69 7a 65   ocsizet1_cocsize
|   3632: 06 43 52 45 41 54 45 20 54 41 42 4c 45 20 27 74   .CREATE TABLE 't
|   3648: 31 5f 64 6f 63 73 69 7a 65 27 28 69 64 20 49 4e   1_docsize'(id IN
|   3664: 54 45 47 45 52 20 50 52 49 4d 41 52 59 20 4b 45   TEGER PRIMARY KE
|   3680: 59 2c 20 73 7a 20 42 4c 4f 42 29 5e 05 07 17 21   Y, sz BLOB)^...!
|   3696: 21 01 81 07 74 61 62 6c 65 74 31 5f 63 6f 6e 74   !...tablet1_cont
|   3712: 65 6e 74 74 31 5f 63 6f 6e 74 65 6e 74 05 43 52   entt1_content.CR
|   3728: 45 41 54 45 20 54 41 42 4c 45 20 27 74 31 5f 63   EATE TABLE 't1_c
|   3744: 6f 6e 74 65 6e 74 27 28 69 64 20 49 4e 54 45 47   ontent'(id INTEG
|   3760: 45 52 20 50 52 49 4d 41 52 59 20 4b 45 59 2c 20   ER PRIMARY KEY, 
|   3776: 63 30 2c 20 63 31 2c 20 63 32 29 69 04 07 17 19   c0, c1, c2)i....
|   3792: 19 01 81 2d 74 61 62 6c 65 74 31 5f 69 64 78 74   ...-tablet1_idxt
|   3808: 31 5f 69 64 78 04 43 52 45 41 54 45 20 54 41 42   1_idx.CREATE TAB
|   3824: 4c 45 20 27 74 31 5f 69 64 78 27 28 73 65 67 69   LE 't1_idx'(segi
|   3840: 64 2c 20 74 65 72 6d 2c 20 70 67 6e 6f 2c 20 50   d, term, pgno, P
|   3856: 52 49 4d 41 52 59 20 4b 45 59 28 73 65 67 69 64   RIMARY KEY(segid
|   3872: 2c 20 74 65 72 6d 29 29 20 57 49 54 48 4f 55 54   , term)) WITHOUT
|   3888: 20 52 4f 57 49 44 55 03 07 17 1b 1b 01 81 01 74    ROWIDU........t
|   3904: 61 62 6c 65 74 31 5f 64 61 74 61 74 31 5f 64 61   ablet1_datat1_da
|   3920: 74 61 03 43 52 45 41 54 45 20 54 41 42 4c 45 20   ta.CREATE TABLE 
|   3936: 27 74 31 5f 64 61 74 61 27 28 69 64 20 49 4e 54   't1_data'(id INT
|   3952: 45 47 45 52 20 50 52 49 4d 41 52 59 20 4b 45 59   EGER PRIMARY KEY
|   3968: 2c 20 62 6c 6f 63 6b 20 42 4c 4f 42 29 38 02 06   , block BLOB)8..
|   3984: 17 11 11 08 5f 74 61 62 6c 65 74 ea 74 31 43 52   ...._tablet.t1CR
|   4000: 45 41 54 45 20 56 49 52 54 55 41 4c 20 54 41 42   EATE VIRTUAL TAB
|   4016: 4c 45 20 74 31 20 55 53 49 4e 47 20 66 74 73 35   LE t1 USING fts5
|   4032: 28 61 2c 62 2c 63 29 00 00 00 00 00 00 00 00 00   (a,b,c).........
| page 3 offset 8192
|      0: 0d 00 00 00 03 0c 94 00 0f e6 0f ef 0c 94 00 00   ................
|   3216: 00 00 00 00 86 4a 84 80 80 80 80 01 04 00 8d 18   .....J..........
|   3232: 00 00 03 2b 02 30 30 01 02 06 01 02 06 01 02 06   ...+.00.........
|   3248: 1f 02 13 01 02 03 01 02 03 01 08 32 30 31 36 30   ...........20160
|   3264: 36 30 39 01 02 07 01 02 07 01 02 07 01 01 34 01   609...........4.
|   3280: 02 05 01 02 05 01 02 05 01 01 35 01 02 04 01 02   ..........5.....
|   3296: 04 01 02 04 02 07 30 30 30 30 30 30 30 1c 02 04   ......0000000...
|   3312: 01 02 04 01 02 04 01 06 62 69 6e 61 72 79 03 06   ........binary..
|   3328: 01 02 02 03 06 01 02 02 03 06 01 02 02 03 06 01   ................
|   3344: 02 02 03 06 01 02 02 03 06 01 02 02 03 06 01 02   ................
|   3360: 02 03 06 01 02 02 03 06 01 02 02 03 06 01 02 02   ................
|   3376: 03 06 01 02 02 03 06 01 02 02 01 08 63 6f 6d 70   ............comp
|   3392: 69 6c 65 72 01 02 02 01 02 02 01 02 02 01 06 64   iler...........d
|   3408: 62 73 74 61 74 07 02 03 01 02 03 01 02 03 02 04   bstat...........
|   3424: 65 62 75 67 04 02 02 01 02 02 01 02 02 01 06 65   ebug...........e
|   3440: 6e 61 62 6c 65 07 02 02 01 02 02 01 02 02 01 02   nable...........
|   3456: 02 01 02 02 01 02 02 01 02 02 01 02 02 01 02 02   ................
|   3472: 01 02 02 01 02 02 01 02 02 01 02 02 01 02 02 01   ................
|   3488: 02 02 01 02 02 01 02 02 01 02 02 01 02 02 01 02   ................
|   3504: 02 01 02 02 02 08 78 74 65 6e 73 69 6f 6e 1f 02   ......xtension..
|   3520: 04 01 02 04 01 02 04 01 04 66 74 73 34 0a 02 03   .........fts4...
|   3536: 01 02 03 01 02 03 04 01 35 0d 02 03 01 02 03 01   ........5.......
|   3552: 02 03 01 03 67 63 63 01 02 03 01 02 03 01 02 03   ....gcc.........
|   3568: 02 06 65 6f 70 6f 6c 79 10 02 03 01 02 03 01 02   ..eopoly........
|   3584: 03 01 05 6a 73 6f 6e 31 13 02 03 01 02 03 01 02   ...json1........
|   3600: 03 01 04 6c 6f 61 64 1f 02 03 01 02 03 01 02 03   ...load.........
|   3616: 01 03 6d 61 78 1c 02 02 01 02 02 01 02 02 02 05   ..max...........
|   3632: 65 6d 6f 72 79 1c 02 03 01 02 03 01 02 03 04 04   emory...........
|   3648: 73 79 73 35 16 02 03 01 02 03 11 02 03 01 06 6e   sys5...........n
|   3664: 6f 63 61 73 65 02 06 01 02 02 03 06 01 02 02 03   ocase...........
|   3680: 06 01 02 02 03 06 01 02 02 03 06 01 02 02 03 06   ................
|   3696: 01 02 02 03 06 01 02 02 03 06 01 02 02 03 06 01   ................
|   3712: 02 02 03 06 01 02 02 03 06 01 02 02 03 06 01 02   ................
|   3728: 02 01 04 6f 6d 69 74 1f 02 02 01 02 02 01 02 02   ...omit.........
|   3744: 01 05 72 74 72 65 65 19 02 03 01 02 03 01 02 03   ..rtree.........
|   3760: 04 02 69 6d 01 06 01 02 02 03 06 01 02 02 03 06   ..im............
|   3776: 01 02 02 03 06 01 02 02 03 06 01 02 02 03 06 01   ................
|   3792: 02 02 03 06 01 02 02 03 06 01 02 01 13 05 01 02   ................
|   3808: 02 03 06 01 02 02 03 06 01 02 02 03 06 01 02 02   ................
|   3824: 01 0a 74 68 72 65 61 64 73 61 66 65 22 02 02 01   ..threadsafe....
|   3840: 02 02 01 01 02 01 04 76 74 61 62 07 02 04 01 02   .......vtab.....
|   3856: 04 01 02 04 01 01 78 01 06 01 01 02 01 06 01 01   ......x.........
|   3872: 02 0e 16 01 01 02 01 06 01 01 02 01 06 01 02 02   ................
|   3888: 01 06 01 01 02 01 06 01 01 02 01 06 01 01 02 01   ................
|   3904: 06 01 01 02 01 06 01 01 02 01 06 01 01 02 01 06   ................
|   3920: 01 01 02 01 06 01 01 02 01 06 01 01 02 01 06 01   ................
|   3936: 01 02 01 06 01 01 02 01 06 01 01 02 01 06 01 01   ................
|   3952: 02 01 06 01 01 02 01 06 01 01 02 01 06 01 01 02   ................
|   3968: 01 06 01 01 02 01 06 01 01 02 01 06 01 01 02 01   ................
|   3984: 06 01 01 02 01 06 01 01 02 01 06 01 01 02 01 06   ................
|   4000: 01 01 02 01 06 01 01 02 01 06 01 01 02 01 07 01   ................
|   4016: 01 02 01 06 01 01 02 01 06 01 01 02 01 06 01 01   ................
|   4032: 02 01 06 01 01 02 01 06 01 01 02 04 15 13 0c 0c   ................
|   4048: 12 44 13 11 0f 47 13 0f 0c 0e 11 10 0f 0e 10 0f   .D...G..........
|   4064: 44 0f 10 40 15 0f 07 01 03 00 14 24 5a 24 24 0f   D..@.......$Z$$.
|   4080: 0a 03 00 24 00 00 00 00 01 01 01 00 01 01 01 01   ...$............
| page 4 offset 12288
|      0: 0a 00 00 00 00 00 00 00 00 00 00 00 00 00 00 00   ................
|   4080: 00 00 00 00 00 00 00 00 00 00 05 04 09 0c 01 02   ................
| page 5 offset 16384
|      0: 0d 00 00 00 00 00 00 00 00 00 00 00 00 00 00 00   ................
|   3072: 00 00 00 00 00 00 00 00 00 00 18 24 05 00 25 0f   ...........$..%.
|   3088: 19 54 48 52 45 41 44 53 41 46 45 3d 30 58 42 49   .THREADSAFE=0XBI
|   3104: 4e 41 52 59 18 e2 05 00 25 0f 19 54 48 52 45 41   NARY....%..THREA
|   3120: 44 53 41 46 45 3d 30 58 4e 4f 43 41 53 45 17 22   DSAFE=0XNOCASE..
|   3136: 05 00 25 0f 17 54 48 52 45 41 44 53 41 46 45 3d   ..%..THREADSAFE=
|   3152: 30 58 52 54 52 49 4d 1f 21 05 00 33 0f 19 4f 4d   0XRTRIM.!..3..OM
|   3168: 49 54 20 4c 4f 41 44 20 45 58 54 45 4e 53 49 4f   IT LOAD EXTENSIO
|   3184: 4e 58 42 49 4e 40 52 59 1f 20 05 00 33 0f 19 4f   NXBIN@RY. ..3..O
|   3200: 4d 49 54 20 4c 4f 41 44 20 45 58 54 45 4e 53 49   MIT LOAD EXTENSI
|   3216: 4f 4e 58 4e 4f 43 41 53 45 1e 1f 05 00 33 0f 17   ONXNOCASE....3..
|   3232: 4f 4d 49 54 20 4c 4f 41 44 20 45 58 54 45 4e 53   OMIT LOAD EXTENS
|   3248: 49 4f 4e 58 52 54 52 49 4d 1f 1e 05 00 33 0f 19   IONXRTRIM....3..
|   3264: 4d 41 58 20 4e 45 4d 4f 52 59 3d 35 30 30 30 30   MAX NEMORY=50000
|   3280: 30 30 30 58 42 49 4e 41 52 59 1f 1d 05 00 33 0f   000XBINARY....3.
|   3296: 19 4d 41 58 20 4d 45 4d 4f 52 59 3d 45 30 30 30   .MAX MEMORY=E000
|   3312: 30 30 30 30 58 4e 4f 43 41 53 45 1e 1c 05 00 33   0000XNOCASE....3
|   3328: 0f 17 4d 41 58 20 4d 45 4d 4f 52 59 3d 35 30 30   ..MAX MEMORY=500
|   3344: 30 30 30 30 30 58 52 54 52 49 4d 18 1b 05 00 25   00000XRTRIM....%
|   3360: 0f 19 45 4e 41 42 4c 45 20 52 54 52 45 45 58 42   ..ENABLE RTREEXB
|   3376: 49 4e 41 52 59 18 1a 05 00 25 0f 19 45 4e 41 42   INARY....%..ENAB
|   3392: 4c 45 20 52 54 52 45 45 58 4e 4f 43 41 53 45 17   LE RTREEXNOCASE.
|   3408: 19 05 00 25 0f 17 45 4e 41 42 4c 45 20 20 54 52   ...%..ENABLE  TR
|   3424: 45 45 58 52 54 52 49 4d 1a 18 05 00 29 0f 19 45   EEXRTRIM....)..E
|   3440: 4e 41 42 4c 45 20 4d 45 4d 53 59 53 35 58 42 49   NABLE MEMSYS5XBI
|   3456: 4e 41 52 59 1a 17 05 00 29 0f 19 45 4e 41 42 4c   NARY....)..ENABL
|   3472: 45 20 4d 45 4d 53 59 53 35 58 4e 4f 43 41 53 45   E MEMSYS5XNOCASE
|   3488: 19 16 05 00 29 0f 17 45 4e 41 42 4c 45 20 4d 45   ....)..ENABLE ME
|   3504: 4d 53 59 53 35 58 52 54 52 49 4d 18 15 05 00 25   MSYS5XRTRIM....%
|   3520: 0f 19 45 4e 41 42 4c 45 20 4a 53 4f 4e 31 58 42   ..ENABLE JSON1XB
|   3536: 49 4e 41 52 59 18 14 05 00 25 0f 19 45 4e 41 42   INARY....%..ENAB
|   3552: 4c 45 20 4a 53 4f 4e 31 58 4e 4f 43 41 53 45 17   LE JSON1XNOCASE.
|   3568: 13 05 00 25 0f 17 45 4e 41 42 4c 45 20 4a 53 4f   ...%..ENABLE JSO
|   3584: 4e 31 58 52 54 52 49 4d 1a 12 05 00 29 0f 19 45   N1XRTRIM....)..E
|   3600: 4e 41 42 4c 45 20 47 45 4f 50 4f 4c 59 58 42 49   NABLE GEOPOLYXBI
|   3616: 4e 41 52 59 1a 11 05 00 29 0f 19 45 4e 41 42 4c   NARY....)..ENABL
|   3632: 45 20 47 45 4f 50 4f 4c 59 58 4e 4f 43 41 53 45   E GEOPOLYXNOCASE
|   3648: 19 10 05 00 29 0f 17 45 4e 41 42 4c 45 20 47 45   ....)..ENABLE GE
|   3664: 4f 50 4f 4c 59 58 52 54 52 49 4d 17 0f 05 00 23   OPOLYXRTRIM....#
|   3680: 0f 19 45 4e 41 42 4c 45 20 e5 54 53 35 58 42 49   ..ENABLE .TS5XBI
|   3696: 4e 41 52 59 17 0e 05 00 23 0f 19 45 4e 41 42 4d   NARY....#..ENABM
|   3712: 45 b5 46 54 53 35 58 4e 4f 43 41 53 45 16 0d 05   E.FTS5XNOCASE...
|   3728: 00 23 0f 17 45 4e 41 42 4c 45 20 46 54 53 35 58   .#..ENABLE FTS5X
|   3744: 52 54 52 49 4d 17 0c 05 00 23 0f 19 45 4e 41 42   RTRIM....#..ENAB
|   3760: 4c 45 20 46 54 53 34 58 42 b7 4e 41 52 59 17 0b   LE FTS4XB.NARY..
|   3776: 05 00 23 0f 19 45 4e 41 42 4c 45 20 46 54 53 34   ..#..ENABLE FTS4
|   3792: 58 4e 4f 43 41 53 45 16 0a 05 00 23 0f 17 45 4e   XNOCASE....#..EN
|   3808: 41 42 4c 45 20 46 54 53 34 58 52 54 52 49 4d 1e   ABLE FTS4XRTRIM.
|   3824: 09 05 00 31 0f 19 45 4e 41 42 4c 45 20 44 42 53   ...1..ENABLE DBS
|   3840: 54 41 54 20 56 54 41 42 58 42 49 4e 41 52 59 1e   TAT VTABXBINARY.
|   3856: 08 05 00 31 0f 19 45 4e 41 42 4c 45 20 44 42 53   ...1..ENABLE DBS
|   3872: 54 41 54 20 56 54 41 42 58 4e 4f 43 41 53 45 1d   TAT VTABXNOCASE.
|   3888: 07 05 00 31 0f 17 45 4e 41 42 4c 45 20 44 42 53   ...1..ENABLE DBS
|   3904: 54 41 54 20 56 54 41 42 58 52 54 52 49 4d 11 06   TAT VTABXRTRIM..
|   3920: 05 00 17 0f 19 44 45 42 55 47 58 42 49 4e 41 52   .....DEBUGXBINAR
|   3936: 59 11 05 05 00 17 0f 19 44 45 42 55 47 58 4e 4f   Y.......DEBUGXNO
|   3952: 43 41 53 45 10 04 05 00 17 0f 17 44 45 42 55 47   CASE.......DEBUG
|   3968: 58 52 54 52 49 4d 27 03 05 00 43 0f 19 43 4f 4d   XRTRIM'...C..COM
|   3984: 50 49 4c 45 52 3d 67 63 63 2d 35 2e 34 2e 30 20   PILER=gcc-5.4.0 
|   4000: 32 30 31 36 30 36 30 39 58 42 49 4e 41 52 59 27   20160609XBINARY'
|   4016: 02 05 00 43 0f 19 43 4f 4d 50 49 4c 45 52 3d 67   ...C..COMPILER=g
|   4032: 63 63 2d 35 2e 34 2e 30 20 32 30 31 36 30 36 30   cc-5.4.0 2016060
|   4048: 39 58 4e 4f 43 41 53 45 26 01 05 00 43 0f 17 53   9XNOCASE&...C..S
|   4064: 4f 4d 50 49 4c 45 52 3d 67 63 63 2d 35 2e 34 2e   OMPILER=gcc-5.4.
|   4080: 30 20 32 2f 31 00 00 00 00 00 00 00 00 00 00 00   0 2/1...........
| page 6 offset 20480
|   3808: 06 24 03 00 12 02 01 01 06 23 03 00 12 02 01 01   .$.......#......
|   3824: 06 22 03 00 12 02 01 01 06 21 03 00 12 03 01 01   .........!......
|   3840: 06 20 03 00 12 03 01 01 06 1f 03 00 12 03 01 01   . ..............
|   3856: 06 1e 03 00 12 03 01 01 06 1d 03 00 12 03 01 01   ................
|   3872: 06 1c 03 00 12 03 01 01 06 1b 03 00 12 02 01 01   ................
|   3888: 06 1a 03 00 12 02 01 01 06 19 03 10 12 02 01 01   ................
|   3904: 06 18 03 00 12 02 01 01 06 17 03 00 12 02 01 01   ................
|   3920: 06 16 03 00 12 02 01 01 06 15 03 00 12 02 01 01   ................
|   3936: 06 14 03 00 12 02 01 01 06 13 03 00 12 02 01 01   ................
|   3952: 06 12 03 00 12 02 01 01 06 11 03 00 12 02 01 01   ................
|   3968: 06 10 03 00 12 02 01 01 06 0f 03 00 12 02 01 01   ................
|   3984: 06 0e 03 00 12 02 01 01 06 0d 03 00 12 02 01 01   ................
|   4000: 06 0c 03 00 12 02 01 01 06 0b 03 00 12 02 01 01   ................
|   4016: 06 0a 03 00 12 02 01 01 06 09 03 00 12 03 01 01   ................
|   4032: 06 08 03 00 12 03 01 01 06 07 03 00 12 03 01 01   ................
|   4048: 06 06 03 00 12 01 01 01 06 05 03 01 12 01 01 01   ................
|   4064: 06 04 03 00 12 01 01 01 06 03 03 00 12 06 01 01   ................
|   4080: 06 02 03 00 12 06 01 01 06 01 03 00 12 06 01 01   ................
| page 7 offset 24576
|      0: 0a 00 00 00 01 0f f4 00 0f f4 00 00 00 00 00 00   ................
|   4080: 00 00 00 00 0b 03 1b 01 76 65 72 73 69 6f 6e 04   ........version.
| end crash-e5fa281edabddf.db
}]} {}

do_catchsql_test 61.1 {
  CREATE VIRTUAL TABLE t3 USING fts5vocab('t1'(),'col' );
} {/*malformed database schema*/}

do_catchsql_test 61.2 {
  SELECT * FROM t3 ORDER BY rowid;
} {/*malformed database schema*/}

#-------------------------------------------------------------------------
do_test 62.0 {
  sqlite3 db {}
  db deserialize [decode_hexdb {
.open --hexdb
| size 28672 pagesize 4096 filename crash-44942694542e1e.db
| page 1 offset 0
|      0: 53 51 4c 69 74 65 20 66 6f 72 6d 61 74 20 33 00   SQLite format 3.
|     16: 10 00 01 01 00 40 20 20 00 00 00 00 00 00 00 00   .....@  ........
|     96: 00 00 00 00 0d 0f c7 00 07 0d 92 00 0f 8d 0f 36   ...............6
|    112: 0e cb 0e 6b 0e 0e 0d b6 0d 92 00 00 00 00 00 00   ...k............
|   3472: 00 00 22 08 06 17 11 11 01 31 74 61 62 6c 65 74   .........1tablet
|   3488: 32 74 32 08 43 52 45 41 54 45 20 54 41 42 4c 45   2t2.CREATE TABLE
|   3504: 20 74 32 28 78 29 56 07 06 17 1f 1f 01 7d 74 61    t2(x)V.......ta
|   3520: 62 6c 65 74 31 5f 63 6f 6e 66 79 67 74 31 5f 63   blet1_confygt1_c
|   3536: 6f 6e 66 69 67 07 43 52 45 41 54 45 20 54 41 42   onfig.CREATE TAB
|   3552: 4c 45 20 27 74 31 5f 63 6f 6e 66 69 67 27 28 6b   LE 't1_config'(k
|   3568: 20 50 52 49 4d 41 52 59 20 4b 45 59 2c 20 76 29    PRIMARY KEY, v)
|   3584: 20 57 49 54 48 4f 55 54 20 52 4f 57 49 44 5b 06    WITHOUT ROWID[.
|   3600: 07 17 21 21 01 81 01 74 61 62 6c 65 74 31 5f 64   ..!!...tablet1_d
|   3616: 6f 63 73 69 7a 65 74 31 5f 64 6f 63 73 69 7a 65   ocsizet1_docsize
|   3632: 06 43 52 45 41 54 45 20 54 41 42 4c 45 20 27 74   .CREATE TABLE 't
|   3648: 31 5f 64 6f 63 73 69 7a 65 27 28 69 64 20 49 4e   1_docsize'(id IN
|   3664: 54 45 47 45 52 20 50 52 49 4d 41 52 59 20 4b 45   TEGER PRIMARY KE
|   3680: 59 2c 20 73 7a 20 52 4c 4f 42 29 5e 05 07 17 21   Y, sz RLOB)^...!
|   3696: 21 01 81 07 74 61 62 6c 65 74 31 5f 63 6f 6e 74   !...tablet1_cont
|   3712: 65 6e 74 74 35 ff 63 6f 6e 74 65 6e 74 05 43 52   entt5.content.CR
|   3728: 45 41 54 45 20 54 41 42 4c 45 20 27 74 31 5f 63   EATE TABLE 't1_c
|   3744: 6f 6e 74 65 6e 74 27 28 69 64 20 49 4e 54 45 47   ontent'(id INTEG
|   3760: 45 52 20 50 52 49 4d 41 52 59 20 4b 45 59 2c 20   ER PRIMARY KEY, 
|   3776: 63 30 2c 20 63 31 2c 20 63 42 29 69 04 07 17 19   c0, c1, cB)i....
|   3792: 19 01 81 2d 74 61 62 6c 65 74 31 5f 69 64 78 74   ...-tablet1_idxt
|   3808: 31 5f 79 64 78 04 43 52 45 41 54 45 20 54 41 42   1_ydx.CREATE TAB
|   3824: 4c 45 20 27 74 31 5f 69 64 78 27 28 73 65 67 69   LE 't1_idx'(segi
|   3840: 64 2c 20 74 65 72 6d 2c 20 70 67 6e 6f 2c 20 50   d, term, pgno, P
|   3856: 52 49 4d 41 52 59 20 4b 45 59 28 73 65 67 69 64   RIMARY KEY(segid
|   3872: 2c 20 74 65 72 6d 29 29 20 57 49 54 48 4f 55 54   , term)) WITHOUT
|   3888: 20 52 4f 57 49 44 55 03 07 17 1b 1b 01 81 01 74    ROWIDU........t
|   3904: 61 62 6c 65 74 31 5f 64 61 74 61 74 31 5f 74 61   ablet1_datat1_ta
|   3920: 74 61 03 43 52 45 41 54 45 20 54 41 42 4c 45 20   ta.CREATE TABLE 
|   3936: 27 74 31 5f 64 61 74 61 27 28 69 64 20 49 4e 54   't1_data'(id INT
|   3952: 45 47 45 52 20 50 52 49 4d 41 52 59 20 4b 45 59   EGER PRIMARY KEY
|   3968: 2c 20 62 6c 6f 63 6b 20 42 4c 4f 42 29 38 02 06   , block BLOB)8..
|   3984: 17 11 11 08 5f 74 61 62 6c 65 74 31 74 31 43 52   ...._tablet1t1CR
|   4000: 45 41 54 45 20 56 49 52 54 55 41 4c 20 54 41 42   EATE VIRTUAL TAB
|   4016: 4c 45 20 74 31 20 55 53 49 4e 47 20 66 74 73 35   LE t1 USING fts5
|   4032: 28 61 2c 62 2c 63 29 00 00 00 00 00 00 00 00 00   (a,b,c).........
| page 3 offset 8192
|      0: 0d 00 00 00 03 0c 94 00 0f e6 0f ef 0c 94 00 00   ................
|   3216: 00 00 00 00 86 4a 84 80 80 80 80 01 04 00 8d 18   .....J..........
|   3232: 00 00 03 2b 02 30 30 01 02 06 01 02 06 01 02 06   ...+.00.........
|   3248: 2f 02 03 01 02 03 01 02 03 01 08 32 30 31 36 30   /..........20160
|   3264: 36 30 39 01 02 07 01 02 07 01 02 07 01 01 34 01   609...........4.
|   3280: 02 05 01 02 c7 01 02 05 01 01 35 01 02 04 01 02   ..........5.....
|   3296: 04 01 02 04 02 07 30 30 30 30 30 30 30 1c 02 04   ......0000000...
|   3312: 01 02 04 01 02 04 01 06 62 69 6e 61 72 79 03 06   ........binary..
|   3328: 01 02 02 04 16 01 02 02 03 06 01 02 02 02 06 01   ................
|   3344: 02 02 03 06 01 02 02 03 06 01 02 02 03 06 01 02   ................
|   3360: 02 03 06 01 02 02 03 06 01 02 02 02 06 01 02 02   ................
|   3376: 03 06 01 02 02 03 06 01 02 02 01 08 63 6f 6d 70   ............comp
|   3392: 69 6c 65 72 01 02 02 01 02 02 01 02 02 01 06 64   iler...........d
|   3408: 62 73 74 61 74 07 02 03 00 02 03 01 02 03 02 04   bstat...........
|   3424: 65 62 74 67 04 02 02 01 02 02 01 02 02 01 06 65   ebtg...........e
|   3440: 6e 61 62 6c 65 07 02 02 01 02 02 01 02 02 01 02   nable...........
|   3456: 02 01 02 02 01 02 02 01 02 02 01 02 01 f1 02 02   ................
|   3472: 01 02 02 01 02 02 01 02 02 01 02 02 01 02 02 01   ................
|   3488: 02 02 01 02 02 45 02 02 01 02 02 01 02 02 01 02   .....E..........
|   3504: 02 01 02 02 02 08 78 74 65 6e 73 69 6f 6e 1f 02   ......xtension..
|   3520: 04 01 02 09 c1 02 04 01 04 66 74 73 34 0a 02 03   .........fts4...
|   3536: 01 02 03 01 02 03 04 00 35 0d 02 03 01 02 04 01   ........5.......
|   3552: 02 03 01 0f d7 63 63 01 02 03 01 02 03 01 02 03   .....cc.........
|   3568: 02 06 65 6f 70 6f 6b 79 10 02 03 01 02 03 01 02   ..eopoky........
|   3584: 03 01 05 6a 73 6f 6e 31 13 02 03 14 02 03 01 02   ...json1........
|   3600: 03 01 04 6c 6f 61 64 1f 02 03 01 02 03 01 02 03   ...load.........
|   3616: 01 03 6d 61 78 1c 02 02 01 02 02 01 02 02 02 05   ..max...........
|   3632: 65 6d 6f 72 79 1c 02 03 01 02 03 01 02 03 04 04   emory...........
|   3648: 73 79 73 35 16 02 03 01 02 03 01 02 03 01 06 6e   sys5...........n
|   3664: 6f 63 61 73 65 02 06 01 02 12 03 06 01 02 02 03   ocase...........
|   3680: 06 01 02 02 03 06 01 02 02 09 f6 01 02 02 03 06   ................
|   3696: 01 02 02 03 06 01 02 02 03 06 01 02 02 03 06 01   ................
|   3712: 02 02 03 06 01 02 02 03 06 01 02 02 03 06 11 02   ................
|   3728: 02 01 04 6f 7d 69 74 1f 02 02 01 02 02 01 02 02   ...o.it.........
|   3744: 01 05 72 74 72 65 65 19 02 03 01 02 03 01 02 03   ..rtree.........
|   3760: 04 02 69 6d 01 06 01 02 02 03 06 01 02 02 03 06   ..im............
|   3776: 01 02 02 03 06 01 02 02 03 06 01 02 02 03 06 01   ................
|   3792: 02 02 03 06 01 02 02 03 06 01 02 02 03 06 11 02   ................
|   3808: 02 03 06 01 02 02 03 06 01 02 02 03 06 01 02 02   ................
|   3824: 00 fa 74 68 72 65 61 64 73 61 66 65 22 02 02 01   ..threadsafe....
|   3840: 02 02 01 02 02 01 04 76 74 61 62 07 03 04 01 40   .......vtab....@
|   3856: 04 01 02 04 11 01 78 01 06 01 01 02 01 06 01 01   ......x.........
|   3872: 02 01 06 01 00 02 01 06 01 01 02 01 03 91 01 02   ................
|   3888: 01 06 01 01 02 01 06 01 01 02 01 06 01 01 02 01   ................
|   3904: 06 01 01 02 01 06 01 01 02 01 06 01 01 02 01 06   ................
|   3920: 01 01 02 01 06 01 01 02 01 06 01 01 02 01 06 01   ................
|   3936: 01 02 01 06 01 01 02 01 06 01 01 02 01 06 01 01   ................
|   3952: 02 01 06 01 01 02 01 06 01 01 02 01 06 01 01 02   ................
|   3968: 01 06 01 01 02 01 76 01 01 02 01 06 01 01 02 5c   ......v.........
|   3984: 06 01 01 02 01 06 01 01 02 01 06 01 01 02 11 06   ................
|   4000: 01 02 02 01 06 08 11 02 01 06 01 01 02 01 06 01   ................
|   4016: 01 02 01 06 01 01 02 01 06 01 01 02 01 05 01 01   ................
|   4032: 02 01 06 01 01 02 01 06 01 01 02 04 15 13 0c 0c   ................
|   4048: 12 44 13 11 0f 47 13 0f 0c 0e 11 10 ca 0e 10 0f   .D...G..........
|   4064: 44 0f 10 40 15 0f 07 01 03 00 14 24 5a 14 24 0f   D..@.......$Z.$.
|   4080: 0a 03 00 24 ff ff ff ff 01 01 02 00 01 01 01 01   ...$............
| page 4 offset 12288
|      0: 0a 00 00 00 01 0f fb 00 00 00 00 00 00 00 00 00   ................
|   4080: 00 00 00 00 00 00 00 00 00 00 05 04 09 0c 01 02   ................
| page 5 offset 16384
|      0: 0d 00 00 00 24 0c 09 00 00 00 00 00 00 00 00 00   ....$...........
|   3072: 00 00 00 00 00 00 00 00 00 00 18 24 05 00 25 0f   ...........$..%.
|   3088: 19 54 48 52 45 41 44 53 41 46 45 3d 30 58 42 49   .THREADSAFE=0XBI
|   3104: 4e 41 52 59 18 23 05 00 25 0f 19 54 48 52 45 41   NARY.#..%..THREA
|   3120: 44 53 41 46 45 3d 30 58 4e 4f 43 41 53 47 17 22   DSAFE=0XNOCASG..
|   3136: 05 00 25 0f 17 54 48 52 45 41 44 53 41 46 45 3d   ..%..THREADSAFE=
|   3152: 30 58 52 54 52 49 4d 1f 21 05 00 33 0f 19 4f 4d   0XRTRIM.!..3..OM
|   3168: 49 54 20 4c 3f 41 44 20 45 58 54 45 4e 53 49 4f   IT L?AD EXTENSIO
|   3184: 4e 58 42 49 4e 41 52 59 1f 20 05 00 33 0f 19 4f   NXBINARY. ..3..O
|   3200: 4d 49 64 20 4c 4f 41 44 20 45 58 54 45 d9 53 49   MId LOAD EXTE.SI
|   3216: 4f 4e 58 4e 4f 43 41 53 45 1e 1f 05 00 33 0f 17   ONXNOCASE....3..
|   3232: 4f 4d 39 54 20 4c 4f 41 44 20 45 58 55 45 4e 53   OM9T LOAD EXUENS
|   3248: 49 4f 4e 58 52 54 52 49 4d 1f 1e 05 00 33 0f 19   IONXRTRIM....3..
|   3264: 4c 41 58 20 4d 45 4d 4f 52 59 3d 35 30 30 30 30   LAX MEMORY=50000
|   3280: 30 30 30 58 42 49 4e 41 52 59 1f 1d 05 00 33 0f   000XBINARY....3.
|   3296: 19 4d 41 58 20 4d 45 4d 4f 52 59 3d 35 30 30 30   .MAX MEMORY=5000
|   3312: 30 30 30 30 58 af 4f 43 41 53 45 1e 1c 05 00 33   0000X.OCASE....3
|   3328: 0f 17 4d 41 58 20 4d 45 4d 4f 52 59 3d 35 30 30   ..MAX MEMORY=500
|   3344: 30 30 ab 30 30 58 62 54 52 49 4d 18 1b 05 00 25   00.00XbTRIM....%
|   3360: 0f 19 45 4e 41 42 4c 45 20 52 54 52 45 45 58 42   ..ENABLE RTREEXB
|   3376: 49 4e 41 52 59 18 1b 05 00 25 0f 19 45 4e 41 42   INARY....%..ENAB
|   3392: 4c 45 20 52 54 52 45 45 58 4e 4f 43 41 53 45 17   LE RTREEXNOCASE.
|   3408: 19 05 00 25 0f 17 45 4e 41 42 4c 45 20 52 54 52   ...%..ENABLE RTR
|   3424: 45 45 58 52 54 52 49 4d 1a 18 05 00 29 0f 19 45   EEXRTRIM....)..E
|   3440: 4e 41 42 4c 45 20 4d 45 4d 53 59 63 35 58 42 49   NABLE MEMSYc5XBI
|   3456: 4e 41 52 59 1a 17 04 00 29 0f 19 45 4e 41 42 4c   NARY....)..ENABL
|   3472: 45 20 4d 45 4d 53 59 53 35 58 4e 4f 43 41 53 45   E MEMSYS5XNOCASE
|   3488: 19 16 05 00 29 0f 17 45 4e 41 42 4c 45 20 3d 45   ....)..ENABLE =E
|   3504: 4d 53 59 53 35 58 52 54 52 49 4d 18 15 05 00 25   MSYS5XRTRIM....%
|   3520: 0f 19 45 4e 41 42 4c 45 20 4a 53 4f 4e 31 58 42   ..ENABLE JSON1XB
|   3536: 49 4e 41 52 59 18 14 05 00 25 0f 19 45 4e 41 42   INARY....%..ENAB
|   3552: 4c 46 20 4a 53 4f 4e 31 58 4e 4f 43 41 53 45 17   LF JSON1XNOCASE.
|   3568: 13 05 00 25 0f 17 45 4e 41 42 4c 45 20 4a 53 4f   ...%..ENABLE JSO
|   3584: 4e 31 58 52 54 52 49 4d 1a 12 05 00 29 0f 19 45   N1XRTRIM....)..E
|   3600: 4e 41 42 4c 45 20 46 45 46 50 4f 4c 59 57 42 49   NABLE FEFPOLYWBI
|   3616: 4e 41 52 59 18 11 05 00 29 0f 19 45 4e 41 42 4c   NARY....)..ENABL
|   3632: 45 20 47 45 4f 50 4f 4c 59 58 4e 5f 43 41 53 45   E GEOPOLYXN_CASE
|   3648: 19 10 05 00 29 0f 17 45 4e 41 42 4c 45 20 47 42   ....)..ENABLE GB
|   3664: 2f 50 4f 4c 59 58 51 54 52 49 4d 17 0f 05 00 23   /POLYXQTRIM....#
|   3680: 0f 19 45 4e 41 42 4c 45 20 46 54 53 35 58 42 49   ..ENABLE FTS5XBI
|   3696: 4e 41 52 59 17 0e 05 00 23 0f 19 45 4e 41 42 4c   NARY....#..ENABL
|   3712: 45 20 46 54 53 35 58 4e 4f 43 41 53 45 16 0d 05   E FTS5XNOCASE...
|   3728: 00 23 0f 17 45 4e 41 42 4c 45 20 46 54 53 35 58   .#..ENABLE FTS5X
|   3744: 52 54 52 49 4d 17 1c 05 00 23 0f 19 45 4e 41 42   RTRIM....#..ENAB
|   3760: 4c 45 20 46 54 53 34 58 42 49 4e 41 52 59 16 0b   LE FTS4XBINARY..
|   3776: 05 00 22 0f e9 45 4e 41 42 4c 35 20 46 54 53 34   .....ENABL5 FTS4
|   3792: 58 4e 4f 43 41 53 45 16 0a 05 00 23 00 47 45 4e   XNOCASE....#.GEN
|   3808: 41 42 4c 45 20 46 54 53 34 57 52 54 52 49 4d 1e   ABLE FTS4WRTRIM.
|   3824: 60 05 00 31 0f 19 45 4e 41 42 4c 55 20 43 42 53   `..1..ENABLU CBS
|   3840: 54 41 54 20 56 54 42 42 58 42 49 4e 41 52 59 1e   TAT VTBBXBINARY.
|   3856: 08 05 00 31 0f 19 45 4e 41 42 4c 45 20 44 42 53   ...1..ENABLE DBS
|   3872: 54 40 54 20 56 54 41 42 58 4e 4f 43 41 53 45 1d   T@T VTABXNOCASE.
|   3888: 07 05 00 31 0f 17 45 4e 41 42 4c 55 20 44 42 53   ...1..ENABLU DBS
|   3904: 54 41 54 20 56 54 41 42 58 52 54 52 49 4d 12 06   TAT VTABXRTRIM..
|   3920: 05 00 17 0f 19 44 45 42 55 47 58 42 49 4e 41 52   .....DEBUGXBINAR
|   3936: 59 21 05 05 00 17 0f 19 44 45 42 55 47 58 4e 4f   Y!......DEBUGXNO
|   3952: 43 41 53 45 10 04 05 00 17 0f 18 44 45 42 55 47   CASE.......DEBUG
|   3968: 58 42 54 52 49 4d 27 11 05 00 43 0f 19 43 4f 4d   XBTRIM'...C..COM
|   3984: 50 49 48 f5 52 3d 67 63 63 2d 35 2e 34 2e 30 20   PIH.R=gcc-5.4.0 
|   4000: 32 30 31 36 30 36 30 39 58 42 49 4e 41 52 59 27   20160609XBINARY'
|   4016: 02 05 00 43 0f 19 43 4f 4d 50 49 4c 45 52 3d 67   ...C..COMPILER=g
|   4032: 63 63 2d 35 2e 34 2e 30 22 32 30 31 36 30 36 30   cc-5.4.0.2016060
|   4048: 39 c2 3e 4f 43 41 53 45 26 01 05 00 43 0f 17 43   9.>OCASE&...C..C
|   4064: 4f 4d 50 49 4c 45 52 3d 67 63 63 2d 35 2e 34 2e   OMPILER=gcc-5.4.
|   4080: 30 30 32 30 31 26 30 36 30 39 58 52 54 52 49 4d   00201&0609XRTRIM
| page 6 offset 20480
|      0: 0d 00 00 00 24 0e e0 00 00 00 00 00 00 00 00 00   ....$...........
|   3808: 06 24 03 00 12 02 01 01 06 23 03 00 12 02 01 01   .$.......#......
|   3824: 06 22 03 00 12 02 01 01 06 21 03 00 12 03 01 01   .........!......
|   3840: 06 20 03 00 12 03 01 01 06 1f 03 00 12 03 01 01   . ..............
|   3856: 06 1e 03 00 12 03 01 01 06 1d 03 00 12 03 01 01   ................
|   3872: 06 1c 03 00 12 03 01 01 06 1b 03 00 12 02 01 01   ................
|   3888: 06 1a 03 00 12 02 01 01 06 19 03 00 12 02 01 01   ................
|   3904: 06 18 03 00 12 02 01 00 f6 17 03 00 19 e2 f9 01   ................
|   3920: 06 16 03 00 12 02 05 01 06 15 03 00 12 02 01 01   ................
|   3936: 06 14 03 00 12 02 01 01 06 13 03 00 12 02 01 01   ................
|   3952: 06 12 03 00 12 02 01 01 06 11 03 00 12 02 01 01   ................
|   3968: 06 10 03 10 12 02 01 01 06 0f 03 00 12 02 01 01   ................
|   3984: 06 0e 03 00 12 02 01 01 06 0d 03 00 12 02 00 f1   ................
|   4000: 06 0c 03 00 12 02 01 01 06 0b 03 00 12 02 01 01   ................
|   4016: 06 0a 03 00 12 02 01 01 05 09 03 00 12 03 01 01   ................
|   4032: 06 08 03 00 12 03 01 01 06 07 03 00 12 03 01 01   ................
|   4048: 06 06 03 00 12 01 01 01 06 05 02 ff 84 01 01 01   ................
|   4064: 06 04 03 00 12 01 01 01 06 03 03 00 12 06 01 01   ................
|   4080: 07 02 03 00 12 06 01 01 06 01 03 00 12 06 01 01   ................
| page 7 offset 24576
|      0: 0a 00 00 00 01 0f f4 00 0f f4 00 00 00 00 00 00   ................
|   4080: 00 00 00 00 0b 03 1b 01 76 65 72 73 69 6f 6e 04   ........version.
| end crash-44942694542e1e.db
}]} {}

do_catchsql_test 62.1 {
  WITH c(x) AS (VALUES(false) UNION ALL SELECT x+1 FROM c WHERE x<72)
    INSERT INTO t1(a) SELECT randomblob(2829) FROM c;
} {/*malformed database schema*/}

#---------------------------------------------------------------------------
do_test 63.0 {
  sqlite3 db {}
  db deserialize [decode_hexdb {
.open --hexdb
| size 24576 pagesize 4096 filename crash-8230e6c3b368f5.db
| page 1 offset 0
|      0: 53 51 4c 69 74 65 20 66 6f 72 6d 61 74 20 33 00   SQLite format 3.
|     16: 10 00 01 01 00 40 20 20 00 00 00 00 00 00 00 00   .....@  ........
|     96: 00 00 00 00 0d 00 00 00 06 0e 0f 00 0f aa 0f 53   ...............S
|    112: 0e e8 0e 8b 0e 33 0e 0f 00 00 00 00 00 00 00 00   .....3..........
|   3584: 00 00 00 00 00 00 00 00 00 00 00 00 00 00 00 22   ................
|   3600: 06 06 17 11 11 01 31 74 61 62 7c 65 62 63 62 62   ......1tab|ebcbb
|   3616: 06 43 52 45 41 54 45 20 54 41 42 4c 45 20 62 62   .CREATE TABLE bb
|   3632: 28 61 29 56 05 06 17 1f 1f 01 7d 74 61 62 6c 65   (a)V.......table
|   3648: 74 31 5f 63 6f 6e 66 69 67 74 31 5f 63 6f 6e 66   t1_configt1_conf
|   3664: 69 67 05 43 52 45 41 54 45 20 54 41 42 4c 45 20   ig.CREATE TABLE 
|   3680: 27 74 31 5f 63 6f 6e 66 69 67 27 28 6b 20 50 52   't1_config'(k PR
|   3696: 49 4d 41 52 59 20 4b 45 59 2c 20 76 29 20 57 49   IMARY KEY, v) WI
|   3712: 54 48 4f 55 54 20 52 4f 57 49 44 5b 04 07 17 21   THOUT ROWID[...!
|   3728: 21 01 81 01 74 61 62 6c 65 74 31 5f 64 6f 63 73   !...tablet1_docs
|   3744: 69 7a 65 74 31 5f 64 6f 63 73 69 7a 65 04 43 52   izet1_docsize.CR
|   3760: 45 41 54 45 20 54 41 42 4c 45 20 27 74 31 5f 9d   EATE TABLE 't1_.
|   3776: 6f 63 73 69 7a 65 27 28 69 64 20 49 4e 54 45 47   ocsize'(id INTEG
|   3792: 45 52 20 50 52 49 4d 41 52 59 20 4b 45 59 2c 20   ER PRIMARY KEY, 
|   3808: 73 7a 20 42 4c 4f 42 29 69 03 07 17 19 19 01 81   sz BLOB)i.......
|   3824: 2d 74 61 62 6c 65 74 31 5f 69 64 78 74 31 5f 69   -tablet1_idxt1_i
|   3840: 64 78 03 43 52 45 41 54 45 20 54 41 42 4c 45 20   dx.CREATE TABLE 
|   3856: 27 74 31 5f 69 64 78 27 28 73 65 67 69 64 2c 20   't1_idx'(segid, 
|   3872: 74 65 72 6d 2c 20 70 67 6e 6f 2c 20 50 52 49 4d   term, pgno, PRIM
|   3888: 41 52 59 20 4b 45 59 28 73 65 67 69 64 2c 20 74   ARY KEY(segid, t
|   3904: 65 72 6d 29 29 20 57 49 54 48 4f 55 54 20 52 4f   erm)) WITHOUT RO
|   3920: 57 49 44 55 02 07 17 1b 1b 01 81 01 74 61 62 6c   WIDU........tabl
|   3936: 65 64 31 5f 64 61 74 61 74 31 5f 64 61 74 61 02   ed1_datat1_data.
|   3952: 43 52 45 41 54 45 20 54 41 42 4c 45 20 27 74 31   CREATE TABLE 't1
|   3968: 5f 64 61 74 61 27 28 69 64 20 49 4e 54 45 47 45   _data'(id INTEGE
|   3984: 52 20 50 52 49 4d 41 52 59 20 4b 45 59 2c 20 62   R PRIMARY KEY, b
|   4000: 6c 6f 63 6b 20 42 4c 4f 42 29 54 01 07 17 10 11   lock BLOB)T.....
|   4016: 08 81 15 74 61 62 6c 65 74 31 74 31 43 52 45 41   ...tablet1t1CREA
|   4032: 54 45 20 56 49 52 54 55 41 4c 20 54 41 42 4c 45   TE VIRTUAL TABLE
|   4048: 20 74 31 20 55 53 49 4e 47 20 66 74 73 35 28 61    t1 USING fts5(a
|   4064: 2c 62 2c 70 72 65 66 69 78 3d 22 31 2c 32 2c 33   ,b,prefix=.1,2,3
|   4080: 2c 34 22 2c 20 63 6f 6e 74 65 6e 74 3d 22 22 29   ,4., content=..)
| page 2 offset 4096
|      0: 0d 0b 6a 00 37 09 4c 02 0f e7 09 4c 0f c6 0f a4   ..j.7.L....L....
|     16: 0f 88 0f 6d 0f 4b 0f 2c 0f 0e 0e ec 0e cd 0e ad   ...m.K.,........
|     32: 0e 8e 0e 6c 0e 4b 0e 29 0e 08 0d e6 0d c4 0d b5   ...l.K.)........
|     48: 0d 97 0d 76 0d 54 0d 31 0d 15 0c f3 0c d3 0c b5   ...v.T.1........
|     64: 0c 95 0c 73 0c 54 0c 32 0c 10 0b ee 0b cc 0b b0   ...s.T.2........
|     80: 0b 8d 0b 7e 0b 48 0b 2e 0b 0b 0a ef 0a cc 0a ad   ...~.H..........
|     96: 0a 8c 0a 6d 0a 4d 0a 2b 0a 0c 09 ec 09 ca 09 a8   ...m.M.+........
|    112: 09 86 09 63 0f f1 00 00 00 00 00 00 00 00 00 00   ...c............
|   2368: 00 00 00 00 00 00 00 00 00 00 00 00 15 0a 03 00   ................
|   2384: 30 00 00 00 01 01 03 35 00 03 01 01 12 02 01 12   0......5........
|   2400: 03 01 11 1c 8c 80 80 80 80 10 03 00 3e 00 00 00   ............>...
|   2416: 17 01 05 05 34 74 61 62 6c 03 02 03 01 04 77 68   ....4tabl.....wh
|   2432: 65 72 03 02 06 09 1b 8c 80 80 80 80 0f 03 00 3c   er.............<
|   2448: 00 00 00 16 05 34 66 74 73 34 03 02 02 01 04 6e   .....4fts4.....n
|   2464: 75 6d 62 03 06 01 04 09 1b 8c 80 80 80 80 0e 03   umb.............
|   2480: 00 3c 00 00 00 16 04 33 74 68 65 13 06 01 01 04   .<.....3the.....
|   2496: 01 03 77 68 65 03 02 04 04 0a 1b 8c 80 80 80 80   ..whe...........
|   2512: 0d 03 00 3c 00 00 00 16 04 33 6e 75 6d 03 06 01   ...<.....3num...
|   2528: 01 05 01 03 75 61 62 03 02 03 04 0a 19 8c 80 80   ....uab.........
|   2544: 80 80 0c 03 00 38 00 00 00 14 03 32 ec 68 03 02   .....8.....2.h..
|   2560: 04 00 04 33 66 74 73 03 02 02 04 07 18 8c 80 80   ...3fts.........
|   2576: 80 80 0b 03 00 36 00 00 00 13 03 32 74 61 03 02   .....6.....2ta..
|   2592: 03 02 01 68 03 06 01 01 04 04 17 1b 8c 80 80 80   ...h............
|   2608: 80 0a 03 00 3c 00 00 00 16 03 32 6e 75 03 06 01   ....<.....2nu...
|   2624: 01 05 01 02 6f 66 03 06 01 01 06 04 09 19 8c 80   ....of..........
|   2640: 80 80 80 09 03 00 38 00 00 00 14 03 32 66 74 03   ......8.....2ft.
|   2656: 02 02 01 02 69 73 03 06 01 01 03 04 07 18 8c 80   ....is..........
|   2672: 80 80 80 08 03 00 36 00 00 00 13 02 31 74 03 08   ......6.....1t..
|   2688: 03 01 01 04 01 01 77 03 02 04 04 09 1a 8c 80 80   ......w.........
|   2704: 80 80 07 03 00 3a 00 00 00 15 02 31 6e 03 08 01   .....:.....1n...
|   2720: 01 02 05 01 01 6f 03 06 01 01 06 04 09 18 8c 80   .....o..........
|   2736: 80 80 80 06 03 00 36 00 00 00 13 04 02 31 66 03   ......6......1f.
|   2752: 02 02 01 01 69 03 06 01 01 03 05 06 1c 8c 80 80   ....i...........
|   2768: 80 80 05 03 00 3e 00 00 00 17 04 30 74 68 65 03   .....>.....0the.
|   2784: 06 01 01 04 01 05 77 68 65 72 65 03 02 04 0a 15   ......where.....
|   2800: 8c 80 80 80 80 04 03 00 30 00 00 00 11 01 01 06   ........0.......
|   2816: 06 30 74 61 62 6c 65 03 02 03 07 1c 8c 80 80 80   .0table.........
|   2832: 80 03 03 00 3e 00 00 00 17 07 30 6e 75 6d 62 65   ....>.....0numbe
|   2848: 72 03 06 01 01 05 01 02 6f 66 03 06 04 0d 13 8c   r.......of......
|   2864: 80 80 80 80 02 03 00 2c 00 00 00 0f 01 01 03 02   .......,........
|   2880: 30 6e 03 06 01 01 02 07 1b 8c 80 80 80 80 01 03   0n..............
|   2896: 00 3c 00 00 00 16 08 30 66 74 73 34 61 75 78 03   .<.....0fts4aux.
|   2912: 02 02 01 02 69 73 03 06 04 0c 00 00 00 14 2a 00   ....is........*.
|   2928: 00 00 01 01 02 24 00 02 01 01 12 02 01 12 08 88   .....$..........
|   2944: 80 80 80 80 12 03 00 16 00 00 00 05 02 1c 88 80   ................
|   2960: 80 80 80 11 03 00 3e 00 00 00 17 05 34 72 6f 77   ......>.....4row
|   2976: 73 02 06 01 01 05 01 04 74 68 65 72 02 02 04 0b   s.......ther....
|   2992: 15 88 80 80 80 80 10 03 00 30 00 00 00 11 02 01   .........0......
|   3008: 01 07 05 34 62 65 74 77 02 02 04 08 1b 88 80 80   ...4betw........
|   3024: 80 80 0f 03 00 3c 00 00 00 16 04 04 33 72 6f 77   .....<......3row
|   3040: 02 06 01 01 05 01 03 74 68 64 02 08 05 0a 1b 88   .......thd......
|   3056: 80 80 80 80 0e 03 00 3c 00 00 00 16 01 01 02 04   .......<........
|   3072: 33 61 72 65 02 02 03 01 03 62 65 74 02 02 07 08   3are.....bet....
|   3088: 1b 88 80 80 80 80 0d 03 00 3c 00 00 00 16 03 32   .........<.....2
|   3104: 74 68 02 08 02 01 01 07 00 04 33 61 6e 64 02 06   th........3and..
|   3120: 04 0a 1b 88 80 80 80 80 0c 03 00 3c 00 00 00 16   ...........<....
|   3136: 03 32 69 6e 02 06 01 01 06 01 02 72 6f 02 06 01   .2in.......ro...
|   3152: 01 43 04 09 18 88 80 80 80 80 0b 03 00 36 00 00   .C...........6..
|   3168: 00 13 02 03 32 61 72 02 02 03 01 02 62 65 02 02   ....2ar.....be..
|   3184: 04 05 07 1b 88 80 80 80 80 0a 03 00 3c 00 00 00   ............<...
|   3200: 16 02 31 74 02 08 02 01 01 07 00 03 32 61 6e 02   ..1t........2an.
|   3216: 06 01 01 04 09 19 88 80 80 80 80 09 03 00 38 00   ..............8.
|   3232: 00 00 14 02 31 6e 02 06 01 01 03 01 01 72 02 06   ....1n.......r..
|   3248: 01 01 05 04 08 17 88 80 80 80 80 08 03 00 34 00   ..............4.
|   3264: 00 00 12 02 31 62 02 02 04 01 01 69 02 06 01 01   ....1b.....i....
|   3280: 06 04 06 19 88 80 80 80 80 07 03 00 38 00 00 00   ............8...
|   3296: 14 04 02 31 32 02 02 05 01 01 61 02 08 03 01 01   ...12.....a.....
|   3312: 02 05 06 1b 88 80 80 80 80 06 03 00 3c 00 00 00   ............<...
|   3328: 16 06 30 74 68 65 72 65 02 02 01 00 02 30 21 02   ..0there.....0!.
|   3344: 06 01 01 04 0a 15 88 80 80 80 80 05 03 00 30 00   ..............0.
|   3360: 00 00 11 01 01 05 04 30 74 68 65 02 06 01 01 07   .......0the.....
|   3376: 07 1c 88 80 80 80 80 04 03 00 3e 00 00 00 17 01   ..........>.....
|   3392: 01 06 02 30 6e 02 06 01 01 03 01 04 72 6f 77 73   ...0n.......rows
|   3408: 02 06 07 08 1b 88 80 80 80 80 03 03 00 3c 00 51   .............<.Q
|   3424: 00 16 08 30 62 65 74 77 65 65 6e 02 02 04 01 02   ...0between.....
|   3440: 69 6e 02 06 04 0c 1a 88 80 80 80 80 02 03 00 3a   in.............:
|   3456: 00 00 00 15 04 30 61 6e 64 02 06 01 01 02 02 02   .....0and.......
|   3472: 72 65 02 02 03 04 0a 17 88 80 80 80 80 01 03 00   re..............
|   3488: 34 00 00 00 12 02 30 31 02 06 01 01 04 01 01 32   4.....01.......2
|   3504: 02 02 05 04 08 08 84 80 80 80 80 12 03 00 16 00   ................
|   3520: 00 00 05 04 1b 84 80 80 80 80 11 03 00 3c 00 00   .............<..
|   3536: 00 16 05 34 74 51 62 6c 01 06 01 01 05 02 03 65   ...4tQbl.......e
|   3552: 72 6d 01 02 04 0b 1b 84 80 80 80 80 10 03 00 3c   rm.............<
|   3568: 00 00 00 16 05 34 65 17 63 68 01 02 03 01 04 70   .....4e.ch.....p
|   3584: 72 65 73 01 02 05 04 09 1a 84 80 80 80 80 0f 03   res.............
|   3600: 00 3a 00 00 00 15 04 33 74 65 72 01 02 04 02 02   .:.....3ter.....
|   3616: 68 65 01 06 01 01 03 04 08 1b 84 80 80 80 80 0e   he..............
|   3632: 03 00 3c 00 00 00 16 04 33 70 72 65 01 02 05 01   ..<.....3pre....
|   3648: 03 74 61 62 01 06 01 01 05 04 08 1a 84 80 80 80   .tab............
|   3664: 80 0d 03 00 3a 00 00 00 15 04 33 66 6f 72 01 03   ....:.....3for..
|   3680: 02 02 02 74 73 01 06 01 01 04 04 08 1b 84 80 80   ...ts...........
|   3696: 80 80 0c 03 00 3c 00 00 00 16 03 32 74 68 01 06   .....<.....2th..
|   3712: 01 01 03 00 04 33 65 61 63 01 02 03 04 09 18 84   .....3eac.......
|   3728: 80 80 80 80 0b 03 00 36 00 00 00 13 03 32 74 61   .......6.....2ta
|   3744: 01 06 01 01 05 02 01 65 01 02 04 04 09 19 84 80   .......e........
|   3760: 80 80 80 0a 03 00 38 00 00 00 14 03 32 69 6e 01   ......8.....2in.
|   3776: 06 01 01 02 01 02 70 72 01 02 05 04 09 18 84 80   ......pr........
|   3792: 80 80 80 09 03 00 36 00 00 00 13 03 32 66 6f 01   ......6.....2fo.
|   3808: 02 02 02 01 74 01 06 01 01 04 04 07 1b 84 80 80   ....t...........
|   3824: 80 80 08 03 00 3c 00 00 00 16 02 31 74 01 0a 04   .....<.....1t...
|   3840: 01 01 03 04 00 03 32 65 61 01 02 03 04 0a 17 84   ......2ea.......
|   3856: 80 80 80 80 07 03 00 34 00 00 00 12 02 31 69 01   .......4.....1i.
|   3872: 06 01 01 02 01 01 70 01 02 05 04 08 18 84 80 80   ......p.........
|   3888: 80 80 06 03 00 36 00 00 00 12 02 31 65 01 02 02   .....6.....1e...
|   3904: 01 01 66 01 08 02 01 01 04 04 06 1b 84 80 80 80   ..f.............
|   3920: 80 05 03 00 3c 00 00 00 16 05 30 74 65 72 6d 01   ....<.....0term.
|   3936: 02 04 02 02 68 65 01 06 01 01 03 04 09 14 84 80   ....he..........
|   3952: 80 80 80 04 03 00 2e 00 00 00 10 06 30 74 61 62   ............0tab
|   3968: 6c 65 01 06 01 01 05 04 15 84 80 80 80 80 03 03   le..............
|   3984: 00 30 00 00 00 11 02 08 30 70 72 65 73 65 6e 74   .0......0present
|   4000: 01 02 05 05 1b 84 80 80 80 80 02 03 00 3c 00 00   .............<..
|   4016: 00 16 04 30 66 74 73 01 06 01 01 04 01 02 69 6e   ...0fts.......in
|   4032: 01 06 01 01 04 0a 1a 84 80 80 80 80 01 03 00 3a   ...............:
|   4048: 00 00 00 15 05 30 65 61 63 68 01 02 03 01 03 66   .....0each.....f
|   4064: 6f 72 01 02 01 f4 09 06 01 03 00 12 03 0b 0f 00   or..............
|   4080: 00 08 8c 80 80 80 80 11 03 00 16 00 00 00 05 04   ................
| page 3 offset 8192
|      0: 0a 00 00 00 32 0e 4f 00 0f fa 0f f1 0f e9 0f e1   ....2.O.........
|     16: 0f d8 0f d1 0f c9 0f c1 0f b9 0f b1 0f a9 0f a0   ................
|     32: 0f 98 0f 90 0f 87 0f 80 0f 78 0f 71 0f 68 0f 5f   .........x.q.h._
|     48: 0f 56 0f 4d 0f 41 0f 38 0f 2f 0f 26 0f 1d 0f 13   .V.M.A.8./.&....
|     64: 0f 0a 0f 01 0e f7 0e ee 0e e6 0e dd 0e d6 0e cd   ................
|     80: 0e c3 0e ba 0e b0 0e a8 0e 9f 0e 00 00 00 00 00   ................
|   3648: 00 00 00 00 00 00 00 00 00 00 00 00 00 00 00 08   ................
|   3664: 04 01 10 01 03 34 74 20 07 04 01 0e 01 03 34 1e   .....4t ......4.
|   3680: 09 04 01 12 01 03 33 74 68 1c 08 04 01 10 01 03   ......3th.......
|   3696: 33 6e 1a 08 04 01 10 01 03 32 77 18 08 04 01 10   3n.......2w.....
|   3712: 01 03 32 74 16 08 04 01 10 01 03 32 6e 14 07 04   ..2t.......2n...
|   3728: 01 0e 01 03 32 12 08 04 01 10 01 03 31 74 10 07   ....2.......1t..
|   3744: f4 01 10 01 03 31 6e 0e 07 04 01 0e 01 03 31 0c   .....1n.......1.
|   3760: 09 04 01 12 01 03 30 74 68 0a 08 04 01 10 01 03   ......0th.......
|   3776: 30 74 08 09 04 01 12 01 03 30 6e 75 06 08 04 01   0t.......0nu....
|   3792: 10 01 03 30 6e 04 06 04 01 0c 01 03 02 08 04 01   ...0n...........
|   3808: 10 01 02 34 73 22 07 04 01 0e 01 02 34 20 08 04   ...4s.......4 ..
|   3824: 01 10 01 02 33 72 1e 09 04 01 12 01 02 33 61 72   ....3r.......3ar
|   3840: 1c 08 04 01 10 01 02 32 74 1a 08 04 01 10 01 02   .......2t.......
|   3856: 32 69 18 09 04 01 12 01 02 32 61 72 16 08 04 01   2i.......2ar....
|   3872: 10 01 02 31 74 14 08 04 01 10 01 02 31 6e 12 08   ...1t.......1n..
|   3888: 04 01 10 01 02 31 62 10 08 04 01 10 01 02 31 32   .....1b.......12
|   3904: 0e 0b 04 01 16 01 02 30 74 00 00 00 00 00 00 00   .......0t.......
| page 4 offset 12288
|   4064: 00 00 00 00 00 00 00 00 00 00 00 05 02 03 00 10   ................
|   4080: 03 05 05 02 03 00 10 04 06 05 01 03 00 10 04 04   ................
| page 5 offset 16384
|      0: 0a 00 00 00 02 0f eb 00 0f eb 0f f4 00 00 00 00   ................
|   4064: 00 00 00 00 00 00 00 00 00 00 00 08 03 15 01 70   ...............p
|   4080: 67 73 7a 08 0b 03 1b 01 76 65 72 73 69 6f 6e 04   gsz.....version.
| end crash-8230e6c3b368f5.db
}]} {}

do_catchsql_test 63.1 {
  SELECT * FROM t1 WHERE b MATCH 'thead*thead*theSt*';
} {/*malformed database schema*/}

do_catchsql_test 63.2 {
  INSERT INTO t1(t1) VALUES('optimize');
} {/*malformed database schema*/}

do_catchsql_test 63.3 {
  SELECT * FROM t1 WHERE b MATCH 'thead*thead*theSt*';
} {/*malformed database schema*/}

#---------------------------------------------------------------------------
do_test 64.0 {
  sqlite3 db {}
  db deserialize [decode_hexdb {
.open --hexdb
| size 28672 pagesize 4096 filename crash-4470f0b94422f7.db
| page 1 offset 0
|      0: 53 51 4c 69 74 65 20 66 6f 72 6d 61 74 20 33 00   SQLite format 3.
|     16: 10 00 01 01 00 40 20 20 00 00 00 00 00 00 00 06   .....@  ........
|     32: 00 00 00 00 00 00 00 00 00 00 00 06 00 00 00 04   ................
|     96: 00 00 00 00 0d 00 00 00 06 0d e2 00 0f c4 0f 6a   ...............j
|    112: 0e fc 0e 9d 0e 3d 0d e2 00 00 00 00 00 01 00 00   .....=..........
|   3552: 00 00 59 06 06 17 21 21 01 7f 74 61 62 6c 65 74   ..Y...!!..tablet
|   3568: 74 74 5f 63 6f 6e 66 69 67 74 74 74 5f 63 6f 6e   tt_configttt_con
|   3584: 66 69 67 06 43 52 45 41 54 45 20 54 41 42 4c 45   fig.CREATE TABLE
|   3600: 20 27 74 74 74 5f 63 6f 6e 66 69 67 27 28 6b 20    'ttt_config'(k 
|   3616: 50 52 49 4d 41 52 59 20 4b 45 59 2c 20 76 29 20   PRIMARY KEY, v) 
|   3632: 57 49 54 48 4f 55 54 20 52 4f 57 49 44 5e 05 07   WITHOUT ROWID^..
|   3648: 17 23 23 01 81 03 74 61 62 6c 65 74 74 74 5f 64   .##...tablettt_d
|   3664: 6f 63 73 69 7a 65 74 74 74 5f 64 6f 63 73 69 7a   ocsizettt_docsiz
|   3680: 65 05 43 52 45 41 54 45 20 54 41 42 4c 45 20 27   e.CREATE TABLE '
|   3696: 74 74 74 5f 64 6f 63 73 69 7a 65 27 28 69 64 20   ttt_docsize'(id 
|   3712: 49 4e 54 45 47 45 52 20 50 52 49 4d 41 52 59 20   INTEGER PRIMARY 
|   3728: 4b 45 59 2c 20 73 7a 20 42 4c 4f 42 29 5d 04 07   KEY, sz BLOB)]..
|   3744: 17 23 23 01 81 01 74 61 62 6c 65 74 74 74 5f 63   .##...tablettt_c
|   3760: 6f 6e 74 65 6e 74 74 74 74 5f 63 6f 6e 74 65 6e   ontentttt_conten
|   3776: 74 04 43 52 45 41 54 45 20 54 41 42 4c 45 20 27   t.CREATE TABLE '
|   3792: 74 74 74 5f 63 6f 6e 74 65 6e 74 27 28 69 64 20   ttt_content'(id 
|   3808: 49 4e 54 45 47 45 52 20 50 52 49 4d 41 52 59 20   INTEGER PRIMARY 
|   3824: 4b 45 59 2c 20 63 30 2c 20 63 31 29 6c 03 07 17   KEY, c0, c1)l...
|   3840: 1b 1b 01 81 2f 74 61 62 6c 65 74 74 74 5f 69 64   ..../tablettt_id
|   3856: 78 74 74 74 5f 69 64 78 03 43 52 45 41 54 45 20   xttt_idx.CREATE 
|   3872: 54 41 42 4c 45 20 27 74 74 74 5f 69 64 78 27 28   TABLE 'ttt_idx'(
|   3888: 73 65 67 69 64 2c 20 74 65 72 6d 2c 20 70 67 6e   segid, term, pgn
|   3904: 6f 2c 20 50 52 49 4d 41 52 59 20 4b 45 59 28 73   o, PRIMARY KEY(s
|   3920: 65 67 69 64 2c 20 74 65 72 6d 29 29 20 57 49 54   egid, term)) WIT
|   3936: 48 4f 55 54 20 52 4f 57 49 44 58 02 07 17 1d 1d   HOUT ROWIDX.....
|   3952: 01 81 03 74 61 62 6c 65 74 74 74 5f 64 61 74 61   ...tablettt_data
|   3968: 74 74 74 5f 64 61 74 61 02 43 52 45 41 54 45 20   ttt_data.CREATE 
|   3984: 54 41 42 4c 45 20 27 74 74 74 5f 64 61 74 61 27   TABLE 'ttt_data'
|   4000: 28 69 64 20 49 4e 54 45 47 45 52 20 50 52 49 4d   (id INTEGER PRIM
|   4016: 41 52 59 20 4b 45 59 2c 20 62 6c 6f 63 6b 20 42   ARY KEY, block B
|   4032: 4c 4f 42 29 3a 01 06 17 13 13 08 5f 74 61 62 6c   LOB):......_tabl
|   4048: 65 74 74 74 74 74 74 43 52 45 41 54 45 20 56 49   ettttttCREATE VI
|   4064: 52 54 55 41 4c 20 54 41 42 4c 45 20 74 74 74 20   RTUAL TABLE ttt 
|   4080: 55 53 49 4e 47 20 66 74 73 35 28 61 2c 20 62 29   USING fts5(a, b)
| page 2 offset 4096
|      0: 0d 0f 44 00 05 0e 81 00 0f 1a 0e 81 0f af 0f 58   ..D............X
|     16: 0e 98 00 00 00 00 00 00 00 00 00 00 00 00 00 00   ................
|   3712: 00 15 0a 03 00 30 00 00 00 00 01 03 03 00 03 01   .....0..........
|   3728: 01 01 02 01 01 03 01 01 81 24 8c 80 80 80 80 01   .........$......
|   3744: 04 00 82 4c 00 00 00 9b 02 30 65 03 1a 02 05 05   ...L.....0e.....
|   3760: 07 05 01 01 04 03 03 08 03 03 01 2e 02 05 05 07   ................
|   3776: 05 07 05 07 05 01 01 04 03 03 08 03 03 08 03 03   ................
|   3792: 07 f3 03 02 01 65 03 1e 03 05 05 04 05 05 01 00   .....e..........
|   3808: 03 06 04 04 06 04 03 01 36 03 05 05 04 06 05 04   ........6.......
|   3824: 06 05 04 05 05 01 01 03 06 04 04 06 04 04 06 04   ................
|   3840: 04 06 04 03 03 01 65 03 14 04 05 06 f5 05 01 01   ......e.........
|   3856: 02 08 09 01 20 04 05 07 05 07 05 07 05 05 01 00   .... ...........
|   3872: 02 08 0a 0a 0a 04 01 65 03 02 0a 01 06 0a 0a 0a   .......e........
|   3888: 05 01 65 03 06 01 01 0a 01 0a 01 01 0a 0a 0a 04   ..e.............
|   3904: 2b 31 21 0b 0f ef 00 14 2a 00 00 00 00 01 02 02   +1!.....*.......
|   3920: 00 02 01 01 01 02 01 01 50 88 80 80 80 80 01 04   ........P.......
|   3936: 00 81 24 00 00 00 47 02 30 65 02 1a 02 05 05 07   ..$...G.0e......
|   3952: 05 01 01 04 03 03 08 03 03 02 01 65 02 1e 03 05   ...........e....
|   3968: 05 04 05 05 01 01 03 06 04 04 06 04 03 03 01 65   ...............e
|   3984: 02 14 04 05 07 05 05 01 01 02 08 0a 04 01 65 02   ..............e.
|   4000: 02 0a 05 01 65 02 06 01 01 0a 04 12 14 0f 06 31   ....e..........1
|   4016: 84 80 80 80 80 01 03 00 68 00 00 00 2b 02 30 65   ........h...+.0e
|   4032: 01 10 02 05 05 01 01 04 03 03 02 01 65 01 12 03   ............e...
|   4048: 05 05 01 01 03 06 04 03 03 01 65 01 0e 04 05 05   ..........e.....
|   4064: 01 01 02 08 04 0d 0e 06 01 03 00 12 04 4c 4c 00   .............LL.
|   4080: 00 00 11 24 00 00 00 00 01 01 01 00 01 01 01 01   ...$............
| page 3 offset 8192
|      0: 0a 00 00 00 03 0f ec 00 0f 00 00 00 00 00 00 00   ................
|   4064: 00 00 00 00 00 00 00 00 00 00 00 00 06 04 01 0c   ................
|   4080: 01 03 02 06 04 01 0c 01 02 02 05 04 09 0c 01 02   ................
| page 4 offset 12288
|      0: 0d 00 00 00 04 0e 1a 00 0f c7 0f 5b 0e ef 0e 1a   ...........[....
|   3600: 00 00 00 00 00 00 00 00 00 00 81 52 04 06 00 81   ...........R....
|   3616: 5d 81 55 65 20 65 65 20 65 65 65 20 65 20 65 65   ].Ue ee eee e ee
|   3632: 20 65 65 65 20 65 20 65 65 20 65 65 65 66 20 65    eee e ee eeef e
|   3648: 65 20 65 65 65 20 65 20 65 65 20 65 65 65 20 65   e eee e ee eee e
|   3664: 20 65 65 20 65 65 65 65 20 65 65 20 65 65 65 20    ee eeee ee eee 
|   3680: 65 20 65 65 20 65 65 65 20 65 20 65 65 20 65 65   e ee eee e ee ee
|   3696: 65 65 20 65 65 20 65 65 65 20 65 20 65 65 20 65   ee ee eee e ee e
|   3712: 65 65 20 65 20 65 65 20 65 65 65 65 65 65 20 65   ee e ee eeeeee e
|   3728: 65 20 65 20 65 20 65 20 65 65 20 65 65 65 20 65   e e e e ee eee e
|   3744: 65 20 65 65 65 65 65 20 65 65 20 65 20 65 1f 65   e eeeee ee e e.e
|   3760: 20 65 65 20 65 65 65 20 65 65 20 65 65 65 65 65    ee eee ee eeeee
|   3776: 20 65 65 20 65 20 65 20 65 20 65 65 20 65 65 65    ee e e e ee eee
|   3792: 20 65 65 20 65 65 65 65 65 20 65 65 20 65 20 65    ee eeeee ee e e
|   3808: 20 65 20 65 65 20 65 65 65 20 65 65 20 65 65 6a    e ee eee ee eej
|   3824: 03 03 ff 75 71 65 20 65 65 1f 65 65 65 20 65 20   ...uqe ee.eee e 
|   3840: 65 65 20 65 65 65 20 65 20 65 65 20 65 65 65 65   ee eee e ee eeee
|   3856: 20 65 65 20 65 65 65 20 65 20 65 65 20 65 65 65    ee eee e ee eee
|   3872: 20 65 20 65 65 20 65 65 65 65 65 65 20 65 65 20    e ee eeeeee ee 
|   3888: 65 20 65 20 65 20 65 65 20 65 65 65 20 65 65 20   e e e ee eee ee 
|   3904: 65 65 65 65 65 20 65 65 20 65 20 65 20 65 20 65   eeeee ee e e e e
|   3920: 65 20 65 65 65 20 65 65 20 65 65 6a 02 04 00 75   e eee ee eej...u
|   3936: 40 65 20 65 65 20 65 65 65 20 65 20 65 65 20 65   @e ee eee e ee e
|   3952: 65 65 20 65 20 65 65 20 65 65 65 65 20 65 65 20   ee e ee eeee ee 
|   3968: 65 65 65 20 65 20 65 65 20 65 65 65 20 65 20 65   eee e ee eee e e
|   3984: 65 20 65 65 65 65 65 65 20 65 65 20 65 20 65 20   e eeeeee ee e e 
|   4000: 65 20 65 65 20 65 65 65 20 65 65 20 65 65 65 65   e ee eee ee eeee
|   4016: 65 20 65 65 20 65 20 65 20 65 20 65 65 20 65 65   e ee e e e ee ee
|   4032: 65 20 65 65 20 65 65 37 01 04 00 41 3f 65 20 65   e ee ee7...A?e e
|   4048: 65 20 65 65 65 20 65 20 65 65 20 65 65 65 20 65   e eee e ee eee e
|   4064: 20 65 65 20 65 65 65 65 65 65 20 65 65 20 65 20    ee eeeeee ee e 
|   4080: 65 20 65 20 65 65 20 65 65 65 20 65 65 20 65 65   e e ee eee ee ee
| page 5 offset 16384
|      0: 0d 00 00 00 04 0f e4 00 0f f9 0f f2 0f eb 0f e4   ................
|   4064: 00 00 00 00 05 04 03 00 10 21 21 05 03 03 00 10   .........!!.....
|   4080: 11 11 05 02 03 00 10 11 11 05 01 03 00 10 09 09   ................
| page 6 offset 20480
|      0: 0a 00 00 00 01 0f f4 00 0f f4 00 00 00 00 00 00   ................
|   4080: 00 00 00 00 0b 03 1b 01 76 65 72 73 69 6f 6e 04   ........version.
| end crash-4470f0b94422f7.db
}]} {}

do_catchsql_test 64.1 {
  SELECT * FROM ttt('e*');
} {1 {database disk image is malformed}}

#---------------------------------------------------------------------------
do_test 65.0 {
  sqlite3 db {}
  db deserialize [decode_hexdb {
.open --hexdb
| size 28672 pagesize 4096 filename crash-3aef66940ace0c.db
| page 1 offset 0
|      0: 53 51 4c 69 74 65 20 66 6f 72 6d 61 74 20 33 00   SQLite format 3.
|     16: 10 00 01 01 00 40 20 20 00 00 00 00 00 00 00 00   .....@  ........
|     96: 00 00 00 00 0d 0f c7 00 07 0d 92 00 0f 8d 0f 36   ...............6
|    112: 0e cb 0e 6b 0e 0e 0d b6 0d 92 00 00 00 00 00 00   ...k............
|   3472: 00 00 22 08 06 17 11 11 01 31 74 61 62 6c 65 74   .........1tablet
|   3488: 32 74 32 08 43 52 45 41 54 45 20 54 41 42 4c 45   2t2.CREATE TABLE
|   3504: 20 74 32 28 78 29 56 07 06 17 1f 1f 01 7d 74 61    t2(x)V.......ta
|   3520: 62 6c 65 74 31 5f 63 6f 6e 66 69 67 74 31 5f 63   blet1_configt1_c
|   3536: 6f 6e 66 69 67 07 43 52 45 41 54 45 20 54 41 42   onfig.CREATE TAB
|   3552: 4c 45 20 27 74 31 5f 63 6f 6e 66 69 67 27 28 6b   LE 't1_config'(k
|   3568: 20 50 52 49 4d 41 52 59 20 4b 45 59 2c 20 76 29    PRIMARY KEY, v)
|   3584: 20 57 49 54 48 4f 55 54 20 52 4f 57 49 44 5b 06    WITHOUT ROWID[.
|   3600: 07 17 21 21 01 81 01 74 61 62 6c 65 74 31 5f 64   ..!!...tablet1_d
|   3616: 6f 63 73 69 7a 65 74 31 5f 64 6f 63 73 69 7a 65   ocsizet1_docsize
|   3632: 06 43 52 45 41 54 45 20 54 41 42 4c 45 20 27 74   .CREATE TABLE 't
|   3648: 31 5f 64 6f 63 73 69 7a 65 27 28 69 64 20 49 4e   1_docsize'(id IN
|   3664: 54 45 47 45 52 20 50 52 49 4d 41 52 59 20 4b 45   TEGER PRIMARY KE
|   3680: 59 2c 20 73 7a 20 42 4c 4f 42 29 5e 05 07 17 21   Y, sz BLOB)^...!
|   3696: 21 01 81 07 74 61 62 6c 65 74 31 5f 63 6f 6e 74   !...tablet1_cont
|   3712: 65 6e 74 74 31 5f 63 6f 6e 74 65 6e 74 05 43 52   entt1_content.CR
|   3728: 45 41 54 45 20 54 41 42 4c 45 20 27 74 31 5f 63   EATE TABLE 't1_c
|   3744: 6f 6e 74 65 6e 74 27 28 69 64 20 49 4e 54 45 47   ontent'(id INTEG
|   3760: 45 52 20 50 52 49 4d 41 52 59 20 4b 45 59 2c 20   ER PRIMARY KEY, 
|   3776: 63 30 2c 20 63 31 2c d6 63 32 29 69 04 07 17 19   c0, c1,.c2)i....
|   3792: 19 01 81 2d 74 61 62 6c 65 74 31 5f 69 64 78 74   ...-tablet1_idxt
|   3808: 31 5f 69 64 78 04 43 52 45 41 54 45 20 54 41 42   1_idx.CREATE TAB
|   3824: 4c 45 20 27 74 31 5f 69 64 78 27 28 73 65 67 69   LE 't1_idx'(segi
|   3840: 64 2c 20 74 65 72 6d 2c 20 70 67 6e 6f 2c 20 50   d, term, pgno, P
|   3856: 52 49 4d 41 52 59 20 4b 45 59 28 73 65 67 69 64   RIMARY KEY(segid
|   3872: 2c 20 74 65 72 6d 29 29 20 57 49 54 48 4f 55 54   , term)) WITHOUT
|   3888: 20 52 4f 57 49 44 55 03 07 17 1b 1b 01 81 01 74    ROWIDU........t
|   3904: 61 62 6c 65 74 31 5f 64 61 74 61 74 31 5f 64 61   ablet1_datat1_da
|   3920: 74 61 03 43 52 45 41 54 45 20 54 41 42 4c 45 20   ta.CREATE TABLE 
|   3936: 27 74 31 5f 64 61 74 61 27 28 69 64 20 49 4e 54   't1_data'(id INT
|   3952: 45 47 45 52 20 50 52 49 4d 41 52 59 20 4b 45 59   EGER PRIMARY KEY
|   3968: 2c 20 62 6c 6f 63 6b 20 42 4c 4f 42 29 38 02 06   , block BLOB)8..
|   3984: 17 11 11 08 5f 74 61 62 6c 65 74 31 74 31 43 52   ...._tablet1t1CR
|   4000: 45 41 54 45 20 56 49 52 54 55 41 4c 20 54 41 42   EATE VIRTUAL TAB
|   4016: 4c 45 20 74 31 20 55 53 49 4e 47 20 66 74 73 35   LE t1 USING fts5
|   4032: 28 61 2c 62 2c 63 29 00 00 00 00 00 00 00 00 00   (a,b,c).........
| page 3 offset 8192
|      0: 0d 00 00 00 03 0c 93 ff 0f e6 0f ef 0c 94 00 00   ................
|   3216: 00 00 00 00 86 4a 84 80 80 80 80 01 04 00 8d 18   .....J..........
|   3232: 00 00 03 2b 02 30 30 01 02 06 01 02 06 01 02 06   ...+.00.........
|   3248: 1f 02 03 01 02 03 01 02 03 01 08 32 31 31 36 30   ...........21160
|   3264: 36 30 39 01 02 07 01 02 07 01 02 07 01 01 33 f1   609...........3.
|   3280: 02 05 01 02 05 01 02 05 01 01 35 01 02 03 01 02   ..........5.....
|   3296: 04 01 02 04 02 07 30 30 30 30 30 30 30 1c 02 3d   ......0000000..=
|   3312: 01 02 04 01 02 04 01 06 62 69 6e 61 72 79 03 06   ........binary..
|   3328: 01 02 02 03 06 01 01 f2 03 06 4e 02 02 03 06 01   ..........N.....
|   3344: 02 02 03 06 01 02 02 03 06 01 02 02 03 06 01 02   ................
|   3360: 02 03 06 01 02 02 03 06 01 02 02 03 06 01 02 02   ................
|   3376: 03 06 01 02 02 03 06 01 02 02 01 08 63 6f 6d 70   ............comp
|   3392: 69 6c 65 72 01 02 02 01 02 02 01 02 02 01 06 64   iler...........d
|   3408: 62 73 74 61 74 07 02 03 01 02 13 01 02 03 02 04   bstat...........
|   3424: 65 62 75 67 04 02 02 01 02 02 01 02 02 01 07 65   ebug...........e
|   3440: 6e 61 62 6c 65 07 02 02 01 02 02 01 02 02 01 02   nable...........
|   3456: 02 01 02 02 01 02 02 01 02 02 01 02 02 01 02 02   ................
|   3472: 01 02 02 01 02 01 f1 02 02 01 02 02 01 02 02 01   ................
|   3488: 02 02 01 02 02 01 02 02 01 02 02 01 02 02 01 02   ................
|   3504: 02 01 02 02 02 08 76 b4 65 6e 73 69 6f 6e 1f 02   ......v.ension..
|   3520: 04 01 02 04 01 02 04 01 04 66 74 73 34 0a 02 03   .........fts4...
|   3536: 01 02 03 01 02 03 04 01 25 0d 02 03 01 02 03 01   ........%.......
|   3552: 02 03 01 03 67 63 63 01 02 03 01 02 03 01 02 03   ....gcc.........
|   3568: 02 06 65 6f 70 6f 6c 79 0f f2 03 01 02 03 01 02   ..eopoly........
|   3584: 03 01 05 6a 73 6f 6e 31 13 02 03 01 02 03 01 02   ...json1........
|   3600: 03 01 04 6c 6f 61 64 1f 02 03 01 02 03 01 02 03   ...load.........
|   3616: 00 03 6d 61 78 1c 02 0c 01 02 02 01 02 02 02 05   ..max...........
|   3632: 65 6d 6f 72 79 1c 02 03 01 02 03 01 02 03 04 04   emory...........
|   3648: 73 79 73 35 16 02 03 01 02 03 01 02 03 01 06 6e   sys5...........n
|   3664: 6f 63 61 73 65 02 06 01 02 02 13 06 00 f2 02 03   ocase...........
|   3680: 06 01 12 02 13 06 01 02 02 03 06 01 02 02 03 06   ................
|   3696: 01 02 02 03 06 01 02 02 03 06 01 02 02 03 06 01   ................
|   3712: 02 02 03 06 01 02 02 03 06 01 02 02 03 06 01 02   ................
|   3728: 02 01 04 6f 6d 69 74 1f 02 02 01 02 02 01 02 02   ...omit.........
|   3744: 01 05 72 74 72 65 65 19 02 03 01 02 03 01 02 03   ..rtree.........
|   3760: 04 02 69 6d 01 06 01 02 02 03 06 01 02 02 03 06   ..im............
|   3776: 01 02 02 03 06 01 02 02 03 06 01 02 02 03 06 01   ................
|   3792: 02 02 03 06 01 02 02 03 06 01 02 02 8e 06 01 02   ................
|   3808: 02 03 06 01 02 02 03 06 01 02 02 03 06 01 02 02   ................
|   3824: 01 0a 74 68 72 65 61 64 73 61 66 65 22 02 02 01   ..threadsafe....
|   3840: 02 02 01 02 02 01 04 76 74 61 62 07 02 04 01 02   .......vtab.....
|   3856: 04 01 02 04 01 01 78 01 06 01 01 02 01 06 01 01   ......x.........
|   3872: 02 01 06 01 01 02 01 06 01 01 02 01 06 01 01 02   ................
|   3888: 01 06 01 11 02 01 06 01 01 02 01 06 01 01 02 01   ................
|   3904: 06 01 01 02 01 06 01 01 02 01 06 01 01 02 01 06   ................
|   3920: 01 01 02 01 06 01 01 01 01 06 01 01 02 01 06 01   ................
|   3936: 01 02 01 06 01 01 02 01 06 01 01 02 01 06 01 01   ................
|   3952: 02 01 06 01 01 01 f1 06 01 01 02 ad 06 01 01 02   ................
|   3968: 01 06 01 01 02 01 06 01 01 02 01 06 01 01 02 01   ................
|   3984: 06 01 01 01 01 06 01 01 02 01 06 01 01 02 01 06   ................
|   4000: 01 01 02 01 06 01 01 02 01 06 01 01 02 01 06 01   ................
|   4016: 01 02 01 06 01 01 02 01 06 01 01 02 01 06 01 01   ................
|   4032: 02 01 06 01 01 02 01 06 01 01 02 04 15 13 0c 0c   ................
|   4048: 12 44 13 11 0f 47 13 0e fc 0e 11 10 0f 0e 10 0f   .D...G..........
|   4064: 44 0f 10 40 15 0f 07 01 03 00 14 24 5a 24 24 0f   D..@.......$Z$$.
|   4080: 0a 03 00 24 00 00 00 00 01 01 01 00 01 01 01 01   ...$............
| page 4 offset 12288
|      0: 0a 00 00 00 00 00 00 00 00 00 00 00 00 00 00 00   ................
|   4080: 00 00 00 00 00 00 00 00 00 00 05 04 09 0c 01 02   ................
| page 5 offset 16384
|      0: 0d 00 00 00 24 0c 0a 00 00 00 00 00 00 00 00 00   ....$...........
|   3072: 00 00 00 00 00 00 00 00 00 00 18 24 05 00 25 0f   ...........$..%.
|   3088: 19 54 48 52 45 41 44 53 41 46 45 3d 30 58 42 49   .THREADSAFE=0XBI
|   3104: 4e 41 52 59 18 23 05 00 25 0f 19 54 48 52 45 41   NARY.#..%..THREA
|   3120: 44 53 41 46 45 3d 30 58 4e 4f 43 41 53 45 17 8f   DSAFE=0XNOCASE..
|   3136: 05 00 25 0f 17 54 48 52 45 41 44 43 41 46 45 3d   ..%..THREADCAFE=
|   3152: 30 58 52 54 52 49 4d 1f 21 05 00 33 0f 19 4f 4d   0XRTRIM.!..3..OM
|   3168: 49 54 20 4b 4f 41 44 21 45 58 54 45 4e 53 49 4f   IT KOAD!EXTENSIO
|   3184: 4e 58 42 49 4e 41 52 59 1f 20 05 00 33 0f 19 4f   NXBINARY. ..3..O
|   3200: 4d 49 54 20 4c 4f 41 44 20 45 58 54 45 4e 53 49   MIT LOAD EXTENSI
|   3216: 4f 4e 58 4e 4f 43 41 53 45 1e 1f 05 00 33 0f 17   ONXNOCASE....3..
|   3232: 4f 4d 59 54 20 4c 4f 41 44 20 45 58 54 45 4e 53   OMYT LOAD EXTENS
|   3248: 49 4f 4e 58 52 54 56 a9 4d 1f 1e 05 00 33 0f 19   IONXRTV.M....3..
|   3264: 4d 41 58 20 4d 45 4d 4f 52 59 3d 35 30 30 30 30   MAX MEMORY=50000
|   3280: 30 30 30 57 42 49 4e 31 52 59 1f 1d 05 00 33 0f   000WBIN1RY....3.
|   3296: 19 4d 41 58 20 4d 45 4d 4f 52 59 3d 35 30 30 30   .MAX MEMORY=5000
|   3312: 30 30 30 30 58 4e 4f 43 41 53 45 1e 1c 05 00 32   0000XNOCASE....2
|   3328: 0f 17 4e 41 58 20 4d 45 4d 4f 52 59 2d 35 30 30   ..NAX MEMORY-500
|   3344: 30 30 30 30 30 58 52 54 52 49 4d 18 1b 05 00 25   00000XRTRIM....%
|   3360: 0f 19 45 4e 41 42 4c 45 20 52 54 52 45 45 58 42   ..ENABLE RTREEXB
|   3376: 49 4e 41 52 59 18 1a 05 00 25 0f 19 45 4e 41 42   INARY....%..ENAB
|   3392: 4c 45 20 52 54 52 45 45 59 4e 4f 43 41 53 45 17   LE RTREEYNOCASE.
|   3408: 19 66 00 25 0f 17 45 4e 41 42 4c 45 20 52 54 52   .f.%..ENABLE RTR
|   3424: 45 45 58 52 54 52 49 4d 1a 18 05 00 29 0f 19 45   EEXRTRIM....)..E
|   3440: 4e 41 42 4c 45 20 4d 45 4d 53 59 53 35 58 42 49   NABLE MEMSYS5XBI
|   3456: 4e 41 52 59 1a 17 05 00 29 0f 19 45 4e 41 42 4c   NARY....)..ENABL
|   3472: 45 20 4d 45 4d 53 59 53 35 58 4e 4f 43 41 53 45   E MEMSYS5XNOCASE
|   3488: 19 16 05 00 29 0f 17 45 4e 41 42 4c 45 20 4d 45   ....)..ENABLE ME
|   3504: 4d 53 59 53 35 58 52 54 52 49 4d 18 15 05 10 25   MSYS5XRTRIM....%
|   3520: 0f 19 45 4e 40 42 4c 45 20 4a 53 4f 4e 31 58 42   ..EN@BLE JSON1XB
|   3536: 49 4e 41 52 59 18 14 05 00 25 0f 19 45 4e 41 42   INARY....%..ENAB
|   3552: 4c 45 20 4a 53 4f 4e 32 58 4e 4f 43 41 53 45 17   LE JSON2XNOCASE.
|   3568: 13 05 00 25 0f 17 45 4d 41 42 4c 45 20 4a 53 4f   ...%..EMABLE JSO
|   3584: 4e 31 58 52 54 52 49 4d 1a 12 05 00 29 0f 19 45   N1XRTRIM....)..E
|   3600: 4e 41 42 4c 45 20 47 45 4f 50 4f 4c 59 58 42 49   NABLE GEOPOLYXBI
|   3616: 4e 41 52 59 1a 11 05 00 29 0f 19 45 4f 81 42 4c   NARY....)..EO.BL
|   3632: 45 20 47 45 4f 50 4f 4c 59 58 4e 4f 43 51 53 45   E GEOPOLYXNOCQSE
|   3648: 19 10 05 00 29 0f 17 45 4e 41 42 4c 45 20 47 45   ....)..ENABLE GE
|   3664: 4f 50 4f 4c 59 58 52 54 52 49 4d 17 0f 05 00 23   OPOLYXRTRIM....#
|   3680: 0f 1a 45 4e 41 42 4c 45 20 46 54 53 35 58 42 49   ..ENABLE FTS5XBI
|   3696: 4e 41 52 59 17 0e 05 00 23 0f 19 45 4e 41 42 4c   NARY....#..ENABL
|   3712: 45 20 46 54 53 35 48 4e 4f 43 41 53 45 16 1d 05   E FTS5HNOCASE...
|   3728: 00 23 0f a4 45 4e 41 42 4c 45 20 46 54 53 35 58   .#..ENABLE FTS5X
|   3744: 52 54 52 49 4d 17 0c 05 00 23 0f 19 45 4e 41 42   RTRIM....#..ENAB
|   3760: 4c 45 20 46 55 53 34 58 42 49 4e 41 52 59 17 0b   LE FUS4XBINARY..
|   3776: 05 00 23 0f 19 45 4e 41 42 4c 45 20 46 54 53 34   ..#..ENABLE FTS4
|   3792: 57 4e 4f 43 41 53 45 16 0a 05 00 23 0f 17 45 4e   WNOCASE....#..EN
|   3808: 41 42 4c 45 20 46 54 53 34 05 52 54 52 49 4d 1e   ABLE FTS4.RTRIM.
|   3824: 09 05 00 31 0f 19 45 4e 41 42 4c 45 20 44 42 53   ...1..ENABLE DBS
|   3840: 54 41 54 20 56 54 41 42 58 42 49 4e 41 52 59 1e   TAT VTABXBINARY.
|   3856: 08 05 00 31 0f 19 45 4e 41 42 4c 45 20 44 42 53   ...1..ENABLE DBS
|   3872: 54 41 54 20 56 54 41 42 58 4e 4f 43 41 53 45 1d   TAT VTABXNOCASE.
|   3888: 07 05 00 31 0f 17 45 4e 41 42 4c 45 20 44 42 53   ...1..ENABLE DBS
|   3904: 54 41 54 20 56 54 41 42 58 52 54 52 49 4d 11 06   TAT VTABXRTRIM..
|   3920: 05 00 17 0f 19 44 45 42 55 47 58 42 8a 4e 41 52   .....DEBUGXB.NAR
|   3936: 59 11 05 05 00 17 0f 19 44 45 42 55 47 58 4e 4f   Y.......DEBUGXNO
|   3952: 43 41 53 45 10 04 05 00 17 0f 17 44 45 42 55 47   CASE.......DEBUG
|   3968: 58 52 54 52 49 4d 27 03 05 00 43 0f 19 43 4f 4d   XRTRIM'...C..COM
|   3984: 50 49 4c 45 52 3d 67 63 63 2d 35 2e 34 2e 30 20   PILER=gcc-5.4.0 
|   4000: 32 30 31 36 30 36 30 39 58 42 49 4e 41 52 59 27   20160609XBINARY'
|   4016: 02 05 00 43 0f 19 43 4f 4d 50 49 4c 45 52 3f 87   ...C..COMPILER?.
|   4032: 63 63 2d 35 2e 34 2e 30 20 32 30 31 36 30 36 30   cc-5.4.0 2016060
|   4048: 39 58 4e 4f 43 41 53 45 26 01 05 00 43 0f 17 43   9XNOCASE&...C..C
|   4064: 45 0d 60 59 4c 45 52 3d 67 63 63 2d 35 2e 34 2d   E.`YLER=gcc-5.4-
|   4080: 30 20 32 30 31 36 30 36 30 39 00 00 00 00 00 00   0 20160609......
| page 6 offset 20480
|   3808: 06 24 03 00 12 02 01 01 06 23 03 00 12 02 01 01   .$.......#......
|   3824: 06 22 03 01 12 02 01 01 06 21 03 00 12 03 01 01   .........!......
|   3840: 06 20 03 00 12 03 01 01 06 1f 03 00 12 03 02 01   . ..............
|   3856: 06 1e 03 00 12 03 01 01 06 1d 03 00 12 03 01 01   ................
|   3872: 06 1c 03 00 12 03 01 01 06 1b 03 00 12 02 01 01   ................
|   3888: 06 1a 03 00 12 02 01 01 06 19 03 00 12 02 01 01   ................
|   3904: 06 18 03 00 12 02 01 01 06 17 03 00 12 02 01 01   ................
|   3920: 06 16 03 00 12 02 01 01 06 15 03 00 12 02 01 01   ................
|   3936: 06 14 03 00 12 02 01 01 06 13 03 00 12 02 01 01   ................
|   3952: 06 12 03 00 12 02 01 01 06 11 03 00 12 02 01 01   ................
|   3968: 06 00 03 00 12 02 01 01 06 0f 03 00 12 02 01 01   ................
|   3984: 06 0e 03 00 12 02 01 01 06 0d 03 00 12 02 01 01   ................
|   4000: 06 0c 03 00 12 02 01 01 06 0b 03 00 12 02 01 01   ................
|   4016: 06 0a 03 00 12 02 01 01 06 09 03 00 12 03 01 01   ................
|   4032: 06 08 03 00 12 03 01 01 06 07 03 00 12 03 01 01   ................
|   4048: 06 06 03 00 12 01 01 01 06 05 03 00 12 01 01 01   ................
|   4064: 06 04 03 00 12 01 01 01 06 03 03 00 12 06 01 01   ................
|   4080: 06 02 03 00 12 06 01 01 06 01 03 00 12 06 01 01   ................
| page 7 offset 24576
|      0: 0a 00 00 00 01 0f f4 00 0f f4 00 00 00 00 00 00   ................
|   4080: 00 00 00 00 0b 03 1b 01 76 65 72 73 69 6f 6e 04   ........version.
| end crash-3aef66940ace0c.db
}]} {}

do_catchsql_test 65.1 {
  SELECT ( MATCH (t1,591)) FROM t1 WHERE t1 MATCH 'e*eŸ'
} {1 {malformed database schema (t2) - invalid rootpage}}

#-------------------------------------------------------------------------
#
reset_db
do_test 66.0 {
  sqlite3 db {}
  db deserialize [decode_hexdb {
.open --hexdb
| size 28672 pagesize 4096 filename crash-37cecb4e784e9f.db
| page 1 offset 0
|      0: 53 51 4c 69 74 65 20 66 6f 72 6d 61 74 20 33 00   SQLite format 3.
|     16: 10 00 01 01 00 40 20 20 00 00 00 00 00 00 00 07   .....@  ........
|     96: 00 00 00 00 0d 00 00 00 07 0d d2 00 0f c4 0f 6d   ...............m
|    112: 0f 02 0e ab 0e 4e 0d f6 0d d2 00 00 00 00 00 00   .....N..........
|   3536: 00 00 22 07 06 17 11 11 01 31 74 61 62 6c 65 74   .........1tablet
|   3552: 32 74 32 07 43 52 45 41 54 45 20 54 41 42 4c 45   2t2.CREATE TABLE
|   3568: 20 74 32 28 78 29 56 06 06 17 1f 1f 01 7d 74 61    t2(x)V.......ta
|   3584: 62 6c 65 74 31 5f 63 6f 6e 66 69 67 74 31 5f 63   blet1_configt1_c
|   3600: 6f 6e 66 69 67 06 43 52 45 41 54 45 20 54 41 42   onfig.CREATE TAB
|   3616: 4c 45 20 27 74 31 5f 63 6f 6e 66 69 67 27 28 6b   LE 't1_config'(k
|   3632: 20 50 52 49 4d 41 52 59 20 4b 45 59 2c 20 76 29    PRIMARY KEY, v)
|   3648: 20 57 49 54 48 4f 55 54 20 52 4f 57 49 44 5b 05    WITHOUT ROWID[.
|   3664: 07 17 21 21 01 81 01 74 61 62 6c 65 74 31 5f 64   ..!!...tablet1_d
|   3680: 6f 63 73 69 7a 65 74 31 5f 64 6f 63 73 69 7a 65   ocsizet1_docsize
|   3696: 05 43 52 45 41 54 45 20 54 41 42 4c 45 20 27 74   .CREATE TABLE 't
|   3712: 31 5f 64 6f 63 73 69 7a 65 27 28 69 64 20 49 4e   1_docsize'(id IN
|   3728: 54 45 47 45 52 20 50 52 49 4d 41 52 59 20 4b 45   TEGER PRIMARY KE
|   3744: 59 2c 20 73 7a 20 42 4c 4f 42 29 55 04 06 17 21   Y, sz BLOB)U...!
|   3760: 21 01 77 74 61 62 6c 65 74 31 5f 63 6f 6e 74 65   !.wtablet1_conte
|   3776: 6e 74 74 31 5f 63 6f 6e 74 65 6e 74 04 43 52 45   ntt1_content.CRE
|   3792: 41 54 45 20 54 41 42 4c 45 20 27 74 31 5f 63 6f   ATE TABLE 't1_co
|   3808: 6e 74 65 6e 74 27 28 69 64 20 49 4e 54 45 47 45   ntent'(id INTEGE
|   3824: 52 20 50 52 49 4d 41 52 59 20 4b 45 59 2c 20 63   R PRIMARY KEY, c
|   3840: 30 29 69 03 07 17 19 19 01 81 2d 74 61 62 6c 65   0)i.......-table
|   3856: 74 31 5f 69 64 78 74 31 5f 69 64 78 03 43 52 45   t1_idxt1_idx.CRE
|   3872: 41 54 45 20 54 41 42 4c 45 20 27 74 31 5f 69 64   ATE TABLE 't1_id
|   3888: 78 27 28 73 65 67 69 64 2c 20 74 65 72 6d 2c 20   x'(segid, term, 
|   3904: 70 67 6e 6f 2c 20 50 52 49 4d 41 52 59 20 4b 45   pgno, PRIMARY KE
|   3920: 59 28 73 65 67 69 64 2c 20 74 65 72 6d 29 29 20   Y(segid, term)) 
|   3936: 57 49 54 48 4f 55 54 20 52 4f 57 49 44 55 02 07   WITHOUT ROWIDU..
|   3952: 17 1b 1b 01 81 01 74 61 62 6c 65 74 31 5f 64 61   ......tablet1_da
|   3968: 74 61 74 31 5f 64 61 74 61 02 43 52 45 41 54 45   tat1_data.CREATE
|   3984: 20 54 41 42 4c 45 20 27 74 31 5f 64 61 74 61 27    TABLE 't1_data'
|   4000: 28 69 64 20 49 4e 54 45 47 45 52 20 50 52 49 4d   (id INTEGER PRIM
|   4016: 41 52 49 20 4b 45 59 2c 20 62 6c 6f 63 6b 20 42   ARI KEY, block B
|   4032: 4c 4f 42 29 3a 01 06 17 11 11 08 63 74 61 62 6c   LOB):......ctabl
|   4048: 65 74 31 74 31 43 52 45 41 54 45 20 56 49 52 54   et1t1CREATE VIRT
|   4064: 55 41 4c 20 54 41 42 4c 45 20 74 31 20 55 53 49   UAL TABLE t1 USI
|   4080: 4e 47 20 66 74 73 35 28 63 6f 6e 74 65 6e 74 29   NG fts5(content)
| page 2 offset 4096
|      0: 0d 00 00 00 03 0f bd 00 0f e8 0f ef 0f bd 00 01   ................
|   4016: 00 00 00 00 00 00 00 00 00 00 00 00 00 24 84 80   .............$..
|   4032: 80 80 80 01 03 00 4e 00 00 00 1e 06 30 61 62 61   ......N.....0aba
|   4048: 63 6b 01 02 02 04 02 66 74 02 02 02 04 04 6e 64   ck.....ft.....nd
|   4064: 6f 6e 03 02 02 04 0a 07 05 01 03 00 10 03 03 0f   on..............
|   4080: 0a 03 00 24 00 00 00 00 01 01 01 00 01 00 01 01   ...$............
| page 3 offset 8192
|      0: 0a 00 00 00 00 00 00 00 00 00 00 00 00 00 00 00   ................
|   4080: 00 00 00 00 00 00 00 00 00 00 05 04 09 0c 01 02   ................
| page 4 offset 12288
|      0: 0d 00 00 00 03 0f e0 00 0f f6 0f ec 0f e0 00 00   ................
|   4064: 0a 03 03 00 1b 61 62 61 6e 64 6f 6e 08 02 03 00   .....abandon....
|   4080: 17 61 62 61 66 74 08 01 03 00 17 61 62 61 63 6b   .abaft.....aback
| page 5 offset 16384
|      0: 0d 00 00 00 03 0f ee 00 0f fa 0f f4 0f ee 00 00   ................
|   4064: 00 00 00 00 00 00 00 00 00 00 00 00 00 00 04 03   ................
|   4080: 03 00 0e 01 04 02 03 00 0e 01 04 01 03 00 0e 01   ................
| page 6 offset 20480
|      0: 0a 00 00 01 01 0f f4 00 0f f4 00 00 00 00 00 00   ................
|   4080: 00 00 00 00 0b 03 1b 01 76 65 72 73 69 6f 6e 04   ........version.
| page 7 offset 24576
|      0: 0d 00 00 00 03 0f d6 00 0f f4 0f e1 0f d6 00 00   ................
|   4048: 00 00 00 00 00 00 09 01 52 1b 72 65 62 75 69 6c   ........R.rebuil
|   4064: 64 11 02 02 2b 69 6e 74 65 67 72 69 74 79 2d 63   d...+integrity-c
|   4080: 68 65 63 6b 0a 01 02 1d 6f 70 74 69 6d 69 7a 65   heck....optimize
| end crash-37cecb4e784e9f.db
}]} {}

do_catchsql_test 66.1 {
  INSERT INTO t1(t1) VALUES('integrity-check');
} {/.*fts5: corrupt.*/}

#-------------------------------------------------------------------------
#
reset_db
do_test 67.0 {
  sqlite3 db {}
  db deserialize [decode_hexdb {
.open --hexdb
| size 24576 pagesize 4096 filename crash-43ed0ad79c0194.db
| page 1 offset 0
|      0: 53 51 4c 69 74 65 20 66 6f 72 6d 61 74 20 33 00   SQLite format 3.
|     16: 10 00 01 01 00 40 20 20 00 00 00 00 00 00 00 00   .....@  ........
|     96: 00 00 00 00 0d 00 00 00 06 0d e2 00 0f c4 0f 6a   ...............j
|    112: 0e fc 0e 9d 0e 3d 0d e2 01 00 00 00 00 00 00 00   .....=..........
|   3552: 00 00 59 06 06 17 21 21 01 7f 74 61 62 6c 65 74   ..Y...!!..tablet
|   3568: 74 74 5f 63 6f 6e 66 69 67 74 74 74 5f 63 6f 6e   tt_configttt_con
|   3584: 66 69 67 06 43 52 45 41 54 45 20 54 41 42 4c 45   fig.CREATE TABLE
|   3600: 20 27 74 74 74 5f 63 6f 6e 66 69 67 27 28 6b 20    'ttt_config'(k 
|   3616: 50 52 49 4d 41 52 59 20 4b 45 59 2c 20 76 29 20   PRIMARY KEY, v) 
|   3632: 57 49 54 48 4f 55 54 20 52 4f 57 49 44 5e 05 07   WITHOUT ROWID^..
|   3648: 17 23 23 01 81 03 74 61 62 6c 65 74 74 74 5f 64   .##...tablettt_d
|   3664: 6f 63 73 69 7a 65 74 74 74 5f 64 6f 63 73 69 7a   ocsizettt_docsiz
|   3680: 65 05 43 52 45 41 54 45 20 54 41 42 4c 45 20 27   e.CREATE TABLE '
|   3696: 74 74 74 5f 64 6f 63 73 69 7a 65 27 28 69 64 20   ttt_docsize'(id 
|   3712: 49 4e 54 45 47 45 52 20 51 52 49 4d 41 52 59 20   INTEGER QRIMARY 
|   3728: 4b 45 59 2c 20 73 7a 20 42 4c 4f 42 29 5d 04 07   KEY, sz BLOB)]..
|   3744: 17 23 23 01 81 01 74 61 62 6c 65 74 74 74 5f 63   .##...tablettt_c
|   3760: 6f 6e 74 65 6e 74 74 74 74 5f 63 6f 6e 74 65 6e   ontentttt_conten
|   3776: 74 04 43 52 45 41 54 45 20 54 41 42 4c 45 20 27   t.CREATE TABLE '
|   3792: 74 74 74 5f 63 6f 6e 74 65 6e 74 27 28 69 64 20   ttt_content'(id 
|   3808: 49 4e 54 45 47 45 52 20 50 52 49 4d 41 f1 59 20   INTEGER PRIMA.Y 
|   3824: 4b 45 59 2c 20 63 30 2c 20 63 31 29 6c 03 07 17   KEY, c0, c1)l...
|   3840: 1b 1b 01 81 2f 74 61 62 6c 65 74 74 74 5f 69 64   ..../tablettt_id
|   3856: 78 74 74 74 5f 69 64 78 03 43 52 45 41 54 45 20   xttt_idx.CREATE 
|   3872: 54 41 42 4c 45 20 27 74 74 74 5f 69 64 78 27 28   TABLE 'ttt_idx'(
|   3888: 73 65 67 69 64 2c 20 74 65 72 6d 2c 20 70 67 6e   segid, term, pgn
|   3904: 6f 2c 20 50 52 49 4d 41 52 59 20 4b 45 59 28 73   o, PRIMARY KEY(s
|   3920: 65 67 69 64 2c 20 74 65 72 6d 29 29 20 57 49 54   egid, term)) WIT
|   3936: 48 4f 55 54 20 52 4f 57 49 44 58 02 07 17 1d 1d   HOUT ROWIDX.....
|   3952: 01 81 03 74 61 62 6c 65 74 74 74 5f 64 61 74 61   ...tablettt_data
|   3968: 74 74 74 5f 64 61 74 61 02 43 52 45 41 54 45 20   ttt_data.CREATE 
|   3984: 54 41 42 4c 45 20 27 74 74 74 5f 64 61 74 61 27   TABLE 'ttt_data'
|   4000: 28 69 64 20 49 4e 54 45 47 55 52 20 50 52 49 4d   (id INTEGUR PRIM
|   4016: 41 52 59 20 4b 45 59 2c 20 62 6c 6f 63 6b 20 42   ARY KEY, block B
|   4032: 4c 50 42 29 3a 02 06 17 13 13 08 5f 74 61 62 6c   LPB):......_tabl
|   4048: 65 74 74 74 74 74 74 43 52 45 41 54 45 20 56 49   ettttttCREATE VI
|   4064: 52 54 55 41 4c 20 54 41 42 4c 45 20 74 74 74 20   RTUAL TABLE ttt 
|   4080: 55 53 49 4e 47 20 66 74 73 35 28 61 2c 20 62 29   USING fts5(a, b)
| page 2 offset 4096
|      0: 0d 0f 44 00 05 0e 71 00 0f e7 0e 81 0f af 0f 58   ..D...q........X
|     16: 0e 98 01 00 00 00 00 00 00 00 00 00 00 00 00 00   ................
|   3712: 00 15 0a 03 00 30 00 00 00 00 01 03 03 00 03 01   .....0..........
|   3728: 01 01 02 01 01 03 01 01 81 24 8c 80 80 80 80 01   .........$......
|   3744: 04 00 82 4c 00 00 00 9b 02 30 65 03 1a 12 05 05   ...L.....0e.....
|   3760: 07 05 01 01 04 03 03 08 04 03 01 2e 02 05 f7 07   ................
|   3776: 01 e6 f5 07 05 01 01 04 03 03 01 22 03 18 03 03   ................
|   3792: 08 03 03 02 01 65 03 1e 03 05 05 04 05 05 01 01   .....e..........
|   3808: 03 06 03 f4 06 04 03 00 36 03 ff 05 04 05 05 04   ........6.......
|   3824: 05 05 04 05 04 f1 01 03 06 04 04 06 04 04 06 04   ................
|   3840: 04 07 04 03 03 01 65 03 14 04 05 07 05 05 01 01   ......e.........
|   3856: 02 08 a5 01 20 04 05 01 94 f7 05 07 05 05 01 01   .... ...........
|   3872: 02 08 0a 0a 0a 04 01 65 03 02 0a 00 06 0a 0a 0a   .......e........
|   3888: 05 01 65 03 06 a7 01 0a 01 0a 01 01 0a 0a 0a 04   ..e.............
|   3904: 2b 31 21 0b 0f ef 00 14 2a 00 00 00 00 01 02 02   +1!.....*.......
|   3920: 00 02 01 01 01 02 11 01 50 88 80 80 80 80 01 04   ........P.......
|   3936: 00 81 24 00 00 00 47 02 30 65 02 1a 02 05 05 07   ..$...G.0e......
|   3952: 05 e6 01 07 aa e3 08 03 03 02 01 65 02 1e 03 05   ...........e....
|   3968: 05 05 04 f5 01 01 03 06 04 04 06 04 13 03 01 65   ...............e
|   3984: 02 14 04 05 07 05 05 01 f7 f2 08 0a 04 01 65 02   ..............e.
|   4000: 02 0a 05 01 65 02 06 00 f1 0a 04 12 14 0f 06 31   ....e..........1
|   4016: 84 80 80 80 80 01 03 00 68 00 00 00 2b 02 30 65   ........h...+.0e
|   4032: 01 10 02 05 05 00 01 04 03 03 02 01 65 01 12 03   ............e...
|   4048: 05 05 01 01 03 06 04 03 03 01 65 01 0e 04 05 04   ..........e.....
|   4064: 01 01 02 08 04 0d 0e 06 01 03 00 12 04 4c 4c 00   .............LL.
|   4080: 00 00 11 24 00 00 00 00 01 01 01 00 01 01 01 02   ...$............
| page 3 offset 8192
|      0: 0a 00 00 00 00 00 00 00 00 00 00 00 00 00 00 00   ................
| page 4 offset 12288
|   3600: 00 00 00 00 00 00 00 00 00 00 81 52 04 06 00 81   ...........R....
|   3616: 5d 81 55 65 20 65 65 20 65 65 65 20 65 20 65 65   ].Ue ee eee e ee
|   3632: 20 65 65 65 28 15 20 65 65 20 65 65 65 65 20 65    eee(. ee eeee e
|   3648: 65 20 65 65 65 20 65 20 65 65 20 65 65 65 20 65   e eee e ee eee e
|   3664: 20 65 65 20 65 65 65 65 20 65 66 20 65 65 55 20    ee eeee ef eeU 
|   3680: 65 20 65 55 20 65 65 65 20 65 20 65 65 20 65 65   e eU eee e ee ee
|   3696: 65 64 20 65 61 c0 65 65 65 20 65 20 65 65 20 65   ed ea.eee e ee e
|   3712: 65 65 20 79 20 65 65 20 65 65 65 65 65 65 20 65   ee y ee eeeeee e
|   3728: 65 1f 65 20 65 20 65 20 65 65 20 65 65 65 20 65   e.e e e ee eee e
|   3744: 65 20 65 65 65 65 65 20 65 65 20 65 20 65 20 65   e eeeee ee e e e
|   3760: 20 65 65 20 65 65 65 20 6b 85 20 65 65 65 66 65    ee eee k. eeefe
|   3776: 20 65 65 10 65 20 65 20 65 20 65 65 20 65 65 65    ee.e e e ee eee
|   3792: 20 65 65 20 65 65 65 65 65 20 65 65 20 65 20 65    ee eeeee ee e e
|   3808: 20 65 20 65 65 20 65 65 65 20 65 65 20 65 65 6a    e ee eee ee eej
|   3824: 03 04 00 75 71 65 20 65 65 20 65 65 65 20 65 30   ...uqe ee eee e0
|   3840: 65 65 20 65 65 65 20 65 20 65 65 20 65 65 65 65   ee eee e ee eeee
|   3856: 20 65 65 20 65 65 65 20 65 1f 65 65 20 65 65 65    ee eee e.ee eee
|   3872: 20 65 20 65 65 20 65 65 65 65 65 66 20 65 65 20    e ee eeeeef ee 
|   3888: 65 21 27 20 65 20 55 65 20 66 65 64 20 65 65 00   e!' e Ue fed ee.
| page 5 offset 16384
|   4064: 00 00 00 00 05 04 03 00 10 11 20 05 03 03 00 10   .......... .....
|   4080: 11 11 05 02 03 00 00 11 11 05 01 03 00 10 09 09   ................
| page 6 offset 20480
|      0: 0a 00 00 00 01 0f f4 00 0f f4 00 01 00 00 00 00   ................
|   4080: 00 00 00 00 0b 03 1b 01 76 65 72 73 69 6f 6e 04   ........version.
| end crash-43ed0ad79c0194.db
}]} {}

do_catchsql_test 67.1 {
  SELECT snippet(ttt, null,null,
      EXISTS(SELECT 1 FROM ttt('e NuOT ee*e*ÏNuOY ee*') ) , '', 
      (SELECT 1 FROM ttt('eu NuOT ee*e* NuOY ee*'))
  ), * FROM ttt('e') 
} {1 {database disk image is malformed}}

#-------------------------------------------------------------------------
#
reset_db
do_test 68.0 {
  sqlite3 db {}
  db deserialize [decode_hexdb {
.open --hexdb
| size 32768 pagesize 4096 filename crash-41234e232809e7.db
| page 1 offset 0
|      0: 53 51 4c 69 74 65 20 66 6f 72 6d 61 74 20 33 00   SQLite format 3.
|     16: 10 00 01 01 00 40 20 20 00 00 00 00 00 00 00 08   .....@  ........
|     32: 00 00 00 02 00 00 00 01 00 00 00 09 00 00 00 04   ................
|     96: 00 00 00 00 0d 0f c7 00 07 0d 92 00 0f 8d 0f 36   ...............6
|    112: 0e cb 0e 6b 0e 0e 0d b6 0d 92 0d 92 00 00 00 00   ...k............
|   3472: 00 00 22 08 06 17 11 11 01 31 74 61 62 6c 65 74   .........1tablet
|   3488: 32 74 32 08 43 52 45 41 54 45 20 54 41 42 4c 45   2t2.CREATE TABLE
|   3504: 20 74 32 28 78 29 56 07 06 17 1f 1f 01 7d 74 61    t2(x)V.......ta
|   3520: 62 6c 65 74 31 5f 63 6f 6e 66 69 67 74 31 5f 63   blet1_configt1_c
|   3536: 6f 6e 66 69 67 07 43 52 45 41 54 45 20 54 41 42   onfig.CREATE TAB
|   3552: 4c 45 20 27 74 31 5f 63 6f 6e 66 69 67 27 28 6b   LE 't1_config'(k
|   3568: 20 50 52 49 4d 41 52 59 20 4b 45 59 2c 20 76 29    PRIMARY KEY, v)
|   3584: 20 57 49 54 48 4f 55 54 20 52 4f 57 49 44 5b 06    WITHOUT ROWID[.
|   3600: 07 17 21 21 01 81 01 74 61 62 6c 65 74 31 5f 64   ..!!...tablet1_d
|   3616: 6f 63 73 69 7a 65 74 31 5f 64 6f 63 73 69 7a 65   ocsizet1_docsize
|   3632: 06 43 52 45 41 54 45 20 54 41 42 4c 45 20 27 74   .CREATE TABLE 't
|   3648: 31 5f 64 6f 63 73 69 7a 65 27 28 69 64 20 49 4e   1_docsize'(id IN
|   3664: 54 45 47 45 52 20 50 52 49 4d 41 52 59 20 4b 45   TEGER PRIMARY KE
|   3680: 59 2c 20 73 7a 20 42 4c 4f 42 29 5e 05 07 17 21   Y, sz BLOB)^...!
|   3696: 21 01 81 07 74 61 62 6c 65 74 31 5f 63 6f 6e 74   !...tablet1_cont
|   3712: 65 6e 74 74 31 5f 63 6f 6e 74 65 6e 74 05 43 52   entt1_content.CR
|   3728: 45 41 54 45 20 54 41 42 4c 45 20 27 74 31 5f 63   EATE TABLE 't1_c
|   3744: 6f 6e 74 65 6e 74 27 28 69 64 20 49 4e 54 45 47   ontent'(id INTEG
|   3760: 45 52 20 50 52 49 4d 41 52 59 20 4b 45 59 2c 20   ER PRIMARY KEY, 
|   3776: 63 30 2c 20 63 31 2c 20 63 32 29 69 04 07 17 19   c0, c1, c2)i....
|   3792: 19 01 81 2d 74 61 62 6c 65 74 31 5f 69 64 78 74   ...-tablet1_idxt
|   3808: 31 5f 69 64 78 04 43 52 45 41 54 45 20 54 41 42   1_idx.CREATE TAB
|   3824: 4c 45 20 27 74 31 5f 69 64 78 27 28 73 65 67 69   LE 't1_idx'(segi
|   3840: 64 2c 20 74 65 72 6d 2c 20 70 67 6e 6f 2c 20 50   d, term, pgno, P
|   3856: 52 49 4d 41 52 59 20 4b 45 59 28 73 65 67 69 64   RIMARY KEY(segid
|   3872: 2c 20 74 65 72 6d 29 29 20 57 49 54 48 4f 55 54   , term)) WITHOUT
|   3888: 20 52 4f 57 49 44 55 03 07 17 1b 1b 01 81 01 74    ROWIDU........t
|   3904: 61 62 6c 65 74 31 5f 64 61 74 61 74 31 5f 64 61   ablet1_datat1_da
|   3920: 74 61 03 43 52 45 41 54 45 20 54 41 42 4c 45 20   ta.CREATE TABLE 
|   3936: 27 74 31 5f 64 61 74 61 27 28 69 64 20 49 4e 54   't1_data'(id INT
|   3952: 45 47 45 52 20 50 52 49 4d 41 52 59 20 4b 45 59   EGER PRIMARY KEY
|   3968: 2c 20 62 6c 6f 63 6b 20 42 4c 4f 42 29 38 02 06   , block BLOB)8..
|   3984: 17 11 11 08 5f 74 61 62 6c 65 74 31 74 31 43 52   ...._tablet1t1CR
|   4000: 45 41 54 45 20 56 49 52 54 55 41 4c 20 54 41 42   EATE VIRTUAL TAB
|   4016: 4c 45 20 74 31 20 55 53 49 4e 47 20 66 74 73 35   LE t1 USING fts5
|   4032: 28 61 2c 62 2c 63 29 00 00 00 00 00 00 00 00 00   (a,b,c).........
| page 3 offset 8192
|      0: 0d 00 00 00 03 0c 94 00 0f e6 0f ef 0c 94 00 00   ................
|     16: 00 00 00 00 01 00 00 00 00 00 00 00 00 00 00 00   ................
|   3216: 00 00 00 00 86 4a 84 80 80 80 80 01 04 00 8d 18   .....J..........
|   3232: 00 00 03 2b 02 30 30 01 02 06 01 02 06 01 02 06   ...+.00.........
|   3248: 1f 02 03 01 02 03 01 02 03 01 08 32 30 31 36 30   ...........20160
|   3264: 36 30 39 01 02 07 01 02 07 01 02 07 00 01 34 01   609...........4.
|   3280: 02 05 01 02 05 01 02 05 01 01 35 01 02 04 01 02   ..........5.....
|   3296: 04 01 02 04 02 07 30 30 30 30 30 30 30 1c 02 04   ......0000000...
|   3312: 01 02 04 01 02 03 f1 06 62 69 6e 62 72 79 03 06   ........binbry..
|   3328: 01 02 02 03 06 01 02 02 03 06 01 02 01 03 16 01   ................
|   3344: 02 02 03 06 01 02 02 03 06 01 02 02 03 06 01 02   ................
|   3360: 02 03 06 01 02 02 03 06 01 02 02 03 06 01 02 02   ................
|   3376: 03 04 71 02 02 03 06 11 02 02 01 08 63 6f 6d 70   ..q.........comp
|   3392: 69 6c 65 72 01 02 02 01 02 02 01 02 02 01 06 64   iler...........d
|   3408: 62 73 74 61 74 07 02 03 01 02 03 01 02 03 02 04   bstat...........
|   3424: 65 62 75 67 04 02 02 01 02 02 01 02 02 01 06 65   ebug...........e
|   3440: 6e 61 62 6c 65 07 02 02 01 02 02 01 02 02 01 02   nable...........
|   3456: 02 01 02 02 01 02 02 01 02 02 01 02 02 01 03 02   ................
|   3472: 00 02 02 01 02 02 01 02 02 01 02 02 01 02 02 01   ................
|   3488: 02 02 01 02 02 01 02 02 01 02 02 01 02 02 01 02   ................
|   3504: 02 01 02 02 02 08 78 74 65 6e 73 69 6f 6e 1f 02   ......xtension..
|   3520: 04 01 02 04 01 02 04 01 04 66 74 73 34 0a 02 03   .........fts4...
|   3536: 01 02 03 01 02 03 04 01 35 0d 02 03 01 02 03 01   ........5.......
|   3552: 02 03 01 03 66 63 63 01 02 03 01 02 03 01 02 03   ....fcc.........
|   3568: 02 06 65 6f 70 6f 6c 79 10 02 03 01 02 03 01 02   ..eopoly........
|   3584: 03 01 05 6a 73 6f 5e 31 13 02 03 01 02 03 01 02   ...jso^1........
|   3600: 03 01 04 6c 6f 61 64 1f 02 03 01 02 03 01 02 03   ...load.........
|   3616: 01 03 6d 61 78 1c 02 02 01 02 02 01 02 02 02 05   ..max...........
|   3632: 65 6d 6f 72 79 1c 02 03 01 02 03 01 02 03 04 04   emory...........
|   3648: 73 79 73 35 16 02 03 01 02 03 01 02 03 01 06 6e   sys5...........n
|   3664: 6f 63 61 73 65 02 06 01 02 02 03 06 01 02 02 03   ocase...........
|   3680: 06 01 02 02 03 06 01 02 02 03 06 01 02 02 13 06   ................
|   3696: 01 02 02 03 06 01 02 02 03 06 01 02 02 03 06 01   ................
|   3712: 02 02 03 06 01 02 02 03 06 01 02 02 03 06 01 02   ................
|   3728: 02 01 04 6f 6d 69 74 1f 02 02 01 02 02 01 02 02   ...omit.........
|   3744: 01 05 72 74 72 65 65 19 02 03 01 02 03 01 02 03   ..rtree.........
|   3760: 04 02 69 6d 01 06 01 02 02 03 06 01 12 02 03 06   ..im............
|   3776: 01 02 02 03 06 01 02 02 03 06 01 02 02 03 06 01   ................
|   3792: 02 02 03 06 01 02 02 03 06 01 02 02 03 06 01 02   ................
|   3808: 02 03 06 01 02 02 03 06 01 02 02 03 06 01 02 02   ................
|   3824: 01 0a 74 68 72 65 61 64 73 61 66 65 22 02 02 01   ..threadsafe....
|   3840: 02 02 01 02 02 01 04 76 74 61 62 07 02 04 01 02   .......vtab.....
|   3856: 04 01 02 04 01 01 78 01 06 01 01 02 01 06 01 01   ......x.........
|   3872: 02 01 06 01 01 02 01 06 01 01 02 01 06 01 01 02   ................
|   3888: 01 06 01 01 02 01 06 01 01 02 01 05 f1 01 02 01   ................
|   3904: 06 01 01 02 01 06 01 5b 02 01 06 01 01 02 01 06   .......[........
|   3920: 01 01 02 01 06 01 01 02 01 06 01 01 02 01 06 01   ................
|   3936: 01 02 01 06 01 01 02 01 06 01 01 02 01 06 01 01   ................
|   3952: 02 01 06 01 01 02 01 06 01 01 02 01 06 01 01 02   ................
|   3968: 01 06 01 01 02 01 06 01 01 02 01 06 01 01 02 01   ................
|   3984: 06 01 01 02 01 06 01 01 02 01 06 01 01 02 01 06   ................
|   4000: 01 01 02 01 06 01 01 02 01 06 01 01 02 01 06 01   ................
|   4016: 01 02 01 06 01 01 02 01 06 01 01 02 01 06 01 01   ................
|   4032: 02 01 06 01 01 02 01 06 01 01 02 04 15 13 0c 0c   ................
|   4048: 12 44 13 11 0f 47 13 0f 0c 0e 11 10 0f 0e 10 0f   .D...G..........
|   4064: 44 0f 10 40 15 0f 07 01 03 00 14 24 5a 24 24 0f   D..@.......$Z$$.
|   4080: 0a 03 00 24 00 00 00 00 01 01 01 00 01 01 01 01   ...$............
| page 4 offset 12288
|      0: 0a 00 00 00 00 00 00 00 00 00 00 00 00 00 00 00   ................
|   4080: 00 00 00 00 00 00 00 00 00 00 05 04 09 0b 01 02   ................
| page 5 offset 16384
|      0: 0d 00 00 00 24 0c 0a 00 0f d8 0f af 0f 86 0f 74   ....$..........t
|     16: 0f 61 0f 4e 0f 2f 0f 0f 0e ef 0e d7 0e be 0e a5   .a.N./..........
|     32: 0e 8d 0e 74 0e 5b 0e 40 0e 24 0e 08 0d ef 0d d5   ...t.[.@.$......
|     48: 0d bb 0d a0 0d 84 0d 68 0d 4f 0d 35 0d 1b 0c fb   .......h.O.5....
|     64: 0c da 0c b9 0c 99 0c 78 0c 57 0c 3e 0c 24 0c 0a   .......x.W.>.$..
|   3072: 00 00 00 00 00 00 00 00 00 00 18 24 05 00 25 0f   ...........$..%.
|   3088: 19 54 48 52 45 41 44 53 41 46 45 3d 30 58 42 49   .THREADSAFE=0XBI
|   3104: 4f 41 52 59 18 23 05 00 25 0f 19 54 48 52 45 41   OARY.#..%..THREA
|   3120: 44 53 41 46 45 3d 30 58 4e 4f 43 41 53 45 17 22   DSAFE=0XNOCASE..
|   3136: 05 00 25 0f 17 54 48 52 45 41 44 53 41 46 45 3d   ..%..THREADSAFE=
|   3152: 30 58 52 54 52 49 4d 1f 21 05 00 33 0f 19 4f 4d   0XRTRIM.!..3..OM
|   3168: 49 54 20 4c 4f 41 44 20 45 58 54 45 4e 53 49 4f   IT LOAD EXTENSIO
|   3184: 4e 58 42 49 4e 41 52 59 1f 20 05 00 33 0f 19 4f   NXBINARY. ..3..O
|   3200: 4d 49 54 20 4c 4f 41 44 20 45 58 54 45 4e 53 49   MIT LOAD EXTENSI
|   3216: 4f 4e 58 4e 4f 43 41 53 45 1e 1f 05 00 33 0f 17   ONXNOCASE....3..
|   3232: 4f 4d 49 54 20 4c 4f 41 44 20 45 58 54 45 4e 53   OMIT LOAD EXTENS
|   3248: 49 4f 4e 58 52 54 52 49 4d 1f 1e 05 00 33 0f 19   IONXRTRIM....3..
|   3264: 4d 41 58 20 4d 45 4d 4f 52 59 3d 35 30 30 30 30   MAX MEMORY=50000
|   3280: 30 30 30 58 42 49 4e 41 52 59 1f 1d 05 00 33 0f   000XBINARY....3.
|   3296: 19 4d 41 58 20 4d 45 4d 4f 52 59 3d 35 30 30 30   .MAX MEMORY=5000
|   3312: 30 30 30 30 58 4e 4f 43 41 53 45 1e 1c 05 00 33   0000XNOCASE....3
|   3328: 0f 17 4d 41 58 20 4d 45 4d 4f 52 59 3d 35 30 30   ..MAX MEMORY=500
|   3344: 30 30 30 30 30 58 52 54 52 49 4d 18 1b 05 00 25   00000XRTRIM....%
|   3360: 0f 19 45 4e 41 42 4c 45 20 52 54 52 45 45 58 42   ..ENABLE RTREEXB
|   3376: 49 4e 41 52 59 18 1a 05 00 25 0f 19 45 4e 41 42   INARY....%..ENAB
|   3392: 4c 45 20 52 54 52 46 45 58 4e 4f 43 41 53 45 17   LE RTRFEXNOCASE.
|   3408: 19 05 00 25 0f 17 45 4e 41 42 4c 45 20 52 54 52   ...%..ENABLE RTR
|   3424: 45 45 58 52 54 52 49 4d 1a 18 05 00 29 0f 19 45   EEXRTRIM....)..E
|   3440: 49 41 42 4c 45 20 4d 45 4d 53 59 53 35 58 42 49   IABLE MEMSYS5XBI
|   3456: 4e 41 52 59 1a 17 05 00 29 0f 19 45 4e 41 42 4c   NARY....)..ENABL
|   3472: 45 20 4d 45 4d 53 59 53 35 58 4e 4f 43 41 53 45   E MEMSYS5XNOCASE
|   3488: 19 16 05 00 29 0f 17 45 4e 41 42 4c 45 20 4d 45   ....)..ENABLE ME
|   3504: 4d 53 59 53 35 58 52 54 52 49 4d 18 15 05 00 25   MSYS5XRTRIM....%
|   3520: 0f 19 45 4e 41 42 4c 45 20 4a 53 4f 4e 31 58 42   ..ENABLE JSON1XB
|   3536: 49 4e 41 52 59 18 14 05 00 25 0f 19 45 4e 41 42   INARY....%..ENAB
|   3552: 4c 45 20 4a 53 4f 4e 31 58 4e 4f 43 41 53 45 17   LE JSON1XNOCASE.
|   3568: 13 05 00 25 0f 17 45 4e 41 42 4c 45 20 4a 53 4f   ...%..ENABLE JSO
|   3584: 4e 31 58 52 54 52 49 4d 1a 12 05 00 29 0f 19 45   N1XRTRIM....)..E
|   3600: 4e 41 42 4c 45 20 47 45 4f 50 4f 4c 59 57 42 49   NABLE GEOPOLYWBI
|   3616: 4e 41 52 59 1a 11 05 00 29 0f 19 45 4e 41 42 4c   NARY....)..ENABL
|   3632: 45 20 47 45 4f 50 4f 4c 59 58 4e 4f 42 41 53 45   E GEOPOLYXNOBASE
|   3648: 19 10 05 00 29 0f 17 45 4e 41 42 4c 45 20 47 45   ....)..ENABLE GE
|   3664: 4f 50 4f 4c 59 58 52 54 52 49 4d 17 0f 05 00 23   OPOLYXRTRIM....#
|   3680: 0f 19 45 4e 41 42 4c 45 20 46 54 53 35 58 42 49   ..ENABLE FTS5XBI
|   3696: 4e 41 52 59 17 0e 05 00 23 0f 19 45 4e 41 42 4c   NARY....#..ENABL
|   3712: 45 20 46 54 53 35 58 4e 4f 43 41 53 45 16 0d 05   E FTS5XNOCASE...
|   3728: 00 23 0f 17 45 4e 41 42 4c 45 20 46 54 53 35 58   .#..ENABLE FTS5X
|   3744: 52 54 52 49 4d 17 0c 05 00 23 0f 19 45 4e 41 42   RTRIM....#..ENAB
|   3760: 4c 45 20 46 54 53 34 58 42 49 4e 41 52 59 17 0b   LE FTS4XBINARY..
|   3776: 05 00 23 0f 19 45 4e 41 42 4c 45 20 46 54 53 34   ..#..ENABLE FTS4
|   3792: 58 4e 4f 43 41 53 45 16 0a 05 00 23 0f 17 45 4e   XNOCASE....#..EN
|   3808: 41 42 4c 45 20 46 54 53 34 58 52 54 52 49 4d 1e   ABLE FTS4XRTRIM.
|   3824: 09 05 00 31 0f 19 45 4e 41 42 4c 45 20 44 42 53   ...1..ENABLE DBS
|   3840: 54 41 54 20 56 54 41 42 58 42 49 4e 41 52 59 1e   TAT VTABXBINARY.
|   3856: 08 05 00 31 0f 19 45 4e 41 42 4c 45 20 44 42 53   ...1..ENABLE DBS
|   3872: 54 41 54 20 56 54 41 42 58 4e 4f 43 41 53 45 1d   TAT VTABXNOCASE.
|   3888: 07 05 00 31 0f 17 b7 4e 41 42 4c 45 20 44 42 53   ...1...NABLE DBS
|   3904: 54 41 54 20 66 54 41 42 58 52 54 52 49 4d 11 06   TAT fTABXRTRIM..
|   3920: 05 00 17 0f 19 44 45 42 55 47 58 42 49 4e 41 52   .....DEBUGXBINAR
|   3936: 59 11 05 05 00 17 0f 19 44 45 42 55 47 58 4e 4f   Y.......DEBUGXNO
|   3952: 43 41 53 45 10 04 05 00 17 0f 17 44 45 42 55 47   CASE.......DEBUG
|   3968: 58 62 54 52 49 4d 27 03 05 00 43 0f 19 43 4f 4d   XbTRIM'...C..COM
|   3984: 50 49 4c 45 52 3d 67 63 63 2d 35 2e 34 2e 30 20   PILER=gcc-5.4.0 
|   4000: 32 30 31 36 30 36 30 39 52 02 4a 4e 41 52 59 27   20160609R.JNARY'
|   4016: 02 05 00 43 0f 19 43 4f 4d 50 49 4c 45 52 3d 67   ...C..COMPILER=g
|   4032: 63 63 2d 35 2e 34 2e 30 20 32 30 31 36 30 36 30   cc-5.4.0 2016060
|   4048: 39 58 4e 4f 43 41 53 45 26 01 05 00 43 0f 17 43   9XNOCASE&...C..C
|   4064: 4f 4d 50 49 4c 45 52 3d 67 63 63 2d 35 2e 34 2e   OMPILER=gcc-5.4.
|   4080: 30 20 32 30 31 36 30 36 30 39 58 52 54 52 49 4d   0 20160609XRTRIM
| page 6 offset 20480
|      0: 0d 00 00 00 24 0e e0 00 0f f8 0f f0 0f e8 0f e0   ....$...........
|     16: 0f d8 0f d0 0f c8 0f c0 0f b8 0f b0 0f a8 0f a0   ................
|     32: 0f 98 0f 90 0f 88 0f 80 0f 78 0f 70 0f 68 0f 60   .........x.p.h.`
|     48: 0f 58 0f 50 0f 48 0f 40 0f 38 0f 30 0f 28 0f 20   .X.P.H.@.8.0.(. 
|     64: 0f 18 0f 10 0f 08 0f 00 0e f8 0e f0 0e e8 0e e0   ................
|   3808: 06 24 03 00 12 02 01 01 06 23 03 00 12 02 01 01   .$.......#......
|   3824: 06 22 03 00 12 02 01 01 06 21 03 00 12 03 01 01   .........!......
|   3840: 06 20 03 00 12 03 01 01 06 1f 03 00 12 03 01 01   . ..............
|   3856: 06 1e 03 00 12 03 01 01 06 1d 03 00 12 03 01 01   ................
|   3872: 06 1c 03 00 12 03 01 01 06 1b 03 00 12 02 01 01   ................
|   3888: 06 1a 03 00 12 02 01 01 06 19 03 00 12 02 01 01   ................
|   3904: 06 18 03 00 12 02 01 01 06 17 03 00 12 02 01 01   ................
|   3920: 06 16 03 00 12 02 01 01 06 15 03 00 12 02 01 01   ................
|   3936: 06 14 03 00 12 02 01 01 06 13 03 00 12 02 01 01   ................
|   3952: 06 12 03 00 12 02 01 01 06 11 03 00 12 02 01 01   ................
|   3968: 06 10 03 00 12 02 01 01 06 0f 03 00 12 02 01 01   ................
|   3984: 06 0e 03 00 12 02 01 01 06 0d 03 00 12 02 01 01   ................
|   4000: 06 0c 03 00 12 02 01 01 06 0b 03 00 12 02 01 01   ................
|   4016: 06 0a 03 00 12 02 01 01 06 09 03 00 12 03 01 01   ................
|   4032: 06 08 03 00 12 03 01 01 06 07 03 00 12 03 01 01   ................
|   4048: 06 06 03 00 12 01 01 01 06 05 03 00 12 01 01 01   ................
|   4064: 06 04 03 00 12 01 01 01 06 03 03 00 12 06 01 01   ................
|   4080: 06 02 03 00 12 06 01 01 06 01 03 00 12 06 01 01   ................
| page 7 offset 24576
|      0: 0a 00 00 00 01 0f f4 00 0f f4 00 00 00 00 00 00   ................
|   4080: 00 00 00 00 0b 03 1b 01 76 65 72 73 69 6f 6e 04   ........version.
| page 8 offset 28672
|      0: 0d 00 00 00 03 0f d6 00 0f f4 0f e9 0f d6 00 00   ................
|   4048: 00 00 00 00 00 00 11 04 02 2b 69 6e 74 65 67 72   .........+integr
|   4064: 69 74 79 2d 63 68 65 63 6b 09 02 02 1b 72 65 62   ity-check....reb
|   4080: 75 69 6c 64 0a 01 02 1d 6f 70 74 69 5d 69 71 a5   uild....opti]iq.
| end crash-41234e232809e7.db
.testctrl prng_seed 1 db
}]} {}

do_catchsql_test 68.1 { 
  PRAGMA reverse_unordered_selects=ON;
  INSERT INTO t1(t1) SELECT x FROM t2;
} {1 {fts5: corruption on page 1, segment 1, table "t1"}}

#-------------------------------------------------------------------------
reset_db
do_test 69.0 {
  sqlite3 db {}
  db deserialize [decode_hexdb {
.open --hexdb
| size 32768 pagesize 4096 filename crash-31c462b8b665d0.db
| page 1 offset 0
|      0: 53 51 4c 69 74 65 20 66 6f 72 6d 61 74 20 33 00   SQLite format 3.
|     16: 10 00 01 01 00 40 20 20 00 00 00 00 00 00 00 08   .....@  ........
|     32: 00 00 00 02 00 00 00 00 00 00 00 00 00 00 00 00   ................
|     96: 00 00 00 00 0d 0f c7 00 07 0d 92 00 0f 8d 0f 36   ...............6
|    112: 0e cb 0e 6b 0e 0e 0d b6 0d 92 00 00 00 00 00 00   ...k............
|   3472: 00 00 22 08 06 17 11 11 01 31 74 61 62 6c 65 74   .........1tablet
|   3488: 32 74 32 08 43 52 45 41 54 45 20 54 41 42 4c 45   2t2.CREATE TABLE
|   3504: 20 74 32 28 78 29 56 07 06 17 1f 1f 01 7d 74 61    t2(x)V.......ta
|   3520: 62 6c 65 74 31 5f 63 6f 6e 66 69 67 74 31 5f 63   blet1_configt1_c
|   3536: 6f 6e 66 69 67 07 43 52 45 41 54 45 20 54 41 42   onfig.CREATE TAB
|   3552: 4c 45 20 27 74 31 5f 63 6f 6e 66 69 67 27 28 6b   LE 't1_config'(k
|   3568: 20 50 52 49 4d 41 52 59 20 4b 45 59 2c 20 76 29    PRIMARY KEY, v)
|   3584: 20 57 49 54 48 4f 55 54 20 52 4f 57 49 44 5b 06    WITHOUT ROWID[.
|   3600: 07 17 21 21 01 81 01 74 61 62 6c 65 74 31 5f 64   ..!!...tablet1_d
|   3616: 6f 63 73 69 7a 65 74 31 5f 64 6f 63 73 69 7a 65   ocsizet1_docsize
|   3632: 06 43 52 45 41 54 45 20 54 41 42 4c 45 20 27 74   .CREATE TABLE 't
|   3648: 31 5f 64 6f 63 73 69 7a 65 27 28 69 64 20 49 4e   1_docsize'(id IN
|   3664: 54 45 47 45 52 20 50 52 49 4d 41 52 59 20 4b 45   TEGER PRIMARY KE
|   3680: 59 2c 20 73 7a 20 42 4c 4f 42 29 5e 05 07 17 21   Y, sz BLOB)^...!
|   3696: 21 01 81 07 74 61 62 6c 65 74 31 5f 63 6f 6e 74   !...tablet1_cont
|   3712: 65 6e 74 74 31 5f 63 6f 6e 74 65 6e 74 05 43 52   entt1_content.CR
|   3728: 45 41 54 45 20 54 41 42 4c 45 20 27 74 31 5f 63   EATE TABLE 't1_c
|   3744: 6f 6e 74 65 6e 74 27 28 69 64 20 49 4e 54 45 47   ontent'(id INTEG
|   3760: 45 52 20 50 52 49 4d 41 52 59 20 4b 45 59 2c 20   ER PRIMARY KEY, 
|   3776: 63 39 2c 20 63 31 2c 20 63 32 29 69 04 07 17 19   c9, c1, c2)i....
|   3792: 19 01 81 2d 74 61 62 6c 65 74 31 5f 69 64 78 74   ...-tablet1_idxt
|   3808: 31 5f 69 64 78 04 43 52 45 41 54 45 20 54 41 42   1_idx.CREATE TAB
|   3824: 4c 45 20 27 74 31 5f 69 64 78 27 28 73 65 67 69   LE 't1_idx'(segi
|   3840: 64 2c 20 74 65 72 6d 2c 20 70 67 6e 6f 2c 20 50   d, term, pgno, P
|   3856: 52 49 4d 41 52 59 20 4b 45 59 28 73 65 67 69 64   RIMARY KEY(segid
|   3872: 2c 20 74 65 72 6d 29 29 20 57 49 54 48 4f 55 54   , term)) WITHOUT
|   3888: 20 52 4f 57 49 44 55 03 07 17 1b 1b 01 81 01 74    ROWIDU........t
|   3904: 61 62 6c 65 74 31 5f 64 61 74 61 74 31 5f 64 61   ablet1_datat1_da
|   3920: 74 61 03 43 52 45 41 54 45 20 54 41 42 4c 45 20   ta.CREATE TABLE 
|   3936: 27 74 31 5f 64 61 74 61 27 28 69 64 20 49 4e 54   't1_data'(id INT
|   3952: 45 47 45 52 20 50 52 49 4d 41 52 59 20 4b 45 59   EGER PRIMARY KEY
|   3968: 2c 20 62 6c 6f 63 6b 20 42 4c 4f 42 29 38 02 06   , block BLOB)8..
|   3984: 17 11 11 08 5f 74 61 62 6c 65 74 31 74 31 43 52   ...._tablet1t1CR
|   4000: 45 41 54 45 20 56 49 52 54 55 41 4c 20 54 41 42   EATE VIRTUAL TAB
|   4016: 4c 45 20 74 31 20 55 53 49 4e 47 20 66 74 73 35   LE t1 USING fts5
|   4032: 28 61 2c 62 2c 63 29 00 00 00 00 00 00 00 00 00   (a,b,c).........
| page 3 offset 8192
|      0: 0d 00 00 00 03 0c 94 00 0f e6 0f ef 0c 94 00 00   ................
|   3216: 00 00 00 00 86 4a 84 80 80 80 80 01 04 00 8d 18   .....J..........
|   3232: 00 00 03 2b 02 30 30 01 02 06 01 02 06 01 02 06   ...+.00.........
|   3248: 1f 02 03 01 02 03 01 02 03 01 08 32 30 31 36 30   ...........20160
|   3264: 36 30 39 01 02 07 01 02 07 01 02 07 01 01 34 01   609...........4.
|   3280: 02 05 01 02 05 01 02 05 01 01 35 01 02 04 01 02   ..........5.....
|   3296: 04 01 02 04 02 07 30 30 30 30 30 30 30 1c 02 04   ......0000000...
|   3312: 01 02 04 01 02 04 01 06 62 69 6e 61 72 79 03 06   ........binary..
|   3328: 01 02 02 03 06 01 02 02 03 06 01 02 02 03 06 01   ................
|   3344: 02 02 03 06 00 02 02 03 06 01 02 02 03 06 01 02   ................
|   3360: 02 03 06 01 02 02 03 06 01 02 02 03 06 01 02 02   ................
|   3376: 03 06 01 02 02 03 06 01 02 02 01 08 63 6f 6d 70   ............comp
|   3392: 69 6c 65 72 01 02 02 01 02 02 01 02 02 01 06 64   iler...........d
|   3408: 62 73 74 61 74 07 02 03 01 02 03 01 02 03 02 04   bstat...........
|   3424: 65 62 75 67 04 02 02 01 02 02 01 02 02 01 06 65   ebug...........e
|   3440: 6e 61 62 6c 65 07 02 02 01 02 02 01 02 02 01 02   nable...........
|   3456: 02 01 02 02 01 02 02 01 02 02 01 02 02 01 02 02   ................
|   3472: 01 02 02 01 02 02 01 02 02 01 02 02 01 02 02 01   ................
|   3488: 01 02 01 02 02 01 02 02 01 02 02 01 02 02 01 02   ................
|   3504: 02 01 02 02 02 08 78 74 65 6e 73 69 6f 6e 1f 02   ......xtension..
|   3520: 04 01 02 04 01 02 04 01 04 66 74 73 34 1a 02 03   .........fts4...
|   3536: 01 02 03 01 02 03 04 01 35 0d 02 03 01 02 03 01   ........5.......
|   3552: 02 03 01 03 67 63 63 01 aa 03 01 02 03 01 02 03   ....gcc.........
|   3568: 02 06 65 6f 70 6f 6c 79 10 02 03 02 02 03 01 02   ..eopoly........
|   3584: 03 01 05 6a 73 6f 6e 31 13 02 03 01 02 03 01 02   ...json1........
|   3600: 03 01 04 6c 6f 61 64 1f 02 03 01 02 03 01 02 03   ...load.........
|   3616: 01 03 6d 61 78 1c 02 02 01 02 02 01 02 02 02 05   ..max...........
|   3632: 65 6d 6f 72 79 1c 02 03 01 02 03 01 02 03 04 04   emory...........
|   3648: 73 79 73 35 16 02 03 01 02 03 01 02 03 01 06 6e   sys5...........n
|   3664: 6f 63 61 73 65 02 06 01 02 02 03 06 01 02 02 03   ocase...........
|   3680: 06 01 02 02 03 06 01 02 02 03 06 01 02 02 03 06   ................
|   3696: 01 02 02 03 06 01 02 02 03 06 01 02 02 03 06 01   ................
|   3712: 02 02 03 06 01 02 02 03 06 01 02 02 03 06 01 02   ................
|   3728: 02 01 04 6f 6d 69 74 1f 02 02 01 02 02 01 02 01   ...omit.........
|   3744: ff ff ff ff ff ff ff ff f0 00 00 00 00 00 01 02   ................
|   3760: 58 81 96 4d 01 06 01 02 02 03 06 01 02 02 03 06   X..M............
|   3776: 01 02 02 03 06 01 02 02 03 06 01 02 02 03 06 01   ................
|   3792: 02 02 03 06 01 02 02 03 06 01 02 02 03 06 01 02   ................
|   3808: 02 03 06 01 02 02 03 06 01 02 02 03 06 01 02 02   ................
|   3824: 01 0a 74 68 72 65 61 64 73 61 66 65 22 02 02 01   ..threadsafe....
|   3840: 02 02 01 02 02 01 04 76 74 61 62 07 02 04 01 02   .......vtab.....
|   3856: 04 01 02 04 01 01 78 01 06 01 01 02 01 06 01 01   ......x.........
|   3872: 02 01 06 01 1e 02 01 06 01 01 02 01 06 01 01 02   ................
|   3888: 01 06 01 01 02 01 06 01 01 02 01 06 01 01 02 01   ................
|   3904: 06 01 01 02 01 06 01 01 02 01 06 01 01 02 01 06   ................
|   3920: 01 01 02 01 06 01 01 02 01 06 01 01 02 01 06 01   ................
|   3936: 00 02 01 06 01 01 02 01 06 01 01 02 01 06 01 01   ................
|   3952: 02 01 06 01 01 02 01 06 01 01 02 01 06 01 01 02   ................
|   3968: 01 06 01 01 02 01 06 01 01 02 01 06 01 01 02 01   ................
|   3984: 06 01 01 02 01 06 01 01 02 01 06 01 01 02 01 06   ................
|   4000: 01 01 02 01 06 01 01 02 01 06 01 01 02 01 06 01   ................
|   4016: 01 02 01 06 01 01 02 01 06 01 01 02 01 06 01 01   ................
|   4032: 02 01 06 01 01 02 01 06 01 01 02 04 15 13 0c 0c   ................
|   4048: 12 44 13 11 0f 47 13 0f 0b 0e 11 10 0f 0e 10 0f   .D...G..........
|   4064: 44 0f 10 40 15 0f 07 01 03 00 14 24 5a 24 24 0f   D..@.......$Z$$.
|   4080: 0a 03 00 24 00 00 00 00 01 01 01 00 01 01 01 01   ...$............
| page 4 offset 12288
|      0: 0a 00 00 00 00 00 00 00 00 00 00 00 00 00 00 00   ................
|   4080: 00 00 00 00 00 00 00 00 00 00 05 04 09 0c 01 02   ................
| page 5 offset 16384
|      0: 0d 00 00 00 24 0c 0a 00 0f d8 0f af 0f 86 0f 74   ....$..........t
|     16: 0f 61 0f 4e 0f 2f 0f 0f 0e ef 0e d7 0e be 0e a5   .a.N./..........
|     32: 0e 8d 0e 74 0e 5b 0e 40 0e 24 0e 08 0d ef 0d d5   ...t.[.@.$......
|     48: 0d bb 0d a0 0d 84 0d 68 0d 4f 0d 00 00 00 00 00   .......h.O......
|   3072: 00 00 00 00 00 00 00 00 00 00 18 24 05 00 25 0f   ...........$..%.
|   3088: 19 54 48 52 45 41 44 53 41 46 45 3d 30 58 42 49   .THREADSAFE=0XBI
|   3104: 4e 41 52 59 18 23 05 00 25 0f 19 54 48 52 45 41   NARY.#..%..THREA
|   3120: 44 53 41 46 45 3d 30 58 4e 4f 43 41 53 45 17 22   DSAFE=0XNOCASE..
|   3136: 05 00 25 0f 17 54 48 52 45 41 44 53 41 46 45 3d   ..%..THREADSAFE=
|   3152: 30 58 52 54 52 49 4d 1f 21 05 00 33 0f 19 4f 4d   0XRTRIM.!..3..OM
|   3168: 49 54 20 4c 4f 41 44 20 45 58 54 45 4e 53 49 4f   IT LOAD EXTENSIO
|   3184: 4e 58 42 49 4e 41 52 59 1f 20 05 00 33 d3 19 4f   NXBINARY. ..3..O
|   3200: 4d 49 54 28 2c 4f 41 44 b2 04 55 85 44 54 e5 34   MIT(,OAD..U.DT.4
|   3216: 94 f4 e5 84 e4 f4 34 15 34 51 e1 f0 50 03 30 f1   ......4.4Q..P.0.
|   3232: 74 f4 d4 95 42 04 c4 f4 14 42 04 55 85 44 54 e5   t...B....B.U.DT.
|   3248: 34 94 f4 e5 85 25 45 24 94 d1 f1 e0 50 03 30 f1   4....%E$....P.0.
|   3264: 94 d4 15 82 04 d4 54 d4 f5 25 93 d3 53 03 03 03   ......T..%..S...
|   3280: 03 03 03 05 84 24 94 e4 15 25 91 f1 d0 50 03 30   .....$...%...P.0
|   3296: f1 94 d4 15 82 04 d4 54 d4 f5 25 93 d3 53 03 03   .......T..%..S..
|   3312: 03 03 03 03 05 84 e4 f4 34 15 34 51 e1 c0 50 03   ........4.4Q..P.
|   3328: 30 f1 74 d4 15 82 04 d4 54 d4 f5 25 93 d3 53 03   0.t.....T..%..S.
|   3344: 03 03 03 03 03 05 85 25 45 24 94 d1 81 b0 50 02   .......%E$....P.
|   3360: 50 f1 94 54 e4 14 24 c4 52 05 25 45 24 54 55 84   P..T..$.R.%E$TU.
|   3376: 24 94 e4 15 25 91 81 a0 50 02 50 f1 94 54 e4 14   $...%...P.P..T..
|   3392: 24 c4 52 05 25 45 24 54 55 84 e4 f4 34 15 34 51   $.R.%E$TU...4.4Q
|   3408: 71 90 50 02 50 f1 74 54 e4 14 24 c4 52 05 25 45   q.P.P.tT..$.R.%E
|   3424: 24 54 55 85 25 45 24 94 d1 a1 80 50 02 90 f1 94   $TU.%E$....P....
|   3440: 54 e4 14 24 c4 52 04 d4 54 d5 35 95 33 55 84 24   T..$.R..T.5.3U.$
|   3456: 94 e4 15 25 91 a1 70 50 02 90 f1 94 54 e4 14 24   ...%..pP....T..$
|   3472: c4 52 04 d4 54 d5 35 95 33 55 84 e4 f4 34 15 34   .R..T.5.3U...4.4
|   3488: 51 91 60 50 02 90 f1 74 54 e4 14 24 c4 52 04 d4   Q.`P...tT..$.R..
|   3504: 54 d5 35 95 33 55 85 25 45 24 94 d1 81 50 50 02   T.5.3U.%E$...PP.
|   3520: 50 f1 94 54 e4 14 24 c4 52 04 a5 34 f4 e3 15 84   P..T..$.R..4....
|   3536: 24 94 e4 15 25 91 81 40 50 02 50 f1 94 54 e4 14   $...%..@P.P..T..
|   3552: 24 c4 52 04 a5 34 f4 e3 15 84 e4 f4 34 15 34 51   $.R..4......4.4Q
|   3568: 71 30 50 02 4f f1 74 54 e4 14 24 c4 52 04 a5 34   q0P.O.tT..$.R..4
|   3584: f4 e3 15 85 25 45 24 94 d1 a1 20 50 02 90 f1 94   ....%E$... P....
|   3600: 54 e4 14 24 c4 52 04 74 54 f5 04 f4 c5 95 84 24   T..$.R.tT......$
|   3616: 94 e4 15 25 91 a1 10 50 02 90 f1 94 54 e4 14 24   ...%...P....T..$
|   3632: c4 52 04 74 54 f5 04 f4 c5 95 84 e4 f4 34 15 34   .R.tT........4.4
|   3648: 51 91 00 50 02 90 f1 74 54 e4 14 24 c4 51 f4 74   Q..P...tT..$.Q.t
|   3664: 54 f5 04 f4 c5 95 85 25 45 24 94 d1 70 f0 50 02   T......%E$..p.P.
|   3680: 30 f1 94 54 e4 14 24 c5 20 46 54 53 35 58 42 49   0..T..$. FTS5XBI
|   3696: 4e 41 52 59 17 0e 05 00 23 0f 19 45 4e 41 42 4c   NARY....#..ENABL
|   3712: 45 20 46 54 53 35 58 4f 4f 43 41 53 45 16 0d 05   E FTS5XOOCASE...
|   3728: 00 23 0f 17 45 4e 41 42 4c 45 20 46 54 53 35 58   .#..ENABLE FTS5X
|   3744: 52 54 52 49 4d 17 0c 05 00 23 0f 19 45 4e 41 42   RTRIM....#..ENAB
|   3760: 4c 45 20 46 54 53 34 58 42 49 4e 41 52 59 97 0b   LE FTS4XBINARY..
|   3776: 05 00 23 0f 19 45 4e 41 42 4c 45 20 46 54 53 34   ..#..ENABLE FTS4
|   3792: 58 4e 4f 43 41 53 45 16 0a 05 00 23 0f 17 45 4e   XNOCASE....#..EN
|   3808: 41 42 4c 45 20 46 54 53 34 58 52 54 52 49 4d 1e   ABLE FTS4XRTRIM.
|   3824: 09 05 00 3e 5f 19 45 4e 41 42 4c 45 20 44 42 53   ...>_.ENABLE DBS
|   3840: 44 41 54 20 56 54 41 42 58 42 49 4e 41 52 59 1e   DAT VTABXBINARY.
|   3856: 08 05 00 31 0f 19 45 4e 41 42 4c 45 20 44 42 53   ...1..ENABLE DBS
|   3872: 54 41 54 20 56 54 41 42 58 4e 4f 43 4d e3 45 1d   TAT VTABXNOCM.E.
|   3888: 07 05 00 31 0f 17 45 4e 41 42 4c 45 20 44 42 53   ...1..ENABLE DBS
|   3904: 54 41 54 20 56 54 41 42 58 52 54 52 49 4d 11 06   TAT VTABXRTRIM..
|   3920: 05 00 17 0f 19 44 45 42 55 47 58 42 49 4e 41 52   .....DEBUGXBINAR
|   3936: 59 11 05 05 00 17 0f 19 44 45 42 55 47 58 4e 4f   Y.......DEBUGXNO
|   3952: 43 41 53 45 10 02 02 50 08 5f 17 44 45 42 55 47   CASE...P._.DEBUG
|   3968: 58 52 54 52 49 4d 27 03 05 00 44 0f 19 43 4f 4d   XRTRIM'...D..COM
|   3984: 50 49 4c 45 52 3d 67 63 63 2d 35 2e 34 2e 30 20   PILER=gcc-5.4.0 
|   4000: 32 30 31 36 30 36 30 39 58 42 49 4e 41 52 59 27   20160609XBINARY'
|   4016: 02 05 00 43 0f 19 43 4f 4d 50 49 4c 45 52 3d 67   ...C..COMPILER=g
|   4032: 63 63 2d 35 2e 34 2e 30 20 32 30 31 36 30 36 30   cc-5.4.0 2016060
|   4048: 39 58 4e 4f 43 41 53 45 26 01 05 00 43 c9 17 43   9XNOCASE&...C..C
|   4064: 4f 4d 50 49 4c 47 02 3d 67 63 63 2d 35 2e 34 2e   OMPILG.=gcc-5.4.
|   4080: 30 20 32 30 31 36 30 36 30 39 58 52 54 52 49 4d   0 20160609XRTRIM
| page 6 offset 20480
|      0: 0d 00 00 00 24 0e e0 00 0f f8 0f f0 0f e8 0f e0   ....$...........
|     16: 0f d8 0f d0 0f c8 0f c0 0f b8 0f b0 0f a8 0f a0   ................
|     32: 0f 98 0f 90 0f 88 0f 80 0f 78 0f 70 0f 68 0f 60   .........x.p.h.`
|     48: 0f 58 0f 50 0f 48 0f 40 0f 38 00 00 00 00 00 00   .X.P.H.@.8......
|   3808: 06 24 03 00 12 02 01 01 06 23 03 00 12 02 01 01   .$.......#......
|   3824: 06 22 03 00 12 02 01 01 06 21 03 00 12 03 01 01   .........!......
|   3840: 06 20 03 00 12 03 01 01 06 1f 03 00 12 03 01 01   . ..............
|   3856: 06 1e 03 00 12 03 01 01 06 1d 03 00 12 03 01 01   ................
|   3872: 06 1c 03 00 12 03 01 01 06 1b 03 00 12 02 01 01   ................
|   3888: 06 1a 03 00 12 02 01 01 06 19 03 00 12 02 01 01   ................
|   3904: 06 18 03 00 12 02 01 01 06 17 03 00 12 02 01 01   ................
|   3920: 06 16 03 00 12 02 01 01 06 15 03 00 12 02 01 01   ................
|   3936: 06 14 03 00 12 02 01 01 06 13 03 00 12 02 01 01   ................
|   3952: 06 12 03 00 12 02 01 01 06 11 03 00 12 02 01 01   ................
|   3968: 06 10 03 00 12 02 01 01 06 1f 03 00 12 02 01 01   ................
|   3984: 06 0e 03 00 12 02 01 01 06 0d 03 00 12 02 01 01   ................
|   4000: 06 0c 03 00 12 02 01 01 06 0b 03 00 12 02 01 01   ................
|   4016: 06 0a 03 00 12 02 01 01 06 09 03 00 12 03 01 01   ................
|   4032: 06 08 03 00 12 03 01 01 06 07 03 00 12 03 01 01   ................
|   4048: 06 06 03 00 12 01 01 01 06 05 03 00 12 01 01 01   ................
|   4064: 06 04 03 00 12 01 01 01 06 03 03 00 12 06 01 01   ................
|   4080: 06 02 03 00 12 06 01 01 06 01 03 00 12 06 01 01   ................
| page 7 offset 24576
|      0: 0a 00 00 00 01 0f f4 00 0f f4 00 00 00 00 00 00   ................
|   4080: 00 00 00 00 0b 03 1b 01 76 65 72 73 69 6f 6e 04   ........version.
| page 8 offset 28672
|      0: 0d 00 00 00 00 00 00 00 00 00 00 00 00 00 00 00   ................
|   4048: 00 00 00 00 00 00 11 03 02 2b 69 6e 74 65 67 72   .........+integr
|   4064: 69 74 79 2d 63 68 65 63 6b 09 00 00 00 00 00 00   ity-check.......
| end crash-31c462b8b665d0.db
}]} {}


do_catchsql_test 69.2 {
  SELECT * FROM t1 WHERE a MATCH 'fx*'
} {/.*fts5: corrupt.*/}

#-------------------------------------------------------------------------
reset_db
do_test 70.0 {
  sqlite3 db {}
  db deserialize [decode_hexdb {
.open --hexdb
| size 24576 pagesize 4096 filename sql022250.txt.db
| page 1 offset 0
|      0: 53 51 4c 69 74 65 20 66 6f 72 6d 61 74 20 33 00   SQLite format 3.
|     16: 10 00 01 01 00 40 20 20 00 00 00 00 00 00 00 00   .....@  ........
|     96: 00 00 00 00 0d 00 00 00 06 0d e2 00 0f c4 0f 6a   ...............j
|    112: 0e fc 0e 9d 0e 3d 0d e2 00 00 00 00 00 00 00 00   .....=..........
|   3552: 00 00 59 06 06 17 21 21 01 7f 74 61 62 6c 65 74   ..Y...!!..tablet
|   3568: 74 74 5f 63 6f 6e 66 69 67 74 74 74 5f 63 6f 6e   tt_configttt_con
|   3584: 66 69 67 06 43 52 45 41 54 45 20 54 41 42 4c 45   fig.CREATE TABLE
|   3600: 20 27 74 74 74 5f 63 6f 6e 66 69 67 27 28 6b 20    'ttt_config'(k 
|   3616: 50 52 49 4d 41 52 59 20 4b 45 59 2c 20 76 29 20   PRIMARY KEY, v) 
|   3632: 57 49 54 48 4f 55 54 20 52 4f 57 49 44 5e 15 07   WITHOUT ROWID^..
|   3648: 17 23 23 01 81 03 74 61 62 6c 65 74 74 74 5f 64   .##...tablettt_d
|   3664: 6f 63 73 69 7a 65 74 74 74 5f 64 6f 63 73 69 7a   ocsizettt_docsiz
|   3680: 65 05 43 52 45 41 54 45 20 54 41 42 4c 45 20 27   e.CREATE TABLE '
|   3696: 74 74 74 5f 64 6f 63 73 69 7a 65 27 28 69 64 20   ttt_docsize'(id 
|   3712: 49 4d 54 45 47 45 52 20 50 52 49 4d 41 52 59 20   IMTEGER PRIMARY 
|   3728: 4b 45 59 2c 20 73 7a 20 42 4c 4f 20 29 5d 04 07   KEY, sz BLO )]..
|   3744: 17 23 23 01 81 01 74 61 62 6c 65 74 74 74 5f 63   .##...tablettt_c
|   3760: 6f 6e 74 65 6e 74 74 74 74 5f 63 6f 6e 74 65 6e   ontentttt_conten
|   3776: 74 04 43 52 45 41 54 45 20 54 41 42 4c 45 20 27   t.CREATE TABLE '
|   3792: 74 74 74 5f 63 6f 6e 74 65 6e 74 27 28 69 64 20   ttt_content'(id 
|   3808: 49 4e 54 45 47 45 52 20 50 52 49 4d 41 52 59 20   INTEGER PRIMARY 
|   3824: 4b 45 59 2c 20 63 30 2c 20 63 31 29 6c 03 07 17   KEY, c0, c1)l...
|   3840: 1b 1b 01 81 2f 74 61 62 6c 65 74 74 74 5f 69 64   ..../tablettt_id
|   3856: 78 74 74 74 5f 69 64 78 03 43 52 45 41 54 45 20   xttt_idx.CREATE 
|   3872: 54 41 42 4c 45 20 27 74 74 74 5f 69 64 78 27 28   TABLE 'ttt_idx'(
|   3888: 73 65 67 69 64 2c 20 74 65 72 6d 2c 20 70 67 6e   segid, term, pgn
|   3904: 6f 2c 20 50 52 49 4d 41 52 59 20 4b 45 59 28 73   o, PRIMARY KEY(s
|   3920: 65 67 69 64 2c 20 74 65 72 6d 29 29 20 57 49 54   egid, term)) WIT
|   3936: 48 4f 55 54 20 52 4f 57 49 44 58 02 07 17 1d 1d   HOUT ROWIDX.....
|   3952: 01 81 03 74 61 62 6c 65 74 74 74 5f 64 61 74 61   ...tablettt_data
|   3968: 74 74 74 5f 64 61 74 61 02 43 52 45 41 54 45 20   ttt_data.CREATE 
|   3984: 54 41 42 4c 45 20 27 74 74 74 5f 64 61 74 61 27   TABLE 'ttt_data'
|   4000: 28 69 64 20 49 4e 54 45 47 45 52 20 50 52 49 4d   (id INTEGER PRIM
|   4016: 41 52 59 20 4b 45 59 2c 20 62 6c 6f 63 6b 20 42   ARY KEY, block B
|   4032: 4c 4f 42 29 3a 01 06 17 13 13 08 5f 74 61 62 6c   LOB):......_tabl
|   4048: 65 74 74 74 74 74 74 43 52 45 41 54 45 20 56 49   ettttttCREATE VI
|   4064: 52 54 55 41 4c 20 54 41 42 4c 45 20 74 74 74 20   RTUAL TABLE ttt 
|   4080: 55 53 49 4e 47 20 66 74 73 35 28 61 2c 20 62 29   USING fts5(a, b)
| page 2 offset 4096
|      0: 0d 0f 54 00 05 0e 81 00 0f e7 0e 81 0f af 0f 58   ..T............X
|     16: 0e 98 00 00 00 00 00 00 00 00 00 00 00 00 00 00   ................
|   3712: 00 15 0a 03 00 30 00 00 00 00 01 03 03 00 03 01   .....0..........
|   3728: 01 01 02 01 01 03 01 01 81 24 8c 80 80 80 80 01   .........$......
|   3744: 04 00 82 4c 00 00 00 9b 02 30 65 03 1a 02 05 05   ...L.....0e.....
|   3760: 07 05 01 01 04 03 03 08 03 03 01 2e 02 05 05 07   ................
|   3776: 05 07 05 07 05 01 01 14 03 03 08 03 03 08 03 bf   ................
|   3792: 07 f2 f3 02 01 65 03 1e 03 05 05 04 05 05 01 01   .....e..........
|   3808: 03 06 04 04 06 04 03 01 36 03 05 05 04 05 05 04   ........6.......
|   3824: 05 15 04 05 05 01 01 03 06 04 04 06 04 04 a1 04   ................
|   3840: 04 06 04 03 03 01 65 03 14 04 05 07 05 05 01 01   ......e.........
|   3856: 02 09 0a 01 20 04 05 07 05 07 05 07 05 05 01 01   .... ...........
|   3872: 02 0f da 0a 0a 04 01 64 f3 02 0a 01 06 0a 0a 0a   .......d........
|   3888: 05 01 65 03 06 01 01 0a 01 0a 01 01 0a 0a 0a 04   ..e.............
|   3904: 2b 31 21 0b 0f ef 00 14 2a 00 00 00 00 01 02 02   +1!.....*.......
|   3920: 00 02 01 01 01 02 01 01 50 88 80 80 80 80 01 04   ........P.......
|   3936: 00 81 24 00 00 00 47 01 30 65 02 1a 02 05 05 07   ..$...G.0e......
|   3952: 05 01 01 04 03 03 08 03 03 02 01 65 02 1d f3 05   ...........e....
|   3968: 05 04 05 05 01 01 04 06 04 04 06 04 03 03 01 65   ...............e
|   3984: 02 14 04 05 07 05 05 01 01 02 08 0a 04 01 65 02   ..............e.
|   4000: 02 0a 05 01 65 02 06 01 01 0a 04 12 14 0f 06 31   ....e..........1
|   4016: 84 80 80 80 80 01 03 00 68 00 00 00 2b 02 30 65   ........h...+.0e
|   4032: 01 10 02 05 05 01 01 04 03 03 02 01 66 01 12 03   ............f...
|   4048: 05 05 01 01 03 06 04 03 03 01 65 01 0e 04 05 05   ..........e.....
|   4064: 01 01 02 08 04 0d 0e 06 01 03 00 12 04 4c 4c 00   .............LL.
|   4080: 00 00 11 24 00 00 00 00 01 01 01 00 01 01 01 01   ...$............
| page 3 offset 8192
|      0: 0a 2f 00 00 00 00 00 00 00 00 00 00 00 00 00 00   ./..............
| page 4 offset 12288
|   3344: 00 00 00 00 00 00 00 00 00 00 81 52 04 06 10 81   ...........R....
|   3360: 5d 81 55 65 20 65 65 20 65 65 65 20 65 20 65 65   ].Ue ee eee e ee
|   3376: 20 65 65 65 20 65 20 65 65 20 65 65 65 65 20 65    eee e ee eeee e
|   3392: 65 20 65 65 65 24 a5 20 65 65 20 65 65 65 20 65   e eee$. ee eee e
|   3408: 24 05 65 20 65 65 65 65 20 65 65 20 65 65 65 20   $.e eeee ee eee 
|   3424: 65 20 65 65 20 65 65 65 20 65 20 65 65 20 65 65   e ee eee e ee ee
|   3440: 65 65 20 65 65 20 65 65 65 20 65 20 65 65 10 65   ee ee eee e ee.e
|   3456: 65 65 20 65 20 65 65 20 65 65 65 65 65 65 20 65   ee e ee eeeeee e
|   3472: 65 20 65 20 65 20 65 20 65 65 20 65 65 65 20 65   e e e e ee eee e
|   3488: 1f 20 65 65 66 65 65 20 65 65 20 65 20 65 20 2d   . eefee ee e e -
| page 5 offset 16384
|   4064: 00 00 00 00 05 04 d0 00 10 21 21 05 03 03 00 10   .........!!.....
|   4080: 11 11 05 02 03 00 10 11 10 05 01 03 00 10 09 09   ................
| page 6 offset 20480
|      0: 0a 00 00 00 01 0f f4 00 0f f4 00 00 00 00 00 00   ................
|   4080: 00 00 00 00 0b 03 1b 01 76 65 72 73 69 6f 6e 04   ........version.
| end sql022250.txt.db
}]} {}

do_catchsql_test 70.1 {
  SELECT snippet(ttt, -1, '', '','','>')FROM ttt('e* NOT ee*e* NOT ee*');
} {1 {database disk image is malformed}}

do_catchsql_test 70.2 {
  SELECT snippet(ttt, -1, '', '','',13)FROM ttt('e* NOT ee*e* NOT ee*')
} {1 {database disk image is malformed}}

#-------------------------------------------------------------------------
reset_db
do_test 71.0 {
  sqlite3 db {}
  db deserialize [decode_hexdb {
.open --hexdb
| size 28672 pagesize 4096 filename sql025294.txt.db
| page 1 offset 0
|      0: 53 51 4c 69 74 65 20 66 6f 72 6d 61 74 20 33 00   SQLite format 3.
|     16: 10 00 00 01 00 40 20 20 00 00 00 00 00 00 00 07   .....@  ........
|     96: 00 00 00 00 0d 00 00 00 07 0d d2 00 0f c4 0f 6d   ...............m
|    112: 0f 02 0e ab 0e 4e 0d f6 0d d2 00 00 00 00 00 00   .....N..........
|   3536: 00 00 22 07 06 17 11 11 01 31 74 61 62 6c 65 74   .........1tablet
|   3552: 32 74 32 07 43 52 45 41 54 45 20 54 41 42 4c 45   2t2.CREATE TABLE
|   3568: 20 74 32 28 78 29 56 06 06 17 1f 1f 01 7d 74 61    t2(x)V.......ta
|   3584: 62 6c 65 74 31 5f 63 6f 6e 66 69 67 74 31 5f 63   blet1_configt1_c
|   3600: 6f 6e 66 69 67 06 43 52 45 41 54 45 20 54 41 42   onfig.CREATE TAB
|   3616: 4c 45 20 27 74 31 5f 63 6f 6e 66 69 67 27 28 6b   LE 't1_config'(k
|   3632: 20 50 52 49 4d 41 52 59 20 4b 45 59 2c 20 76 29    PRIMARY KEY, v)
|   3648: 20 57 49 54 48 4f 55 54 20 52 4f 57 49 44 5b 05    WITHOUT ROWID[.
|   3664: 07 17 21 21 01 81 01 74 61 62 6c 65 74 31 5f 64   ..!!...tablet1_d
|   3680: 6f 63 73 69 7a 65 74 31 5f 64 6f 63 73 69 7a 65   ocsizet1_docsize
|   3696: 05 43 52 45 41 54 45 20 54 41 42 4c 45 20 27 74   .CREATE TABLE 't
|   3712: 31 5f 64 6f 63 73 69 7a 65 27 28 69 64 20 49 4e   1_docsize'(id IN
|   3728: 54 45 47 45 52 20 50 52 49 4d 41 52 59 20 4b 45   TEGER PRIMARY KE
|   3744: 59 2c 20 73 7a 20 42 4c 4f 42 29 55 04 06 17 21   Y, sz BLOB)U...!
|   3760: 21 01 77 74 61 62 6c 65 74 31 5f 63 6f 6e 74 65   !.wtablet1_conte
|   3776: 6e 74 74 31 5f 63 6f 6e 74 65 6e 74 04 43 52 45   ntt1_content.CRE
|   3792: 41 54 45 20 54 41 42 4c 45 20 27 74 31 5f 63 6f   ATE TABLE 't1_co
|   3808: 6e 74 65 6e 74 27 28 69 64 20 49 4e 54 45 47 45   ntent'(id INTEGE
|   3824: 52 20 50 52 49 4d 41 52 59 20 4b 45 59 2c 20 63   R PRIMARY KEY, c
|   3840: 30 29 69 03 07 17 19 19 01 81 2d 74 61 62 6c 65   0)i.......-table
|   3856: 74 31 5f 69 64 78 74 31 5f 69 64 78 03 43 52 45   t1_idxt1_idx.CRE
|   3872: 41 54 45 20 54 41 42 4c 45 20 27 74 31 5f 69 64   ATE TABLE 't1_id
|   3888: 78 27 28 73 65 67 69 64 2c 20 74 65 72 6d 2c 20   x'(segid, term, 
|   3904: 70 67 6e 6f 2c 20 50 52 49 4d 41 52 59 20 4b 45   pgno, PRIMARY KE
|   3920: 59 28 73 65 67 69 64 2c 20 74 65 72 6d 29 29 20   Y(segid, term)) 
|   3936: 57 49 54 48 4f 55 54 20 52 4f 57 49 44 55 02 07   WITHOUT ROWIDU..
|   3952: 17 1b 1b 01 81 01 74 61 62 6c 65 74 31 5f 64 61   ......tablet1_da
|   3968: 74 61 74 31 5f 64 61 74 61 02 43 52 45 41 54 45   tat1_data.CREATE
|   3984: 20 54 41 42 4c 45 20 27 74 31 5f 64 61 74 61 27    TABLE 't1_data'
|   4000: 28 69 64 20 49 4e 54 45 47 45 52 20 50 52 49 4d   (id INTEGER PRIM
|   4016: 41 52 58 20 4b 45 59 2c 20 62 6c 6f 63 6b 20 42   ARX KEY, block B
|   4032: 4c 4f 42 29 3a 01 06 17 11 11 08 63 74 61 62 6c   LOB):......ctabl
|   4048: 65 74 31 74 31 43 52 45 41 54 45 20 56 49 52 54   et1t1CREATE VIRT
|   4064: 55 41 4c 20 54 41 42 4c 45 20 74 31 20 55 53 49   UAL TABLE t1 USI
|   4080: 4e 47 20 66 74 73 35 28 63 6f 6e 74 65 6e 74 29   NG fts5(content)
| page 2 offset 4096
|      0: 0d 00 00 00 03 0f bd 00 0f e8 0f ef 0f bd 00 00   ................
|   4016: 00 00 00 00 00 00 00 00 00 00 00 00 00 24 84 80   .............$..
|   4032: 80 80 80 01 03 00 4e 00 00 00 1e 06 30 61 62 61   ......N.....0aba
|   4048: 60 eb 01 02 02 04 01 66 74 02 02 02 04 04 6e 64   `......ft.....nd
|   4064: 6f 6e 03 01 f2 04 1a 07 05 01 03 00 10 03 03 0f   on..............
|   4080: 0a 03 00 24 00 00 00 00 01 01 4b 00 01 01 01 01   ...$......K.....
| page 3 offset 8192
|      0: 0a 00 00 00 00 00 00 00 00 00 00 00 00 00 00 00   ................
|   4080: 00 00 00 00 00 00 00 00 00 00 05 04 09 0c 01 02   ................
| page 4 offset 12288
|      0: 0d 00 00 00 03 0f e0 00 0f f6 0f ec 0f e0 00 00   ................
|   4064: 0a 03 03 00 1b 61 62 61 6e 64 6f 6e 08 02 03 00   .....abandon....
|   4080: 17 61 62 61 66 74 08 01 03 00 17 61 62 61 63 6b   .abaft.....aback
| page 5 offset 16384
|      0: 0d 00 00 00 03 0f ee 00 0f fa 0f f4 0f ee 00 00   ................
|   4064: 00 00 00 00 00 00 00 00 00 00 00 00 00 00 04 03   ................
|   4080: 03 00 0e 01 04 02 03 00 0e 01 04 01 03 00 0e 01   ................
| page 6 offset 20480
|      0: 0a 00 00 00 01 0f f4 00 0f f4 00 00 00 00 00 00   ................
|   4080: 00 00 00 00 0b 03 1b 01 76 65 72 73 69 6f 6e 04   ........version.
| page 7 offset 24576
|      0: 0d 00 00 00 03 0f d6 00 0f f4 0f e1 00 00 00 00   ................
|   4048: 00 00 00 00 00 00 09 03 02 1b 72 65 62 75 69 6c   ..........rebuil
|   4064: 64 11 02 02 2b 69 6e 74 65 67 72 69 74 79 2d 63   d...+integrity-c
|   4080: 68 65 63 6b 0a 01 02 1d 6f 70 74 69 6d 69 7a 65   heck....optimize
| end sql025294.txt.db
}]} {}

do_catchsql_test 71.2 {
  INSERT INTO t1(t1) VALUES('integrity-check');
} {/.*fts5: corrupt.*/}

#-------------------------------------------------------------------------
reset_db
do_test 72.0 {
  sqlite3 db {}
  db deserialize [decode_hexdb {
.open --hexdb
| size 24576 pagesize 4096 filename crash-77b86d070d0ac6.db
| page 1 offset 0
|      0: 53 51 4c 69 74 65 20 66 6f 72 6d 61 74 20 33 00   SQLite format 3.
|     16: 10 00 01 01 00 40 20 20 00 00 00 00 00 00 00 06   .....@  ........
|     32: 00 00 00 00 00 00 00 00 00 00 00 06 00 00 00 04   ................
|     96: 00 00 00 00 0d 00 00 00 06 0d e2 00 0f c4 0f 6a   ...............j
|    112: 0e fc 0e 9d 0e 3d 0d e2 00 00 00 00 00 00 00 00   .....=..........
|   3552: 00 00 59 06 06 17 21 21 01 7f 74 61 62 6c 65 74   ..Y...!!..tablet
|   3568: 74 74 5f 63 6f 6e 66 69 67 74 74 74 5f 63 6f 6e   tt_configttt_con
|   3584: 66 69 67 06 43 52 45 41 54 45 20 54 41 42 4c 45   fig.CREATE TABLE
|   3600: 20 27 74 74 74 5f 63 6f 6e 66 69 67 27 28 6b 20    'ttt_config'(k 
|   3616: 50 52 49 4d 41 52 59 20 4b 45 59 2c 20 76 29 20   PRIMARY KEY, v) 
|   3632: 57 49 54 48 4f 55 54 20 52 4f 57 49 44 5e 05 07   WITHOUT ROWID^..
|   3648: 17 23 23 01 81 03 74 61 62 6c 65 74 74 74 5f 64   .##...tablettt_d
|   3664: 6f 63 73 69 7a 65 74 74 74 5f 64 6f 63 73 69 7a   ocsizettt_docsiz
|   3680: 65 05 43 52 45 41 54 45 20 54 41 42 4c 45 20 27   e.CREATE TABLE '
|   3696: 74 74 74 5f 64 6f 63 73 69 7a 65 27 28 69 64 20   ttt_docsize'(id 
|   3712: 49 4e 54 45 47 45 52 20 50 52 49 4d 41 52 59 20   INTEGER PRIMARY 
|   3728: 4b 45 59 2c 20 73 7a 20 42 4c 4f 42 29 5d 04 07   KEY, sz BLOB)]..
|   3744: 17 23 23 01 81 01 74 61 62 6c 65 74 74 74 5f 63   .##...tablettt_c
|   3760: 6f 6e 74 65 6e 74 74 74 74 5f 63 6f 6e 74 65 6e   ontentttt_conten
|   3776: 74 04 43 52 45 41 54 45 20 54 41 42 4c 45 20 27   t.CREATE TABLE '
|   3792: 74 74 74 5f 63 6f 6e 74 65 6e 74 27 28 69 64 20   ttt_content'(id 
|   3808: 49 4e 54 45 47 45 52 20 50 52 49 4d 41 52 59 20   INTEGER PRIMARY 
|   3824: 4b 45 59 2c 20 63 30 2c 20 63 31 29 6c 03 07 17   KEY, c0, c1)l...
|   3840: 1b 1b 01 81 2f 74 61 62 6c 65 74 74 74 5f 69 64   ..../tablettt_id
|   3856: 78 74 74 74 5f 69 64 78 03 43 52 45 41 54 45 20   xttt_idx.CREATE 
|   3872: 54 41 42 4c 45 20 27 74 74 74 5f 69 64 78 27 28   TABLE 'ttt_idx'(
|   3888: 73 65 67 69 64 2c 20 74 65 72 6d 2c 20 70 67 6e   segid, term, pgn
|   3904: 6f 2c 20 50 52 49 4d 41 52 59 20 4b 45 59 28 73   o, PRIMARY KEY(s
|   3920: 65 67 69 64 2c 20 74 65 72 6d 29 29 20 57 49 54   egid, term)) WIT
|   3936: 48 4f 55 54 20 52 4f 57 49 44 58 02 07 17 1d 1d   HOUT ROWIDX.....
|   3952: 01 81 03 74 61 62 6c 65 74 74 74 5f 64 61 74 61   ...tablettt_data
|   3968: 74 74 74 5f 64 61 74 61 02 43 52 45 41 54 45 20   ttt_data.CREATE 
|   3984: 54 41 42 4c 45 20 27 74 74 74 5f 64 61 74 61 27   TABLE 'ttt_data'
|   4000: 28 69 64 20 49 4e 54 45 47 45 52 20 50 52 49 4d   (id INTEGER PRIM
|   4016: 41 52 59 20 4b 45 59 2c 20 62 6c 6f 63 6b 20 42   ARY KEY, block B
|   4032: 4c 4f 42 29 3a 01 06 17 13 13 08 5f 74 61 62 6c   LOB):......_tabl
|   4048: 65 74 74 74 74 74 74 43 52 45 41 54 45 20 56 49   ettttttCREATE VI
|   4064: 52 54 55 41 4c 20 54 41 42 4c 45 20 74 74 74 20   RTUAL TABLE ttt 
|   4080: 55 53 49 4e 47 20 66 74 73 35 28 61 2c 20 62 29   USING fts5(a, b)
| page 2 offset 4096
|      0: 0d 0f 44 00 05 0e 81 00 0f e7 0e 81 0f af 0f 58   ..D............X
|     16: 0e 98 00 00 00 00 00 00 00 00 00 00 00 00 00 00   ................
|   3712: 00 15 0a 03 00 30 00 00 00 00 01 03 03 00 03 01   .....0..........
|   3728: 01 01 02 01 01 03 01 01 81 24 8c 80 80 80 80 01   .........$......
|   3744: 04 00 82 4c 00 00 00 9b 02 30 65 03 1a 02 05 05   ...L.....0e.....
|   3760: 07 05 01 01 04 03 03 08 03 03 01 2e 02 05 05 07   ................
|   3776: 05 07 05 07 05 01 01 04 03 03 08 03 03 08 03 03   ................
|   3792: 08 03 03 02 01 65 03 1e 03 05 05 04 05 05 01 01   .....e..........
|   3808: 03 06 04 04 06 04 03 01 36 03 05 05 04 05 05 04   ........6.......
|   3824: 05 05 04 05 05 01 01 03 06 04 04 06 04 04 06 04   ................
|   3840: 04 06 04 03 03 01 65 03 14 04 05 07 05 05 01 01   ......e.........
|   3856: 02 08 0a 01 20 04 05 07 05 07 05 07 05 05 01 01   .... ...........
|   3872: 02 08 0a 09 fa 04 01 65 03 02 0a 01 06 0a 1a 0a   .......e........
|   3888: 05 01 65 03 06 01 01 0a 01 0a 01 01 0a 0a 0a 04   ..e.............
|   3904: 2b 31 21 0b 0f ef 00 14 2a 00 00 00 00 01 02 02   +1!.....*.......
|   3920: 00 02 01 01 01 02 01 01 50 88 80 80 80 80 01 04   ........P.......
|   3936: 00 81 24 00 00 00 47 02 30 65 02 1a 02 05 05 07   ..$...G.0e......
|   3952: 05 01 01 04 03 03 08 03 03 02 01 65 02 1e 03 05   ...........e....
|   3968: 05 04 05 05 01 01 03 06 04 04 06 04 03 03 01 65   ...............e
|   3984: 02 14 04 05 07 05 05 01 01 02 08 0a 04 01 65 02   ..............e.
|   4000: 02 0a 05 01 65 02 06 01 01 0a 04 12 14 0f 06 31   ....e..........1
|   4016: 84 80 80 80 80 01 03 00 68 00 00 00 2b 02 30 65   ........h...+.0e
|   4032: 01 10 02 05 05 01 01 04 03 9f 02 01 65 01 12 03   ............e...
|   4048: 05 05 01 01 03 06 04 03 03 01 65 01 0e 14 05 05   ..........e.....
|   4064: 01 01 02 08 04 0d 0e 06 01 03 00 12 04 4c 4c 00   .............LL.
|   4080: 00 00 11 24 00 00 00 00 01 01 01 00 01 01 01 01   ...$............
| page 3 offset 8192
|      0: 0a 00 00 00 03 0f 00 00 00 00 00 00 00 00 00 00   ................
|   4064: 00 00 00 00 00 00 00 00 00 00 00 00 06 04 01 0c   ................
|   4080: 01 03 02 06 04 01 0c 01 02 02 05 04 09 0c 01 02   ................
| page 4 offset 12288
|      0: 0d 00 00 00 04 00 00 00 00 00 00 00 00 00 00 00   ................
|   3600: 00 00 00 00 00 00 00 00 00 00 81 52 04 06 00 81   ...........R....
|   3616: 5d 81 55 65 20 65 65 20 65 65 65 20 65 20 65 65   ].Ue ee eee e ee
|   3632: 20 65 65 65 20 65 20 65 65 20 65 65 65 65 20 65    eee e ee eeee e
|   3648: 65 20 65 65 65 20 65 20 65 65 20 65 65 65 20 65   e eee e ee eee e
|   3664: 20 65 65 20 65 65 55 65 20 65 65 20 65 65 65 20    ee eeUe ee eee 
|   3680: 65 20 65 65 20 65 65 65 20 65 20 65 65 20 65 65   e ee eee e ee ee
|   3696: 65 65 20 65 65 20 65 65 65 20 65 20 65 65 20 65   ee ee eee e ee e
|   3712: 65 65 20 65 20 65 65 20 65 65 65 65 65 65 20 65   ee e ee eeeeee e
|   3728: 65 20 65 20 65 20 65 20 65 65 20 65 85 65 20 65   e e e e ee e.e e
|   3744: 65 20 65 65 65 65 65 20 65 65 20 65 20 65 20 65   e eeeee ee e e e
|   3760: 20 65 65 20 65 65 65 20 65 65 20 65 65 65 65 65    ee eee ee eeeee
|   3776: 20 65 65 20 65 20 65 20 65 20 65 65 20 65 65 65    ee e e e ee eee
|   3792: 20 65 65 20 65 65 65 65 65 20 65 65 20 65 20 65    ee eeeee ee e e
|   3808: 20 65 20 65 65 20 65 65 65 20 65 65 20 65 65 6a    e ee eee ee eej
|   3824: 03 04 00 75 71 65 20 65 65 20 65 65 65 20 65 20   ...uqe ee eee e 
|   3840: 65 65 20 65 65 65 20 65 20 65 65 20 65 65 65 65   ee eee e ee eeee
|   3856: 20 65 65 20 65 65 65 20 65 20 65 65 20 65 65 65    ee eee e ee eee
|   3872: 20 65 20 65 65 20 65 65 65 65 65 65 20 65 65 20    e ee eeeeee ee 
|   3888: 65 20 65 20 65 20 65 64 20 65 65 65 20 65 65 20   e e e ed eee ee 
|   3904: 65 65 65 65 65 20 65 65 20 65 20 65 20 65 10 65   eeeee ee e e e.e
|   3920: 65 20 65 65 65 10 65 65 20 65 65 6a 02 04 00 75   e eee.ee eej...u
|   3936: 71 65 20 65 65 20 65 65 65 20 65 20 65 65 20 65   qe ee eee e ee e
|   3952: 65 65 20 65 20 65 65 20 65 65 65 65 20 65 65 20   ee e ee eeee ee 
|   3968: 65 65 65 20 65 20 65 65 20 65 65 65 20 65 20 65   eee e ee eee e e
|   3984: 65 20 65 65 65 66 65 65 20 65 65 20 65 20 65 20   e eeefee ee e e 
|   4000: 65 88 65 65 20 65 65 65 30 65 65 20 65 65 65 65   e.ee eee0ee eeee
|   4016: 65 20 65 65 20 65 20 65 20 65 20 65 65 20 65 65   e ee e e e ee ee
|   4032: 65 20 65 65 20 65 65 37 01 04 00 41 3f 65 20 65   e ee ee7...A?e e
|   4048: 65 20 65 65 65 20 65 20 65 65 20 65 65 65 20 65   e eee e ee eee e
|   4064: 20 65 65 20 65 65 65 65 65 65 20 65 65 20 65 20    ee eeeeee ee e 
|   4080: 65 20 65 20 65 65 20 65 65 65 20 65 65 20 65 65   e e ee eee ee ee
| page 5 offset 16384
|      0: 0d 00 00 00 04 00 00 00 00 00 00 00 00 00 00 00   ................
|   4064: 00 00 00 00 05 04 03 00 10 21 21 05 03 03 00 10   .........!!.....
|   4080: 11 11 05 02 03 00 10 11 11 05 01 03 00 10 09 09   ................
| page 6 offset 20480
|      0: 0a 00 00 00 01 0f f4 00 0f f4 00 00 00 00 00 00   ................
|   4080: 00 00 00 00 0b 03 1b 01 76 65 72 73 69 6f 6e 04   ........version.
| end crash-77b86d070d0ac6.db
}]} {}

do_catchsql_test 72.1 {
  INSERT INTO ttt(ttt) VALUES('integrity-check');
} {1 {database disk image is malformed}}

do_catchsql_test 72.2 {
  SELECT 1 FROM ttt('e* NOT ee*');
} {/.*fts5: corrupt.*/}

#-------------------------------------------------------------------------
reset_db
do_test 73.0 {
  sqlite3 db {}
  db deserialize [decode_hexdb {
.open --hexdb
| size 24576 pagesize 4096 filename crash-b02ca2cc4d7dda.db
| page 1 offset 0
|      0: 53 51 4c 69 74 65 20 66 6f 72 6d 61 74 20 33 00   SQLite format 3.
|     16: 10 00 01 01 00 40 20 20 00 00 00 00 00 00 00 06   .....@  ........
|     32: 00 00 00 00 00 00 00 00 00 00 00 06 00 00 00 04   ................
|     96: 00 00 00 00 0d 00 00 00 06 0d e2 00 0f c4 0f 6a   ...............j
|    112: 0e fc 0e 9d 0e 3d 0d e2 00 00 00 00 00 00 00 00   .....=..........
|   3552: 00 00 59 06 06 17 21 21 01 7f 74 61 62 6c 65 74   ..Y...!!..tablet
|   3568: 74 74 5f 63 6f 6e 66 69 67 74 74 74 5f 63 6f 6e   tt_configttt_con
|   3584: 66 69 67 06 43 52 45 41 54 45 20 54 41 42 4c 45   fig.CREATE TABLE
|   3600: 20 27 74 74 74 5f 63 6f 6e 66 69 67 27 28 6b 20    'ttt_config'(k 
|   3616: 50 52 49 4d 41 52 59 20 4b 45 59 2c 20 76 29 20   PRIMARY KEY, v) 
|   3632: 57 49 54 48 4f 55 54 20 52 4f 57 49 44 5e 05 07   WITHOUT ROWID^..
|   3648: 17 23 23 01 81 03 74 61 62 6c 65 74 74 74 5f 64   .##...tablettt_d
|   3664: 6f 63 73 69 7a 65 74 74 74 5f 64 6f 63 73 69 7a   ocsizettt_docsiz
|   3680: 65 05 43 52 45 41 54 45 20 54 41 42 4c 45 20 27   e.CREATE TABLE '
|   3696: 74 74 74 5f 64 6f 63 73 69 7a 65 27 28 69 64 20   ttt_docsize'(id 
|   3712: 49 4e 54 45 47 45 52 20 50 52 49 4d 41 52 59 20   INTEGER PRIMARY 
|   3728: 4b 45 59 2c 20 73 7a 20 42 4c 4f 42 29 5d 04 07   KEY, sz BLOB)]..
|   3744: 17 23 23 01 81 01 74 61 62 6c 65 74 74 74 5f 63   .##...tablettt_c
|   3760: 6f 6e 74 65 6e 74 74 74 74 5f 63 6f 6e 74 65 6e   ontentttt_conten
|   3776: 74 04 43 52 45 41 54 45 20 54 41 42 4c 45 20 27   t.CREATE TABLE '
|   3792: 74 74 74 5f 63 6f 6e 74 65 6e 74 27 28 69 64 20   ttt_content'(id 
|   3808: 49 4e 54 45 47 45 52 20 50 52 49 4d 41 52 59 20   INTEGER PRIMARY 
|   3824: 4b 45 59 2c 20 63 30 2c 20 63 31 29 6c 03 07 17   KEY, c0, c1)l...
|   3840: 1b 1b 01 81 2f 74 61 62 6c 65 74 74 74 5f 69 64   ..../tablettt_id
|   3856: 78 74 74 74 5f 69 64 78 03 43 52 45 41 54 45 20   xttt_idx.CREATE 
|   3872: 54 41 42 4c 45 20 27 74 74 74 5f 69 64 78 27 28   TABLE 'ttt_idx'(
|   3888: 73 65 67 69 64 2c 20 74 65 72 6d 2c 20 70 67 6e   segid, term, pgn
|   3904: 6f 2c 20 50 52 49 4d 41 52 59 20 4b 45 59 28 73   o, PRIMARY KEY(s
|   3920: 65 67 69 64 2c 20 74 65 72 6d 29 29 20 57 49 54   egid, term)) WIT
|   3936: 48 4f 55 54 20 52 4f 57 49 44 58 02 07 17 1d 1d   HOUT ROWIDX.....
|   3952: 01 81 03 74 61 62 6c 65 74 74 74 5f 64 61 74 61   ...tablettt_data
|   3968: 74 74 74 5f 64 61 74 61 02 43 52 45 41 54 45 20   ttt_data.CREATE 
|   3984: 54 41 42 4c 45 20 27 74 74 74 5f 64 61 74 61 27   TABLE 'ttt_data'
|   4000: 28 69 65 20 49 4e 54 45 47 45 52 20 50 52 49 4d   (ie INTEGER PRIM
|   4016: 41 52 59 20 4b 45 59 2c 20 62 6c 6f 63 6b 20 42   ARY KEY, block B
|   4032: 4c 4f 42 29 3a 01 06 17 13 13 08 5f 74 61 62 6c   LOB):......_tabl
|   4048: 65 74 74 74 74 74 74 43 52 45 41 54 45 20 56 49   ettttttCREATE VI
|   4064: 52 54 55 41 4c 20 54 41 42 4c 45 20 74 74 74 20   RTUAL TABLE ttt 
|   4080: 55 53 49 4e 47 20 66 74 73 35 28 61 2c 20 62 29   USING fts5(a, b)
| page 2 offset 4096
|      0: 0d 0f 44 00 05 0e 81 00 0f e7 0e 81 0f af 0f 58   ..D............X
|     16: 0e 98 00 00 00 00 00 00 00 00 00 00 00 00 00 00   ................
|   3712: 00 15 0a 03 00 30 00 00 00 00 01 03 03 00 03 01   .....0..........
|   3728: 01 01 02 01 01 03 01 01 81 24 8c 80 80 80 80 01   .........$......
|   3744: 04 00 82 4c 00 00 00 9b 02 30 65 03 1a 02 05 05   ...L.....0e.....
|   3760: 07 05 01 01 04 03 03 08 03 03 01 2e 02 05 05 07   ................
|   3776: 05 07 05 07 05 01 01 04 03 03 08 03 03 08 03 03   ................
|   3792: 08 03 03 02 01 65 03 1e 03 05 05 04 05 05 01 01   .....e..........
|   3808: 03 06 04 04 06 04 03 01 36 03 05 05 04 05 05 04   ........6.......
|   3824: 05 04 f4 04 05 01 01 03 06 04 04 06 04 04 06 04   ................
|   3840: 04 06 04 db 03 01 65 03 14 04 05 07 05 05 01 01   ......e.........
|   3856: 02 08 0a 01 20 04 05 07 05 07 05 07 05 05 01 01   .... ...........
|   3872: 02 08 0a 0a 0a 04 01 65 03 02 0a 01 06 0a 0a 0a   .......e........
|   3888: 05 01 65 03 06 01 01 0a 01 0a 01 01 0a 0a 0a 04   ..e.............
|   3904: 2b 31 21 0b 0f ef 00 14 2a 00 00 00 00 01 02 02   +1!.....*.......
|   3920: 00 02 01 01 01 02 01 01 50 88 80 80 80 80 01 04   ........P.......
|   3936: 00 81 24 00 00 00 47 02 30 65 02 1a 02 05 05 07   ..$...G.0e......
|   3952: 05 01 01 04 03 03 08 03 03 02 01 65 02 1e 03 05   ...........e....
|   3968: 05 04 05 05 01 01 03 06 09 14 06 04 03 03 01 65   ...............e
|   3984: 02 14 04 05 07 05 05 01 01 02 08 ed 04 01 65 02   ..............e.
|   4000: 02 0a 05 01 65 02 06 01 01 0a 04 12 14 0f 06 31   ....e..........1
|   4016: 84 80 80 80 80 01 03 00 68 00 00 00 2b 02 30 65   ........h...+.0e
|   4032: 01 10 02 05 05 01 01 04 03 03 02 01 55 01 12 03   ............U...
|   4048: 05 05 01 01 03 06 05 03 03 01 65 01 0e 04 05 05   ..........e.....
|   4064: 01 01 02 08 04 0d 0e 06 01 03 00 12 04 4c 4c 00   .............LL.
|   4080: 00 00 11 24 00 00 00 00 01 0f c1 00 01 01 01 01   ...$............
| page 3 offset 8192
|      0: 0a 00 00 00 01 00 00 00 00 00 00 00 00 00 00 00   ................
|   4064: 00 00 00 00 00 00 00 00 00 00 00 00 06 04 01 0c   ................
|   4080: 01 03 02 06 04 01 0c 01 02 02 05 04 09 0c 01 02   ................
| page 4 offset 12288
|      0: 0d 00 00 00 04 00 00 00 00 00 00 00 00 00 00 00   ................
|   3600: 00 00 00 00 00 00 00 00 00 00 81 52 04 06 00 81   ...........R....
|   3616: 5d 81 55 65 20 65 65 20 65 65 65 20 65 20 65 65   ].Ue ee eee e ee
|   3632: 20 65 65 65 20 65 20 65 65 20 65 65 65 65 20 65    eee e ee eeee e
|   3648: 65 20 65 65 65 20 65 20 65 65 20 65 65 65 20 65   e eee e ee eee e
|   3664: 20 65 65 20 65 65 65 65 20 65 65 20 65 65 65 20    ee eeee ee eee 
|   3680: 65 20 65 65 20 65 65 65 20 65 20 65 65 20 65 65   e ee eee e ee ee
|   3696: 65 65 20 65 65 20 65 65 65 20 65 20 65 65 20 65   ee ee eee e ee e
|   3712: 65 65 20 65 20 65 65 20 65 65 65 65 65 65 20 65   ee e ee eeeeee e
|   3728: 65 20 65 20 65 20 65 20 65 65 20 65 65 65 20 65   e e e e ee eee e
|   3744: 65 20 65 65 65 65 65 20 65 65 20 65 20 65 20 65   e eeeee ee e e e
|   3760: 20 65 65 20 65 62 d5 20 65 65 20 65 65 65 65 65    ee eb. ee eeeee
|   3776: 20 65 65 20 65 20 65 20 65 20 65 65 20 65 65 65    ee e e e ee eee
|   3792: 20 65 65 20 65 65 65 65 65 20 65 65 20 65 21 65    ee eeeee ee e!e
|   3808: 20 65 20 65 65 20 65 65 65 20 65 65 20 65 65 6a    e ee eee ee eej
|   3824: 03 04 00 75 71 65 20 65 65 10 65 65 65 20 65 20   ...uqe ee.eee e 
|   3840: 65 65 20 65 65 65 20 65 20 65 65 20 65 65 65 65   ee eee e ee eeee
|   3856: 20 65 65 20 65 65 65 20 65 20 65 65 20 65 65 65    ee eee e ee eee
|   3872: 20 65 20 65 65 20 65 65 65 65 65 65 20 65 65 20    e ee eeeeee ee 
|   3888: 65 20 65 20 65 20 65 65 20 65 65 65 20 62 55 20   e e e ee eee bU 
|   3904: 65 65 65 65 65 20 65 65 20 65 20 65 20 65 20 65   eeeee ee e e e e
|   3920: 65 20 65 65 65 20 55 65 20 65 65 6a 02 04 00 75   e eee Ue eej...u
|   3936: 71 65 20 65 65 20 65 65 65 20 65 10 65 65 20 65   qe ee eee e.ee e
|   3952: 65 65 20 65 20 65 65 20 65 65 65 65 20 65 65 20   ee e ee eeee ee 
|   3968: 65 65 65 20 65 20 65 65 20 65 65 65 20 65 20 65   eee e ee eee e e
|   3984: 65 20 65 65 65 65 65 65 20 65 65 20 65 20 65 20   e eeeeee ee e e 
|   4000: 65 20 65 65 20 65 65 65 20 65 65 20 65 65 65 65   e ee eee ee eeee
|   4016: 65 20 65 65 20 65 20 65 20 65 20 65 65 20 65 65   e ee e e e ee ee
|   4032: 65 20 65 65 21 65 65 37 0a 04 00 41 3f 65 20 65   e ee!ee7...A?e e
|   4048: 65 20 65 65 65 20 65 20 65 65 20 65 65 65 20 65   e eee e ee eee e
|   4064: 20 65 65 20 65 65 65 65 65 65 20 65 65 20 65 20    ee eeeeee ee e 
|   4080: 65 20 65 20 65 65 20 65 65 65 20 65 65 20 65 65   e e ee eee ee ee
| page 5 offset 16384
|      0: 0d 00 00 00 00 00 00 00 00 00 00 00 00 00 00 00   ................
|   4064: 00 00 00 00 05 04 03 00 10 21 21 05 13 03 00 10   .........!!.....
|   4080: 11 11 05 02 03 00 10 11 11 05 01 03 00 10 09 09   ................
| page 6 offset 20480
|      0: 0a 00 00 00 01 0f f4 00 0f f4 00 00 00 00 00 00   ................
|   4080: 00 00 00 00 0b 03 1b 01 76 65 72 73 69 6f 6e 04   ........version.
| end crash-b02ca2cc4d7dda.db
}]} {}

do_catchsql_test 73.1 {
  SELECT snippet(ttt,ttt, NOT 54 ), 
  * FROM ttt('e* NOT ee*e* NOT ee* NOT ee*e* NOT e*') ;
} {/.*fts5: corrupt.*/}

#-------------------------------------------------------------------------
reset_db
do_test 74.0 {
  sqlite3 db {}
  sqlite3_fts5_register_matchinfo db
  db deserialize [decode_hexdb {
| size 106496 pagesize 4096 filename x.db
| page 1 offset 0
|      0: 53 51 4c 69 74 65 20 66 6f 72 6d 61 74 20 33 00   SQLite format 3.
|     16: 10 00 01 01 00 40 20 20 00 00 00 01 00 00 00 1a   .....@  ........
|     32: 00 00 00 00 00 00 00 00 00 00 00 01 00 00 00 04   ................
|     80: 00 00 00 00 00 00 00 00 00 00 00 00 00 00 00 01   ................
|     96: 00 2e 4f 78 0d 0f c7 00 07 0d 92 00 0f 8d 0f 36   ..Ox...........6
|    112: 0e cb 0e 6b 0e 0e 0d b6 0d 92 0d 92 00 00 00 00   ...k............
|   3472: 00 00 22 08 06 17 11 11 01 31 74 61 62 6c 65 74   .........1tablet
|   3488: 32 74 32 08 43 52 45 41 54 45 20 54 41 42 4c 45   2t2.CREATE TABLE
|   3504: 20 74 32 28 78 29 56 07 06 17 1f 1f 01 7d 74 61    t2(x)V.......ta
|   3520: 62 6c 65 74 31 5f 63 6f 6e 66 69 67 74 31 5f 63   blet1_configt1_c
|   3536: 6f 6e 66 69 67 07 43 52 45 41 54 45 20 54 41 42   onfig.CREATE TAB
|   3552: 4c 45 20 27 74 31 5f 63 6f 6e 66 69 67 27 28 6b   LE 't1_config'(k
|   3568: 20 50 52 49 4d 41 52 59 20 4b 45 59 2c 20 76 29    PRIMARY KEY, v)
|   3584: 20 57 49 54 48 4f 55 54 20 52 4f 57 49 44 5b 06    WITHOUT ROWID[.
|   3600: 07 17 21 21 01 81 01 74 61 62 6c 65 74 31 5f 64   ..!!...tablet1_d
|   3616: 6f 63 73 69 7a 65 74 31 5f 64 6f 63 73 69 7a 65   ocsizet1_docsize
|   3632: 06 43 52 45 41 54 45 20 54 41 42 4c 45 20 27 74   .CREATE TABLE 't
|   3648: 31 5f 64 6f 63 73 69 7a 65 27 28 69 64 20 49 4e   1_docsize'(id IN
|   3664: 54 45 47 45 52 20 50 52 49 4d 41 52 59 20 4b 45   TEGER PRIMARY KE
|   3680: 59 2c 20 73 7a 20 42 4c 4f 42 29 5e 05 07 17 21   Y, sz BLOB)^...!
|   3696: 21 01 81 07 74 61 62 6c 65 74 31 5f 63 6f 6e 74   !...tablet1_cont
|   3712: 65 6e 74 74 31 5f 63 6f 6e 74 65 6e 74 05 43 52   entt1_content.CR
|   3728: 45 41 54 45 20 54 41 42 4c 45 20 27 74 31 5f 63   EATE TABLE 't1_c
|   3744: 6f 6e 74 65 6e 74 27 28 69 64 20 49 4e 54 45 47   ontent'(id INTEG
|   3760: 45 52 20 50 52 49 4d 41 52 59 20 4b 45 59 2c 20   ER PRIMARY KEY, 
|   3776: 63 30 2c 20 63 31 2c d6 63 32 29 69 04 07 17 19   c0, c1,.c2)i....
|   3792: 19 01 81 2d 74 61 62 6c 65 74 31 5f 69 64 78 74   ...-tablet1_idxt
|   3808: 31 5f 69 64 78 04 43 52 45 41 54 45 20 54 41 42   1_idx.CREATE TAB
|   3824: 4c 45 20 27 74 31 5f 69 64 78 27 28 73 65 67 69   LE 't1_idx'(segi
|   3840: 64 2c 20 74 65 72 6d 2c 20 70 67 6e 6f 2c 20 50   d, term, pgno, P
|   3856: 52 49 4d 41 52 59 20 4b 45 59 28 73 65 67 69 64   RIMARY KEY(segid
|   3872: 2c 20 74 65 72 6d 29 29 20 57 49 54 48 4f 55 54   , term)) WITHOUT
|   3888: 20 52 4f 57 49 44 55 03 07 17 1b 1b 01 81 01 74    ROWIDU........t
|   3904: 61 62 6c 65 74 31 5f 64 61 74 61 74 31 5f 64 61   ablet1_datat1_da
|   3920: 74 61 03 43 52 45 41 54 45 20 54 41 42 4c 45 20   ta.CREATE TABLE 
|   3936: 27 74 31 5f 64 61 74 61 27 28 69 64 20 49 4e 54   't1_data'(id INT
|   3952: 45 47 45 52 20 50 52 49 4d 41 52 59 20 4b 45 59   EGER PRIMARY KEY
|   3968: 2c 20 62 6c 6f 63 6b 20 42 4c 4f 42 29 38 02 06   , block BLOB)8..
|   3984: 17 11 11 08 5f 74 61 62 6c 65 74 31 74 31 43 52   ...._tablet1t1CR
|   4000: 45 41 54 45 20 56 49 52 54 55 41 4c 20 54 41 42   EATE VIRTUAL TAB
|   4016: 4c 45 20 74 31 20 55 53 49 4e 47 20 66 74 73 35   LE t1 USING fts5
|   4032: 28 61 2c 62 2c 63 29 00 00 00 00 00 00 00 00 00   (a,b,c).........
| page 2 offset 4096
|      0: 0d 00 00 00 24 0c 0a 00 0f d8 0f af 0f 86 0f 74   ....$..........t
|     16: 0f 61 0f 4e 0f 2f 0f 0f 0e ef 0e d7 0e be 0e a5   .a.N./..........
|     32: 0e 8d 0e 74 0e 5b 0e 40 0e 24 0e 08 01 2f 0d d5   ...t.[.@.$.../..
|     48: 0d bb 0d a0 0d 84 0d 68 0d 4f 0d 35 0d 1b 0c fb   .......h.O.5....
|     64: 0c da 0c b9 0c 99 0c 78 0c 57 0c 00 00 00 00 00   .......x.W......
|   3072: 00 00 00 00 00 00 00 00 00 00 18 24 05 00 25 0f   ...........$..%.
|   3088: 19 54 48 52 45 41 44 53 41 46 45 3d 30 58 42 49   .THREADSAFE=0XBI
|   3104: 4e 41 52 59 18 23 05 00 25 0f 19 54 48 52 45 41   NARY.#..%..THREA
|   3120: 44 53 41 46 45 3d 30 58 4e 4f 43 41 53 45 17 8f   DSAFE=0XNOCASE..
|   3136: 05 00 25 0f 17 54 48 52 45 41 44 53 41 46 45 3d   ..%..THREADSAFE=
|   3152: 30 58 52 54 52 49 4d 1f 21 05 00 33 0f 19 4f 4d   0XRTRIM.!..3..OM
|   3168: 49 54 20 4c 4f 41 44 20 45 58 54 45 4e 53 49 4f   IT LOAD EXTENSIO
|   3184: 4e 58 42 49 4e 41 52 59 1f 20 05 00 33 0f 19 4f   NXBINARY. ..3..O
|   3200: 4d 49 54 20 4c 4f 41 44 20 45 58 54 45 4e 53 49   MIT LOAD EXTENSI
|   3216: 4f 4e 58 4e 4f 43 41 53 45 1e 1f 05 00 33 0f 17   ONXNOCASE....3..
|   3232: 4f 4d 59 54 20 4c 4f 41 44 20 45 58 54 45 4e 53   OMYT LOAD EXTENS
|   3248: 49 4f 4e 58 52 54 52 49 4d 1f 1e 05 00 33 0f 19   IONXRTRIM....3..
|   3264: 4d 41 58 20 4d 45 4d 4f 52 59 3d 35 30 30 30 30   MAX MEMORY=50000
|   3280: 30 30 30 57 42 49 4e 41 52 59 1f 1d 05 00 33 0f   000WBINARY....3.
|   3296: 19 4d 41 58 20 4d 45 4d 4f 52 59 3d 35 30 30 30   .MAX MEMORY=5000
|   3312: 30 30 30 30 58 4e 4f 43 41 53 45 1e 1c 05 00 33   0000XNOCASE....3
|   3328: 0f 17 4d 41 58 20 4d 45 4d 4f 52 59 3d 35 30 30   ..MAX MEMORY=500
|   3344: 30 30 30 30 30 58 52 54 52 49 4d 18 1b 05 00 25   00000XRTRIM....%
|   3360: 0f 19 45 4e 41 42 4c 45 20 52 54 52 45 45 58 42   ..ENABLE RTREEXB
|   3376: 49 4e 41 52 59 18 1a 05 00 25 0f 19 45 4e 41 42   INARY....%..ENAB
|   3392: 4c 45 20 52 54 52 45 45 59 4e 4f 43 41 53 45 17   LE RTREEYNOCASE.
|   3408: 19 05 00 25 0f 17 45 4e 41 42 4c 45 20 52 54 52   ...%..ENABLE RTR
|   3424: 45 45 58 52 54 52 49 4d 1a 18 05 00 29 0f 19 45   EEXRTRIM....)..E
|   3440: 4e 41 42 4c 45 20 4d 45 4d 53 59 53 35 58 42 49   NABLE MEMSYS5XBI
|   3456: 4e 41 52 59 1a 17 05 00 29 0f 19 45 4e 41 42 4c   NARY....)..ENABL
|   3472: 45 20 4d 45 4d 53 59 53 35 58 4e 4f 43 41 53 45   E MEMSYS5XNOCASE
|   3488: 19 16 05 00 29 0f 17 45 4e 41 42 4c 45 20 4d 45   ....)..ENABLE ME
|   3504: 4d 53 59 53 35 58 52 54 52 49 4d 18 15 05 00 25   MSYS5XRTRIM....%
|   3520: 0f 19 45 4e 41 42 4c 45 20 4a 53 4f 4e 31 58 42   ..ENABLE JSON1XB
|   3536: 49 4e 41 52 59 18 14 05 00 25 0f 19 45 4e 41 42   INARY....%..ENAB
|   3552: 4c 45 20 4a 53 4f 4e 31 58 4e 4f 43 41 53 45 17   LE JSON1XNOCASE.
|   3568: 13 05 00 25 0f 17 45 4e 41 42 4c 45 20 4a 53 4f   ...%..ENABLE JSO
|   3584: 4e 31 58 52 54 52 49 4d 1a 12 05 00 29 0f 19 45   N1XRTRIM....)..E
|   3600: 4e 41 42 4c 45 20 47 45 4f 50 4f 4c 59 58 42 49   NABLE GEOPOLYXBI
|   3616: 4e 41 52 59 1a 11 05 00 29 0f 19 45 4f 41 42 4c   NARY....)..EOABL
|   3632: 45 20 47 45 4f 50 4f 4c 59 58 4e 4f 43 51 53 45   E GEOPOLYXNOCQSE
|   3648: 19 10 05 00 29 0f 17 45 4e 41 42 4c 45 20 47 45   ....)..ENABLE GE
|   3664: 4f 50 4f 4c 59 58 52 54 52 49 4d 17 0f 05 00 23   OPOLYXRTRIM....#
|   3680: 0f 19 45 4e 41 42 4c 45 20 46 54 53 35 58 42 49   ..ENABLE FTS5XBI
|   3696: 4e 41 52 59 17 0e 05 00 23 0f 19 45 4e 41 42 4c   NARY....#..ENABL
|   3712: 45 20 46 54 53 35 58 4e 4f 43 41 53 45 16 1d 05   E FTS5XNOCASE...
|   3728: 00 23 0f a4 45 4e 41 42 4c 45 20 46 54 53 35 58   .#..ENABLE FTS5X
|   3744: 52 54 52 49 4d 17 0c 05 00 23 0f 19 45 4e 41 42   RTRIM....#..ENAB
|   3760: 4c 45 20 46 55 53 34 58 42 49 4e 41 52 59 17 0b   LE FUS4XBINARY..
|   3776: 05 00 23 0f 19 45 4e 41 42 4c 45 20 46 54 53 34   ..#..ENABLE FTS4
|   3792: 58 4e 4f 43 41 53 45 16 0a 05 00 23 0f 17 45 4e   XNOCASE....#..EN
|   3808: 41 42 4c 45 20 46 54 53 34 58 52 54 52 49 4d 1e   ABLE FTS4XRTRIM.
|   3824: 09 05 00 31 0f 19 45 4e 41 42 4c 45 20 44 42 53   ...1..ENABLE DBS
|   3840: 54 41 54 20 56 54 41 42 58 42 49 4e 41 52 59 1e   TAT VTABXBINARY.
|   3856: 08 05 00 31 0f 19 45 4e 41 42 4c 45 20 44 42 53   ...1..ENABLE DBS
|   3872: 54 41 54 20 56 54 41 42 58 4e 4f 43 41 53 45 1d   TAT VTABXNOCASE.
|   3888: 07 05 00 31 0f 17 45 4e 41 42 4c 45 20 44 42 53   ...1..ENABLE DBS
|   3904: 54 41 54 20 56 54 41 42 58 52 54 52 49 4d 11 06   TAT VTABXRTRIM..
|   3920: 05 00 17 0f 19 44 45 42 55 47 58 42 49 4e 41 52   .....DEBUGXBINAR
|   3936: 59 11 05 05 00 17 0f 19 44 45 42 55 47 58 4e 4f   Y.......DEBUGXNO
|   3952: 43 41 53 45 10 04 05 00 17 0f 17 44 45 42 55 47   CASE.......DEBUG
|   3968: 58 52 54 52 49 4d 27 03 05 00 43 0f 19 43 4f 4d   XRTRIM'...C..COM
|   3984: 50 49 4c 45 52 3d 67 63 63 2d 35 2e 34 2e 30 20   PILER=gcc-5.4.0 
|   4000: 32 30 31 36 30 36 30 39 58 42 49 4e 41 52 59 27   20160609XBINARY'
|   4016: 02 05 00 43 0f 19 43 4f 4d 50 49 4c 45 52 3d 67   ...C..COMPILER=g
|   4032: 63 63 2d 35 2e 34 2e 30 20 32 30 31 36 30 36 30   cc-5.4.0 2016060
|   4048: 39 58 4e 4f 43 41 53 45 26 01 05 00 43 0f 17 43   9XNOCASE&...C..C
|   4064: 4f 4d 50 49 4c 45 52 3d 67 63 63 2d 35 2e 34 2e   OMPILER=gcc-5.4.
|   4080: 30 20 32 30 31 36 30 36 30 39 58 52 54 53 49 4d   0 20160609XRTSIM
| page 3 offset 8192
|      0: 05 00 00 00 07 0f ba 00 00 00 00 1a 0f f6 0f ec   ................
|     16: 0f e2 0f d8 0f ce 0f c4 0f ba 00 00 00 00 00 00   ................
|   3200: 00 00 00 00 00 00 00 00 00 00 08 01 03 00 16 2e   ................
|   3216: b1 7d 24 24 86 4a 84 80 80 80 80 01 04 00 8d 18   ..$$.J..........
|   3232: 00 00 03 2b 02 30 30 01 02 06 01 02 06 01 02 06   ...+.00.........
|   3248: 1f 02 03 01 02 03 01 02 03 01 08 32 30 31 36 30   ...........20160
|   3264: 36 30 39 01 02 07 01 02 07 01 02 07 01 01 34 00   609...........4.
|   3280: 02 05 01 02 05 01 02 05 01 01 35 01 02 04 01 02   ..........5.....
|   3296: 04 01 02 04 02 07 30 30 30 30 30 30 30 1c 02 3d   ......0000000..=
|   3312: 01 02 04 01 02 04 01 06 62 69 6e 61 72 79 03 06   ........binary..
|   3328: 01 02 02 03 06 01 02 02 03 06 01 02 02 03 06 01   ................
|   3344: 02 02 03 06 01 02 02 03 06 01 02 02 03 06 01 02   ................
|   3360: 02 03 06 01 02 02 03 06 01 02 02 03 06 01 02 02   ................
|   3376: 03 06 01 02 02 03 06 01 02 02 01 08 63 6f 6d 70   ............comp
|   3392: 69 6c 65 72 01 02 02 01 02 02 01 02 02 01 06 64   iler...........d
|   3408: 62 73 74 61 74 07 02 03 01 02 03 01 02 03 02 04   bstat...........
|   3424: 65 62 75 67 04 02 02 01 02 02 01 02 02 01 07 65   ebug...........e
|   3440: 6e 61 62 6c 65 07 02 02 01 02 02 01 d3 02 01 02   nable...........
|   3456: 02 01 02 02 02 02 02 01 02 02 01 02 02 01 02 02   ................
|   3472: 01 02 02 01 02 02 01 02 02 01 02 02 01 02 02 01   ................
|   3488: 02 02 01 02 02 01 02 02 01 02 02 01 02 02 01 02   ................
|   3504: 02 01 02 02 02 08 78 74 65 6e 73 69 6f 6e 1f 02   ......xtension..
|   3520: 04 01 02 04 01 02 04 01 04 66 74 73 34 0a 02 03   .........fts4...
|   3536: 01 02 03 01 02 03 04 01 35 0d 02 03 01 02 03 01   ........5.......
|   3552: 02 03 01 03 67 63 63 01 02 54 01 02 03 01 02 03   ....gcc..T......
|   3568: 02 06 65 6f 70 6f 6c 79 10 02 03 01 02 03 01 02   ..eopoly........
|   3584: 03 01 05 6a 73 6f 6e 31 13 02 03 01 02 03 01 02   ...json1........
|   3600: 03 01 04 6c 6f 61 64 1f 02 03 01 02 03 01 02 03   ...load.........
|   3616: 01 03 6d 61 78 1c 02 02 01 02 02 01 02 02 02 05   ..max...........
|   3632: 65 6d 6f 72 79 1c 02 03 01 02 03 01 02 03 04 04   emory...........
|   3648: 73 79 73 35 16 02 03 01 02 03 01 02 03 01 06 6e   sys5...........n
|   3664: 6f 63 61 73 65 02 06 01 02 02 03 06 01 02 02 03   ocase...........
|   3680: 06 01 02 02 13 06 01 02 02 03 06 01 02 02 03 06   ................
|   3696: 01 02 02 03 06 01 02 02 03 06 01 02 02 03 06 01   ................
|   3712: 02 02 03 06 01 02 02 03 06 01 02 02 03 06 01 02   ................
|   3728: 02 01 04 6f 6d 69 74 1f 02 02 01 02 02 01 02 02   ...omit.........
|   3744: 01 05 72 74 72 65 65 19 02 03 01 02 03 01 02 03   ..rtree.........
|   3760: 04 02 69 6d 01 06 01 02 02 03 06 01 02 02 03 06   ..im............
|   3776: 01 02 02 03 06 01 02 02 03 06 01 02 02 03 06 01   ................
|   3792: 02 01 f3 06 01 02 02 03 06 01 02 02 03 06 01 02   ................
|   3808: 02 03 06 01 02 02 03 06 01 02 02 03 06 01 02 08   ................
|   3824: 01 0a 74 68 72 65 61 64 73 61 66 65 22 02 02 01   ..threadsafe....
|   3840: 02 02 01 02 02 01 04 76 74 61 62 07 02 04 01 02   .......vtab.....
|   3856: 04 01 02 04 01 01 78 01 06 01 01 02 01 06 01 01   ......x.........
|   3872: 02 01 06 01 01 02 01 06 01 01 02 01 06 01 01 02   ................
|   3888: 01 06 01 01 02 01 06 01 01 02 01 06 01 01 02 01   ................
|   3904: 06 01 01 02 01 06 01 01 02 01 06 01 01 02 01 06   ................
|   3920: 01 01 02 01 06 01 01 02 01 06 01 01 02 01 06 01   ................
|   3936: 01 02 01 06 01 01 02 01 06 01 01 02 01 06 01 01   ................
|   3952: 02 01 06 01 01 02 01 06 01 01 02 ad 06 01 01 02   ................
|   3968: 01 06 01 01 02 01 06 01 01 02 01 06 01 01 02 01   ................
|   3984: 06 01 01 01 01 06 01 01 02 01 06 01 01 02 01 06   ................
|   4000: 01 01 02 01 06 01 01 02 01 06 01 01 02 01 06 01   ................
|   4016: 01 02 01 06 01 01 02 01 06 01 00 00 00 19 88 80   ................
|   4032: 80 80 80 06 00 00 00 18 88 80 80 80 80 05 00 00   ................
|   4048: 00 17 88 80 80 80 80 04 00 00 00 16 88 80 80 80   ................
|   4064: 80 03 00 00 00 15 88 80 80 80 80 02 00 00 00 14   ................
|   4080: 88 80 80 80 80 01 00 00 00 13 84 80 80 80 80 01   ................
| page 4 offset 12288
|      0: 0a 00 00 00 08 0e bd 00 00 00 0e f9 0e ef 0e e5   ................
|     16: 0e db 0e d1 0e c7 0e bd 00 00 00 00 00 00 00 00   ................
|   3760: 00 00 00 00 00 00 00 00 00 00 00 00 00 09 04 01   ................
|   3776: 12 01 02 30 f4 a3 0e 09 04 01 12 01 02 30 cf 8c   ...0.........0..
|   3792: 0c 09 04 01 12 01 02 30 7a 34 0a 09 04 01 12 01   .......0z4......
|   3808: 02 30 72 64 08 09 04 01 12 01 02 30 6b 30 06 09   .0rd.......0k0..
|   3824: 04 01 12 01 02 30 63 33 04 06 04 01 0c 01 02 02   .....0c3........
|   4080: 00 00 00 00 00 00 00 00 00 00 05 04 09 0c 01 02   ................
| page 5 offset 16384
|      0: 05 00 00 00 0a 0f ce 00 00 00 00 12 0f fb 0f f6   ................
|     16: 0f f1 0f ec 0f e7 0f e2 0f dd 0f d8 0f d3 0f ce   ................
|     32: 0e 8d 0e 74 0e 5b 0e 40 0e 24 0e 08 01 2f 0d d5   ...t.[.@.$.../..
|     48: 0d bb 0d a0 0d 84 0d 68 0d 4f 0d 35 0d 1b 0c fb   .......h.O.5....
|     64: 0c da 0c b9 0c 99 0c 78 0c 57 0c 00 00 00 00 00   .......x.W......
|   3072: 00 00 00 00 00 00 00 00 00 00 18 24 05 00 25 0f   ...........$..%.
|   3088: 19 54 48 52 45 41 44 53 41 46 45 3d 30 58 42 49   .THREADSAFE=0XBI
|   3104: 4e 41 52 59 18 23 05 00 25 0f 19 54 48 52 45 41   NARY.#..%..THREA
|   3120: 44 53 41 46 45 3d 30 58 4e 4f 43 41 53 45 17 8f   DSAFE=0XNOCASE..
|   3136: 05 00 25 0f 17 54 48 52 45 41 44 53 41 46 45 3d   ..%..THREADSAFE=
|   3152: 30 58 52 54 52 49 4d 1f 21 05 00 33 0f 19 4f 4d   0XRTRIM.!..3..OM
|   3168: 49 54 20 4c 4f 41 44 20 45 58 54 45 4e 53 49 4f   IT LOAD EXTENSIO
|   3184: 4e 58 42 49 4e 41 52 59 1f 20 05 00 33 0f 19 4f   NXBINARY. ..3..O
|   3200: 4d 49 54 20 4c 4f 41 44 20 45 58 54 45 4e 53 49   MIT LOAD EXTENSI
|   3216: 4f 4e 58 4e 4f 43 41 53 45 1e 1f 05 00 33 0f 17   ONXNOCASE....3..
|   3232: 4f 4d 59 54 20 4c 4f 41 44 20 45 58 54 45 4e 53   OMYT LOAD EXTENS
|   3248: 49 4f 4e 58 52 54 52 49 4d 1f 1e 05 00 33 0f 19   IONXRTRIM....3..
|   3264: 4d 41 58 20 4d 45 4d 4f 52 59 3d 35 30 30 30 30   MAX MEMORY=50000
|   3280: 30 30 30 57 42 49 4e 41 52 59 1f 1d 05 00 33 0f   000WBINARY....3.
|   3296: 19 4d 41 58 20 4d 45 4d 4f 52 59 3d 35 30 30 30   .MAX MEMORY=5000
|   3312: 30 30 30 30 58 4e 4f 43 41 53 45 1e 1c 05 00 33   0000XNOCASE....3
|   3328: 0f 17 4d 41 58 20 4d 45 4d 4f 52 59 3d 35 30 30   ..MAX MEMORY=500
|   3344: 30 30 30 30 30 58 52 54 52 49 4d 18 1b 05 00 25   00000XRTRIM....%
|   3360: 0f 19 45 4e 41 42 4c 45 20 52 54 52 45 45 58 42   ..ENABLE RTREEXB
|   3376: 49 4e 41 52 59 18 1a 05 00 25 0f 19 45 4e 41 42   INARY....%..ENAB
|   3392: 4c 45 20 52 54 52 45 45 59 4e 4f 43 41 53 45 17   LE RTREEYNOCASE.
|   3408: 19 05 00 25 0f 17 45 4e 41 42 4c 45 20 52 54 52   ...%..ENABLE RTR
|   3424: 45 45 58 52 54 52 49 4d 1a 18 05 00 29 0f 19 45   EEXRTRIM....)..E
|   3440: 4e 41 42 4c 45 20 4d 45 4d 53 59 53 35 58 42 49   NABLE MEMSYS5XBI
|   3456: 4e 41 52 59 1a 17 05 00 29 0f 19 45 4e 41 42 4c   NARY....)..ENABL
|   3472: 45 20 4d 45 4d 53 59 53 35 58 4e 4f 43 41 53 45   E MEMSYS5XNOCASE
|   3488: 19 16 05 00 29 0f 17 45 4e 41 42 4c 45 20 4d 45   ....)..ENABLE ME
|   3504: 4d 53 59 53 35 58 52 54 52 49 4d 18 15 05 00 25   MSYS5XRTRIM....%
|   3520: 0f 19 45 4e 41 42 4c 45 20 4a 53 4f 4e 31 58 42   ..ENABLE JSON1XB
|   3536: 49 4e 41 52 59 18 14 05 00 25 0f 19 45 4e 41 42   INARY....%..ENAB
|   3552: 4c 45 20 4a 53 4f 4e 31 58 4e 4f 43 41 53 45 17   LE JSON1XNOCASE.
|   3568: 13 05 00 25 0f 17 45 4e 41 42 4c 45 20 4a 53 4f   ...%..ENABLE JSO
|   3584: 4e 31 58 52 54 52 49 4d 1a 12 05 00 29 0f 19 45   N1XRTRIM....)..E
|   3600: 4e 41 42 4c 45 20 47 45 4f 50 4f 4c 59 58 42 49   NABLE GEOPOLYXBI
|   3616: 4e 41 52 59 1a 11 05 00 29 0f 19 45 4f 41 42 4c   NARY....)..EOABL
|   3632: 45 20 47 45 4f 50 4f 4c 59 58 4e 4f 43 51 53 45   E GEOPOLYXNOCQSE
|   3648: 19 10 05 00 29 0f 17 45 4e 41 42 4c 45 20 47 45   ....)..ENABLE GE
|   3664: 4f 50 4f 4c 59 58 52 54 52 49 4d 17 0f 05 00 23   OPOLYXRTRIM....#
|   3680: 0f 19 45 4e 41 42 4c 45 20 46 54 53 35 58 42 49   ..ENABLE FTS5XBI
|   3696: 4e 41 52 59 17 0e 05 00 23 0f 19 45 4e 41 42 4c   NARY....#..ENABL
|   3712: 45 20 46 54 53 35 58 4e 4f 43 41 53 45 16 1d 05   E FTS5XNOCASE...
|   3728: 00 23 0f a4 45 4e 41 42 4c 45 20 46 54 53 35 58   .#..ENABLE FTS5X
|   3744: 52 54 52 49 4d 17 0c 05 00 23 0f 19 45 4e 41 42   RTRIM....#..ENAB
|   3760: 4c 45 20 46 55 53 34 58 42 49 4e 41 52 59 17 0b   LE FUS4XBINARY..
|   3776: 05 00 23 0f 19 45 4e 41 42 4c 45 20 46 54 53 34   ..#..ENABLE FTS4
|   3792: 58 4e 4f 43 41 53 45 16 0a 05 00 23 0f 17 45 4e   XNOCASE....#..EN
|   3808: 41 42 4c 45 20 46 54 53 34 58 52 54 52 49 4d 1e   ABLE FTS4XRTRIM.
|   3824: 09 05 00 31 0f 19 45 4e 41 42 4c 45 20 44 42 53   ...1..ENABLE DBS
|   3840: 54 41 54 20 56 54 41 42 58 42 49 4e 41 52 59 1e   TAT VTABXBINARY.
|   3856: 08 05 00 31 0f 19 45 4e 41 42 4c 45 20 44 42 53   ...1..ENABLE DBS
|   3872: 54 41 54 20 56 54 41 42 58 4e 4f 43 41 53 45 1d   TAT VTABXNOCASE.
|   3888: 07 05 00 31 0f 17 45 4e 41 42 4c 45 20 44 42 53   ...1..ENABLE DBS
|   3904: 54 41 54 20 56 54 41 42 58 52 54 52 49 4d 11 06   TAT VTABXRTRIM..
|   3920: 05 00 17 0f 19 44 45 42 55 47 58 42 49 4e 41 52   .....DEBUGXBINAR
|   3936: 59 11 05 05 00 17 0f 19 44 45 42 55 47 58 4e 4f   Y.......DEBUGXNO
|   3952: 43 41 53 45 10 04 05 00 17 0f 17 44 45 42 55 47   CASE.......DEBUG
|   3968: 58 52 54 52 49 4d 27 03 05 00 43 0f 19 43 4f 4d   XRTRIM'...C..COM
|   3984: 50 49 4c 45 52 3d 67 63 63 2d 35 2e 34 2e 30 20   PILER=gcc-5.4.0 
|   4000: 32 30 31 36 30 36 30 39 58 42 49 4e 41 52 59 27   20160609XBINARY'
|   4016: 02 05 00 43 0f 19 43 4f 4d 50 49 4c 45 52 3d 67   ...C..COMPILER=g
|   4032: 63 63 2d 35 2e 34 2e 30 20 32 30 31 36 30 00 00   cc-5.4.0 20160..
|   4048: 00 11 09 00 00 00 10 08 00 00 00 0f 07 00 00 00   ................
|   4064: 0e 06 00 00 00 0d 05 00 00 00 0c 04 00 00 00 0b   ................
|   4080: 03 00 00 00 0a 02 00 00 00 09 01 00 00 00 02 00   ................
| page 6 offset 20480
|      0: 0d 0f b0 00 25 0e bc 03 0e d7 0e ce 0f f0 0e c5   ....%...........
|     16: 0f e7 0f de 0f d5 0f cc 0f c3 0e bc 0f b7 0f a8   ................
|     32: 0f a0 0f 98 0f 90 0f 88 0f 80 0f 78 0f 70 0f 68   ...........x.p.h
|     48: 0f 60 0f 58 0f 50 0f 48 0f 40 0f 38 0f 30 0f 28   .`.X.P.H.@.8.0.(
|     64: 0f 20 0f 18 0f 10 0f 08 0f 00 0e f8 0e 00 00 00   . ..............
|   3760: 00 00 00 00 00 00 00 00 00 00 00 00 07 09 03 00   ................
|   3776: 14 84 6b 00 00 07 03 03 00 14 84 5b 00 00 07 02   ..k........[....
|   3792: 03 00 14 84 63 00 00 07 01 03 00 14 85 07 00 00   ....c...........
|   3808: 06 24 03 00 12 02 01 01 06 23 03 00 12 02 01 01   .$.......#......
|   3824: 06 22 03 00 12 02 01 01 06 21 03 00 12 03 01 01   .........!......
|   3840: 06 20 03 00 12 03 01 01 06 1f 03 00 12 03 01 01   . ..............
|   3856: 06 1e 03 00 12 03 01 01 06 1d 03 00 12 03 01 01   ................
|   3872: 06 1c 03 00 12 03 01 01 06 1b 03 00 12 02 01 01   ................
|   3888: 06 1a 03 00 12 02 01 01 06 19 03 00 12 02 01 01   ................
|   3904: 06 18 03 00 12 02 01 01 06 17 03 00 12 02 01 01   ................
|   3920: 06 16 03 00 12 02 01 01 06 15 03 00 12 02 01 01   ................
|   3936: 06 14 03 00 12 02 01 01 06 13 03 00 12 02 01 01   ................
|   3952: 06 12 03 00 12 02 01 01 06 11 03 00 12 02 01 01   ................
|   3968: 06 00 03 00 12 02 01 01 06 0f 03 00 12 02 01 01   ................
|   3984: 06 0e 03 00 12 02 01 01 06 0d 03 00 12 02 01 01   ................
|   4000: 06 0c 03 00 12 02 01 01 06 0b 03 00 12 02 01 01   ................
|   4016: 0f f8 00 07 12 02 01 07 0a 03 00 14 85 05 00 00   ................
|   4032: 0f f8 00 07 08 03 00 14 84 73 00 00 07 07 03 00   .........s......
|   4048: 14 85 0b 00 00 07 06 03 00 14 85 02 00 00 07 05   ................
|   4064: 03 00 14 84 70 00 00 07 04 03 00 14 84 7e 00 00   ....p........~..
|   4080: 06 de 03 00 12 06 01 01 00 00 00 08 12 06 01 01   ................
| page 7 offset 24576
|      0: 0a 00 00 00 01 0f f4 00 0f f4 00 00 00 00 00 00   ................
|   4080: 00 00 00 00 0b 03 1b 01 76 65 72 73 69 6f 6e 04   ........version.
| page 8 offset 28672
|      0: 0d 00 00 00 03 0f d6 00 0f f4 0f e9 0f d6 00 01   ................
|   4048: 00 00 00 00 00 00 11 03 02 2b 69 6e 74 65 67 72   .........+integr
|   4064: 69 74 79 2d 63 68 65 63 6b 09 02 02 1b 72 65 62   ity-check....reb
|   4080: 75 69 6c 64 0a 01 02 1d 6f 70 74 69 00 00 00 00   uild....opti....
| page 9 offset 32768
|      0: 0d 00 00 00 01 04 3f 00 04 3f 00 00 00 00 00 00   ......?..?......
|   1072: 00 00 00 00 00 00 00 00 00 00 00 00 00 00 00 97   ................
|   1088: 3e 01 06 00 ae 7c 00 00 ee a4 ad af cf 26 bc c7   >....|.......&..
|   1104: a8 a1 59 d7 43 c2 93 4f ad 82 19 2e 25 e1 97 f9   ..Y.C..O....%...
|   1120: 21 59 34 ce e8 b2 e2 3c 4b f2 b4 ee 6b 35 84 c3   !Y4....<K...k5..
|   1136: d7 a0 6c e4 36 57 6f 0b d4 6d d9 cb b4 42 69 b6   ..l.6Wo..m...Bi.
|   1152: c4 a6 c8 53 85 27 5f ee 81 66 da 94 e8 ee af 44   ...S.'_..f.....D
|   1168: ef 8d 32 9c a7 2b 79 73 fe 68 c0 d0 0f 49 48 82   ..2..+ys.h...IH.
|   1184: 6f 6e 0d 23 9c c1 38 27 61 94 31 e5 2d 04 ad 20   on.#..8'a.1.-.. 
|   1200: d1 db 69 b9 b2 4a 09 71 0a 98 82 28 0d 11 82 6e   ..i..J.q...(...n
|   1216: dd b1 ca b2 50 7b 04 0a f0 01 f6 c5 3c 31 43 d7   ....P.......<1C.
|   1232: 1b 7a 13 b9 9b 03 02 98 ca 31 6c f1 a4 03 71 1e   .z.......1l...q.
|   1248: 37 38 b4 19 d5 ee bd 6e 6c 22 44 10 19 b4 80 b7   78.....nl.D.....
|   1264: 87 68 cb 1d 67 d8 b9 1d 59 5b 78 c0 d5 3c 55 2c   .h..g...Y[x..<U,
|   1280: 98 8e e1 73 0f 33 2f 46 f0 4c b5 ed 2f ba 23 92   ...s.3/F.L../.#.
|   1296: 74 f2 80 14 7c ec 00 54 e5 0b a6 5f 2a 31 00 8c   t...|..T..._*1..
|   1312: ce 19 8d 97 28 24 6b b3 ec b3 fc 25 1c 13 98 f7   ....($k....%....
|   1328: 18 dd 8a 9a 6a 8e d2 c1 4a 75 9e 85 dd a0 79 c9   ....j...Ju....y.
|   1344: a8 75 b4 f0 75 01 6f 53 c5 2b 9d f7 49 f1 0f f5   .u..u.oS.+..I...
|   1360: 95 89 08 0a 9d 73 2e 9e 2e c0 be e9 80 7f c3 ff   .....s..........
|   1376: 43 f4 60 08 e5 8d 57 64 e5 42 73 ab b2 8f 05 74   C.`...Wd.Bs....t
|   1392: 22 53 26 52 1e 35 6e b6 22 d5 d6 ae 5d 5b ad bf   .S&R.5n.....][..
|   1408: 89 00 25 26 d8 65 26 4b 52 11 c0 19 a3 92 f1 45   ..%&.e&KR......E
|   1424: 78 c8 70 af 1f 34 73 12 51 be ca cd c5 d6 09 13   x.p..4s.Q.......
|   1440: dc ec 57 80 9a de 2c 74 b7 cb e1 63 fd e5 0d 9b   ..W...,t...c....
|   1456: 17 93 41 74 18 b5 cd 87 69 d5 b1 30 d1 bb 6e ce   ..At....i..0..n.
|   1472: 54 75 8f 00 44 bb 97 6d b0 04 db a6 18 8c 8a 39   Tu..D..m.......9
|   1488: 3a d9 79 14 36 8b 4e c9 76 6a 11 00 bd f6 6e d0   :.y.6.N.vj....n.
|   1504: b2 b2 4c c0 8d 79 b8 27 2c 34 c3 bc f9 b0 52 a3   ..L..y.',4....R.
|   1520: 7a 24 31 e7 db db 7d ee 2a 51 d0 c7 51 4e 5d dc   z$1.....*Q..QN].
|   1536: 52 c4 8d ac 38 b8 84 d5 bc fe 96 c4 80 bb 5c e1   R...8...........
|   1552: 57 95 e8 7b 94 94 a1 0a e1 df c7 41 c5 29 c1 46   W..........A.).F
|   1568: 94 53 cb 26 fa 3d ee 2a 93 64 89 33 41 33 fb 95   .S.&.=.*.d.3A3..
|   1584: 42 9c dc 8e ee 15 19 7a 7b a6 92 0b aa 66 dc 0e   B......z.....f..
|   1600: b6 ef ad 5d 4f 93 ef cc ac a9 59 55 f9 ea 1e 45   ...]O.....YU...E
|   1616: bc 4f 92 d2 35 41 34 91 21 14 73 b0 3a 4e 36 2a   .O..5A4.!.s.:N6*
|   1632: 11 06 e1 23 ef 13 30 05 20 ae 45 0d b4 75 df ed   ...#..0. .E..u..
|   1648: 95 73 2f c7 a1 a8 ee eb 7d ad 41 ff 8b 2b 08 4e   .s/.......A..+.N
|   1664: ca e9 6f 1d 11 43 d4 a7 e0 85 75 ae 07 21 af 07   ..o..C....u..!..
|   1680: 58 42 1b 7e 02 85 95 16 76 c2 f5 9d 6f 90 c0 d7   XB.~....v...o...
|   1696: ab cb 49 cd 3f 20 43 07 7c 9e b3 be b9 fa 62 64   ..I.? C.|.....bd
|   1712: 2a 7c dc f6 d2 0e 01 ec 99 d3 00 1a 63 7d 4a a3   *|..........c.J.
|   1728: 16 fd c1 fa f8 c9 59 71 eb 15 09 41 2b 72 4a 67   ......Yq...A+rJg
|   1744: c5 65 14 70 ba fc 4c 30 d6 1c 6c 41 c1 8d 93 49   .e.p..L0..lA...I
|   1760: c5 26 be 91 81 e8 ad f3 34 58 c3 f2 51 aa 4a 88   .&......4X..Q.J.
|   1776: ee e5 86 a9 bd 11 5f 3e fe 40 e4 ed 72 18 8b 83   ......_>.@..r...
|   1792: 8d 30 50 e6 54 9d 62 0d 11 b0 80 ad 64 44 7f 82   .0P.T.b.....dD..
|   1808: 9a 61 c7 d5 f1 6b 34 2b ec bf 1a ee 5f bf 10 fe   .a...k4+...._...
|   1824: 0f 9e 42 3d 34 1e ff 00 82 db 52 e0 65 d1 d7 0d   ..B=4.....R.e...
|   1840: 77 fb 84 5c ec c3 b7 72 cf 21 26 40 85 20 f4 78   w......r.!&@. .x
|   1856: 6a f2 f4 52 8a c8 cd d9 99 73 8f 65 f5 f5 a8 af   j..R.....s.e....
|   1872: 75 bd a0 c6 ff 1a bf 64 53 01 4e ed be 22 95 1a   u......dS.N.....
|   1888: 57 06 21 1d f3 f3 97 4f c7 de 83 ab 80 40 c4 02   W.!....O.....@..
|   1904: 12 65 0d d5 55 87 6f 33 a1 b9 45 86 56 aa df fc   .e..U.o3..E.V...
|   1920: 24 e6 70 37 c3 e8 bc b6 b6 e1 02 29 dc ba 7e 16   $.p7.......)..~.
|   1936: e9 52 3b 9d e7 f8 d9 d1 5c b2 db 4c 18 29 56 80   .R;........L.)V.
|   1952: f0 f1 b4 07 34 30 2c 2f ee f6 a5 80 f7 a0 b6 7c   ....40,/.......|
|   1968: 43 e7 6f e2 a9 87 21 a2 96 82 d7 17 55 4d 33 ff   C.o...!.....UM3.
|   1984: 78 75 40 fe db de 63 c3 b5 45 c8 37 40 97 f8 68   xu@...c..E.7@..h
|   2000: b3 03 46 2d 50 1e 2b b0 90 23 09 47 f5 05 db 9c   ..F-P.+..#.G....
|   2016: 23 71 b1 12 e4 b2 ff 41 b4 1f e3 bb 3c 50 d2 ab   #q.....A....<P..
|   2032: ab cc 8c 8d ea 81 3b 9f 05 58 30 2b 27 23 8b 02   ......;..X0+'#..
|   2048: c2 c2 7a 00 a4 a8 56 ea 20 a7 9d 06 7b 36 e8 71   ..z...V. ....6.q
|   2064: 60 5c 75 98 22 1b 4b 04 b7 ef a0 a1 bb c6 11 12   `.u...K.........
|   2080: 52 10 ee 98 be 78 23 ab 07 60 c8 fe 9f 3e fd a4   R....x#..`...>..
|   2096: 24 2d b9 ba ec 3d e0 88 60 b2 9d 02 07 86 97 13   $-...=..`.......
|   2112: e9 c5 64 c8 0f 03 e1 1b 12 0b ff 39 e1 49 95 fa   ..d........9.I..
|   2128: 6f c3 63 4a 7c 86 38 66 95 b3 57 0b 95 96 c5 e5   o.cJ|.8f..W.....
|   2144: 55 3b 4b 58 d2 59 89 fa 70 40 b5 59 a1 b9 9e 46   U;KX.Y..p@.Y...F
|   2160: ec 3a 5a c8 6d fb ac da d0 62 f6 fb 8c 26 ff 3e   .:Z.m....b...&.>
|   2176: fb 54 69 ca 27 4b b5 a3 d1 27 f4 f5 2e d4 26 5a   .Ti.'K...'....&Z
|   2192: 0b 3e d6 f4 11 b9 ae fd 42 65 08 6f c1 83 51 1a   .>......Be.o..Q.
|   2208: 98 bc ad a9 77 8c da ef 70 dd 9b 6e e6 89 a0 75   ....w...p..n...u
|   2224: 5b c5 14 70 9c 3c 8d 99 b5 83 59 1e 77 0f 16 5e   [..p.<....Y.w..^
|   2240: 38 44 b9 da 9c c0 f0 61 23 5a 67 0e 43 48 81 ff   8D.....a#Zg.CH..
|   2256: 50 9b 2a 36 d1 18 7e bb d2 4e 83 45 07 f8 35 5f   P.*6..~..N.E..5_
|   2272: a4 8a af 12 ab 91 3e 4f 4f 40 32 3f 7e fc 06 6a   ......>OO@2?~..j
|   2288: c4 de 5e aa 2a a5 21 ba 14 51 28 65 c9 9e ef 7c   ..^.*.!..Q(e...|
|   2304: 6a 65 67 fc 11 23 1d 76 e3 be e3 10 7a 34 b8 ef   jeg..#.v....z4..
|   2320: 37 b8 ba 9c 1a 13 c7 e1 91 c9 06 ad 98 3c 4b ea   7............<K.
|   2336: 86 b3 bb ca 72 14 06 52 1e 3c ff 5e 6a fd 63 f9   ....r..R.<.^j.c.
|   2352: dc 03 ee 42 75 32 c7 09 cd b8 03 d9 a7 4a 61 5c   ...Bu2.......Ja.
|   2368: 04 50 25 45 05 dc 55 57 bf 6e 48 19 e1 c3 bd f8   .P%E..UW.nH.....
|   2384: 0e fa 7f 4b 6d 6a da e6 94 2b f3 bc 7b e6 cc 2e   ...Kmj...+......
|   2400: 6d 57 b8 e2 bc 05 05 68 16 af 37 12 5e 79 e3 05   mW.....h..7.^y..
|   2416: bd 32 ce d4 0c 25 c3 ab aa e6 ef c1 8c d0 c8 76   .2...%.........v
|   2432: 58 76 76 d2 4e db 37 d4 09 c3 21 53 3c 90 27 60   Xvv.N.7...!S<.'`
|   2448: ff a9 f2 18 fe 46 5c 29 4b 43 df f2 7e 06 15 28   .....F.)KC..~..(
|   2464: 4b 4f e4 aa 52 33 fd 11 f5 f1 8a 0b 3d 59 7e 88   KO..R3......=Y~.
|   2480: 0c 62 5e ad df f9 f1 31 d6 b2 d4 5f 9d 44 6b 8e   .b^....1..._.Dk.
|   2496: b6 02 b4 70 70 e1 9b 7e 7e 49 f5 20 a8 ad 83 04   ...pp..~~I. ....
|   2512: 1c 08 d0 2f 1e df 36 b0 b5 95 e2 4c 55 cd a2 e4   .../..6....LU...
|   2528: 2e 68 fb b8 66 70 85 de 89 8c a8 61 e9 53 05 86   .h..fp.....a.S..
|   2544: b0 4c 27 8b 43 4b c2 cb a1 6a ea 28 37 82 30 b7   .L'.CK...j.(7.0.
|   2560: 72 d7 e3 9a d3 cd fd 9a a0 5f 30 3e fe a4 c0 0f   r........_0>....
|   2576: 93 1b 7c 28 fb 53 bc b2 13 2d 8e 22 50 97 4c cf   ..|(.S...-..P.L.
|   2592: 06 f1 ac 55 9d c8 ce cd 59 74 9c af 7b bd 6f 7c   ...U....Yt....o|
|   2608: a5 b3 a4 87 6a 67 22 f1 82 5b 3e 9e 76 b0 2f d6   ....jg...[>.v./.
|   2624: f6 6d 7a c0 f5 8f 06 c2 5b 09 0f b5 df b9 d7 c2   .mz.....[.......
|   2640: be 51 e0 5e 5a 0a 79 62 3a 3c c8 a1 50 0d a3 36   .Q.^Z.yb:<..P..6
|   2656: e1 7d 61 4a 1b af f0 42 20 dc 10 a9 13 3d 2b 46   ..aJ...B ....=+F
|   2672: 16 98 d1 24 a8 a1 1a c8 88 0d 63 23 2b 23 b3 8d   ...$......c#+#..
|   2688: 19 13 f9 4c 76 0b 48 40 bb 02 db 1a 54 e8 ea f4   ...Lv.H@....T...
|   2704: f4 57 25 0d 50 1d 31 af 74 00 d8 f4 22 d9 53 e8   .W%.P.1.t.....S.
|   2720: 35 ae 1c c6 82 18 06 4f b6 f3 e8 2c 15 1c 38 1c   5......O...,..8.
|   2736: 5c 47 24 f4 49 44 ef a6 cc de 85 0d 61 aa f6 4f   .G$.ID......a..O
|   2752: 18 4b 23 7e ca dd 04 7a 7f 6c d0 70 59 05 0f 31   .K#~...z.l.pY..1
|   2768: de 19 71 96 7a 1b 93 a2 20 18 d6 a6 f2 8d 28 1d   ..q.z... .....(.
|   2784: c0 f3 a9 20 87 f7 dc 10 eb bf bc 1e cf 7a 54 a2   ... .........zT.
|   2800: 7f 96 0d 32 a9 30 30 5c 6d 31 3c 76 4d 65 1f d0   ...2.00.m1<vMe..
|   2816: 7a 9e db 78 60 bd b6 87 a2 1b 57 7c 2c f2 8e fa   z..x`.....W|,...
|   2832: a1 62 dd f2 16 9f a9 1d 39 5f 57 5d d1 01 4e 11   .b......9_W]..N.
|   2848: 83 53 88 b6 9c 02 f6 36 e9 c7 f7 e8 c3 35 a8 f6   .S.....6.....5..
|   2864: 56 10 62 a6 0e 91 0e be 95 65 87 c8 3d 98 1b 0c   V.b......e..=...
|   2880: 1f 4f 0c ef f9 0e 50 b7 6a 8b a0 07 02 f2 04 1a   .O....P.j.......
|   2896: e0 e2 d9 61 41 96 af 60 78 68 b8 4d 4e 8d 90 26   ...aA..`xh.MN..&
|   2912: 6f b7 24 3e 22 18 3d e4 94 cf bd da de 55 53 4a   o.$>..=......USJ
|   2928: 53 80 b1 9e 23 83 49 1a e0 22 9f 5c f3 df 87 d8   S...#.I.........
|   2944: 6f 45 ff 9b 8a 69 80 95 f8 ca bc 5c 0c b1 46 04   oE...i........F.
|   2960: 7e d7 61 72 d8 bf a1 b6 bc b3 48 c7 c2 b3 9d 7c   ~.ar......H....|
|   2976: de fb a4 0a 04 2f 97 99 eb ca 8c b5 39 fc 2b 45   ...../......9.+E
|   2992: 69 7f a9 70 c6 73 a1 22 71 b0 0d 53 0c f4 c7 68   i..p.s..q..S...h
|   3008: 85 ec 11 44 0b f9 b7 3b ff b7 91 1b fb bd bf e1   ...D...;........
|   3024: 01 90 4c 74 35 f3 ac 5a 70 bd e1 4e bb fd a8 dc   ..Lt5..Zp..N....
|   3040: 4d 38 c4 68 a8 e1 8f d1 69 b8 7a 20 b6 5c ed 2b   M8.h....i.z ...+
|   3056: e8 20 dc 0f 7e 29 3e 5f 83 76 e2 d9 b1 c0 07 66   . ..~)>_.v.....f
|   3072: cd a2 d4 57 bc 27 ff 1d 16 7a 11 d6 3d df 04 89   ...W.'...z..=...
|   3088: 45 91 e5 37 62 51 5a e6 0f 0d b8 e9 1a 43 e4 c3   E..7bQZ......C..
|   3104: 47 94 bf 16 fb 8c e2 f7 b8 c8 7f 7f 34 3b a3 fa   G...........4;..
|   3120: 4f 39 b3 89 ee 7a 1b 80 a6 04 46 24 7f 0c d2 48   O9...z....F$...H
|   3136: b4 cb a2 df 5c af 55 11 a5 c6 f6 de 6a a4 0f dc   ......U.....j...
|   3152: ae 12 98 11 9e 95 e2 b1 a6 c2 67 bb 37 ea e8 8e   ..........g.7...
|   3168: d1 6f 6c 7a 3a 13 5e 1c 31 92 7e 24 72 b0 f5 b6   .olz:.^.1.~$r...
|   3184: f5 db 3e b9 3b 2a 18 da 93 29 da 2c be 4a de c6   ..>.;*...).,.J..
|   3200: 6c 55 a0 3e 47 25 76 5c 73 08 99 17 87 e9 30 0e   lU.>G%v.s.....0.
|   3216: 91 a8 cd da 9a cd 90 8b 2d 5f 0e 88 7c a7 00 42   ........-_..|..B
|   3232: 84 bd 59 1b ce fa 76 27 33 78 c1 a4 0d 29 98 45   ..Y...v'3x...).E
|   3248: d1 7f b6 7d 56 f6 67 fe 78 ae 83 03 39 66 ce 5a   ....V.g.x...9f.Z
|   3264: 62 a1 e3 c5 fd 29 53 06 6e cd ff 0e 5a 95 ca 91   b....)S.n...Z...
|   3280: 1b 24 0d 42 ec e2 24 8a 01 ff 12 0b bf b1 18 74   .$.B..$........t
|   3296: 77 2d f5 9e 0a 74 e6 d4 7d 1c c1 53 d9 f5 65 9c   w-...t.....S..e.
|   3312: 40 6d 8f a9 f6 7b b0 96 37 71 c2 96 8c 90 f8 29   @m......7q.....)
|   3328: 07 10 c7 2d f5 1d 80 dc 96 b7 25 65 a6 a2 ff ba   ...-......%e....
|   3344: 5d 1e c1 0d ed b1 6a 83 20 6d 06 28 6d 54 8c 88   ].....j. m.(mT..
|   3360: 08 02 3d cf f6 79 81 f1 36 3b f0 6e e6 80 39 43   ..=..y..6;.n..9C
|   3376: 64 d6 4a 24 8b 3d 21 41 a9 48 d2 36 65 2f 5a 71   d.J$.=!A.H.6e/Zq
|   3392: eb 6f 2b 47 78 2d 8c 28 91 60 25 3c 35 81 5b 1d   .o+Gx-.(.`%<5.[.
|   3408: b7 36 34 71 4c 38 f2 29 7e f5 a8 45 71 95 78 19   .64qL8.)~..Eq.x.
|   3424: 00 e8 87 4d da 50 78 5e f7 dc aa 2d 15 92 49 d8   ...M.Px^...-..I.
|   3440: 4e af 77 30 bd ad 22 1b 6a 84 ff 78 6d 37 cf 1b   N.w0....j..xm7..
|   3456: 8a d9 81 dd 34 15 a7 3a c0 53 d6 ab 5a 38 ec 69   ....4..:.S..Z8.i
|   3472: 6a 88 64 8c a6 ce 50 12 45 a1 7f a2 aa 3a a8 cf   j.d...P.E....:..
|   3488: d6 a0 80 4e d6 7a b6 50 90 64 c0 52 30 51 04 6f   ...N.z.P.d.R0Q.o
|   3504: 89 25 02 b3 54 0b fb 24 89 cf f7 98 bd 8e fc 9f   .%..T..$........
|   3520: 62 0c cd fd 57 fd ac 64 b9 2a 94 62 94 38 c6 01   b...W..d.*.b.8..
|   3536: 0c f1 b9 75 f4 3c 5d 0e d4 1f 96 b3 74 3f 96 03   ...u.<].....t?..
|   3552: 13 b6 76 32 07 e0 1f 82 d8 27 f3 e7 2e f4 60 d0   ..v2.....'....`.
|   3568: 56 a5 8f 04 37 bd 5c 17 1e 33 94 75 d8 30 59 0d   V...7....3.u.0Y.
|   3584: e5 90 f5 09 ee 5c 01 88 14 ca 69 27 08 fa e7 3c   ..........i'...<
|   3600: a2 69 df e2 be 35 44 96 b5 06 69 5c 01 3f 52 67   .i...5D...i..?Rg
|   3616: 18 d2 c9 64 a7 ba 0b 59 d8 b8 53 21 74 de 2b 21   ...d...Y..S!t.+!
|   3632: 8a 53 3d 97 14 92 77 ed 51 21 4b f0 2d 69 93 09   .S=...w.Q!K.-i..
|   3648: 57 3e 92 9f 3e 20 6c 4d bf 8b fd 4f 75 4b 19 5d   W>..> lM...OuK.]
|   3664: 48 ef 23 1e 53 11 ee 76 b7 04 08 5a c4 9a 1f 6c   H.#.S..v...Z...l
|   3680: 24 cb 15 7f 0b f7 86 8e 60 a4 8d 3c 2a fe 14 13   $.......`..<*...
|   3696: 03 28 80 fa 6b d7 1b 02 a7 0d 9e 88 4d 1f b2 a4   .(..k.......M...
|   3712: 63 c7 65 56 14 df 51 7e d3 d4 3b e3 45 e1 7a 49   c.eV..Q~..;.E.zI
|   3728: 1e 71 40 fe b7 ae 65 10 b1 27 3a 02 31 21 47 11   .q@...e..':.1!G.
|   3744: d9 fc 9c 32 e5 c8 40 0d b6 4b 02 ed bc da 4c 98   ...2..@..K....L.
|   3760: 35 2c d5 9e 6f b3 42 c7 8e 0a c7 fa ae ff 36 5b   5,..o.B.......6[
|   3776: 76 08 69 3e 3c cd 4d eb 6f 0c a0 f6 23 93 a6 bb   v.i><.M.o...#...
|   3792: 2f ed 44 64 22 df e8 6b 21 68 5b 35 d6 8f 68 c5   /.Dd...k!h[5..h.
|   3808: 15 1f 46 fd 12 bc b5 b5 3e a7 e4 9b b2 83 f4 12   ..F.....>.......
|   3824: ea bb 50 84 f4 40 96 c4 64 30 d8 fe 74 5b f2 ba   ..P..@..d0..t[..
|   3840: 9a 64 23 67 4a 3d 7e 54 da 8f 39 18 df 31 88 23   .d#gJ=~T..9..1.#
|   3856: d6 80 5f e9 10 9f 37 22 6f 4a 21 13 20 13 fc 66   .._...7.oJ!. ..f
|   3872: fc 4b db a8 d9 aa 55 01 48 3e 8c ac bf 16 fc 62   .K....U.H>.....b
|   3888: 95 2c 44 1f 27 bf 7b 45 7d 28 55 14 1f ed 56 ed   .,D.'..E.(U...V.
|   3904: 24 5b 11 ff be a0 7a 20 3b 3e 9c 2c e6 d6 b0 ef   $[....z ;>.,....
|   3920: b4 df 16 73 f2 d3 a9 90 2b 54 c7 7a fa 25 e7 ee   ...s....+T.z.%..
|   3936: da 99 8d d7 b5 7d 0f 72 c7 61 75 d1 d7 23 dd 41   .......r.au..#.A
|   3952: 1e 46 ee ef 41 86 00 9f 1c 47 36 75 95 f6 1d 89   .F..A....G6u....
|   3968: 13 c0 75 f8 cc 5e 08 93 e4 de a8 ee d2 ce c2 32   ..u..^.........2
|   3984: e4 16 b0 c8 82 c1 2a 74 ed 5c 5f c1 99 f7 07 a7   ......*t.._.....
|   4000: b3 50 21 87 a1 43 dc 17 4f 2d 47 e0 be 53 ad 17   .P!..C..O-G..S..
|   4016: f9 09 67 d1 4f 1f 72 17 62 b7 03 fa cd de 3e a7   ..g.O.r.b.....>.
|   4032: 25 a9 e7 a0 e2 3d a3 6b 2b 34 3f 55 46 18 df ef   %....=.k+4?UF...
|   4048: 16 0a ce c8 67 58 eb 64 eb 7e a3 5b 4e 85 49 64   ....gX.d.~.[N.Id
|   4064: d7 f9 ec 0d 4d b6 1d 49 bb 93 e9 79 3d e1 f9 ad   ....M..I...y=...
|   4080: 6d c0 45 9c 46 26 21 41 10 dd 4a 12 fc 28 f4 cc   m.E.F&!A..J..(..
| page 10 offset 36864
|      0: 0d 00 00 00 01 04 3f 00 04 3f 00 00 00 00 00 00   ......?..?......
|   1072: 00 00 00 00 00 00 00 00 00 00 00 00 00 00 00 97   ................
|   1088: 3e 02 06 00 ae 7c 00 00 9a 84 85 31 87 79 cc e4   >....|.....1.y..
|   1104: 12 98 6f 2c 46 b6 5d 4e d9 5c ba 21 2f cf 51 9d   ..o,F.]N...!/.Q.
|   1120: 9f 8c 48 7d 5a 15 ae 1c 54 d7 f0 7f a2 e6 cc fd   ..H.Z...T.......
|   1136: ad e6 3c d5 e5 98 5d f2 64 82 5b 9e 6c d6 05 8f   ..<...].d.[.l...
|   1152: de fb 33 3a 37 b3 1d 58 04 47 13 cd d9 39 17 a9   ..3:7..X.G...9..
|   1168: a7 14 f1 fe c8 3b 21 40 a8 22 f5 3b 64 74 14 dc   .....;!@...;dt..
|   1184: c5 9e 99 8b f3 d4 5f 1a e8 1d 93 98 9e 00 7d ee   ......_.........
|   1200: 9f 0f 49 b5 af 12 7e 47 8e fe 5f 70 a1 9c 32 ae   ..I...~G.._p..2.
|   1216: d1 23 33 d1 c0 65 b6 8e 5a 4a 03 2f 74 27 0f 3d   .#3..e..ZJ./t'.=
|   1232: 3f 42 0d 03 5f 6c ef 2c 54 6a bd ec 88 eb cd 1f   ?B.._l.,Tj......
|   1248: dd 03 9c 06 18 8e a4 c1 a5 3c ec 9d 68 da d9 d3   .........<..h...
|   1264: d8 8f ba 16 95 fd 94 ed 19 2b 2f 5e 0e a5 fa de   .........+/^....
|   1280: dc c5 a0 a2 d4 31 0f dc f5 8b 4a 28 4f 6f 9f ff   .....1....J(Oo..
|   1296: 7f e6 d4 d0 08 7e 5c 76 9a 3a ea 0e ea b4 9d 45   .....~.v.:.....E
|   1312: 4b db 96 ed 27 ad a8 09 63 3c d0 1d d9 b1 dc 94   K...'...c<......
|   1328: 6a 8e e7 6a 9b 6e d1 8b f7 c8 60 1c 85 e9 a2 3e   j..j.n....`....>
|   1344: 0c b6 2f 40 b0 2e b6 53 8f 94 74 6b 39 13 fd c9   ../@...S..tk9...
|   1360: 44 77 64 7c 62 e0 51 2e 04 0f 6a 99 5e 68 6f 72   Dwd|b.Q...j.^hor
|   1376: 08 92 02 bf 36 78 0c 98 c3 3f 3d e3 ac a4 2d 3b   ....6x...?=...-;
|   1392: d7 51 cf f9 25 72 59 36 b0 ea 51 a1 9c bf 13 f1   .Q..%rY6..Q.....
|   1408: dc f5 36 f0 d9 83 fe 0a ff b5 00 ab 5b 4e 0b 33   ..6.........[N.3
|   1424: 0a a1 fa c1 02 c8 7a af 00 30 54 d3 6e a8 37 b4   ......z..0T.n.7.
|   1440: 02 88 16 41 95 86 1f 36 e0 98 43 d5 55 57 c6 5e   ...A...6..C.UW.^
|   1456: 0d 10 40 fd 3d 85 a1 5f 19 3f 18 87 11 d9 6a ca   ..@.=.._.?....j.
|   1472: 8b 5c 14 cc 64 48 b9 42 71 61 30 ca 0d 2c a5 67   ....dH.Bqa0..,.g
|   1488: 6b 4f 5b 34 1b f3 7b a1 1f ed e4 3b ef 68 27 00   kO[4.......;.h'.
|   1504: f3 8a 27 ff de 2e 07 ab 03 b1 5b b9 c3 84 53 f1   ..'.......[...S.
|   1520: d0 c5 8c 65 50 4b 7a 35 06 0c d5 2a ce 4c b9 02   ...ePKz5...*.L..
|   1536: 7f cf 2a d9 0d 2a 1c c1 5f 94 cb 5c 05 4d 3a 7a   ..*..*.._....M:z
|   1552: aa c5 3e 4e 26 93 8a 4d 1d fc 75 23 9f b5 27 87   ..>N&..M..u#..'.
|   1568: fc f7 3d aa a6 3e 5d c3 55 63 e2 a8 2a 7b 2e 26   ..=..>].Uc..*..&
|   1584: e9 64 59 1f 2a e7 ff 7c d4 69 a6 34 bb d9 23 81   .dY.*..|.i.4..#.
|   1600: de 4b ba f3 91 cd 9a 8b 98 56 f0 b8 73 7b 83 f1   .K.......V..s...
|   1616: fc e9 5c 01 7e 74 66 d0 0c 01 79 c0 b2 49 0f 78   ....~tf...y..I.x
|   1632: 79 ef 20 96 ec cb 63 67 fe 43 a7 ea 5d af 68 12   y. ...cg.C..].h.
|   1648: 84 dc 0c 5c 31 6a 1d d6 a1 1e d4 25 a3 f0 7c 19   ....1j.....%..|.
|   1664: dc 84 4f 7b e4 5a e5 40 23 07 b3 5b 92 92 4b 3a   ..O..Z.@#..[..K:
|   1680: 0e 11 9c b4 ba d4 d1 ff 22 af cd 7d e8 86 c3 0a   ................
|   1696: 14 eb 01 13 f8 99 56 8c c6 26 55 8d a7 cc cc 00   ......V..&U.....
|   1712: 4c 16 7a 07 de 6c 69 02 e2 a1 e6 e1 d5 ff 12 f5   L.z..li.........
|   1728: ee d7 8f 90 e1 78 99 09 de 27 b8 b3 e1 7a df 8a   .....x...'...z..
|   1744: 08 cb c0 67 ff d4 48 bd 0b 4c 65 56 5a ed 02 47   ...g..H..LeVZ..G
|   1760: 1c de b7 58 7c cf 68 a4 7f e6 db 74 26 55 9c 14   ...X|.h....t&U..
|   1776: 76 5a bf f3 e1 79 23 5e 33 f8 65 13 bb 36 cc ed   vZ...y#^3.e..6..
|   1792: 9e 12 63 b2 c2 14 3f 6a 4d e3 a4 63 bf 30 0f cb   ..c...?jM..c.0..
|   1808: f2 f0 d1 81 a7 26 d7 c0 92 9f 06 79 bd a7 a0 8d   .....&.....y....
|   1824: 74 21 7b c6 46 49 5c fd 01 a6 92 56 3b eb e6 d5   t!..FI.....V;...
|   1840: b4 4d 76 2a e8 00 98 3b a3 67 a9 7d 02 25 96 3b   .Mv*...;.g...%.;
|   1856: 45 19 a0 d4 b5 67 88 cf 48 eb 1a b6 0e f3 2d 62   E....g..H.....-b
|   1872: 3e 0c fa b3 e7 a4 f1 76 d4 d7 f5 19 6f b2 9e e8   >......v....o...
|   1888: e1 a1 b7 be 3a ff 69 db eb 75 1c 0c 91 7f 02 4f   ....:.i..u.....O
|   1904: df 15 af 09 48 2c d0 86 bd b0 80 82 e7 7b 1d a6   ....H,..........
|   1920: 38 f1 24 79 d0 8e 4c 07 9f ed 9f fb 90 a1 7e fd   8.$y..L.......~.
|   1936: 50 c6 fe d3 61 04 a1 03 34 30 bd 98 db 5c 18 e3   P...a...40......
|   1952: 94 d9 ba 8f 64 f8 6b c1 21 3b 22 b7 3e 71 5a 66   ....d.k.!;..>qZf
|   1968: cf 9f 51 c4 a2 36 c8 ba c3 2a 95 2e 67 e4 87 3e   ..Q..6...*..g..>
|   1984: 07 ae 66 ad ec af c6 17 62 11 be 5f 15 fc 61 53   ..f.....b.._..aS
|   2000: 76 eb f5 78 da 32 8c fa 4e d3 cc 27 19 dc 89 fc   v..x.2..N..'....
|   2016: 37 4f 74 61 f7 5e 97 0f fe fc af aa 12 ee ea f2   7Ota.^..........
|   2032: 68 36 36 cd 7e 57 41 75 48 be cd 46 e3 cd 3a 99   h66.~WAuH..F..:.
|   2048: 31 33 9a 84 8a 83 a2 fc 85 85 3c bc cf 07 b4 6d   13........<....m
|   2064: 57 d2 c9 63 a2 9d 42 07 4e cd 65 2e 65 0a af 03   W..c..B.N.e.e...
|   2080: dc a9 98 57 b6 7f da 1d b7 3c e0 ef aa 18 eb 3f   ...W.....<.....?
|   2096: 78 f1 34 e6 bf c7 28 34 11 a7 bc b3 34 79 f2 85   x.4...(4....4y..
|   2112: ed 7d fe 38 a5 48 b3 b4 8a 0d 75 12 65 04 f8 88   ...8.H....u.e...
|   2128: 71 b9 d4 86 48 c7 ea 2f af 4d 50 b9 50 a7 17 f6   q...H../.MP.P...
|   2144: 1f a2 e1 b8 aa ed 6d 85 3a e2 91 be 94 c8 fc db   ......m.:.......
|   2160: 93 50 0e 50 7c cf 52 f7 55 81 3e 1a 59 4d a8 36   .P.P|.R.U.>.YM.6
|   2176: ee 07 f1 9e 26 4a 1e d3 0b 7d 52 e3 bc 7c 91 78   ....&J....R..|.x
|   2192: 02 48 7e b5 4c 32 1e a3 ba db 93 61 94 3b d7 22   .H~.L2.....a.;..
|   2208: 7b cb 46 5b c0 a5 1e e6 5a ed c9 82 07 48 17 d6   ..F[....Z....H..
|   2224: de 85 ca 47 e1 16 5c c8 dc 30 5e 27 65 60 a5 41   ...G.....0^'e`.A
|   2240: 46 0a 12 0e 97 63 3f 05 5f 62 83 e0 cb 72 b6 61   F....c?._b...r.a
|   2256: 6a 4c 1d 7b 09 28 75 54 1c cd 29 bc f8 71 34 56   jL...(uT..)..q4V
|   2272: d6 ac 77 34 44 0d 5f c3 0e f1 d7 b3 dc 0d 1f 85   ..w4D._.........
|   2288: e3 db 45 88 fd db ab bf a6 ff bc 08 f3 3c 00 f0   ..E..........<..
|   2304: 9f 3b 07 36 cc 37 f0 6d 14 a8 6b 69 d6 e4 3a ab   .;.6.7.m..ki..:.
|   2320: 4f 5a b5 ad 3a e5 e3 d6 1c e1 6b 15 97 69 b0 41   OZ..:.....k..i.A
|   2336: 91 09 50 02 6a 5c c1 9e fe e7 38 7e 19 8a 36 44   ..P.j.....8~..6D
|   2352: 51 04 8d 61 d9 a3 12 34 00 b2 b1 60 f3 35 eb 8a   Q..a...4...`.5..
|   2368: dc bb a1 67 48 b6 95 81 91 fe 20 dd 03 74 bb 3b   ...gH..... ..t.;
|   2384: 8c 33 58 b2 d8 55 7e 04 ea 42 6c 02 e8 26 18 19   .3X..U~..Bl..&..
|   2400: 23 15 21 a5 73 ca 08 7b dd db fb b2 12 df 6a 5a   #.!.s.........jZ
|   2416: d7 ac e4 57 61 ac 3f 81 77 df f6 a3 97 5c 69 47   ...Wa.?.w.....iG
|   2432: 5a b7 75 23 6c 60 be 97 ee b5 5d a0 c3 60 15 4a   Z.u#l`....]..`.J
|   2448: 79 eb 81 9f 2a 74 22 13 7e ca 4d 3b 19 13 62 58   y...*t..~.M;..bX
|   2464: 78 25 ca 21 c3 10 1e 96 34 82 37 6b 08 b5 9b f6   x%.!....4.7k....
|   2480: 7b 87 97 cd bf 64 67 b4 10 f6 84 16 62 74 a5 b0   .....dg.....bt..
|   2496: 1f d4 c7 1d 8c 2d b5 10 36 5b fb 06 80 fe 97 59   .....-..6[.....Y
|   2512: b6 5a 08 0f 1e ff 0f 5f bf 28 46 4b d8 84 6c ad   .Z....._.(FK..l.
|   2528: 05 c0 25 89 a9 cd 6a be a3 59 84 f0 17 1c 37 8a   ..%...j..Y....7.
|   2544: 8d 09 17 bf 7d fe 47 b4 d6 d6 56 1f d8 04 66 59   ......G...V...fY
|   2560: 2c c4 b4 91 a9 ff da 4a 9c b1 29 ff 92 db 6f 19   ,......J..)...o.
|   2576: ef eb 99 ba 6e 65 2f 6a 7f 1a cf ad a3 96 8c 1d   ....ne/j........
|   2592: 62 86 42 3e a3 64 fc e0 40 4c 7c 60 77 b5 42 68   b.B>.d..@L|`w.Bh
|   2608: 3f 09 37 68 02 75 2c 22 83 d5 04 17 eb a7 e2 71   ?.7h.u,........q
|   2624: 29 36 b7 1b c5 1f 11 ce 8d 91 5a 25 39 50 16 2b   )6........Z%9P.+
|   2640: 60 29 50 9f 17 55 b0 9b a5 92 92 f8 1b e3 9c a3   `)P..U..........
|   2656: e2 a4 cd 90 1e 21 ac 30 ac 35 de 25 30 88 6c 2c   .....!.0.5.%0.l,
|   2672: 79 ea b5 0d 58 a5 37 2b ac af 7d 1f af 32 ca 58   y...X.7+.....2.X
|   2688: 27 17 68 f2 a3 ca a6 cc b2 be 12 c1 a0 43 1e 7d   '.h..........C..
|   2704: 11 ec 8e 23 22 0a ca cd 70 d1 05 fd c0 68 92 e9   ...#....p....h..
|   2720: 1c 55 85 48 10 37 7c 02 69 bf 3f 86 cf d6 40 38   .U.H.7|.i.?...@8
|   2736: a3 9c 83 40 b8 4b 83 51 50 0d d2 b9 c3 32 09 f8   ...@.K.QP....2..
|   2752: bc 7b 9b b8 d7 2e 4f a0 96 48 a7 5a 1b c9 71 fb   ......O..H.Z..q.
|   2768: f4 2b ff 05 54 89 26 b9 6f 25 4a b9 e2 2b e8 86   .+..T.&.o%J..+..
|   2784: 43 22 f6 20 28 a9 39 d9 09 a2 dc 60 14 09 d6 0d   C.. (.9....`....
|   2800: 61 7c 15 5a 8f 3f cc 00 12 f5 e0 45 fe 14 1a cc   a|.Z.?.....E....
|   2816: 98 c4 de 48 75 12 02 2b 79 a1 4a 33 a5 7c 3d cd   ...Hu..+y.J3.|=.
|   2832: b0 5c dd 77 15 5f d9 24 b7 6b 62 80 cb 35 5c e6   ...w._.$.kb..5..
|   2848: a6 57 2e e9 00 9e 20 a9 c6 f0 63 a2 0e eb 9d f3   .W.... ...c.....
|   2864: bb 2c 56 03 68 35 53 5a fb 4f 44 8e 0f a4 9c 9a   .,V.h5SZ.OD.....
|   2880: 0d b7 2c a9 03 14 8c 51 23 21 fb fd 46 07 68 a7   ..,....Q#!..F.h.
|   2896: f3 09 25 e4 98 55 24 da 72 ee 50 00 95 04 7c 74   ..%..U$.r.P...|t
|   2912: d0 07 8b 92 f9 27 11 3e 41 b4 3e 6c aa 56 ed 54   .....'.>A.>l.V.T
|   2928: e3 40 4d 67 8b 7b 63 cd 62 37 ec e2 1b b4 f9 eb   .@Mg..c.b7......
|   2944: ca c7 6e 8a d3 7e f5 e9 e1 33 84 31 05 cb f8 e4   ..n..~...3.1....
|   2960: 02 76 c2 2c b9 00 32 5f be b5 f1 c8 78 e8 cf 22   .v.,..2_....x...
|   2976: 65 d8 2b 43 2c 2e 5d fb 2e 58 92 d2 3e 9b 7e 67   e.+C,.]..X..>.~g
|   2992: a7 3b 59 18 84 5d 61 92 ec 57 97 b6 bd e3 7b f2   .;Y..]a..W......
|   3008: ff 3b 9f 48 39 ad 10 81 51 85 7c 6b 5c b0 53 10   .;.H9...Q.|k..S.
|   3024: 60 9b 4e 0d 86 c0 31 b9 a1 95 05 f4 54 13 52 6a   `.N...1.....T.Rj
|   3040: 96 50 1b e5 f5 54 98 63 8f 07 28 cf b4 ba 9c 3b   .P...T.c..(....;
|   3056: dd 85 3c a6 15 a6 31 f6 aa 1c 3b 31 3e d9 6e c3   ..<...1...;1>.n.
|   3072: 09 74 b9 8e 59 a1 50 10 e0 f0 48 a9 f1 dd a1 ab   .t..Y.P...H.....
|   3088: b6 fc 53 9f bb 38 69 78 07 50 8c 77 cb d1 89 e2   ..S..8ix.P.w....
|   3104: cb b9 51 dc c7 2e 8a 56 47 14 67 80 eb 7a 16 f8   ..Q....VG.g..z..
|   3120: 87 89 58 d1 55 58 c5 bd 62 24 4d ef 46 9f 68 94   ..X.UX..b$M.F.h.
|   3136: 61 9a 08 81 dd dd f1 51 c6 40 63 9b a1 3c 3e 5a   a......Q.@c..<>Z
|   3152: 78 b2 10 7c a2 47 45 57 ef 98 85 82 7e 21 3b 77   x..|.GEW....~!;w
|   3168: 1e d2 fd 0d bf a5 41 6f f5 ee 4c ed 82 f3 15 ea   ......Ao..L.....
|   3184: 2e 57 5e 78 7c 22 2e a4 a6 9c 3f 50 e9 4b 02 11   .W^x|.....?P.K..
|   3200: a0 7c 5a 19 82 9b 34 13 39 32 07 f1 46 4c ad fa   .|Z...4.92..FL..
|   3216: a7 5a fa 22 5c 84 4d 8d 07 1f 17 1f 1a 49 5f fa   .Z....M......I_.
|   3232: df 22 56 ac ce 27 4d 00 a9 b0 c0 77 d8 10 56 cb   ..V..'M....w..V.
|   3248: 76 e0 c8 4a 8a d1 37 c1 cc b8 74 d3 e9 61 1b 0c   v..J..7...t..a..
|   3264: 81 7b be 3d e3 17 43 75 5c ba 6f 61 74 d4 a4 e9   ...=..Cu..oat...
|   3280: d7 0f 2f d2 bc 7d 0b 6e 32 ae fc 20 db 08 39 b5   ../....n2.. ..9.
|   3296: 8f 78 1f d6 4e 84 46 05 a3 a1 15 e8 9d 36 b1 96   .x..N.F......6..
|   3312: 3e e3 12 1b 72 28 28 e8 a5 0f e1 16 a2 31 22 48   >...r((......1.H
|   3328: 4b 77 c6 e5 3f b8 f5 bb 29 13 e1 c1 da 79 81 72   Kw..?...)....y.r
|   3344: fa 12 ab 62 da 63 ac 95 2a 1b 4a a4 4f 96 95 c0   ...b.c..*.J.O...
|   3360: 30 38 3b af 2d c5 cd aa 56 ef e4 35 1d 97 9c 3f   08;.-...V..5...?
|   3376: 57 30 2a 7a 1a 0f 4d 9e be 82 a6 fc 5e a7 9d 0d   W0*z..M.....^...
|   3392: a8 11 12 39 b5 e7 5f 8d 18 1d bb a0 2b 02 10 d3   ...9.._.....+...
|   3408: 08 3a 47 de a1 93 f3 7b b7 07 21 c2 62 22 f2 b3   .:G.......!.b...
|   3424: dd 67 9c 8c 87 59 7d 87 75 46 0c 85 64 f3 09 7f   .g...Y..uF..d...
|   3440: e2 7f ee ca c8 d2 2e 96 14 50 30 89 86 f6 ed 07   .........P0.....
|   3456: ee 9d 78 0c 84 c8 80 ee 2f d4 59 22 12 92 e9 80   ..x...../.Y.....
|   3472: 04 f5 ed aa 7a f5 cd 53 d7 de 45 a5 c3 e1 4e 9d   ....z..S..E...N.
|   3488: fb 78 98 4d cb 5b 0b bf 1b 6a bc 50 ba 45 e5 ff   .x.M.[...j.P.E..
|   3504: d7 d0 7b 39 3d 5b eb 92 46 7f bb 21 7f 81 8b da   ...9=[..F..!....
|   3520: e7 c1 e2 12 41 82 19 7a bd 78 de bc e0 51 cf a7   ....A..z.x...Q..
|   3536: 0e 20 0b 74 cb c8 fe e9 26 64 6e c4 e1 cc 3f b8   . .t....&dn...?.
|   3552: 62 a1 9b 79 bd 9f 05 21 b1 d6 93 66 6f 38 e5 df   b..y...!...fo8..
|   3568: 56 0c 57 c3 3b 57 04 79 f7 f4 b5 20 16 65 18 dc   V.W.;W.y... .e..
|   3584: a8 88 ce 1c bd 7f 40 c8 05 46 17 d7 99 a7 8e 07   ......@..F......
|   3600: b7 02 2f 8c a6 49 5a 1f ce 63 3a 66 31 c2 3b 78   ../..IZ..c:f1.;x
|   3616: 84 00 80 8e 81 43 07 3a 43 ef e4 df 33 4b 18 33   .....C.:C...3K.3
|   3632: 45 27 cc 2e e8 cf e8 be 1a 90 97 ed 99 9b b2 6f   E'.............o
|   3648: 65 ff 53 ad df f8 58 47 d9 5d 71 6a 38 e4 e8 17   e.S...XG.]qj8...
|   3664: e1 1d 4c 03 cc c1 33 18 96 3e 9c 11 98 55 8e 62   ..L...3..>...U.b
|   3680: 1a af a0 33 36 f7 0c 87 0a 0c f0 43 ff e4 71 19   ...36......C..q.
|   3696: 5a 38 f8 9d 9a 53 d4 48 ff e3 40 89 e2 18 d5 3c   Z8...S.H..@....<
|   3712: fb 2c 67 2c b9 f3 e5 d7 5c 97 e9 8f fb 3e 3e a2   .,g,.........>>.
|   3728: 22 63 47 fb d0 65 ed 87 b0 93 e4 28 e5 85 87 68   .cG..e.....(...h
|   3744: fc 0b 64 4c 5b 3c 5f 9f 40 96 d7 34 5b cb d0 a9   ..dL[<_.@..4[...
|   3760: 63 f5 f7 80 f4 67 49 1d 20 0d 84 f9 39 85 28 8b   c....gI. ...9.(.
|   3776: 78 52 fc 86 fb f8 33 cd d6 ef ef ca 32 51 98 2c   xR....3.....2Q.,
|   3792: 54 d4 2e b9 78 0c 2a 5e c0 e6 2c 58 83 60 85 ea   T...x.*^..,X.`..
|   3808: 0b 33 de 33 40 a4 05 80 0d 21 b5 0e 4f 87 a1 a2   .3.3@....!..O...
|   3824: 3a 20 d6 ee 63 7a 31 93 5c 64 f4 f4 57 43 8a 65   : ..cz1..d..WC.e
|   3840: 53 e0 6e 84 c0 ee f6 44 ce 46 ea 97 fc af ec 4b   S.n....D.F.....K
|   3856: ff af da 33 b8 69 e5 08 bd 36 17 aa be 1b 99 5f   ...3.i...6....._
|   3872: 80 c2 8c 27 56 1c f4 99 fa c3 1c 54 01 b7 3e 96   ...'V......T..>.
|   3888: 67 b7 f0 31 f7 20 63 51 17 61 f1 b7 06 23 24 35   g..1. cQ.a...#$5
|   3904: f3 84 c9 01 ec 59 ba 00 83 b8 6c f9 4b 94 01 53   .....Y....l.K..S
|   3920: d4 06 ef b7 a9 08 3c 29 7d ab 8a 88 12 e2 3f a6   ......<)......?.
|   3936: a1 27 be 2e 09 aa d4 15 bc 43 2a 10 ff 2a 2d 89   .'.......C*..*-.
|   3952: fd a0 73 e7 91 14 a3 e2 2c 00 e8 c8 a7 bf 7c c3   ..s.....,.....|.
|   3968: 4c a0 89 bb 70 da 99 1a 39 5f 81 77 af 17 8d af   L...p...9_.w....
|   3984: e8 b0 e0 27 fb f0 b2 39 45 4a 82 97 93 00 a5 54   ...'...9EJ.....T
|   4000: 44 07 b7 1d ce 52 5f bd cd 07 6f ba 6f 8d 6d d7   D....R_...o.o.m.
|   4016: 2b 4f f5 4b 7b 23 45 74 d9 d8 aa e0 15 14 f6 be   +O.K.#Et........
|   4032: 74 f2 b8 38 f9 ba 64 58 93 b2 b6 0c e7 62 10 81   t..8..dX.....b..
|   4048: ad ce 6f 23 0e cd 1c 3c 1e 30 62 64 95 d6 48 55   ..o#...<.0bd..HU
|   4064: fc 63 67 73 85 40 16 2b ab 0b 96 c4 90 8e ea 04   .cgs.@.+........
|   4080: 64 13 bb 60 63 d8 6c d3 73 ed a9 10 03 bf 20 04   d..`c.l.s..... .
| page 11 offset 40960
|      0: 0d 00 00 00 01 04 3f 00 04 3f 00 00 00 00 00 00   ......?..?......
|   1072: 00 00 00 00 00 00 00 00 00 00 00 00 00 00 00 97   ................
|   1088: 3e 03 06 00 ae 7c 00 00 68 95 7f 98 0f 98 e0 e6   >....|..h.......
|   1104: fd 92 02 0f 0f 29 aa bd bc 40 56 6c 5e fa 3f 54   .....)...@Vl^.?T
|   1120: 10 24 70 48 b1 c5 fe e5 0b 21 21 65 1e a4 f1 2a   .$pH.....!!e...*
|   1136: fa 3e 9a a1 b8 67 92 ab cd 27 a2 0f f3 b1 77 9b   .>...g...'....w.
|   1152: 97 e6 c0 f2 c4 db a4 5c d8 f1 01 bd 3c f4 fd 0f   ............<...
|   1168: 00 ca 6d 75 11 fd 56 e2 12 96 e1 f7 18 99 f3 78   ..mu..V........x
|   1184: 9b b7 ef 8c 50 1f dc c5 fa f5 92 fb 91 70 cc d3   ....P........p..
|   1200: ca 0a c6 9b 42 d4 2f cc ce 98 48 a6 ab cd d1 d8   ....B./...H.....
|   1216: 4c 8a 98 2f 2d dc 48 d9 84 52 8f 86 57 04 b8 14   L../-.H..R..W...
|   1232: ec 33 d4 5e 69 da c5 45 8e 2c 4f d6 fc a3 ee f1   .3.^i..E.,O.....
|   1248: 7c 47 c1 5c 8d 48 1b c2 be f1 ca b8 f4 91 d8 bd   |G...H..........
|   1264: d6 41 f6 40 ee 41 90 51 14 09 a8 c5 cf 38 16 21   .A.@.A.Q.....8.!
|   1280: b5 84 48 6c 8e eb e7 b0 62 69 dd 04 c4 4a 75 f6   ..Hl....bi...Ju.
|   1296: 6f 92 af 16 33 94 81 eb 26 00 9f dd d4 01 73 32   o...3...&.....s2
|   1312: ec ee 9d 23 bf 82 8f e0 c8 eb 8f aa 4f 69 4b 68   ...#........OiKh
|   1328: a8 4e 3d 6e d8 2c 99 49 fb 96 d1 77 f6 a0 c3 97   .N=n.,.I...w....
|   1344: 7e c6 7d ff 90 fc 12 97 e7 71 7b 20 ea dd ba 47   ~........q. ...G
|   1360: 3f bc bf 89 2e 26 82 91 71 97 6c 5e 2e ba 8d b9   ?....&..q.l^....
|   1376: c6 ff 51 b3 17 7d e6 ca 99 75 53 73 99 9f 5a b8   ..Q......uSs..Z.
|   1392: 11 db 5a fb b3 73 55 bd 61 0c 2c e5 03 b2 d5 1c   ..Z..sU.a.,.....
|   1408: ce ea ef b4 2e 2c dd d4 55 df cc 7b 13 c9 ba 87   .....,..U.......
|   1424: 25 38 2d d7 fc 7b 47 c1 da 56 42 fe 50 8e 12 a8   %8-...G..VB.P...
|   1440: fd 9d 90 e3 ae e1 f2 5d fa 1e c5 e2 d9 74 b9 55   .......].....t.U
|   1456: d0 5b 90 1d 31 f0 fb 36 d6 e5 df 91 72 4b 69 41   .[..1..6....rKiA
|   1472: 06 33 4e 77 cc 1c a7 d1 3e 49 7f 76 8d d3 73 88   .3Nw....>I.v..s.
|   1488: 27 53 13 95 87 9a 99 cc b2 54 46 34 7f 96 98 1e   'S.......TF4....
|   1504: fb 60 06 85 93 37 0a 90 30 4b 8a ca 7f e8 a6 6a   .`...7..0K.....j
|   1520: a1 94 da ac 1f 47 80 1a 81 8f dd 19 9d 70 88 73   .....G.......p.s
|   1536: b7 4c 22 f7 fe 8b c1 05 5a ea e0 20 5d 01 55 c4   .L......Z.. ].U.
|   1552: 7c 3d 99 f7 8a 1a 15 23 1a a6 5a 02 52 35 2f 14   |=.....#..Z.R5/.
|   1568: ea 01 d4 2b 97 3f 7c e3 4f 7b 58 ea 83 2f 1f 03   ...+.?|.O.X../..
|   1584: c3 64 4f e8 81 f2 ec 19 92 5f c7 b1 27 5a 74 12   .dO......_..'Zt.
|   1600: fd f3 d1 48 0c eb fd 57 9d 28 1e 44 28 3d 69 aa   ...H...W.(.D(=i.
|   1616: 94 66 23 55 11 3b 01 52 76 0b 3b e0 fe 67 e0 fe   .f#U.;.Rv.;..g..
|   1632: f1 e5 18 2b 19 ec 22 a0 33 94 e2 33 3f 59 fc 04   ...+....3..3?Y..
|   1648: 15 c3 ee a0 f8 18 7d 07 39 04 04 e5 df ee 0c 38   ........9......8
|   1664: 31 94 76 b0 ec 42 89 fe 3a d9 d2 1a 4d ee b0 67   1.v..B..:...M..g
|   1680: 10 f4 e6 d1 dd 96 9c d8 ec 10 f0 4b 8c 02 37 54   ...........K..7T
|   1696: 5b b8 e6 d6 d2 d3 ad cd cc 84 02 bd 1f bf 36 de   [.............6.
|   1712: fe d3 8f 68 94 5d c7 19 18 d0 91 e5 be c2 e6 40   ...h.].........@
|   1728: b6 21 ec 29 08 49 08 96 97 a1 14 3a 32 cb 0b 24   .!.).I.....:2..$
|   1744: d4 8c 77 f9 f8 4b 78 8c cf de 90 27 b8 a1 5b dd   ..w..Kx....'..[.
|   1760: 84 c5 88 21 39 fe 1e 88 c0 1c 9b d7 46 44 4f a7   ...!9.......FDO.
|   1776: 13 49 c0 49 d6 c4 c2 06 ab 24 9b 8d 80 83 32 32   .I.I.....$....22
|   1792: b0 ff e5 47 db 08 c0 17 c5 98 67 12 fa 2f 86 39   ...G......g../.9
|   1808: a5 f6 13 03 4d 25 af dc 2c 52 e2 5e f0 36 b3 a2   ....M%..,R.^.6..
|   1824: 13 5b d4 47 14 5e 26 66 f5 a8 48 b3 1a 9e c5 03   .[.G.^&f..H.....
|   1840: 39 66 f3 34 fc c2 ff a8 0f a5 66 a7 7a 6b ad dc   9f.4......f.zk..
|   1856: 77 e2 c7 fb 10 c6 fe a6 2a 64 fc e3 84 8c 12 0e   w.......*d......
|   1872: 5d 96 80 c8 d2 0d d9 e4 f1 bd 96 51 a0 ad a2 cb   ]..........Q....
|   1888: 99 d9 13 4b de c3 f6 ab 20 d8 ad 61 23 fd be 39   ...K.... ..a#..9
|   1904: 97 0b 90 22 49 08 e2 38 3e 43 e6 91 9a ef e5 d7   ....I..8>C......
|   1920: 9e d3 ff 82 51 99 6d 12 f5 74 0d 84 6e f8 ed 63   ....Q.m..t..n..c
|   1936: b8 ff 4d dd ea ae a3 0c 55 13 a1 03 4c 8b 3f 0e   ..M.....U...L.?.
|   1952: 54 b7 02 3e 01 5a 77 ad 6f fc 92 bd b3 6f 3e 89   T..>.Zw.o....o>.
|   1968: 8e fe e1 2e 1c d4 56 c8 5f 4c 57 73 99 95 d6 be   ......V._LWs....
|   1984: f8 f5 17 22 5f 3f 13 5d 98 c9 b5 74 b2 17 7c c8   ...._?.]...t..|.
|   2000: dd d0 a8 d1 fa da 22 5a e8 34 f9 83 93 1b 7f e7   .......Z.4......
|   2016: ba 48 ab e4 cd 3d 54 ec a2 9b 4b ca cf 84 0a d3   .H...=T...K.....
|   2032: 4d 8c bc 0d 73 1a 29 05 0c 60 0a 4a 6e 54 d3 0f   M...s.)..`.JnT..
|   2048: 84 00 df c0 f3 0b 73 2b 3b f0 60 68 91 ae cd 60   ......s+;.`h...`
|   2064: 59 0b ee b7 dc 7c eb b1 cc 70 f3 bb 6a 27 3b bb   Y....|...p..j';.
|   2080: 20 41 3c 84 9d 3d 06 94 0c 53 eb 9c 31 e3 8a a0    A<..=...S..1...
|   2096: 1e c1 65 ef a6 78 92 ae 2e f9 64 49 58 b7 c0 23   ..e..x....dIX..#
|   2112: 2b 4c ab 93 2c 78 c2 86 32 09 d0 8e bf 34 b4 9e   +L..,x..2....4..
|   2128: 59 5c 6f 69 bb 85 5d a6 02 b2 01 85 89 23 40 7f   Y.oi..]......#@.
|   2144: 23 3f c7 67 da 35 cf 2e d0 36 1e 71 fa 78 da c5   #?.g.5...6.q.x..
|   2160: 41 db 9a 14 b1 48 d4 02 36 2f ed 6a 85 4a f4 f6   A....H..6/.j.J..
|   2176: f4 3f 46 81 2d fa 92 47 21 16 14 84 f8 c9 18 86   .?F.-..G!.......
|   2192: 74 45 16 8d b3 cd 58 93 40 62 9b 24 6b af d3 44   tE....X.@b.$k..D
|   2208: 67 f9 0a 7f e5 25 01 b9 76 3f 8e 4d 82 b8 04 ae   g....%..v?.M....
|   2224: ef ed 12 c3 9f c6 a9 54 03 8a 78 0d f4 7e bf 7d   .......T..x..~..
|   2240: c1 f5 be 24 33 54 77 e3 7f c4 c9 fd 5c 79 6d 54   ...$3Tw......ymT
|   2256: 67 2f 83 a3 04 8b 16 09 71 ff 47 67 14 6a 84 71   g/......q.Gg.j.q
|   2272: 39 54 18 0b 7d 7e ac ef 62 0f 4b dd 9c d0 0d 20   9T...~..b.K.... 
|   2288: 9e 62 98 79 11 53 de 73 a9 9d 44 5e f5 5a 23 62   .b.y.S.s..D^.Z#b
|   2304: 08 01 fb de 39 57 24 ac c6 b5 5f e2 6b 07 18 2e   ....9W$..._.k...
|   2320: 27 24 42 96 d8 31 68 d3 0e bb 65 9c 01 f8 93 ba   '$B..1h...e.....
|   2336: 4a 2a 60 3a b3 c2 9c 17 66 1d 34 4c 0f 90 38 5e   J*`:....f.4L..8^
|   2352: a4 9c 72 9c 16 d7 c4 98 33 ed c1 95 a2 d7 cc a1   ..r.....3.......
|   2368: 3b 36 28 1c 44 1c 8f c9 f7 bc eb ed 5a d3 2d 69   ;6(.D.......Z.-i
|   2384: 6f 86 9a 2f 15 91 aa 63 0d 19 f9 bb 07 6b 87 f5   o../...c.....k..
|   2400: 0a 48 7e db b6 9a c3 97 01 d1 91 44 37 7c ce 5c   .H~........D7|..
|   2416: 63 43 c0 92 20 31 b4 5c 36 98 01 50 05 ec 1d ac   cC.. 1..6..P....
|   2432: 73 10 66 97 48 60 c2 2b 46 3e 2b fc 52 1d 42 87   s.f.H`.+F>+.R.B.
|   2448: d3 af 2c 42 7f c4 a2 0b 2b d6 09 64 0a f9 9d f5   ..,B....+..d....
|   2464: 54 b8 1d 96 23 1f 22 0e 56 de dc 0a f8 97 55 41   T...#...V.....UA
|   2480: 56 ff 72 20 73 2b 50 fe 0d 79 c2 d3 61 73 22 da   V.r s+P..y..as..
|   2496: 68 8e 77 23 19 ca f9 7c a6 9c 91 27 ed eb f8 9c   h.w#...|...'....
|   2512: b6 bb 72 dc 3a 62 23 17 fb 04 98 bb ce 1a fb 1f   ..r.:b#.........
|   2528: 17 ab aa 46 46 5a 8b 98 c6 7e 0e 18 74 8a 62 9e   ...FFZ...~..t.b.
|   2544: 1f 7f f4 dd 8c 1d 68 8d 54 3d 0c 06 95 f9 9f 06   ......h.T=......
|   2560: 3f 97 71 00 21 d5 e9 c0 44 7b 98 27 16 ba d2 fa   ?.q.!...D..'....
|   2576: c2 33 1d 4a 34 ec ae 4d a7 6c 68 77 9b f6 7b 2c   .3.J4..M.lhw...,
|   2592: 6e d3 f6 1b b6 35 6f 47 69 be 5f 96 66 13 c3 8e   n....5oGi._.f...
|   2608: 2f f1 4a 5e cb 26 00 73 33 a9 05 12 7b 6d 5b 96   /.J^.&.s3....m[.
|   2624: b7 3d 7e bc 62 aa c7 fe d2 fb 11 d5 7c a3 bf 90   .=~.b.......|...
|   2640: 09 fa ba 2b 2e 8d 65 c6 3f 21 41 fa 3d 71 f8 8d   ...+..e.?!A.=q..
|   2656: e5 77 34 b2 ea 4d 28 d1 48 fc 4c 1f 2e db 9c 58   .w4..M(.H.L....X
|   2672: b1 04 54 ce 4b 68 a3 7b b6 28 16 19 22 d7 fe d3   ..T.Kh...(......
|   2688: f9 88 dd ca f6 26 43 88 28 bb 0f 62 3b d5 d4 cf   .....&C.(..b;...
|   2704: af 90 27 ca 8e 40 62 f6 50 a8 2b 23 d4 3e 6d 32   ..'..@b.P.+#.>m2
|   2720: e0 62 79 28 29 ab fe 77 21 ad 98 62 11 8a d2 90   .by()..w!..b....
|   2736: 9a 83 73 c5 44 45 cb dd 71 7e 45 b7 79 d8 ab 3f   ..s.DE..q~E.y..?
|   2752: ea 53 89 0b 8c 18 b3 95 1b 45 d5 dd 45 5b 79 b0   .S.......E..E[y.
|   2768: e8 c2 a9 58 77 cf c2 5b 43 a2 81 0e 43 9c c2 6d   ...Xw..[C...C..m
|   2784: 5b a3 7a ef ed e1 24 56 54 a4 e1 ef 07 e7 9b 0e   [.z...$VT.......
|   2800: 1f 32 78 3d a4 0f c2 52 ee 7d 4e 4d 80 4d ff 00   .2x=...R..NM.M..
|   2816: 6c 8f da b7 ff aa fd a6 05 c1 31 e1 03 5c a4 e1   l.........1.....
|   2832: 92 39 d9 be 7a 16 9a c2 4b c7 01 eb ef 54 f8 2a   .9..z...K....T.*
|   2848: 60 82 bb f6 4c 86 d5 8b 23 ce 88 52 a5 35 a7 ba   `...L...#..R.5..
|   2864: b6 31 e5 ec fe 30 f9 06 98 e7 bd eb 83 08 33 e5   .1...0........3.
|   2880: c5 a2 12 68 ca cb 97 77 db 60 94 4a 43 fb c1 04   ...h...w.`.JC...
|   2896: f1 8d 16 af 2e 8d bf 61 2a ff b5 4b 80 65 8a 07   .......a*..K.e..
|   2912: 91 17 7f b7 ee c0 57 ce 40 82 c7 c8 57 89 62 61   ......W.@...W.ba
|   2928: b8 63 fe eb c2 97 30 ed 71 84 23 b3 48 e9 d9 ba   .c....0.q.#.H...
|   2944: 71 c3 66 f5 6a 66 5a ee e6 bf 72 fe 80 a1 40 24   q.f.jfZ...r...@$
|   2960: 75 0e 01 f9 1d 18 c3 fd 73 1c 21 92 5c 2b 07 a0   u.......s.!..+..
|   2976: 83 80 5c 0f 20 fe e9 55 d6 f4 4c 96 d8 ab 7a 5c   .... ..U..L...z.
|   2992: d6 d1 1e 44 60 ee 0a 30 7e 92 cf af a3 41 20 d5   ...D`..0~....A .
|   3008: 0b de fb 9c f4 81 76 5c d6 58 5d 86 1e 14 10 c5   ......v..X].....
|   3024: 12 b5 f1 2d 73 09 0b ad 33 2c 49 5f 59 a7 08 80   ...-s...3,I_Y...
|   3040: 30 bf 50 61 b4 0b b2 3c 53 f3 de 2f e0 87 59 58   0.Pa...<S../..YX
|   3056: b8 2f 36 56 90 74 35 2b ab c6 b1 e3 7c ae 8f ee   ./6V.t5+....|...
|   3072: 52 41 4a e8 f2 03 26 36 18 6d 04 ff 10 75 df ec   RAJ...&6.m...u..
|   3088: ff c8 fc 2d 1e f1 5f 60 8a 29 44 f2 48 39 eb be   ...-.._`.)D.H9..
|   3104: 75 29 d6 8c fc d4 09 1d 8d 40 5b 6a 52 1e 63 0b   u).......@[jR.c.
|   3120: af a0 f4 5c 05 da 78 cf 7c 4e 54 e7 c6 b3 b2 f9   ......x.|NT.....
|   3136: b8 ef 06 47 4b ea 4f c1 d5 ab 09 e4 cc 2d 18 94   ...GK.O......-..
|   3152: 0b 1e 48 96 4e ae d0 3c af 24 31 6e 07 a0 5a 56   ..H.N..<.$1n..ZV
|   3168: 4c d4 c6 10 b2 da 6b f2 47 5b 7e e8 e2 ed e2 c6   L.....k.G[~.....
|   3184: 7b 8d 6b 39 ce 6f 1b 3e 4d 43 be c9 12 f1 75 a4   ..k9.o.>MC....u.
|   3200: 36 53 ad 19 cc d1 3c 57 45 64 fc e4 19 89 42 81   6S....<WEd....B.
|   3216: ee 16 a7 5d 6a 36 64 ba 8e c3 ca e7 3f 29 94 27   ...]j6d.....?).'
|   3232: 23 7c a6 da 5d 0b 54 21 7f 2f 1c a6 6a 29 c0 99   #|..].T!./..j)..
|   3248: 7d fa fc cb 67 43 75 e5 7b 22 b6 e0 5d b6 73 9a   ....gCu.....].s.
|   3264: db e9 36 6a fa 27 51 64 50 8b e5 fd 8c 6b 5a 51   ..6j.'QdP....kZQ
|   3280: 4b e0 ac 57 f6 97 db 4d 94 25 95 b5 f8 83 de 8f   K..W...M.%......
|   3296: f9 28 80 06 d6 a5 ad dd 2f 2f 70 bf ff 73 1b 51   .(......//p..s.Q
|   3312: c7 3c 5e 4c 53 7e 46 58 1d 1b 38 88 0f 7d 48 25   .<^LS~FX..8...H%
|   3328: ca e4 6f c9 d9 60 60 98 e8 bc 31 bb b3 b1 01 e9   ..o..``...1.....
|   3344: a8 0a 2f 23 cc 53 40 9a 27 00 65 19 6f 02 8b fa   ../#.S@.'.e.o...
|   3360: 6c b7 8e af cd 67 54 58 a8 77 4e 79 48 31 25 f4   l....gTX.wNyH1%.
|   3376: a2 76 16 18 ec 1a 98 f8 8e 03 f6 41 25 ef 8a 55   .v.........A%..U
|   3392: 6a 5b 97 d7 bd e4 98 a5 6c c9 2f ca 5f b5 67 9a   j[......l./._.g.
|   3408: 35 c5 f1 98 56 4e d9 a0 3e 13 e6 e3 22 02 e0 b4   5...VN..>.......
|   3424: 65 16 ad c6 c4 a3 75 78 94 b2 ce b5 9c 50 df 02   e.....ux.....P..
|   3440: f3 c2 91 11 5a 81 de eb 31 24 16 50 16 d8 5f c5   ....Z...1$.P.._.
|   3456: df 62 1b 24 37 bb cd 5d a8 a7 93 d0 6a 5e d8 55   .b.$7..]....j^.U
|   3472: 74 cf 69 a2 4a 05 07 2e 61 09 0e fa 1e 12 ab 62   t.i.J...a......b
|   3488: d9 ca ff ab 2b b0 3b 16 16 b0 95 15 27 26 89 46   ....+.;.....'&.F
|   3504: d3 67 fb 0f 33 00 18 44 c3 a1 92 de 6e 6d b0 67   .g..3..D....nm.g
|   3520: b0 65 97 fa b9 10 1d 39 15 10 95 f1 b3 cc a3 d4   .e.....9........
|   3536: 28 06 9f b7 00 be a1 06 8f 61 34 66 92 fa 58 0b   (........a4f..X.
|   3552: 4f 91 6d 93 31 32 cb a1 97 a5 18 b2 f1 bc fc 70   O.m.12.........p
|   3568: c0 86 62 24 4b 82 ce b3 71 30 53 ac 42 c7 32 2d   ..b$K...q0S.B.2-
|   3584: 3a 0e 3f 8a 91 89 0b 46 55 f3 5d 73 b1 74 a2 9e   :.?....FU.]s.t..
|   3600: 97 6e 85 b6 f0 3e 56 6d 31 50 96 87 3d 18 cf 5f   .n...>Vm1P..=.._
|   3616: 74 57 1a 65 b4 d2 4e 96 1c 6e 3f 5b a9 a0 47 2d   tW.e..N..n?[..G-
|   3632: 22 5b 16 ab 27 f4 86 36 f7 8e a1 f2 9c 69 7f 0c   .[..'..6.....i..
|   3648: 85 4d 3c 08 3b fa 96 ee 92 af f9 8d c2 ca a9 f1   .M<.;...........
|   3664: 2b fa 90 4b a3 fb 35 c4 c6 05 c3 0f ad 5e bb f6   +..K..5......^..
|   3680: 55 66 73 bd db 98 2f 70 7d 25 3f 05 3d 24 c6 0d   Ufs.../p.%?.=$..
|   3696: 8a e2 e1 3e 19 59 51 25 a9 e8 4a 0a 68 69 05 c9   ...>.YQ%..J.hi..
|   3712: ce 1e 5f 96 c4 a1 98 2a 7b b9 e9 99 ce 84 af 0b   .._....*........
|   3728: 82 61 5b 97 b1 8c 2e ea 81 98 44 39 79 e0 d5 9c   .a[.......D9y...
|   3744: 6a b9 14 0f 36 98 ea c8 cd 6b 66 fa d1 23 cf cb   j...6....kf..#..
|   3760: c6 1b 25 6c 42 13 b2 67 f9 68 0a 62 ff 37 ab ca   ..%lB..g.h.b.7..
|   3776: 22 60 77 c1 30 e4 59 5f 17 b4 47 c3 ea c5 c4 2b   .`w.0.Y_..G....+
|   3792: 62 44 94 08 87 03 1a a5 10 ae b1 53 cd 2d 40 5a   bD.........S.-@Z
|   3808: 80 ef dd 56 6b 88 92 d7 3c d0 7a a0 2f 63 22 02   ...Vk...<.z./c..
|   3824: 61 f1 ab 36 f9 16 f0 14 ba 67 7d 9c 7f 90 cc d9   a..6.....g......
|   3840: b1 ac d3 1d 73 1e e8 bf 88 6a 6b 15 32 b3 b5 9c   ....s....jk.2...
|   3856: 4a ad bd 4f f8 f8 b8 b8 2e 48 0f e2 e9 d6 d9 72   J..O.....H.....r
|   3872: 22 9a 28 8d 24 e2 f0 33 23 27 ff 37 5e 36 55 37   ..(.$..3#'.7^6U7
|   3888: e1 92 78 19 a4 9d ff b9 22 e5 47 79 b8 de b4 9f   ..x.......Gy....
|   3904: 4e f0 65 1d 89 5e 55 86 bf 25 ff 6f 7e 27 f2 c1   N.e..^U..%.o~'..
|   3920: 9d 26 69 ab 5b 1a 16 1d a1 b7 0a f0 60 06 12 4b   .&i.[.......`..K
|   3936: ce 6b 17 d3 e7 66 ef 6d 83 10 30 96 49 8b 8d 52   .k...f.m..0.I..R
|   3952: 98 65 b1 48 a8 0d 96 ae 15 cd 00 5b f5 3e 4c f6   .e.H.......[.>L.
|   3968: 16 b3 15 5b cf 3e ba 15 86 7e 9b 92 be cb 8a de   ...[.>...~......
|   3984: d0 de c8 0e ac cb 79 cc 8f ad f6 3a 40 33 9f 91   ......y....:@3..
|   4000: 48 7c 3f d1 33 c1 d3 51 ba 44 47 0e 41 8d fa 2d   H|?.3..Q.DG.A..-
|   4016: 55 99 7f 4d 44 4a 85 dc 6b b1 9f 8a 4c 55 70 b7   U..MDJ..k...LUp.
|   4032: 2d 14 4d 72 ea 76 c8 0c 9f 9c 99 0a c2 7e 95 94   -.Mr.v.......~..
|   4048: 61 84 76 8c 20 1f a3 2d 5f 54 ab 5b 8c fc 04 0d   a.v. ..-_T.[....
|   4064: 25 33 9f d1 f3 f7 38 1d 64 4c c1 0d 38 0e 4d b8   %3....8.dL..8.M.
|   4080: 61 16 f8 ea 3d 01 e9 f7 7b 6d 10 ed 08 07 86 f3   a...=....m......
| page 12 offset 45056
|      0: 0d 00 00 00 01 04 3f 00 04 3f 00 00 00 00 00 00   ......?..?......
|   1072: 00 00 00 00 00 00 00 00 00 00 00 00 00 00 00 97   ................
|   1088: 3e 04 06 00 ae 7c 00 00 72 d0 44 9f 95 5b ad 14   >....|..r.D..[..
|   1104: 76 bf ee ef 64 b3 05 0c b8 3c fa 37 1b ab 5a f0   v...d....<.7..Z.
|   1120: ae 4c 14 79 98 2a 95 49 a0 1e 3e ff 44 91 47 ad   .L.y.*.I..>.D.G.
|   1136: 40 a0 7b 5e 0c 5f 86 45 28 c7 d9 03 81 2b 26 13   @..^._.E(....+&.
|   1152: 0c 38 01 db 73 e2 42 53 3c 8c d1 6c fd 51 a6 5a   .8..s.BS<..l.Q.Z
|   1168: fa 65 81 fc 71 89 ea 74 84 df da ea e0 d8 40 ce   .e..q..t......@.
|   1184: 56 a4 cb 65 0b 6b 79 7c 81 a9 55 79 8c 3e 02 dd   V..e.ky|..Uy.>..
|   1200: 17 7f 47 b6 84 c0 c2 a3 5e 79 66 83 e4 f2 73 6a   ..G.....^yf...sj
|   1216: 46 9f 20 24 f3 4e 2b 6e a9 2c 9b 51 39 96 42 82   F. $.N+n.,.Q9.B.
|   1232: ec c0 c9 78 ec ec 90 e3 57 af fb 1f 51 41 a3 37   ...x....W...QA.7
|   1248: b7 68 5d 84 5e 6a 9e 17 13 e1 87 7d 93 f5 92 8e   .h].^j..........
|   1264: 7a 8d 3b d4 40 35 df 0e 8f 80 13 f3 54 9c 57 a8   z.;.@5......T.W.
|   1280: 86 88 69 32 7d a2 22 13 ab 14 db e6 8a 1c 84 ed   ..i2............
|   1296: 54 4e d3 0a ba 5f 9e 66 88 2a 64 d8 04 86 3c 5e   TN..._.f.*d...<^
|   1312: 41 b7 2d c2 c1 a0 73 61 d8 80 3b 9d 9d 1e 11 ab   A.-...sa..;.....
|   1328: ae 20 63 ac 31 80 2e 66 d5 a7 c8 8e 0a 55 78 53   . c.1..f.....UxS
|   1344: 66 8d 5d 1e cb 04 13 d9 a8 d1 09 4b 31 3c e9 ba   f.]........K1<..
|   1360: 83 69 76 4c 12 e8 95 84 e1 fe c0 64 74 c5 74 8d   .ivL.......dt.t.
|   1376: 1f 75 28 75 1f 51 23 b7 df ef 45 66 61 1b 18 2e   .u(u.Q#...Efa...
|   1392: c8 56 69 8f fa 2a 08 41 21 2d 6a c7 79 46 8f 95   .Vi..*.A!-j.yF..
|   1408: dc b1 b2 d7 39 b9 a6 41 af 06 3e 53 85 c2 db c3   ....9..A..>S....
|   1424: 42 fb b7 4f e9 e0 11 c1 a6 9a 48 fb d6 c9 26 31   B..O......H...&1
|   1440: 3b c4 7a e2 bd 53 d7 3e d7 56 60 8f 6a 80 60 19   ;.z..S.>.V`.j.`.
|   1456: db fd 5a 7a 8c c7 43 c7 29 57 8b 6f 31 ea 13 af   ..Zz..C.)W.o1...
|   1472: de 2e 32 75 5f 63 b7 bb 45 07 9e da 69 54 a0 fd   ..2u_c..E...iT..
|   1488: 0e dc 0d f5 42 17 eb 64 60 0d d8 56 4b 61 6d 8c   ....B..d`..VKam.
|   1504: 82 09 f1 80 a2 25 5d 8b e5 67 76 13 9d 46 4a 6f   .....%]..gv..FJo
|   1520: 30 f6 eb e0 7b 0e 01 e1 a8 b2 38 1b 9b 21 48 ed   0.........8..!H.
|   1536: c8 7f 7d 6b 0c 25 ce a8 0a 78 a8 48 45 2d b5 e7   ...k.%...x.HE-..
|   1552: fd ca b2 a1 2b 2a b9 72 61 76 76 0c ae 9c b3 17   ....+*.ravv.....
|   1568: fa 83 07 24 24 62 18 18 d6 12 2d ad 58 0b b3 5e   ...$$b....-.X..^
|   1584: 80 da 40 b5 d0 e7 aa 28 52 bc 7f 68 7a 1d 5a 1f   ..@....(R..hz.Z.
|   1600: 79 65 10 9e 4d fe be 32 c7 0f aa 7d a5 0a 43 0f   ye..M..2......C.
|   1616: 3d 17 0e 88 a3 7f 3f ff 04 bc 79 56 62 0e 9b a0   =.....?...yVb...
|   1632: 51 1f 49 04 ff 40 7a c2 51 e8 36 44 85 63 df a4   Q.I..@z.Q.6D.c..
|   1648: d5 63 a4 eb a3 71 44 b4 02 51 a1 2b 00 73 69 4e   .c...qD..Q.+.siN
|   1664: 07 76 42 84 bc 87 1a e6 15 13 f7 ac 7a e8 bf c0   .vB.........z...
|   1680: a4 8a 64 fe 9c 17 a7 20 cb 67 cd e6 da f1 95 26   ..d.... .g.....&
|   1696: b6 79 d4 93 e2 52 fd 6f 44 29 db 1e 34 02 46 a4   .y...R.oD)..4.F.
|   1712: f1 c5 f0 b5 c3 19 1d 0e 14 d4 ba 08 1c 01 bf 39   ...............9
|   1728: 54 02 e2 f5 d3 cf fb d1 d6 76 65 91 ba 7b c8 22   T........ve.....
|   1744: 85 f8 fa c7 ae ae 21 85 b9 d2 09 5f f4 3b 27 c5   ......!...._.;'.
|   1760: 13 39 39 7e 79 ae 07 37 26 72 07 22 01 40 2c 10   .99~y..7&r...@,.
|   1776: 5b 2c 9b bf 30 92 2e f5 12 9f 19 f9 2d 69 2a c6   [,..0.......-i*.
|   1792: 9a 26 1b de 18 b8 05 65 a8 b4 b3 3e 2c 04 5b bc   .&.....e...>,.[.
|   1808: 63 79 56 7a ba 24 ae 69 ee d6 d5 7c 3d 5f 2f 7b   cyVz.$.i...|=_/.
|   1824: e9 e5 55 f2 88 58 72 49 89 3e d5 91 be ae ea 9e   ..U..XrI.>......
|   1840: 58 20 45 2c da c7 b8 f9 db 97 68 59 c7 f4 d3 4b   X E,......hY...K
|   1856: 95 b6 c7 73 1c 9b 96 d2 1c 56 17 eb 18 a1 fa 17   ...s.....V......
|   1872: 05 72 44 05 4f c3 2b 8c 89 d2 3c a2 25 d8 16 74   .rD.O.+...<.%..t
|   1888: 48 b7 78 36 7a 86 88 ff cc 47 ac bd 73 28 1f 3f   H.x6z....G..s(.?
|   1904: 13 3d b9 d2 df 9a 93 43 a6 9f b9 fc 7c b2 d4 84   .=.....C....|...
|   1920: c4 7e d0 14 60 01 63 fb 09 de a3 2f 1c ae 2e 6b   .~..`.c..../...k
|   1936: 9f 8d c8 f1 2d f0 c9 a5 1f 48 c1 7c 53 c5 63 8a   ....-....H.|S.c.
|   1952: 9b 0b fd f3 7f 3a 63 eb 2c 4f df 3a 57 8c 20 3e   .....:c.,O.:W. >
|   1968: 0b d1 00 0f ce e3 ab a8 77 31 63 4a aa 35 5f 3f   ........w1cJ.5_?
|   1984: 77 ba d3 38 7b a3 53 94 e6 9d 34 ec 5a 28 09 6e   w..8..S...4.Z(.n
|   2000: 5a 85 bc 72 18 bb 15 8a 20 01 f3 88 19 74 65 1b   Z..r.... ....te.
|   2016: 51 bc 8a 4d 32 a6 00 80 fc 06 f8 aa 1c ee 0e 84   Q..M2...........
|   2032: b5 70 fe 09 02 78 d4 ae 3a bb 02 ed 5a 90 d2 a9   .p...x..:...Z...
|   2048: 3e 58 8a 08 2d 4c 79 7c f2 94 89 ac 04 59 d8 17   >X..-Ly|.....Y..
|   2064: 09 e4 c3 e0 78 6b 77 58 64 4f 2f 77 15 16 c2 41   ....xkwXdO/w...A
|   2080: 96 61 8c 23 59 73 b9 56 c3 4e da 79 34 94 e5 31   .a.#Ys.V.N.y4..1
|   2096: 9b a6 92 ca 23 64 e4 78 32 e2 9d 2e ad 18 11 b7   ....#d.x2.......
|   2112: 12 0d 1b 40 44 4f 92 cf 78 80 86 fb af c9 30 20   ...@DO..x.....0 
|   2128: 52 9b 22 8f f4 ca 65 e5 f2 e7 a3 c3 e7 00 ee a1   R.....e.........
|   2144: ca ab 3d 71 40 bd cf c3 2f 7b 59 e7 9d 18 6a 65   ..=q@.../.Y...je
|   2160: a1 c9 84 cf 0f f5 36 d5 22 06 d4 6a b6 ad 38 03   ......6....j..8.
|   2176: b4 ac 9e c4 7a b0 71 24 a9 01 f0 5c 5b e3 c9 bd   ....z.q$....[...
|   2192: d6 e7 ba 71 fd 44 22 14 af f7 18 ef 29 1d f2 0f   ...q.D......)...
|   2208: 5d e1 3a 71 3b 47 44 da 21 f6 73 8b 6a a1 ff 93   ].:q;GD.!.s.j...
|   2224: d5 eb 5d d0 61 23 41 53 99 7f 23 0f c0 a3 18 3c   ..].a#AS..#....<
|   2240: bd 30 e0 bf 16 41 27 71 80 67 49 61 e9 64 71 e0   .0...A'q.gIa.dq.
|   2256: 9d 42 e6 48 9b 0e 40 82 f9 e2 a5 b4 51 37 7d 6b   .B.H..@.....Q7.k
|   2272: 74 54 03 bb a2 93 ac 47 f8 a5 75 86 73 0f 12 47   tT.....G..u.s..G
|   2288: 27 65 16 16 a2 ab 99 08 14 0b 7e 1b 2c 7e 9d 20   'e........~.,~. 
|   2304: 58 23 14 70 bd f5 7c 2b 74 ce d1 46 b3 29 03 8f   X#.p..|+t..F.)..
|   2320: 76 f3 20 ca 9e a3 fc 1a 17 f2 8e 78 97 4e 0b 5e   v. ........x.N.^
|   2336: 61 2b e1 3d f1 14 ae 9a 1f e8 a8 3c 99 02 a5 c0   a+.=.......<....
|   2352: a6 ee bd 47 a4 3c 6d db 6c 20 dd c4 60 09 17 e7   ...G.<m.l ..`...
|   2368: 65 a4 e6 a3 f5 3f 50 37 6d 45 87 ab a4 67 95 b1   e....?P7mE...g..
|   2384: 47 cb 49 00 c8 37 f5 e2 09 10 c5 5e 09 f0 e6 89   G.I..7.....^....
|   2400: cc db 49 46 51 50 6e 14 63 5f c6 88 13 a2 e3 02   ..IFQPn.c_......
|   2416: 06 21 1d d9 b6 5d 6f 01 90 9a 6c 50 e6 19 72 92   .!...]o...lP..r.
|   2432: a7 c2 84 dd 9c 6a fd 8f 5a 41 da 4f b7 fc 58 13   .....j..ZA.O..X.
|   2448: 63 3e 68 24 5e 30 86 a6 b8 ed 7a fb 9c eb c3 a5   c>h$^0....z.....
|   2464: 89 df 3b c6 e1 09 1d 16 69 40 e9 d7 f7 41 d3 2b   ..;.....i@...A.+
|   2480: 52 6a 9a d9 65 e2 44 de 45 63 be 85 41 b8 d4 4a   Rj..e.D.Ec..A..J
|   2496: 49 b9 b8 bb 4d a6 6e 60 46 13 6f 7f b1 57 9c 5b   I...M.n`F.o..W.[
|   2512: 78 69 87 3d 42 e5 c2 0a 46 9c 38 9d e2 44 80 fe   xi.=B...F.8..D..
|   2528: c8 81 f4 fe bb ef 61 46 88 c7 6f 1a f8 00 0b 63   ......aF..o....c
|   2544: d0 ac 8e 5e 88 8d 2d 56 15 79 d2 12 d9 94 ba 2b   ...^..-V.y.....+
|   2560: ae 71 63 be 62 08 75 b9 97 fc 1e 17 89 83 3b 30   .qc.b.u.......;0
|   2576: 07 6e f0 db 44 17 c0 49 7f ed 0a 0a 43 13 6a 72   .n..D..I....C.jr
|   2592: 78 9c 96 52 2c 02 ac da a0 90 b5 66 34 b7 a2 17   x..R,......f4...
|   2608: e7 71 11 8d 8f 22 0e 40 90 9b 0f 99 f5 10 c0 64   .q.....@.......d
|   2624: ac e3 24 0d 49 1a f4 2f 0b 13 fc 94 a7 18 b1 5f   ..$.I../......._
|   2640: a6 64 49 0b c2 35 99 b6 05 81 bd a8 f8 88 56 83   .dI..5........V.
|   2656: 17 56 cc f8 91 db 5b 18 7c 42 46 3f 3d 9a 2d b6   .V....[.|BF?=.-.
|   2672: 63 8c 62 bf 78 53 a0 23 53 40 c0 32 06 f1 c8 3a   c.b.xS.#S@.2...:
|   2688: f8 17 34 a7 29 1e ab 92 2d 2d 68 c5 83 e0 0a 2e   ..4.)...--h.....
|   2704: 7b f8 9c b7 32 86 c0 1e f5 29 44 a6 24 e1 d7 66   ....2....)D.$..f
|   2720: 0d 48 2b 0e 49 f8 e4 52 4a 7d bd 1c c1 44 27 f0   .H+.I..RJ....D'.
|   2736: c9 db 87 93 13 62 82 ef ad 2c ea 8f d1 3d a4 a6   .....b...,...=..
|   2752: b8 80 87 e2 0e 27 27 b3 3d 56 66 39 de e8 21 5f   .....''.=Vf9..!_
|   2768: 95 25 d9 68 f1 57 50 0e 15 54 0b a6 44 27 e8 d9   .%.h.WP..T..D'..
|   2784: f2 dc 5e 79 f0 ec 2b a3 39 77 8f 3d 53 70 8a d3   ..^y..+.9w.=Sp..
|   2800: e5 aa 14 cb 7b dc 31 72 f6 90 5e 8b 3a 8c f3 77   ......1r..^.:..w
|   2816: 4d 00 a3 1d 3a 63 47 c0 2a a2 32 98 6e 5c bc 21   M...:cG.*.2.n..!
|   2832: f0 6a 34 6c 89 a5 bc 04 f6 3b 8c 96 b0 eb 0d 70   .j4l.....;.....p
|   2848: 9f 18 d5 64 ec 2e df 19 7d 1d a4 61 48 e7 0b eb   ...d.......aH...
|   2864: f3 94 16 f5 7f 4c 9e 0c 78 aa 4b 61 14 13 eb e2   .....L..x.Ka....
|   2880: 72 14 56 27 41 70 8f 7f cb e6 a1 c3 37 c4 78 32   r.V'Ap......7.x2
|   2896: 85 ea e5 af 96 46 4b c3 93 af 8f 26 0c ea 08 b6   .....FK....&....
|   2912: b4 a6 a4 78 6d 82 51 ab fb e5 a9 e9 89 c3 a1 be   ...xm.Q.........
|   2928: 3e b9 e3 8c 61 cf 42 1d de 25 45 9e f0 ff 8b 75   >...a.B..%E....u
|   2944: 63 9b 3d d6 92 c3 ad ca c5 4c 79 9d 72 37 fd 3a   c.=......Ly.r7.:
|   2960: 21 f2 8d 34 37 b9 eb a0 86 d8 1a f2 9d aa 6a 53   !..47.........jS
|   2976: f6 c9 29 d0 39 2c 66 24 c6 8e 68 9c 70 cc 9e cc   ..).9,f$..h.p...
|   2992: 25 a8 dd 5e d8 e6 87 1b dc 3a 26 20 e3 1c 3b ba   %..^.....:& ..;.
|   3008: f8 c4 80 83 79 49 f1 2a f0 e8 70 31 e7 b2 a5 e3   ....yI.*..p1....
|   3024: 9f 5b 49 25 2c 33 b6 ea 38 ab a8 0a 9a a2 0e fd   .[I%,3..8.......
|   3040: 3a a8 9c 0f ab 93 45 a7 54 d2 18 2f 2e 94 34 cc   :.....E.T../..4.
|   3056: fa 14 b6 8e 01 8d af 80 94 e7 80 31 dc 2c b9 1e   ...........1.,..
|   3072: dd 35 91 29 28 a0 29 65 bc e3 a2 52 b0 e5 56 5a   .5.)(.)e...R..VZ
|   3088: 12 21 06 fd f3 04 77 31 6d f2 e0 66 0a a3 77 f3   .!....w1m..f..w.
|   3104: 5a 17 37 59 65 d9 32 68 82 2c 72 05 16 e9 9a 89   Z.7Ye.2h.,r.....
|   3120: 10 94 53 e9 be 63 2e 82 27 28 30 1d 2a bf ad 00   ..S..c..'(0.*...
|   3136: 49 9a a7 e3 50 d0 61 b4 bd 73 3e 99 a3 a7 69 7f   I...P.a..s>...i.
|   3152: a8 4c 4d 12 7f c0 55 b7 de 0c 93 5e 27 cf 4a 53   .LM...U....^'.JS
|   3168: 78 08 ee da 22 37 3f 94 2f dd a6 b2 28 84 0f 62   x....7?./...(..b
|   3184: bc 7f be 3c af ad 84 82 70 b2 98 d5 9a d5 07 34   ...<....p......4
|   3200: 41 6f 9c 0a 17 54 cf fc 43 1e 7c ca 48 6f 23 c5   Ao...T..C.|.Ho#.
|   3216: 50 7b b6 ec e5 3a 27 0f 65 29 97 ad 37 b1 9f e6   P....:'.e)..7...
|   3232: 6b d1 d4 41 ed 5e 0e 20 22 00 ca 41 58 d2 b9 73   k..A.^. ...AX..s
|   3248: 08 2d 01 83 db d1 57 a2 e3 d2 34 c6 73 fd 2e b2   .-....W...4.s...
|   3264: 9b f2 a4 a4 f1 1d 9f 7a cc d8 93 37 b3 95 2c 99   .......z...7..,.
|   3280: f5 92 0c 91 d5 e2 2e b2 bb 49 76 19 c9 58 16 28   .........Iv..X.(
|   3296: 1e 76 60 ba d9 a8 04 e9 91 5e 7f e6 b1 dc de 9f   .v`......^......
|   3312: 6f e6 52 f2 61 53 7b 09 f4 df c4 96 15 23 99 67   o.R.aS.......#.g
|   3328: 6b b8 e8 04 05 62 0d 5f 05 d1 8a 6c 49 e8 2b 71   k....b._...lI.+q
|   3344: 10 44 8e 93 13 bc 27 14 32 52 22 2d 11 cf cd 43   .D....'.2R.-...C
|   3360: 77 a1 60 21 70 44 60 cb 64 9e b4 c6 23 aa f2 0d   w.`!pD`.d...#...
|   3376: c0 6d 50 0b d9 73 d0 eb 6d d5 03 fc 74 e1 fb 49   .mP..s..m...t..I
|   3392: a1 18 4f bb a2 2f 09 54 28 80 8c 04 86 3d e1 fd   ..O../.T(....=..
|   3408: ff 55 c9 7a a0 35 ef 64 b8 87 1b 10 8c fc 3d 27   .U.z.5.d......='
|   3424: e3 6c 30 3c 05 4d b3 37 b8 29 ba a2 46 9b 76 5d   .l0<.M.7.)..F.v]
|   3440: ff 1b 30 65 70 57 f2 89 c3 17 3f 21 5d 26 5f 58   ..0epW....?!]&_X
|   3456: b1 50 6e 75 c3 dc be a9 0e 43 3e 34 4e 40 0e a1   .Pnu.....C>4N@..
|   3472: f4 69 6d b1 56 a7 0f 09 7e 25 74 08 83 bb 9d 67   .im.V...~%t....g
|   3488: a6 f6 68 87 e9 d9 ba 16 97 42 ca 66 29 e6 df cd   ..h......B.f)...
|   3504: e8 e4 ef ef c9 1f f7 d8 9c 8a a3 24 c9 43 60 4d   ...........$.C`M
|   3520: 9a 73 cb 73 9f b2 b1 fe 51 9d 55 9f 37 a0 d2 3c   .s.s....Q.U.7..<
|   3536: 7e be e4 35 1e 8e 81 f5 67 29 29 ac 95 0a 99 28   ~..5....g))....(
|   3552: ec 4c f2 c6 03 6b 01 76 f5 87 77 58 51 51 40 d4   .L...k.v..wXQQ@.
|   3568: 81 c7 d7 7b 40 09 8f f5 c8 a7 49 00 c9 ee 99 c9   ....@.....I.....
|   3584: 6f 4a c5 6f e7 51 8e 4c 95 a3 de 6d 53 45 7b 97   oJ.o.Q.L...mSE..
|   3600: 7b 7f 8b b4 db f7 52 97 08 2e 4f 36 41 24 79 bd   ......R...O6A$y.
|   3616: 54 bb b8 2c 32 6c 1f 54 e6 82 47 27 53 7f 57 ea   T..,2l.T..G'S.W.
|   3632: 4c 10 71 9b b2 0d 9a 80 fb d2 a6 ec 8d 6e 60 64   L.q..........n`d
|   3648: 1a 73 43 13 b9 cb b1 bd da 84 82 8d 17 ae 75 4d   .sC...........uM
|   3664: 1a af 28 9d 01 6d c7 f7 25 8c b5 ef 1b 5e 33 86   ..(..m..%....^3.
|   3680: e7 ce 59 c0 5b 3d e2 46 ab 85 3b b2 c0 9e 7a 75   ..Y.[=.F..;...zu
|   3696: 26 15 cd 6e 6d c2 19 fc cb 3e 5c 5e 95 94 ec 29   &..nm....>.^...)
|   3712: 94 8e d4 e6 0a 38 8c ef fc eb cb 3a 06 97 20 f3   .....8.....:.. .
|   3728: 5f 53 b5 5f 40 33 9e 41 9c db a8 f3 7a d8 aa 0e   _S._@3.A....z...
|   3744: a3 37 00 87 ff 13 78 1a 98 c2 b2 aa bf 2d 10 24   .7....x......-.$
|   3760: 8e e5 9f 9f 3c 4f e4 90 e0 6a 90 44 32 9f ca 6a   ....<O...j.D2..j
|   3776: 91 e1 c8 7f b8 ef 52 db 24 ec 34 cb b6 2e e9 26   ......R.$.4....&
|   3792: fc 6d c8 3c b2 73 22 25 d9 3c bf c6 d9 50 b4 42   .m.<.s.%.<...P.B
|   3808: be a0 e2 f1 5f 2c 55 17 07 0a 43 7f 55 c3 9a bb   ...._,U...C.U...
|   3824: 12 89 b1 70 c1 e5 c8 21 8a 87 04 b4 f1 d7 b7 49   ...p...!.......I
|   3840: be f9 82 75 90 9f d3 0e 3d dc c8 52 37 44 e9 46   ...u....=..R7D.F
|   3856: 09 09 89 2a 31 e7 0e bf 07 e9 4a 06 ba e5 6f b1   ...*1.....J...o.
|   3872: 1a b0 3c c3 df f4 3e 39 3d 4a 07 34 ed 9a 0b 0d   ..<...>9=J.4....
|   3888: 9c 65 c7 29 02 bf a6 97 61 3c 6f 46 48 0a e5 a6   .e.)....a<oFH...
|   3904: bb e2 8b 50 0b 0f 7b 4e 2a 0a 5f b0 1d c8 32 6e   ...P...N*._...2n
|   3920: 15 01 31 0f 3b 3b 45 ea 32 84 24 5e fa 6a 06 15   ..1.;;E.2.$^.j..
|   3936: 17 f4 19 94 b3 26 b3 0a 29 98 b6 66 3e 37 7e 17   .....&..)..f>7~.
|   3952: 43 f8 b7 ae 2e af d4 9d 67 8d fa c0 24 b2 1c 55   C.......g...$..U
|   3968: ea aa 33 67 22 d4 f3 e7 87 a5 9d fe a3 04 55 ae   ..3g..........U.
|   3984: 56 87 2d 21 a9 02 c2 4d a3 88 a3 3f 48 18 83 a7   V.-!...M...?H...
|   4000: 01 b9 6d 60 d4 0f 79 79 8a 4b 66 c3 49 c7 51 0b   ..m`..yy.Kf.I.Q.
|   4016: 15 73 df f2 53 eb 79 03 da 55 2f 5d 9f 8f 01 a7   .s..S.y..U/]....
|   4032: c7 5d cf 61 f0 c2 78 52 56 b8 45 7d f2 d8 56 ca   .].a..xRV.E...V.
|   4048: 80 84 6e ee 2a 00 ba 00 74 46 0f 76 23 76 79 55   ..n.*...tF.v#vyU
|   4064: 4f 97 57 f2 63 07 11 1f a3 46 07 14 3b 50 43 c0   O.W.c....F..;PC.
|   4080: 72 b2 89 5a 44 15 dc c8 9b 2e f8 ad 69 80 3e d7   r..ZD.......i.>.
| page 13 offset 49152
|      0: 0d 00 00 00 01 04 3f 00 04 3f 00 00 00 00 00 00   ......?..?......
|   1072: 00 00 00 00 00 00 00 00 00 00 00 00 00 00 00 97   ................
|   1088: 3e 05 06 00 ae 7c 00 00 40 9e 86 c7 f4 d7 a0 78   >....|..@......x
|   1104: b9 63 d2 14 9c 0c 6a 77 07 99 fe 03 10 f7 fd 07   .c....jw........
|   1120: ea be 72 a1 24 46 49 15 05 16 1f 1c 80 72 1b 98   ..r.$FI......r..
|   1136: e5 f9 d0 65 50 cb 29 09 d4 2b 17 e2 73 7e 45 4f   ...eP.)..+..s~EO
|   1152: 05 c8 b5 bb 1a 81 34 52 32 17 53 96 c8 0d 54 19   ......4R2.S...T.
|   1168: bd d8 c3 af 35 79 a8 75 ae 2d 5d c4 44 eb b2 1f   ....5y.u.-].D...
|   1184: ab 9d f6 d8 42 7b 3b dd 10 f4 34 95 57 ff ec cc   ....B.;...4.W...
|   1200: 63 3f d3 93 e5 16 6d b5 3d e3 23 7b 32 88 b7 ce   c?....m.=.#.2...
|   1216: 7b 9a 8c 46 26 6f ed 2f a7 83 fb fd a7 b7 1b 48   ...F&o./.......H
|   1232: 88 40 20 a5 9b de 7b d9 32 e5 72 1c 85 8a a2 63   .@ .....2.r....c
|   1248: e2 8d 7b 25 a2 13 51 ec fd 0a ed 1b 76 8f 9d 62   ...%..Q.....v..b
|   1264: 2e 9e cf 0f df 58 30 83 e5 90 40 df d2 9f c9 65   .....X0...@....e
|   1280: 3f ae c6 4a 11 a3 16 5b 6f 24 74 95 5e 21 6a c8   ?..J...[o$t.^!j.
|   1296: da 7a dc 82 c2 ab a0 93 c8 dd a8 f1 1d 78 5e 9b   .z...........x^.
|   1312: c8 17 c7 e0 4f 53 1d e1 5a 5f 5c bf 23 25 fb f3   ....OS..Z_..#%..
|   1328: a0 d4 f5 f7 16 78 f8 00 2e 49 1f 7b ff 41 5c 11   .....x...I...A..
|   1344: 83 9e c7 f4 f5 c7 85 d3 97 dd 67 5a 1e 47 d0 41   ..........gZ.G.A
|   1360: ae cb 4c 47 4f 5f fc 9f bf 0b 20 04 94 08 11 8b   ..LGO_.... .....
|   1376: a8 98 f2 5e 86 19 3b f1 0f 9d 49 c8 02 14 68 24   ...^..;...I...h$
|   1392: 20 71 28 49 3c 60 5a 92 ea d3 2c cd 8a 8a d7 cb    q(I<`Z...,.....
|   1408: fd 14 db 41 3c d0 24 89 46 6a c4 52 8d f0 c0 dd   ...A<.$.Fj.R....
|   1424: b4 a6 0f bd c2 5a fd d1 53 bb a9 82 88 64 4a 34   .....Z..S....dJ4
|   1440: 0f 8f ed 49 49 81 03 29 c3 c3 01 00 6a 83 21 dd   ...II..)....j.!.
|   1456: bc 98 29 fb 2b 5e 78 95 4a 57 4f a7 d3 ec 44 a8   ..).+^x.JWO...D.
|   1472: 97 6c 7f 39 11 6f aa a0 60 b1 71 43 a6 45 ea 9b   .l.9.o..`.qC.E..
|   1488: e1 6f 67 2b f9 e4 8a 55 60 5b 69 f3 54 bf 5c 78   .og+...U`[i.T..x
|   1504: 32 d4 25 22 bf 9b 7a a6 a8 a3 70 53 7d e8 50 1c   2.%...z...pS..P.
|   1520: cd 2a 4a 92 a7 f1 e4 84 39 8e 72 a4 cf 3a c8 b2   .*J.....9.r..:..
|   1536: 3e f1 06 f2 83 80 0c 1c 10 91 7b 41 92 f5 df 0f   >..........A....
|   1552: 7a dc 04 78 3c b4 cd 96 b6 15 f6 7f 85 33 db 09   z..x<........3..
|   1568: 92 de 83 ef fc 2c 75 43 49 0c 12 61 48 14 38 d3   .....,uCI..aH.8.
|   1584: b4 fb 43 33 74 3a 0a 5b c5 03 0a d8 f2 2c 1d cf   ..C3t:.[.....,..
|   1600: e9 a0 7f be 25 24 90 77 75 2f 15 a7 ff 62 83 ef   ....%$.wu/...b..
|   1616: 01 04 b1 7c c8 5d 03 5a 28 1d a3 24 e9 7f 32 73   ...|.].Z(..$..2s
|   1632: 19 59 8c 07 30 10 be 58 c2 48 f6 d1 c6 3c b3 09   .Y..0..X.H...<..
|   1648: e0 bf 5c c3 47 81 c8 04 71 ab 55 cb a5 7c 7a a8   ....G...q.U..|z.
|   1664: 45 28 03 75 e9 82 51 e8 bd 41 d4 1e cc b1 fe 43   E(.u..Q..A.....C
|   1680: 4d 5c 66 25 6f fa da a6 fa ea d3 de 0a 2e 5a 3d   M.f%o.........Z=
|   1696: 68 65 10 b6 ee 3c 0b f6 13 bf 3e 6e 57 f3 30 43   he...<....>nW.0C
|   1712: f6 f4 e0 34 e5 47 88 73 9d 9c 36 f0 90 98 0e 5a   ...4.G.s..6....Z
|   1728: 3b ab 0c 7f 8b ab ea 9c 8c 5e 34 26 d7 53 bb cb   ;........^4&.S..
|   1744: 18 58 a7 6f bf 78 43 7b 47 a6 3b 09 f7 9f 5f 81   .X.o.xC.G.;..._.
|   1760: 87 c0 17 02 8f ad 78 32 8c dd 96 0e d8 b8 66 66   ......x2......ff
|   1776: 23 91 e3 e3 37 5c 63 f4 16 c1 58 4f b7 63 de 7c   #...7.c...XO.c.|
|   1792: 36 c3 67 fc 32 a3 d8 84 20 fe e6 0f 2e 2d ee 11   6.g.2... ....-..
|   1808: 3b 97 1a 05 47 ea a1 71 c4 11 08 b1 a9 52 b7 54   ;...G..q.....R.T
|   1824: bf 4c 06 dd f5 a3 ec c2 ce eb c3 82 e0 5f 5c c1   .L..........._..
|   1840: 51 9c e9 d7 d1 45 a6 ea 62 dd 3b 25 79 0a 5e ed   Q....E..b.;%y.^.
|   1856: 5a 9d 81 8e 7c a8 fd 60 31 88 80 f3 df de 60 23   Z...|..`1.....`#
|   1872: 4e 07 7a 02 dd 89 7d 2c bd ce fa 45 ff c6 05 f4   N.z....,...E....
|   1888: ff 2d 18 f5 13 37 c8 d8 be e9 6d 81 da 8f 03 e4   .-...7....m.....
|   1904: 82 0a c3 3b 19 10 de 4a d8 12 37 37 ce 51 4d 41   ...;...J..77.QMA
|   1920: 0a ad 6a 1f c2 80 49 84 15 7d d4 f0 53 5d d1 b1   ..j...I.....S]..
|   1936: b3 c7 27 34 2f bd 05 af df 5c 5f 86 90 55 99 e5   ..'4/....._..U..
|   1952: 4a 9f 86 34 30 b1 fe 0d 14 2c 1a 85 28 0e 09 5e   J..40....,..(..^
|   1968: d0 31 99 e7 8c ff 6e f9 e6 a5 cb fd 85 9b f7 31   .1....n........1
|   1984: a0 07 f4 cc ca 5d c2 37 f9 a3 6e d2 5b 2e 04 32   .....].7..n.[..2
|   2000: 19 03 7a ee fa 9c 5c 68 89 f7 94 b9 19 fe 05 d2   ..z....h........
|   2016: 19 f8 3b fd cf dd 6f 23 3f c3 28 15 8a 8c 86 4b   ..;...o#?.(....K
|   2032: 8a ff ed ca b7 6a 69 4a fc 66 94 a0 ea b7 fa f0   .....jiJ.f......
|   2048: b1 3b 67 85 2b 82 e4 7f 3b 8d da 02 9e 27 fb 69   .;g.+...;....'.i
|   2064: 7b 20 c6 f6 fb c2 18 fa d5 6d 60 22 be 01 93 28   . .......m`....(
|   2080: 08 71 9f b2 b0 e6 79 94 91 b6 b8 b0 ff a7 3f d8   .q....y.......?.
|   2096: e3 eb b8 8f c7 02 5b f1 35 b7 15 db 01 cd c9 f6   ......[.5.......
|   2112: d9 83 36 2f d0 8b 43 66 e2 3a 14 34 70 1e 68 e3   ..6/..Cf.:.4p.h.
|   2128: e3 a7 fd 7f 51 cb ec 60 ca fb 13 fc 11 56 97 46   ....Q..`.....V.F
|   2144: 23 53 0a aa 8d 15 de d4 cd 2b 1b de 3f d5 57 9c   #S.......+..?.W.
|   2160: e5 91 3b 15 98 3e 09 d9 4e d9 25 14 01 32 fc 23   ..;..>..N.%..2.#
|   2176: 38 60 b2 8f 00 f3 21 8b 20 be 8f 6e 02 9a 58 3c   8`....!. ..n..X<
|   2192: a7 a7 6f 3e 24 cc 1f 87 ab e6 12 0f bd 0a 8b 38   ..o>$..........8
|   2208: 17 b2 ee 80 80 bb 50 df e0 cb 72 0a 98 07 40 bc   ......P...r...@.
|   2224: 8d 77 86 27 e8 07 57 4b 50 84 4c b4 73 b4 32 3d   .w.'..WKP.L.s.2=
|   2240: 89 61 e8 b8 dd bf 22 c8 06 07 e6 8f 6d 54 c7 e3   .a..........mT..
|   2256: 12 f9 1f 61 cb e2 40 e1 14 34 9a 2b 16 a7 1f ec   ...a..@..4.+....
|   2272: 85 b8 76 8e 25 59 51 5a 19 82 d9 54 7f 3d 11 05   ..v.%YQZ...T.=..
|   2288: a6 4c 43 28 9c 65 44 5e 57 fe 04 84 ae 7f 26 5b   .LC(.eD^W.....&[
|   2304: ed 26 e2 1c 07 1f fa f1 99 7b 69 f0 03 16 bf 7c   .&........i....|
|   2320: 13 16 75 80 d1 14 17 fa c9 f4 3b e5 9a 06 c0 d4   ..u.......;.....
|   2336: c2 55 53 0a 78 32 86 3c 23 a4 f8 b6 5b d4 9a 51   .US.x2.<#...[..Q
|   2352: 7c c3 1b 56 b1 e7 cd 83 02 75 8c 5e e3 6b b3 d3   |..V.....u.^.k..
|   2368: 03 23 21 75 3f 78 a7 0f 66 87 2e 85 37 6b bc 0e   .#!u?x..f...7k..
|   2384: 2f 27 cd da 3c 1e 1a 35 2b bc 2d 97 ec 55 df 22   /'..<..5+.-..U..
|   2400: fd 19 04 fa be 12 2a 1f 4b ed e3 0d 87 f0 61 db   ......*.K.....a.
|   2416: 06 1f 86 2f 9d 80 32 97 df 70 ff b4 78 df 95 7d   .../..2..p..x...
|   2432: a3 db a5 d0 db a0 b9 ed 4f a7 63 14 bf 8b 99 fd   ........O.c.....
|   2448: 6e 1b d0 02 07 93 e1 be 56 4e d5 c1 41 a6 f0 ea   n.......VN..A...
|   2464: 37 aa 21 7c 51 2f 5b c4 a0 ae ba e8 a7 1d c6 a5   7.!|Q/[.........
|   2480: 1e 8b 3b 86 7b f2 ea 57 b7 2f 88 37 5e 7a 89 e6   ..;....W./.7^z..
|   2496: 09 c0 e4 3b aa bf 78 41 7c 00 14 cc 37 f1 1a f6   ...;..xA|...7...
|   2512: a5 79 49 f0 5a e0 1e 5d ba 33 ef fe 89 6e 20 01   .yI.Z..].3...n .
|   2528: 96 70 7d 58 0a 98 e0 c4 3e 20 b2 46 83 b8 1f c9   .p.X....> .F....
|   2544: fe 78 8a 41 a9 ca 3f 2c c1 d4 35 a3 39 85 4d a1   .x.A..?,..5.9.M.
|   2560: 23 5e c7 b5 79 75 00 e7 d5 fb 30 99 00 c4 d0 31   #^..yu....0....1
|   2576: 80 68 f2 80 1b 5e c8 30 f6 36 e1 a1 b5 87 92 35   .h...^.0.6.....5
|   2592: 6b 9c ac 39 39 3f 54 e9 4d b4 8b bd 09 4c 6f 9a   k..99?T.M....Lo.
|   2608: 9a 6d 65 1a 7a 2f 98 0f 33 32 3a 4c bd d6 c3 d5   .me.z/..32:L....
|   2624: 2b 3f 7f 0a d7 f7 f0 05 88 5e 36 30 4d a2 0a 65   +?.......^60M..e
|   2640: f6 a9 5b 2d 5e 3f 0e 13 c9 45 1d c9 28 19 6d ba   ..[-^?...E..(.m.
|   2656: ff 9d af 10 17 b2 49 34 d8 a1 c8 ce d2 b7 99 3e   ......I4.......>
|   2672: 7c c6 f5 d6 74 84 05 84 2a bb 2d 25 27 67 04 f0   |...t...*.-%'g..
|   2688: b3 6d 0a a9 43 f6 c4 51 71 1d 48 8d b3 a4 47 ed   .m..C..Qq.H...G.
|   2704: d6 14 c3 27 3e 6a e9 64 ef d7 af fb b0 eb ec 3c   ...'>j.d.......<
|   2720: bb 92 77 32 5e 4f 20 6d f7 a4 94 ce d9 9b c5 78   ..w2^O m.......x
|   2736: 84 f0 c3 1a ca d8 e2 ce 76 0a 5e f8 73 9d 5a 82   ........v.^.s.Z.
|   2752: 1e f5 0a 43 41 77 b9 d1 17 ef 47 0f 04 7b 5c b9   ...CAw....G.....
|   2768: 3d 96 ec 7c b6 45 7d f9 fe 46 cb d2 50 a3 7f 99   =..|.E...F..P...
|   2784: 16 ef 8d 2d d5 55 30 d8 27 18 bb f9 fa 76 80 55   ...-.U0.'....v.U
|   2800: 13 1e f3 c2 dc 11 ef 8b 5d 67 d2 cd 70 74 b0 93   ........]g..pt..
|   2816: f9 51 ec 35 24 cc 01 55 9f 92 a5 10 7f 66 07 e9   .Q.5$..U.....f..
|   2832: f9 0a 32 06 db fd a6 ed 3e c6 b4 55 41 45 6c d3   ..2.....>..UAEl.
|   2848: da a9 57 98 b1 79 3e 3a 6a e3 c4 37 3c 81 ba 16   ..W..y>:j..7<...
|   2864: 3b 6a 3b 29 93 80 50 6d 94 05 dd 6b 37 10 f7 5c   ;j;)..Pm...k7...
|   2880: 5a 23 ef 13 1b 49 a5 fb 7b e8 49 a8 2a f4 e2 f4   Z#...I....I.*...
|   2896: 0b a6 28 03 5b 3e ce c0 f6 b4 d3 c3 b5 ed 2f 87   ..(.[>......../.
|   2912: a3 66 13 93 45 50 d5 3d 59 e4 42 fa f7 00 d8 b8   .f..EP.=Y.B.....
|   2928: 7a 3a cc ce fc d2 8d a5 e9 1b 63 f8 21 6e 4f a3   z:........c.!nO.
|   2944: 0e 17 92 56 d6 2e c9 a4 b8 07 2f 25 9e 3b ff a7   ...V....../%.;..
|   2960: 9d 31 56 43 85 d6 ea 91 ab 29 8c 1e bd 29 f2 9c   .1VC.....)...)..
|   2976: 9c 48 81 a2 a9 da 80 c8 b6 8a 67 48 1d c0 02 4a   .H........gH...J
|   2992: fa a1 e3 69 15 83 c5 ca 9d 96 43 06 ad 97 c3 5c   ...i......C.....
|   3008: 09 e0 de b9 0d 4e f5 99 75 e1 c0 98 20 91 c3 5d   .....N..u... ..]
|   3024: 93 81 0f bf 2b 96 96 c0 9d 30 d3 84 c0 9e 60 56   ....+....0....`V
|   3040: 08 0a 3d 48 be 6b 3d 32 c4 5b e8 87 02 88 f6 f3   ..=H.k=2.[......
|   3056: 71 71 07 f8 66 42 8d df 4e aa 44 6f ec 3a b8 7e   qq..fB..N.Do.:.~
|   3072: 4d b3 83 74 b4 bf 34 d2 2c 95 3c 44 9b c1 cc 9a   M..t..4.,.<D....
|   3088: a7 b2 9a 9e 02 81 b4 e1 c6 cc 53 6a 23 1c b4 0b   ..........Sj#...
|   3104: f6 5e af 3e 2b e8 8a ad d9 d3 d3 36 ea a9 23 06   .^.>+......6..#.
|   3120: 1b f5 ce 42 b0 0c 11 d4 69 a4 bf fa 4b 30 34 b4   ...B....i...K04.
|   3136: 52 48 84 cc 31 08 03 a9 93 d9 e5 c8 44 cd cf fe   RH..1.......D...
|   3152: e4 2e c5 3a c2 b2 d9 bc 15 4d 7f 7a 81 52 9c 53   ...:.....M.z.R.S
|   3168: 3e 1a 74 78 c8 38 4a 02 ce 6b 96 2d 9c 3b 74 41   >.tx.8J..k.-.;tA
|   3184: 50 06 d9 6f fa c8 98 05 f5 70 c3 7f ca 0a 78 f4   P..o.....p....x.
|   3200: 01 f1 a2 f5 46 8a 02 b8 c3 37 7e cc a0 87 b0 fc   ....F....7~.....
|   3216: 32 e5 86 6d 95 22 67 fd 10 56 c4 78 52 c5 12 e5   2..m..g..V.xR...
|   3232: e9 f2 b2 fa f6 78 2e a3 82 a6 73 1b 9f 96 a7 e6   .....x....s.....
|   3248: 81 49 e9 17 f1 0a e6 99 21 ce ec ff be aa 43 e6   .I......!.....C.
|   3264: ea 6a ac 2b a4 b9 0b 48 6c 81 1a 26 bf 93 69 36   .j.+...Hl..&..i6
|   3280: 53 1e 46 2a 43 af cc ef 96 4e 0b 32 38 93 10 d5   S.F*C....N.28...
|   3296: d8 6f 88 e7 f9 92 f8 37 28 51 55 98 fa 1a 89 80   .o.....7(QU.....
|   3312: 35 d5 d1 90 f1 91 8f 4a 5a 81 2f 79 a7 e4 80 3c   5......JZ./y...<
|   3328: a2 5e e5 b3 f8 d3 56 ec cd 02 73 0e af 8d d8 81   .^....V...s.....
|   3344: 26 7b 4d 96 f1 b3 75 7a de c3 b8 a6 b6 75 f2 5c   &.M...uz.....u..
|   3360: 97 08 a3 50 9b d8 cf 43 c0 90 f7 52 da 87 8d 12   ...P...C...R....
|   3376: 1c d4 0a de 56 26 3d af d1 d5 03 ff d8 62 a1 c5   ....V&=......b..
|   3392: f2 7c ea 1d 39 3f f0 e1 5f cb 3d db 1a 8a a1 b7   .|..9?.._.=.....
|   3408: 10 01 f1 c6 17 53 bc 83 eb 2a c4 cf 3a 04 b1 8a   .....S...*..:...
|   3424: 6d 80 20 be 7b 72 6c c9 be 4e eb f4 cd c8 60 d2   m. ..rl..N....`.
|   3440: 1c 46 b1 8a e5 9b 66 22 4f 05 bd c6 37 34 67 2d   .F....f.O...74g-
|   3456: b1 c5 bb 60 de 4b c4 3a 29 14 dc de 38 9c 0d 09   ...`.K.:)...8...
|   3472: bd 78 2f f6 e4 34 18 9b 51 41 a7 57 f9 f2 ad 0d   .x/..4..QA.W....
|   3488: 82 70 5f b4 fa 84 19 5c 72 29 8e 5f b2 8b fa 2a   .p_.....r)._...*
|   3504: e1 d1 55 bf b8 45 c3 79 e0 04 62 10 1f 76 79 de   ..U..E.y..b..vy.
|   3520: 84 93 a8 df 92 8f 41 0d 38 14 70 b3 dd 9d c6 36   ......A.8.p....6
|   3536: f6 12 72 ee 23 e6 ba ed 97 1f cd 36 55 ac 32 98   ..r.#......6U.2.
|   3552: 78 12 55 23 d5 64 ad ed cf 32 d3 2d 7b 51 d7 7f   x.U#.d...2.-.Q..
|   3568: 3c 6f 0f fb c7 06 75 96 ef 64 ce c4 09 15 4f b8   <o....u..d....O.
|   3584: d7 47 f0 b4 83 42 92 40 f7 ed 78 f0 cf 98 c6 a3   .G...B.@..x.....
|   3600: f4 ef b7 01 99 a0 36 5d a2 dd 0f 5d f8 d2 63 87   ......6]...]..c.
|   3616: f1 dc 9a 2c 40 e4 33 3a fa 57 39 ca 3c bb 51 76   ...,@.3:.W9.<.Qv
|   3632: 86 34 73 b4 a8 53 8a ef 4c c3 e9 08 df 8d 11 78   .4s..S..L......x
|   3648: 3c b0 9e d4 c4 ff cc 2a 09 c1 26 d1 b0 2d 72 25   <......*..&..-r%
|   3664: 37 e8 ea 32 71 fa 23 69 bc 43 b0 9b 55 9d 32 c1   7..2q.#i.C..U.2.
|   3680: 6d 7e 7e 08 de d2 fa fb 74 c1 93 ed 35 b2 8e 96   m~~.....t...5...
|   3696: 32 8e d0 ad b0 33 38 06 f7 8d 9d 30 e0 c9 44 3f   2....38....0..D?
|   3712: be 0e 68 2d 6b c0 71 b3 94 bb ef 6f 14 f5 36 00   ..h-k.q....o..6.
|   3728: ea 51 7a 5b af 8e 8e df c9 cb 62 3f 1f 45 15 b8   .Qz[......b?.E..
|   3744: 04 0f 81 c7 ae c8 db 4e 1b 59 d6 e6 24 e5 22 33   .......N.Y..$..3
|   3760: 15 29 b4 15 d4 36 b3 e4 57 e2 a2 60 84 84 4f c4   .)...6..W..`..O.
|   3776: d6 bd 9b eb 1b c5 2f 4a 9c 4d 15 68 60 c7 bd 1e   ....../J.M.h`...
|   3792: 87 d0 88 e0 34 31 e0 e0 6d 4d 3c f4 6b fb 4f 46   ....41..mM<.k.OF
|   3808: ab 16 f7 7d b4 be bd 3f 39 8b c2 0d 5f 4c cd 06   .......?9..._L..
|   3824: f5 36 3c c6 ce bb 8d 1a c0 1d cd 3c b3 b8 53 0c   .6<........<..S.
|   3840: b2 82 7b 79 f7 ff 64 42 61 40 26 e4 cd b8 dd af   ...y..dBa@&.....
|   3856: fb f0 91 2e 20 ad 08 f9 a9 30 ed 30 0a f4 1a 1b   .... ....0.0....
|   3872: 5f 58 9e 96 ee 92 04 01 a9 a7 8e d5 69 ab 75 7d   _X..........i.u.
|   3888: d4 58 a6 b7 60 ee 25 80 db 46 d2 20 ec c4 95 47   .X..`.%..F. ...G
|   3904: ee 39 08 88 80 d5 7e 71 33 7a 7c 42 7c c9 2e f5   .9....~q3z|B|...
|   3920: 0d 47 7c be b0 e5 74 4d 4b 59 f7 c0 0a bd f6 12   .G|...tMKY......
|   3936: 77 94 71 df ce b1 20 16 8d 39 af e3 3b 29 b0 ba   w.q... ..9..;)..
|   3952: 84 43 1f 23 b1 3a b0 dd df e9 f2 c9 c7 a9 07 2f   .C.#.:........./
|   3968: d9 e2 ae 66 f6 0b 6c 1a e6 59 7d 02 3f e5 8f 85   ...f..l..Y..?...
|   3984: 48 30 d8 fa b0 d0 f4 4d 7b 0e 09 af 1c 90 02 6a   H0.....M.......j
|   4000: 9b 1c 9c 51 63 f5 58 45 a7 53 c4 17 69 1a eb 14   ...Qc.XE.S..i...
|   4016: 9f a0 b4 80 93 0a 57 58 da 34 cc fb cb a8 cc 59   ......WX.4.....Y
|   4032: c3 f6 a3 21 16 d8 8c ce 16 8b 44 78 b4 52 78 e5   ...!......Dx.Rx.
|   4048: 1d e8 89 72 be a9 b9 59 49 38 24 4e 98 6f 21 83   ...r...YI8$N.o!.
|   4064: ff 4e 12 23 8b e7 db 91 8b 12 f4 46 7a 0a d3 4e   .N.#.......Fz..N
|   4080: 18 2a 02 c7 79 ec 85 43 b5 9a ac c5 12 ad fb 58   .*..y..C.......X
| page 14 offset 53248
|      0: 0d 00 00 00 01 04 3f 00 04 3f 00 00 00 00 00 00   ......?..?......
|   1072: 00 00 00 00 00 00 00 00 00 00 00 00 00 00 00 97   ................
|   1088: 3e 06 06 00 ae 7c 00 00 9e de 63 2f fd 8b ea ff   >....|....c/....
|   1104: f2 f2 37 ff aa 18 0f 69 94 cc 49 85 cd f7 bb 7b   ..7....i..I.....
|   1120: e5 c0 09 d1 a2 78 f4 c0 1b 23 e7 d5 ac 2d 85 27   .....x...#...-.'
|   1136: c2 48 c2 80 ad 93 a0 10 44 98 5a 6e 9e f1 92 a9   .H......D.Zn....
|   1152: 98 f9 0d 00 2a 3a 22 36 c5 21 63 fb 95 fb c7 7e   ....*:.6.!c....~
|   1168: 6c 07 7d d1 a5 f1 a9 8f f2 d2 e2 0f 3d 02 56 94   l...........=.V.
|   1184: ea 44 2a 17 ee 99 82 71 9c 81 c7 9c 8f cd 2e 4d   .D*....q.......M
|   1200: 8d 0a 1e 71 18 3d 4d 9d a6 ae 35 36 48 08 24 e8   ...q.=M...56H.$.
|   1216: 46 78 8e 66 f2 8a f1 3d c3 72 ad 65 18 5f ed 2d   Fx.f...=.r.e._.-
|   1232: 7e 92 18 9e 4c 23 7c f8 8d 83 20 43 50 63 db 75   ~...L#|... CPc.u
|   1248: 12 7e 52 0e 71 13 e4 b6 31 c3 5f 88 b7 d0 76 80   .~R.q...1._...v.
|   1264: d5 9f 7e dc 8c b4 be 11 da 2c e1 a9 28 5e c8 46   ..~......,..(^.F
|   1280: 3c 0d cd 7a 2f b9 9f 53 9c 11 01 d1 09 31 5f 36   <..z/..S.....1_6
|   1296: bb a4 f3 a0 ad ba b7 c4 ce d1 78 4e ad e8 cd f9   ..........xN....
|   1312: 92 ed 51 05 69 ab 12 a3 89 4c 6d f5 7a c4 c5 54   ..Q.i....Lm.z..T
|   1328: 1e 26 e7 f8 22 1c 42 cb 9e ac 7a 53 79 09 3c 04   .&....B...zSy.<.
|   1344: 14 1d 49 15 c7 13 00 84 3c 7f 15 2d 5b 62 da d8   ..I.....<..-[b..
|   1360: 8f 88 53 7a 78 f7 c4 7b be 67 25 cd 97 1f bf 19   ..Szx....g%.....
|   1376: b4 8f 4a 10 63 89 2f cf 56 c1 63 79 92 cc b1 75   ..J.c./.V.cy...u
|   1392: 45 ee 6a 9d c5 de 04 e0 60 49 c5 0e 09 a0 65 46   E.j.....`I....eF
|   1408: 57 f3 6c 5f 0f 07 99 fa 2b 2c 2c 5b bd b3 9b 50   W.l_....+,,[...P
|   1424: 38 43 94 4b 7b d2 b0 78 3b 4c e8 55 1d d3 6b 6a   8C.K...x;L.U..kj
|   1440: f7 dc 27 ef b5 b1 3a 52 9f 5a e9 7d 87 bb 61 5b   ..'...:R.Z....a[
|   1456: 39 a3 eb 5e eb f1 80 78 85 d8 86 16 76 3c b3 b0   9..^...x....v<..
|   1472: 44 72 d7 0e 91 95 5e 7d d5 93 0a 4d 60 46 ad a8   Dr....^....M`F..
|   1488: b7 d5 30 e2 39 4c d8 0a d4 ea 5e 46 95 39 1a 1e   ..0.9L....^F.9..
|   1504: 9d 81 27 20 bc 01 1e f5 2d 4a 19 4a a5 2d 94 91   ..' ....-J.J.-..
|   1520: c2 a3 31 65 aa 13 f4 92 ce b2 c1 61 25 13 7d 93   ..1e.......a%...
|   1536: f0 c9 51 e5 ce 7c 0e 2d e4 f2 d4 b5 09 73 fc 96   ..Q..|.-.....s..
|   1552: e0 a8 a7 85 b6 10 0f 95 a5 83 c5 4b ca 33 9f 98   ...........K.3..
|   1568: 38 d9 50 29 38 08 cc b9 89 40 0e d7 1d 92 cc 4a   8.P)8....@.....J
|   1584: 7f a2 53 dd 19 d3 13 63 04 29 04 18 c2 79 97 36   ..S....c.)...y.6
|   1600: 85 e8 95 4a 2c 34 7c 39 78 a5 fe 8b bb 22 93 4c   ...J,4|9x......L
|   1616: 69 b6 86 ca 0c 61 39 b3 85 c1 df ee 28 b0 3d 73   i....a9.....(.=s
|   1632: 2f 78 84 69 f4 55 ed 6c b8 98 61 0c f5 64 15 7e   /x.i.U.l..a..d.~
|   1648: 84 bd 4f de ae 6c 1b db c1 60 c9 0a b9 22 f0 7d   ..O..l...`......
|   1664: 03 23 0f e3 f5 77 3a 3b 4b 7f 33 d9 e6 7c ee 92   .#...w:;K.3..|..
|   1680: 0c 95 f6 9d 98 53 e3 7b 92 3b 15 a2 de 84 e6 75   .....S...;.....u
|   1696: 64 e1 44 b5 9d 16 77 10 78 65 e0 72 66 a9 13 db   d.D...w.xe.rf...
|   1712: 27 cf 9f 0d 33 5d ee 89 37 cf 2f b6 fc 28 b1 93   '...3]..7./..(..
|   1728: c3 6d 0f 80 d8 5a 16 33 ea 06 d7 81 d3 45 59 94   .m...Z.3.....EY.
|   1744: 07 73 bf 47 f6 fd 6e 78 13 5a ec 30 62 a4 c4 12   .s.G..nx.Z.0b...
|   1760: 2a 56 8f 29 03 37 0c 98 80 8e e9 50 4f 3a 37 a6   *V.).7.....PO:7.
|   1776: f6 29 3a 6f 17 54 45 8e df 98 62 1e 23 d0 ec 20   .):o.TE...b.#.. 
|   1792: 4b c8 f6 cb ce ef f5 8b f2 fd a9 a8 51 5c 0f d0   K...........Q...
|   1808: e4 4d 7c a1 a1 2a 88 f1 24 78 9e cb 7c 81 6b 0a   .M|..*..$x..|.k.
|   1824: 51 73 1e bf 48 21 fb b3 7a 5c 48 0f 53 04 00 5f   Qs..H!..z.H.S.._
|   1840: 7e 66 7a 2e c0 30 9f bf 2f e8 95 b5 fe ea 9c f8   ~fz..0../.......
|   1856: 0e 6d 1f 54 81 da e9 bc 28 ea 42 de 5b e0 7f 93   .m.T....(.B.[...
|   1872: 79 6d 6d 8e f3 3c ba 13 67 3a 08 31 03 43 da eb   ymm..<..g:.1.C..
|   1888: 34 40 04 3e a4 21 44 92 96 75 2c 9f 8f 03 89 98   4@.>.!D..u,.....
|   1904: f0 27 dd 27 49 3d e3 9b 37 4e 66 ef 98 bd 1b ed   .'.'I=..7Nf.....
|   1920: 3f cc a4 10 85 a4 39 90 cc a3 80 3d fd e5 44 4f   ?.....9....=..DO
|   1936: 45 79 64 37 d2 70 ba 69 99 0f 4d 33 5a 68 bd 53   Eyd7.p.i..M3Zh.S
|   1952: 92 24 0d 3f f4 e2 4b 72 35 cb 52 ea 3d d4 85 ee   .$.?..Kr5.R.=...
|   1968: e3 12 b3 87 3a 9d 70 b8 5c bb c7 c4 98 03 84 25   ....:.p........%
|   1984: 5d 39 ef 24 bc ab b3 da 13 7b 2c bc 17 b1 76 4c   ]9.$......,...vL
|   2000: 5d 5a 1c 62 14 8d 5d 20 32 dc 16 64 79 7e 13 95   ]Z.b..] 2..dy~..
|   2016: 27 f6 99 dd f2 32 c2 43 c6 77 b4 f4 11 88 6d 3f   '....2.C.w....m?
|   2032: 94 0e cb db c8 c3 9e 40 b1 7d d4 16 e6 95 f4 d9   .......@........
|   2048: 3d 9b 5d df d5 a3 39 06 c1 eb a1 30 cb 85 77 d6   =.]...9....0..w.
|   2064: 9b d9 12 7a 6a 82 9e 3a bf 5a ff 5c b8 6f 4a bb   ...zj..:.Z...oJ.
|   2080: 02 36 94 1d 5a 0c 95 da 85 d1 9c 22 5a 36 fd 28   .6..Z.......Z6.(
|   2096: 51 cf 48 60 84 a1 ce ad a9 5f 4c 51 43 71 7f d5   Q.H`....._LQCq..
|   2112: 1a e1 6f b0 01 a5 6b f1 57 91 84 78 b0 d5 06 7c   ..o...k.W..x...|
|   2128: f4 96 3d 9b e4 6d 04 b7 26 a0 5b 61 53 39 ba 49   ..=..m..&.[aS9.I
|   2144: 2c ea d8 18 e5 aa b3 ef 3e 8e 5d 91 ba 93 15 2b   ,.......>.]....+
|   2160: 4d e6 5c e7 47 ee 7c 9e d5 ca f4 82 91 84 f4 33   M...G.|........3
|   2176: 02 46 9d dc 34 8d f1 5b 1c 15 5d db 2f c9 d0 09   .F..4..[..]./...
|   2192: fb a4 cf d9 0d 30 9f 16 3b 5e 80 ff 26 ac 19 b7   .....0..;^..&...
|   2208: b2 56 1a bb 72 7f b9 2f e7 41 6a e3 fc e5 cc e0   .V..r../.Aj.....
|   2224: 27 2c 78 86 1c 11 ee f4 51 2d 22 20 73 3b ed d6   ',x.....Q-. s;..
|   2240: 42 c2 de 23 de c6 7d 43 8f 16 de 66 57 64 94 32   B..#...C...fWd.2
|   2256: 13 da a6 91 b7 d5 8f 3a d6 c4 a7 e0 93 ff f8 9c   .......:........
|   2272: e3 70 a9 e9 e9 7a 50 37 3c 38 d3 fd 68 ff 17 5f   .p...zP7<8..h.._
|   2288: 96 b7 b4 77 c5 ce 1d 37 49 35 91 6c 2e 37 ef ac   ...w...7I5.l.7..
|   2304: 18 ee 9f 7a e5 28 88 a6 33 39 05 f7 c8 1f 1a 15   ...z.(..39......
|   2320: f6 ad 55 5e 24 ea ce 21 c8 e2 1e 63 bd 7a 19 60   ..U^$..!...c.z.`
|   2336: c0 aa e4 42 2f 0f 53 f4 2c 04 99 a4 9a 13 86 6f   ...B/.S.,......o
|   2352: 24 7b 42 ad c9 a9 c9 df 82 90 23 0a b6 e8 2a e4   $.B.......#...*.
|   2368: 36 c5 04 1a e4 dd 87 06 ca 6e 04 7b be 37 b4 ef   6........n...7..
|   2384: 05 1d 6a ab 36 c8 58 52 3d ad 26 21 45 58 f4 66   ..j.6.XR=.&!EX.f
|   2400: 05 a2 95 89 9c 31 1c 3c 14 9b 59 90 29 28 f9 9d   .....1.<..Y.)(..
|   2416: f9 96 74 ab d7 30 91 81 17 ba b8 08 51 38 75 77   ..t..0......Q8uw
|   2432: 06 ca 81 1d e3 9b 67 3e 0f d9 fe 98 69 e0 d8 f1   ......g>....i...
|   2448: 78 dc 96 0e 88 50 9c b5 c1 1d 25 61 87 70 bf a5   x....P....%a.p..
|   2464: 93 2f f9 c7 7b ab fd 2c 98 10 ef 0f ce a4 bd fa   ./.....,........
|   2480: 52 7f ff 29 53 5f 9c b5 92 2e 8c f5 36 a0 7c 88   R..)S_......6.|.
|   2496: 84 18 80 59 66 d2 c6 58 55 c0 5d 07 9f 69 d2 72   ...Yf..XU.]..i.r
|   2512: 88 0d 1d 8f 08 7c d5 b7 9c 15 4c 6c c6 1d f4 76   .....|....Ll...v
|   2528: 0a 82 32 6c 72 4e 3e cc ff 8b 62 c5 37 4e 0c 0d   ..2lrN>...b.7N..
|   2544: 09 89 8a 95 1b 63 d3 85 c6 4a 41 7c 49 46 60 95   .....c...JA|IF`.
|   2560: eb 37 60 82 84 55 ea fe 22 97 16 58 ad 33 06 ae   .7`..U.....X.3..
|   2576: d0 f5 5d 06 b3 2e b9 0a 6d d0 14 c8 d5 0b 8a cf   ..].....m.......
|   2592: 51 ff 64 db a8 81 e1 8b 39 1a ef 85 18 fd a2 48   Q.d.....9......H
|   2608: 4f 47 b3 1e 5a 57 21 f0 6b 10 f0 ec 0a 4a 35 56   OG..ZW!.k....J5V
|   2624: f5 79 c5 de 62 d1 4a c2 e5 bc 69 89 9d 9b b9 4b   .y..b.J...i....K
|   2640: ba 21 99 5a 58 c6 23 ab 67 45 13 4a 1d 3e da 68   .!.ZX.#.gE.J.>.h
|   2656: cf a6 4b 20 58 b0 4e 2f 0d f2 42 83 9d 96 43 6e   ..K X.N/..B...Cn
|   2672: df 45 61 c5 bd ca 86 b3 6a ad 26 a2 8d c7 c4 03   .Ea.....j.&.....
|   2688: 63 d8 b8 02 0a f6 96 f9 15 46 2c bd 04 68 aa 1b   c........F,..h..
|   2704: 00 46 7e a0 bb 47 fe 5f 2b 7b b4 59 54 14 e3 25   .F~..G._+..YT..%
|   2720: cd 10 8b ff 05 6c 6d ab 9c 90 cb d4 d8 0d bd 58   .....lm........X
|   2736: be bc d5 c0 67 bd 0f d3 9d 22 71 c4 65 e6 2f bc   ....g.....q.e./.
|   2752: 5e 3a 54 39 7a ec ab b1 46 80 25 5e 33 19 de 3b   ^:T9z...F.%^3..;
|   2768: 4a 84 28 04 80 f6 86 aa 32 75 8e 5b 51 66 b0 64   J.(.....2u.[Qf.d
|   2784: 29 94 f6 56 6d 1c b1 2e 2f 4c 55 3b e5 82 01 75   )..Vm.../LU;...u
|   2800: 3f 58 d3 a0 b9 0b 6b 25 24 94 9e a5 ce a4 1c db   ?X....k%$.......
|   2816: 51 f9 bb 53 71 19 0a 5a e3 2e 48 e1 06 24 7a b9   Q..Sq..Z..H..$z.
|   2832: 88 fb dc 4c 2a 23 b9 b9 7e 26 a4 3f 7f c7 b5 f1   ...L*#..~&.?....
|   2848: cd cb 82 17 34 89 70 b4 10 ad be b8 4b 0d aa 07   ....4.p.....K...
|   2864: 61 6d b3 6f 56 ac a4 b2 e4 2f be 28 e6 24 3a ab   am.oV..../.(.$:.
|   2880: cc 1a 8a 7f 54 c7 a3 c8 49 50 91 76 f9 75 d8 3a   ....T...IP.v.u.:
|   2896: 76 1b ec 5b 51 c2 5f 6f c9 c7 60 24 0a 61 f4 ed   v..[Q._o..`$.a..
|   2912: d3 30 23 e7 a0 83 c7 5e f4 b8 1b 39 65 43 2a 8a   .0#....^...9eC*.
|   2928: 1d a8 64 4d c5 4a a6 ab e1 f4 66 90 f7 2b 1c d6   ..dM.J....f..+..
|   2944: ba 76 96 43 2d a1 6b 26 ee f1 3b 8b 2f e4 78 7e   .v.C-.k&..;./.x~
|   2960: 9b bd fa 2e 80 ff ec 26 74 5b 56 11 92 88 51 8c   .......&t[V...Q.
|   2976: 6d 42 4f f5 3c 53 8b 42 3e b6 57 37 fe ad 66 59   mBO.<S.B>.W7..fY
|   2992: 4a f4 0e a1 39 a2 32 c0 23 78 e0 e7 db f9 f9 44   J...9.2.#x.....D
|   3008: 34 12 00 a0 d2 1f 45 25 4f 4a 72 74 9e b2 d5 e4   4.....E%OJrt....
|   3024: 25 4e d5 0f ba 1b 87 7f 23 f2 7f dd 96 6c 1c 44   %N......#....l.D
|   3040: 0d 11 9a 22 6a f8 83 bf 37 e6 c9 5d 2e d3 dc d3   ....j...7..]....
|   3056: aa 03 03 7e bf a5 cc a1 d8 55 6f 05 1a 70 5e 89   ...~.....Uo..p^.
|   3072: d5 8e a5 08 f4 fc 90 7c d2 8a 67 53 82 25 82 02   .......|..gS.%..
|   3088: 98 e0 ad 57 bb d4 7e fc 18 8f 25 9d d7 11 57 ab   ...W..~...%...W.
|   3104: cf de 4b a5 1b 90 6b 38 a3 ef 93 ed 44 d7 9d f1   ..K...k8....D...
|   3120: 54 b1 0b 9b 2d e9 e7 d3 a6 6c 78 fd 40 d9 ea 7f   T...-....lx.@...
|   3136: ec 10 60 2f ed 4c df f4 ef fb 4a cd fd 1a ea 94   ..`/.L....J.....
|   3152: 7b ac 69 70 be d1 2c ca e3 88 a7 b4 7f 95 83 eb   ..ip..,.........
|   3168: 2e 82 0e 3e 60 27 b9 0c 62 56 3d b2 c4 7d 97 2c   ...>`'..bV=....,
|   3184: ac cd 0b 05 b3 41 ab 7c 2e eb 4e a7 3e 8f db 53   .....A.|..N.>..S
|   3200: 88 59 f3 d6 f4 bf 5e 80 2e 5b f2 08 f8 dc 68 28   .Y....^..[....h(
|   3216: a7 a3 e3 4e ef 8f 3f 4e a6 c0 4b 04 d9 59 3e 53   ...N..?N..K..Y>S
|   3232: 07 78 2c b2 58 a6 78 a4 0a 6b 9e 6b 8d f2 3e 70   .x,.X.x..k.k..>p
|   3248: 45 07 82 f9 f0 d4 0f f7 81 e9 ab 09 c6 7a 3a ff   E............z:.
|   3264: 98 6c bf 1f 43 c3 d5 ba c1 ad fe 9c a6 5e d5 f7   .l..C........^..
|   3280: 93 ec 20 dd 33 ad 35 0b 74 47 80 1e 5b 8b c3 7c   .. .3.5.tG..[..|
|   3296: 5c 81 66 82 dd 18 70 19 b0 54 18 2f 90 c2 22 bf   ..f...p..T./....
|   3312: 75 e8 b6 8e b7 3e 7c 2d b4 e9 7c b4 08 4e e9 c3   u....>|-..|..N..
|   3328: e1 80 88 63 f2 90 ee ae 3d 9e 55 15 62 7f ee df   ...c....=.U.b...
|   3344: 57 69 03 da 76 e9 f3 6b 90 9a a7 b9 bb 4b b7 2b   Wi..v..k.....K.+
|   3360: d0 a0 3b 70 b9 96 70 17 c8 0c cb ae 6e 3e e1 33   ..;p..p.....n>.3
|   3376: 02 98 53 d6 af c6 d8 55 15 7a ea f1 8f 36 6b d4   ..S....U.z...6k.
|   3392: f2 8c fd db a5 81 50 fe c8 a8 cb 7f e6 9a a9 9f   ......P.........
|   3408: 34 82 6d a5 11 6b e6 79 58 a8 54 ed 55 cd 19 46   4.m..k.yX.T.U..F
|   3424: e9 7f 92 f8 0b 3e ab b5 8d d3 9f 33 5c e7 f6 1e   .....>.....3....
|   3440: 28 f7 5f 2f 38 36 25 ed 7f 36 93 19 f1 a7 9c e7   (._/86%..6......
|   3456: ad 4e 11 33 17 93 82 cf b4 a7 93 36 97 d9 e0 3d   .N.3.......6...=
|   3472: 7e 54 b9 96 37 85 16 db e8 29 6f b0 b1 83 16 63   ~T..7....)o....c
|   3488: 9b 19 30 85 c6 17 2c b7 bc f2 2f 87 07 56 97 b3   ..0...,.../..V..
|   3504: c4 a6 47 d5 8b 7a 68 a4 d0 11 ce ff 6c 4c 28 93   ..G..zh.....lL(.
|   3520: c3 37 ef 1e 7a 51 65 a9 6b 8a a0 a4 b0 b9 ef 17   .7..zQe.k.......
|   3536: dc 44 99 34 7b 33 f4 b9 3f d3 20 36 54 5c 10 6d   .D.4.3..?. 6T..m
|   3552: 18 25 33 6e fc fa a0 16 c7 b6 78 f8 4b 0c 5e 7e   .%3n......x.K.^~
|   3568: c3 cb 95 54 90 88 57 20 d9 17 9b 82 dc e8 7f c6   ...T..W ........
|   3584: bd d8 dc 13 ca 66 06 64 8e 46 2e 48 13 eb 4d 07   .....f.d.F.H..M.
|   3600: 24 7f 8e 35 f3 bf fb 54 80 c7 6e 93 da ce 7f 2b   $..5...T..n....+
|   3616: 60 3e 53 82 33 38 fe 69 7b f6 fa 2f d8 40 bd c8   `>S.38.i.../.@..
|   3632: 95 75 6b a2 e5 53 7f 5c f1 f3 23 07 8f 42 04 8f   .uk..S....#..B..
|   3648: 64 43 a2 25 c1 40 07 e9 be b6 3c d6 1b 86 7f 91   dC.%.@....<.....
|   3664: f4 73 0f 6b ca 6b cb 8f 7c a8 5b 60 ee 20 a6 e6   .s.k.k..|.[`. ..
|   3680: dc 96 6b 8f 8d 62 1e 42 e0 1b 85 49 85 34 b4 c9   ..k..b.B...I.4..
|   3696: 85 06 ec c4 b7 b5 89 47 af fa db d1 5b 9f ac 6f   .......G....[..o
|   3712: 8a 27 53 48 4d ad a1 30 6b 3e 45 b1 b8 b9 50 17   .'SHM..0k>E...P.
|   3728: 7b b7 29 a8 b3 d5 9a 42 a9 2a e4 01 79 34 c5 21   ..)....B.*..y4.!
|   3744: a7 8b 21 69 ab c4 9b ec eb 0d 9f 34 b5 ff 46 2d   ..!i.......4..F-
|   3760: 68 55 9b 63 9a ac ac 80 4c 45 8d eb dd b2 26 4a   hU.c....LE....&J
|   3776: 91 8f ee f7 50 6f 84 81 c3 79 2e 6d 56 1c ee 01   ....Po...y.mV...
|   3792: 20 2b e5 ca 3a 51 ba 40 b6 44 15 a4 4a 3d d0 33    +..:Q.@.D..J=.3
|   3808: 7d 2d 3c ca e3 f8 e9 1d bc b2 1e 59 1e 57 10 2f   .-<........Y.W./
|   3824: 92 4b b7 50 41 98 6f 07 0b 38 ba 31 08 3e d4 34   .K.PA.o..8.1.>.4
|   3840: 4f f4 99 32 2f e5 7f 8f 14 8e 48 11 88 ad 18 d6   O..2/.....H.....
|   3856: db d0 e5 cc 17 4c b6 f7 45 f9 1e 9a d9 86 5d 56   .....L..E.....]V
|   3872: fa 76 52 49 cd f1 76 ea 84 b1 55 03 54 e2 ff 91   .vRI..v...U.T...
|   3888: 23 fb 22 b0 8a b8 da 6e 7e 54 25 03 f3 fb eb 9a   #......n~T%.....
|   3904: ce 64 cb 70 38 c9 aa 11 e8 36 45 16 8c 82 0e 18   .d.p8....6E.....
|   3920: f3 cf 81 4c 7c ef 53 6a 5c 43 85 e3 01 c9 d5 97   ...L|.Sj.C......
|   3936: 8b 03 78 90 35 c9 7c 3a 62 3d 66 d9 ff 6c 1f 3f   ..x.5.|:b=f..l.?
|   3952: 7f a1 85 ad ec 87 65 3b 48 3c 0b 0c 94 c0 05 85   ......e;H<......
|   3968: f9 a4 4a 79 c1 dc 7b 9f 87 c0 4f c9 7b a7 ce 5c   ..Jy......O.....
|   3984: cd 11 68 d5 79 d2 e7 b5 8c 13 af d6 e9 81 ef 42   ..h.y..........B
|   4000: 4c 11 2f c0 55 33 4c f4 44 c1 75 67 ae 43 95 68   L./.U3L.D.ug.C.h
|   4016: da 90 26 d5 42 75 b6 ef 99 22 ce b8 2d 52 5f 43   ..&.Bu......-R_C
|   4032: a4 f7 23 72 17 c6 66 36 84 e6 d3 a7 da a9 ec 82   ..#r..f6........
|   4048: b2 fd 87 90 51 2e 78 71 3f 56 49 96 d2 da 6b 67   ....Q.xq?VI...kg
|   4064: 2a f8 b1 eb ae 5d d0 e7 59 31 ed ed 24 b6 2c 32   *....]..Y1..$.,2
|   4080: 7a b7 97 c5 e0 f1 a4 05 d3 8e fa 0f 10 ee 19 4d   z..............M
| page 15 offset 57344
|      0: 0d 00 00 00 01 04 3f 00 04 3f 00 00 00 00 00 00   ......?..?......
|   1072: 00 00 00 00 00 00 00 00 00 00 00 00 00 00 00 97   ................
|   1088: 3e 07 06 00 ae 7c 00 00 07 2c f5 e5 48 a9 82 86   >....|...,..H...
|   1104: 40 71 a9 80 b9 af 28 61 b5 17 5a cb c3 67 db aa   @q....(a..Z..g..
|   1120: fa 64 ec 63 b4 34 d5 37 ee 52 d8 d5 38 6a 25 d0   .d.c.4.7.R..8j%.
|   1136: 1f 05 80 72 bd c3 b9 1a d1 ea f7 f0 73 0e 97 29   ...r........s..)
|   1152: 41 19 09 d1 53 df c8 c5 02 ab a2 e8 76 b8 09 3d   A...S.......v..=
|   1168: 8b 07 21 05 5f 80 3d 88 67 fd fe ab e6 4b 7f 97   ..!._.=.g....K..
|   1184: a6 17 42 02 f5 ad f3 74 6b bb 6e 2a fd af 88 3b   ..B....tk.n*...;
|   1200: d9 b2 3c 0d 33 a7 93 69 c0 97 c5 c4 c0 e9 29 d5   ..<.3..i......).
|   1216: c3 78 96 13 55 f3 41 e6 87 eb 7a 2f b9 e2 28 f3   .x..U.A...z/..(.
|   1232: e1 ed b8 c8 5d bd 80 80 a6 52 50 ff 0d db 2b f2   ....]....RP...+.
|   1248: 7e 9e 91 32 fd 08 46 ba db 2b 41 00 70 6f cf 80   ~..2..F..+A.po..
|   1264: 46 1b 49 cf ab 6e 1d 14 21 f2 3f 55 0a 4a ed 19   F.I..n..!.?U.J..
|   1280: 11 9b 9e c0 f2 c4 55 86 2c 05 4e a2 6f 8c b2 9c   ......U.,.N.o...
|   1296: 11 fd 85 0c 5b d5 ee ef 9c f2 4b 1e 74 72 bd a4   ....[.....K.tr..
|   1312: 29 8d 0d 92 67 97 b5 b5 03 b4 a7 68 15 50 c7 7e   )...g......h.P.~
|   1328: 91 22 a8 39 3e e2 18 bd 68 20 74 c1 e5 f2 8a e5   ...9>...h t.....
|   1344: 1e 72 0c 2a e3 1a b2 60 57 ad 2b ee 1f 59 57 ce   .r.*...`W.+..YW.
|   1360: 6f b2 e0 15 96 73 f6 2e 5b 82 b7 ca 6b bf ed 78   o....s..[...k..x
|   1376: e5 af 82 82 73 16 6a ce cb 09 b9 5f b3 2d c0 0c   ....s.j...._.-..
|   1392: 1d 46 5f 7e be ee 0c b3 54 e7 ed e7 cc cf f9 9d   .F_~....T.......
|   1408: 42 90 94 e2 e9 c2 76 2b 02 b9 a8 73 20 0a e3 6f   B.....v+...s ..o
|   1424: 23 a0 c0 59 f2 af 9d c4 78 90 ba 8e 0c ef b4 d6   #..Y....x.......
|   1440: 37 03 5e f4 7f 54 a6 d7 87 bc 20 3f e1 7a 84 d9   7.^..T.... ?.z..
|   1456: 1b 33 4a fc bd 1f c1 8b b3 db 8f 0c fa 49 7f d7   .3J..........I..
|   1472: 9a d0 48 8e c6 3b 79 22 d6 0c fa 93 4d 43 f3 de   ..H..;y.....MC..
|   1488: bb 10 3e 81 d2 6b b4 9f 4c 91 05 d7 87 b5 35 98   ..>..k..L.....5.
|   1504: eb 84 9d 2c 0e 4e 2b de 1b 23 0d f5 bd aa 4a 9c   ...,.N+..#....J.
|   1520: 6d 7e 48 23 18 f9 72 5b ef 9e da a9 ef 1b 29 08   m~H#..r[......).
|   1536: 03 34 e2 86 97 ff c9 2d c6 04 34 65 84 20 5b 7c   .4.....-..4e. [|
|   1552: df e3 2c bc 73 04 22 70 f5 03 f2 8f fe fb 72 b5   ..,.s..p......r.
|   1568: a1 93 91 a4 3e a5 20 ac 21 19 8a 60 60 48 63 a0   ....>. .!..``Hc.
|   1584: 47 80 a8 ac 9f 68 a9 ab b7 0f 71 d5 44 1a fb 4a   G....h....q.D..J
|   1600: 99 06 2b fc 96 ad ac 5e 37 37 84 6e 4e de 66 ba   ..+....^77.nN.f.
|   1616: c6 10 fc e9 a0 26 cf 48 f6 f6 96 b7 69 35 30 06   .....&.H....i50.
|   1632: f2 7a db 70 53 4d f9 5b 9b 5f 51 b8 f6 af fb 1c   .z.pSM.[._Q.....
|   1648: f5 2a d7 01 80 d2 0e b3 fe cc 99 ad 74 ad fa df   .*..........t...
|   1664: 26 86 c7 29 b2 b3 36 98 b8 b7 2c de 9c 78 41 99   &..)..6...,..xA.
|   1680: ff 46 40 76 64 64 0c f5 46 d5 bd 72 a3 46 b0 b3   .F@vdd..F..r.F..
|   1696: 75 45 03 d1 06 4b c9 ca a6 4f 90 f7 9b 60 4a 46   uE...K...O...`JF
|   1712: ed af a1 d5 68 30 db a7 5e ca 76 bf 66 64 e7 fa   ....h0..^.v.fd..
|   1728: 50 5c 31 5f 86 94 3a 5c f4 98 3d d5 52 80 26 1e   P.1_..:...=.R.&.
|   1744: 55 07 14 d5 f5 2a 17 46 8b 6d 71 d2 da 4b e7 c8   U....*.F.mq..K..
|   1760: 3d 8f 97 b7 97 51 c5 fb aa 4f 3f 3b 85 c1 aa e8   =....Q...O?;....
|   1776: bf 3a d9 56 c0 d3 23 31 28 46 bd 45 2e 4b b5 e7   .:.V..#1(F.E.K..
|   1792: f6 8e fa e2 28 65 6c 42 f2 68 8f 37 cb 4d e9 26   ....(elB.h.7.M.&
|   1808: f7 63 58 8c 99 09 71 7c 14 3a d7 92 c4 cf 14 51   .cX...q|.:.....Q
|   1824: af fe 6e 6b 50 e9 3a 70 0f ac 53 9d 57 01 4f 7a   ..nkP.:p..S.W.Oz
|   1840: cc b2 c5 b9 2a 3e 02 6a d4 15 6f 2e d3 20 99 ed   ....*>.j..o.. ..
|   1856: d7 1f 71 01 2f b4 e4 08 fe 8c 38 02 2c 14 e0 fd   ..q./.....8.,...
|   1872: ec 3e 61 a8 b7 fa de f0 81 56 6a e2 d1 3d 2f de   .>a......Vj..=/.
|   1888: f8 a3 75 5d 35 1b a4 a3 8e 6e 8c 9d b2 56 56 ba   ..u]5....n...VV.
|   1904: 89 ab 42 86 70 59 5e 70 51 27 fc 87 b4 5c e5 89   ..B.pY^pQ'......
|   1920: 20 b5 bd 40 6a 68 cb 1a 70 49 b5 2f c4 02 34 66    ..@jh..pI./..4f
|   1936: be cc 14 12 e0 f9 c7 4c 84 ff 37 a6 a5 ae 5c 36   .......L..7....6
|   1952: 03 58 8e 44 17 e1 ca 30 3e 7f c9 54 94 f4 ff 86   .X.D...0>..T....
|   1968: 57 8b 5e 2c aa 0b 28 30 ac 5a 1a 14 39 70 8a 84   W.^,..(0.Z..9p..
|   1984: c2 4c 64 28 b1 87 6a 34 cf 50 b7 37 2e 96 ca ba   .Ld(..j4.P.7....
|   2000: c9 b1 37 d5 56 e7 39 b6 70 b1 16 2b 67 8a fb 0f   ..7.V.9.p..+g...
|   2016: b3 ec 53 b4 27 ba 3e 60 16 96 86 b0 02 ba c9 d7   ..S.'.>`........
|   2032: e1 d9 17 0f d4 12 aa 5d 65 53 29 47 04 47 2f 6f   .......]eS)G.G/o
|   2048: 76 be c9 87 4b 41 27 63 28 f9 b0 48 a9 91 36 32   v...KA'c(..H..62
|   2064: b7 e1 1f 84 52 c5 3f 81 98 6d de e0 31 27 eb 49   ....R.?..m..1'.I
|   2080: 0c f6 0c 00 5c db 30 f4 67 4e 90 f8 32 10 87 0f   ......0.gN..2...
|   2096: 27 0c 19 71 b1 b8 e6 ea 40 e9 e0 fa 30 44 f0 d0   '..q....@...0D..
|   2112: ae 89 05 c6 71 0d 18 36 f5 75 4d 6e b9 cf 60 2a   ....q..6.uMn..`*
|   2128: e9 3e 54 d3 86 34 3b 69 87 47 64 9f 0d 99 d5 d7   .>T..4;i.Gd.....
|   2144: 42 bf c6 dd 24 51 32 5d e8 70 cf dc 67 55 58 bd   B...$Q2].p..gUX.
|   2160: a0 93 c4 f2 05 73 91 bc 46 d1 4a ac 03 9d b1 ab   .....s..F.J.....
|   2176: e9 6a de 28 8e d4 2a 75 e6 0b f5 ed a0 a6 45 e2   .j.(..*u......E.
|   2192: ea 86 1e a9 9d ad d9 8c 82 72 26 9e 7b ca a5 13   .........r&.....
|   2208: 3e ab 9f ed bf 81 9d 51 f0 f4 47 be 89 e1 0b a4   >......Q..G.....
|   2224: ec 5f 1c 5d b2 64 d0 7f 31 59 2e 68 2c 54 d2 69   ._.].d..1Y.h,T.i
|   2240: 91 34 56 e5 b9 83 0d 3a 00 9d e3 3d 78 6d 47 1d   .4V....:...=xmG.
|   2256: 09 7d 67 de d8 a2 92 e6 b1 36 4d 89 c0 dd ce 76   ..g......6M....v
|   2272: df 73 aa 1d 88 38 c5 63 43 ac af 28 35 f8 48 5c   .s...8.cC..(5.H.
|   2288: 9c 4d 50 ab f4 f3 c8 3c 6a 82 99 68 f9 25 7e 86   .MP....<j..h.%~.
|   2304: 18 31 73 f9 f7 05 15 11 9f e4 e1 42 f1 26 14 2d   .1s........B.&.-
|   2320: e5 fc 28 09 35 71 a6 23 6f 55 25 89 c3 73 13 f1   ..(.5q.#oU%..s..
|   2336: 91 52 d4 e7 8a 20 b9 53 be 2f 30 d7 7a 10 e4 89   .R... .S./0.z...
|   2352: 5f d1 84 df 5b 27 96 6f fd e2 7c 8b 8e 69 d7 1c   _...['.o..|..i..
|   2368: e4 d9 95 4b 6a e7 f4 6e 0a 22 ac 21 6a 0d 1f 32   ...Kj..n...!j..2
|   2384: 3b 6a 15 32 ce a2 38 6e 10 52 42 65 48 f7 67 0a   ;j.2..8n.RBeH.g.
|   2400: 6c 1e 91 ec 39 01 e7 3a 22 0e 45 30 ee e7 f5 a3   l...9..:..E0....
|   2416: 75 78 f5 09 6c a7 12 6f 81 46 b3 7e ae d5 79 88   ux..l..o.F.~..y.
|   2432: c0 d0 dc 26 24 33 b4 86 cf 58 9f f0 70 48 74 8b   ...&$3...X..pHt.
|   2448: c9 70 03 f4 1a b3 43 c9 f3 ea 8e ee 7c 1f fc 4d   .p....C.....|..M
|   2464: c3 9f c6 d1 b7 ad 0f 79 62 7b 9b b3 5b d0 fa 6e   .......yb...[..n
|   2480: 9f c0 ff 15 cc 71 5e a7 56 c5 ff 1d 0c ea 8e 48   .....q^.V......H
|   2496: 81 87 6a e5 79 c7 06 9b 7b 02 d0 78 65 1d aa 96   ..j.y......xe...
|   2512: 23 4a a4 67 1e 05 a9 70 03 de 96 91 9e 91 a5 ca   #J.g...p........
|   2528: b0 98 25 89 a6 2d 00 0f 0e ec 2d b0 92 72 f6 56   ..%..-....-..r.V
|   2544: fc d8 18 06 27 b7 b9 c9 9f db a5 30 51 48 f9 ed   ....'......0QH..
|   2560: 74 0a a3 a3 82 8a fc 6b 31 a0 dd 29 99 1e 61 d6   t......k1..)..a.
|   2576: b5 5f 28 37 23 e7 e9 c8 8c 2b b4 bb e4 f0 7d d3   ._(7#....+......
|   2592: 44 2a 86 2d 3e 3e 97 b3 74 4a 55 b5 cf 4f 28 29   D*.->>..tJU..O()
|   2608: f8 00 70 ee 67 18 5e 7d 4d 1a fd b5 92 84 69 4e   ..p.g.^.M.....iN
|   2624: c4 de 4d 45 90 3e 70 22 d3 b6 b0 74 b3 b0 21 86   ..ME.>p....t..!.
|   2640: 2d 10 d1 d3 2f d8 89 d5 b5 bd e0 92 66 a0 99 30   -.../.......f..0
|   2656: 0f 6d de e8 db 9a 2d 6c 20 89 43 3c e0 61 32 67   .m....-l .C<.a2g
|   2672: ee f6 be 79 20 b4 06 11 63 b3 89 0f df 28 56 df   ...y ...c....(V.
|   2688: 94 3c f2 31 b0 b8 5f 11 6c 6b 9b d3 43 cc f0 38   .<.1.._.lk..C..8
|   2704: 6a 92 3d ee a6 92 95 9c 6c 02 94 31 7b ae 7a 0c   j.=.....l..1..z.
|   2720: 0b 49 0f 82 54 ae c4 b8 58 4d 57 75 d6 e9 20 5a   .I..T...XMWu.. Z
|   2736: bf 5a 2e ae 2d 18 4f 60 62 d9 1f 91 1d cd da f4   .Z..-.O`b.......
|   2752: 00 e2 d8 fd f0 20 d3 70 2b 4d 6f a1 80 a2 25 16   ..... .p+Mo...%.
|   2768: 7e 75 5e 7b 45 8d 72 62 11 ba 36 7e 4f 89 ba 4d   ~u^.E.rb..6~O..M
|   2784: e2 0c e3 f4 0d da ac 14 89 36 e5 c8 4f 67 a5 33   .........6..Og.3
|   2800: ff c2 91 ac 81 25 39 21 c4 79 5c 97 6d 97 45 3a   .....%9!.y..m.E:
|   2816: 6e 00 60 1e c0 e4 ee f3 a6 98 16 43 ee 56 62 32   n.`........C.Vb2
|   2832: 85 db 7a 83 af 26 a6 3f be 66 c6 5b ff 51 d7 f2   ..z..&.?.f.[.Q..
|   2848: 8f 2e 13 c4 b2 67 72 ac c4 4d a3 3a 69 cb b5 bc   .....gr..M.:i...
|   2864: 01 74 09 53 16 3a fa 7d 0e 24 8a c8 93 14 4d ca   .t.S.:...$....M.
|   2880: 95 2f 30 dc d1 6c 42 d6 78 04 c8 91 4e 86 2a a0   ./0..lB.x...N.*.
|   2896: 0f 71 da 74 20 b0 a9 a5 a5 7e 96 44 e1 86 d1 af   .q.t ....~.D....
|   2912: bc 1d 24 19 11 54 3a e1 a6 db 38 f8 64 59 29 0f   ..$..T:...8.dY).
|   2928: 3d 7b ce 0d c5 38 bd cd c2 85 13 f8 62 09 83 96   =....8......b...
|   2944: 20 2c 3d 81 6b 9d 48 24 4e d6 eb 88 7e f4 6f f4    ,=.k.H$N...~.o.
|   2960: fc 55 32 3d ab 74 bd f1 4f 75 66 f5 53 a5 a6 7f   .U2=.t..Ouf.S...
|   2976: f5 89 da df 35 a7 44 0b 84 8d 85 f3 08 9b 63 14   ....5.D.......c.
|   2992: 8b ea 66 43 6f 07 a3 e5 33 eb fb 8b 11 40 10 7d   ..fCo...3....@..
|   3008: 11 cd 65 d7 38 4a 50 d7 02 73 ed a6 15 ac 82 77   ..e.8JP..s.....w
|   3024: 0d 8c f3 7a ea a2 36 32 11 52 71 d3 f4 24 13 5a   ...z..62.Rq..$.Z
|   3040: 22 e6 75 14 28 7f b7 0c a8 71 16 20 3c 79 f5 ce   ..u.(....q. <y..
|   3056: f2 0f 05 4a 91 1f 32 d0 da 6a ad 47 ca a3 99 66   ...J..2..j.G...f
|   3072: 89 da ac 67 bc 1a f0 84 4c 71 a6 7f aa 30 45 01   ...g....Lq...0E.
|   3088: dd 31 cd 34 43 b7 0c 2c 24 9a 21 c3 97 3a 40 72   .1.4C..,$.!..:@r
|   3104: 55 09 a4 d1 6b 18 78 91 20 e5 4f c6 46 ab fd fd   U...k.x. .O.F...
|   3120: 36 19 d0 6a 44 c8 49 61 d8 e4 e1 b1 30 74 68 82   6..jD.Ia....0th.
|   3136: b6 70 9f 54 c8 f1 69 b7 89 61 24 1b e9 6e 99 f1   .p.T..i..a$..n..
|   3152: 9b d5 68 b2 ac ec 67 99 3d e6 30 73 92 b5 c9 e4   ..h...g.=.0s....
|   3168: 73 f7 ff b5 d4 8a 35 85 8c 9f 3c e2 7e df f8 e4   s.....5...<.~...
|   3184: 17 0a ed c0 0f f2 4e a9 72 0d 9d d7 35 90 bc 2a   ......N.r...5..*
|   3200: 9f 95 09 ef 77 19 1b 2e 71 af 3c 83 f4 85 fe fa   ....w...q.<.....
|   3216: 14 dc 19 38 4b a4 c0 71 c7 a4 ba 47 db 00 a1 0a   ...8K..q...G....
|   3232: a4 ee 3c 2f 5a 08 9c 6c 8e bb 47 66 6d ad de 91   ..</Z..l..Gfm...
|   3248: 21 ee b4 9a 90 24 96 91 36 6b cd 33 fd 4e 64 07   !....$..6k.3.Nd.
|   3264: bf 04 37 54 ed b3 88 34 65 ed 59 0b f6 45 ea aa   ..7T...4e.Y..E..
|   3280: c5 2e 54 c0 f1 6b 22 de cd fd 1b be 57 76 b7 24   ..T..k......Wv.$
|   3296: 57 f3 d3 06 f8 86 82 f6 cc cb e4 e9 cb 5f e2 26   W............_.&
|   3312: 6e a2 4d 35 85 f1 03 75 92 8a 8b 1a 58 ea b7 a6   n.M5...u....X...
|   3328: 21 f1 15 ef 55 d2 19 43 d7 66 fb a4 7d 8a 0a 09   !...U..C.f......
|   3344: 28 64 13 6c 71 47 84 de ab 05 15 4d 8c 01 5d 68   (d.lqG.....M..]h
|   3360: 92 ea e3 2d 80 5d 4f ce 99 65 e6 8a f5 4a 78 52   ...-.]O..e...JxR
|   3376: 4c b9 6c 98 8c e8 e7 9e a2 0c ed b5 be 81 c0 a8   L.l.............
|   3392: 32 b2 9e 76 ef 89 9e f1 6a 26 7e 5c 74 e1 e7 c3   2..v....j&~.t...
|   3408: b2 75 6a 49 85 50 41 6c 87 37 13 8d 3c 3a 60 6d   .ujI.PAl.7..<:`m
|   3424: f0 2c e5 30 a9 51 39 ac 4f b2 63 17 e5 c8 16 26   .,.0.Q9.O.c....&
|   3440: ce d5 9d de 8e ae 81 25 ed f5 cd 2c de 5e 55 bd   .......%...,.^U.
|   3456: 6c d5 28 96 13 8b ce 68 b6 2a 88 90 9d c5 4c 18   l.(....h.*....L.
|   3472: f6 cd b6 75 1d 49 22 ea 80 f9 24 b9 9f 05 6f 62   ...u.I....$...ob
|   3488: 45 30 7b b9 e3 67 0a 61 aa a8 fc 2f 85 00 2f 2f   E0...g.a.../..//
|   3504: d0 64 3d dd 87 3d e2 dd f7 03 ff 18 d2 96 c3 86   .d=..=..........
|   3520: b2 7e f2 12 f5 9e 9e fb 8c 95 95 98 48 51 a2 4d   .~..........HQ.M
|   3536: 8d 8a 3b 1a a1 5d e0 3e 95 dc 4c 1e 89 bb cd cb   ..;..].>..L.....
|   3552: 7f e9 e1 a6 3b 68 b0 1e a0 81 5a 54 f7 3c a2 7a   ....;h....ZT.<.z
|   3568: 24 ee 8e 43 a7 df 14 22 da b2 8c 80 6a 40 4c bf   $..C........j@L.
|   3584: f8 5a 4e d1 34 af 19 3f dc 4f 93 29 83 d1 af 7a   .ZN.4..?.O.)...z
|   3600: 33 fe 25 1a 1c d5 c1 e5 98 4e 30 4d 2b 2c 6e 55   3.%......N0M+,nU
|   3616: 8d d3 0f d5 f5 a3 a1 44 10 ba d6 2d 05 71 5d 4d   .......D...-.q]M
|   3632: 15 e6 06 21 00 56 c1 45 21 63 f8 61 bf c5 75 79   ...!.V.E!c.a..uy
|   3648: f5 5f 83 53 ba cd a0 e6 12 45 3b 8b 33 b6 4d 29   ._.S.....E;.3.M)
|   3664: 41 c9 ad 09 a3 f1 a7 a6 6d 8d ec 16 68 b4 a3 fb   A.......m...h...
|   3680: 01 1a c3 ee 78 17 d9 de cb 2e 42 d4 a3 56 8f f4   ....x.....B..V..
|   3696: 3c 75 b1 92 d0 b5 75 10 69 cc c0 50 a4 bb d0 4c   <u....u.i..P...L
|   3712: 37 3d 0a e8 8b 38 6a 70 88 a7 f9 00 26 43 fc 47   7=...8jp....&C.G
|   3728: 19 ea e1 43 08 b3 0d c0 f1 d5 30 c6 3d c4 86 68   ...C......0.=..h
|   3744: 32 9f fb 35 a5 1d 5c 02 1a 07 2b 1e 8a c9 d3 1a   2..5......+.....
|   3760: 53 43 54 c1 0c 06 51 3b fc df a1 a9 69 3e 72 cd   SCT...Q;....i>r.
|   3776: 8d e5 f5 f6 d4 49 8d b4 65 50 38 8b b3 3e 20 c1   .....I..eP8..> .
|   3792: 07 cd ad 7d e3 d1 8e 5f 6e 76 7b fe 01 ba 08 74   ......._nv.....t
|   3808: 16 a5 1b 5e 95 a2 ff 91 bb 9f 64 3f a4 e5 95 be   ...^......d?....
|   3824: d2 59 02 aa c5 06 66 9e fe 56 6e d1 1d 31 6f b3   .Y....f..Vn..1o.
|   3840: da 6d b4 3a 17 86 e0 e6 c1 37 21 68 6c 33 d3 58   .m.:.....7!hl3.X
|   3856: e8 67 fa 04 8d 59 ae e4 fb 1f 8c 48 17 7e bb 8c   .g...Y.....H.~..
|   3872: 17 61 b4 a7 e4 6b 87 c0 6a 8b 5f d1 76 16 5c f7   .a...k..j._.v...
|   3888: 81 b4 2d 66 ad ba 46 6f 95 bf a8 19 e8 82 05 7f   ..-f..Fo........
|   3904: 43 47 8b 63 b4 14 c6 2a de 90 8c 6d 04 3d 90 dc   CG.c...*...m.=..
|   3920: c4 6b d0 4c 33 9f 6c a7 38 6b fd b8 53 de 17 5e   .k.L3.l.8k..S..^
|   3936: ef e4 17 19 25 32 eb 12 86 03 3c 61 2e b4 06 ca   ....%2....<a....
|   3952: 3b ff d8 cf de 77 58 e9 73 f4 49 8f ba ca 41 9c   ;....wX.s.I...A.
|   3968: 76 70 52 1c ea 26 76 44 38 81 b0 07 a2 e9 bb 08   vpR..&vD8.......
|   3984: 7d b3 9f b5 2a 55 de 4b f4 b5 fd ff a2 e0 25 ef   ....*U.K......%.
|   4000: b3 d6 88 0a 68 3a 6f 24 07 ce fd 32 c4 3f fa 98   ....h:o$...2.?..
|   4016: dc ee 60 4c 54 17 a8 82 0f a9 9d 2d 04 73 db 47   ..`LT......-.s.G
|   4032: f3 56 3a cb 9d 68 e8 f5 d8 fa cd 78 ee 65 74 ed   .V:..h.....x.et.
|   4048: b5 ae 5a 8c ae 4d 2f 34 54 b4 ac f9 5f b4 70 89   ..Z..M/4T..._.p.
|   4064: ea 58 fa 8b 70 6d 6c 54 b9 ea eb e8 08 fc 52 bd   .X..pmlT......R.
|   4080: c4 d5 6b 1c 64 db 93 a9 d9 5d 32 e3 12 06 ca 14   ..k.d....]2.....
| page 16 offset 61440
|      0: 0d 00 00 00 01 04 3f 00 04 3f 00 00 00 00 00 00   ......?..?......
|   1072: 00 00 00 00 00 00 00 00 00 00 00 00 00 00 00 97   ................
|   1088: 3e 08 06 00 ae 7c 00 00 7e 76 33 c8 5d be 03 93   >....|..~v3.]...
|   1104: a8 31 d7 92 4a d2 68 29 8d e4 3c 76 6f d3 a0 f2   .1..J.h)..<vo...
|   1120: 70 1e 80 3a 2a 79 78 9e ff e4 6c 64 4d 6e 86 73   p..:*yx...ldMn.s
|   1136: 39 5d 1e 22 92 26 3e 38 0d b3 e3 6a 13 01 3a 81   9]...&>8...j..:.
|   1152: 2a 01 f9 21 05 ec 07 3f 6f 7d ba 17 5d ba 3a 04   *..!...?o...].:.
|   1168: a9 cc 88 35 4f 43 4c dc ab 1d 1d b0 24 1f a2 83   ...5OCL.....$...
|   1184: 69 4a 89 1e a8 a3 de bc 17 15 be 3d 07 ae 42 02   iJ.........=..B.
|   1200: f6 60 ff 36 08 cf 63 1f b5 be b1 1c 45 14 b0 56   .`.6..c.....E..V
|   1216: 0c 2e b9 49 49 69 47 17 da 41 4e 91 0b 5a bd 76   ...IIiG..AN..Z.v
|   1232: be 67 65 82 27 35 0a 23 a4 21 f4 ba 78 af 0a 7c   .ge.'5.#.!..x..|
|   1248: 0e f0 ca 90 c6 32 d9 dc f1 dc 25 33 da 76 c0 f5   .....2....%3.v..
|   1264: c2 4d ed 55 d7 f8 1f 44 82 37 c3 d3 90 12 23 52   .M.U...D.7....#R
|   1280: 8d 3c 3d f0 9e bf 7b 0e 49 8a 32 5d a1 64 53 26   .<=.....I.2].dS&
|   1296: cb be bc 26 dd bf f8 a6 ad 57 e5 35 68 c1 6c b9   ...&.....W.5h.l.
|   1312: 02 d7 0d 70 f4 d9 10 8f 75 35 8b 60 21 46 62 60   ...p....u5.`!Fb`
|   1328: e4 e7 70 35 0f a9 70 0d 50 da 5c c2 17 9b c6 3b   ..p5..p.P......;
|   1344: 61 83 9f 3f 1d f4 28 dc c6 32 a6 12 ff 56 dd 0e   a..?..(..2...V..
|   1360: 57 08 0e 0d 5b f8 ea 32 33 20 a7 a1 a4 9b b3 77   W...[..23 .....w
|   1376: 4f db 85 06 dd 0b 52 b0 45 ff a4 e5 23 5e ea c0   O.....R.E...#^..
|   1392: d6 54 d6 84 cd c4 fc 2e 95 ec 78 13 cf 9a fa e3   .T........x.....
|   1408: a1 5a b3 60 1a ab 1a 97 21 67 9c cd 44 6f ee a9   .Z.`....!g..Do..
|   1424: bf 1f 07 52 d0 1a a4 ae 15 1e b5 01 0d ac 31 32   ...R..........12
|   1440: 11 7f 67 b4 9c 20 78 28 8b 4a 79 32 44 c8 aa 1d   ..g.. x(.Jy2D...
|   1456: 05 4b 94 3e e2 f0 d4 f2 16 3c 8e b7 67 13 98 47   .K.>.....<..g..G
|   1472: 2b 6a 1a 98 c9 82 7d a7 a7 7d ee 62 dd a8 29 58   +j.........b..)X
|   1488: 98 5b 2e 5b 62 1b 1b 21 37 4d eb e7 85 ac a3 8d   .[.[b..!7M......
|   1504: fe 69 ca 05 34 83 84 34 47 8d 5b b0 8d 71 f1 22   .i..4..4G.[..q..
|   1520: 07 b5 a9 be 42 88 58 27 84 3e 37 1c 0f c7 1f 77   ....B.X'.>7....w
|   1536: 72 5e 2c fc 80 43 03 71 00 22 7f fe 5d fe ea a7   r^,..C.q....]...
|   1552: 33 3a c6 ae db e7 1d ba 8b 61 8c b9 b4 b2 ab b4   3:.......a......
|   1568: 2f ec 9d b1 9c bb 13 7b 6e 3a b9 aa 43 b2 14 6f   /.......n:..C..o
|   1584: f0 27 00 31 f6 5b 9c e9 96 40 3a 13 2f fc 6b ae   .'.1.[...@:./.k.
|   1600: 0a 55 bf b3 cd 83 23 25 f1 15 e2 2e bc 7c 6b 29   .U....#%.....|k)
|   1616: 90 8f 85 ff 5b 5a 18 52 03 84 4d f9 f9 fa e1 a0   ....[Z.R..M.....
|   1632: e8 32 29 9c 5b 9e ed 39 b3 17 f8 ef 7f 55 b4 3f   .2).[..9.....U.?
|   1648: c3 f3 66 f1 bc 15 1b 78 2c 9b ab cf e1 10 d0 46   ..f....x,......F
|   1664: 3d 21 2b eb 4f 8f 1d eb 8a 5e 87 23 72 50 04 ea   =!+.O....^.#rP..
|   1680: 8f 53 1b 3a 3f cf d5 92 5a 06 c1 18 25 33 41 84   .S.:?...Z...%3A.
|   1696: 77 56 bf a5 8a d1 ff 97 51 34 d3 24 88 12 dc 33   wV......Q4.$...3
|   1712: 09 09 fc 68 b5 2a 4a cf 7c 73 d8 ff 93 29 40 1c   ...h.*J.|s...)@.
|   1728: 8e ea 7d e3 7f 25 57 f5 bf 2b 19 80 4d fa 23 35   .....%W..+..M.#5
|   1744: 18 8b ad af 46 85 3b 51 34 49 dd cb 39 d8 50 50   ....F.;Q4I..9.PP
|   1760: 7a a5 58 af 72 66 5d 21 c2 e2 03 1f ee bb d2 b4   z.X.rf]!........
|   1776: 62 d2 f4 c0 fb 04 12 b2 35 0c 0f 0d b9 e2 a5 28   b.......5......(
|   1792: 87 5b 76 c7 39 4d 18 8d 3f 61 ab a0 84 4a 11 22   .[v.9M..?a...J..
|   1808: e1 a9 69 55 2b 03 41 34 73 83 0d 0b ed da a6 d8   ..iU+.A4s.......
|   1824: f8 ff 9b d2 62 1b ca 1a 40 4f 0a 86 ad e7 92 af   ....b...@O......
|   1840: ce 69 19 8e 35 5d cd 50 4e 53 2d 90 46 90 ae 8a   .i..5].PNS-.F...
|   1856: 43 ac 8b 30 7f 3b b3 05 78 63 b3 b7 0b 3d 2a 13   C..0.;..xc...=*.
|   1872: 55 83 ed a0 61 6b 12 30 5c 46 f3 1f 18 1f bd 89   U...ak.0.F......
|   1888: af 86 9a 82 ed 89 35 0e 29 06 2c b8 97 c5 ef 46   ......5.).,....F
|   1904: 90 ce 6c 83 f8 7d 08 75 76 b4 07 6b 48 15 bb bd   ..l....uv..kH...
|   1920: c2 fd 79 a8 7f 54 e4 d5 93 c2 17 09 3f bb 58 84   ..y..T......?.X.
|   1936: dd 78 7a 81 c4 13 70 e5 23 73 d4 60 25 0f 91 bc   .xz...p.#s.`%...
|   1952: a9 8e 54 64 46 e1 8f 11 66 7c 1e 31 5b 9e 10 d9   ..TdF...f|.1[...
|   1968: 7e 09 e8 bc 2f 73 d4 f6 27 0c a0 62 5d ce 65 40   ~.../s..'..b].e@
|   1984: f7 24 b0 bf f0 26 c0 17 1a dd d3 5d 16 35 22 10   .$...&.....].5..
|   2000: 4d c4 cf 5b 22 2f 12 b2 5b f2 87 04 34 4d 5c 9d   M..[./..[...4M..
|   2016: 50 48 71 c7 8e bb 7d ce 89 f3 e4 4a c1 f2 92 4f   PHq........J...O
|   2032: 90 4d 58 ac 27 60 a7 e9 31 41 ca b1 c0 38 ce 2d   .MX.'`..1A...8.-
|   2048: df 40 e9 cd db 2f f3 28 09 ef 14 79 99 ef 66 1b   .@.../.(...y..f.
|   2064: e6 c0 7f 4c cc 61 96 b6 f9 95 9d 1b 90 16 55 08   ...L.a........U.
|   2080: 71 ad 92 88 98 01 7f b9 8e 9c a2 f4 d4 24 33 a0   q............$3.
|   2096: 53 f2 01 df 47 3f 8d 15 a8 d1 70 a9 c2 70 f8 75   S...G?....p..p.u
|   2112: b4 ed b6 7d 82 95 63 5e 86 c1 3a 7c de b1 46 fd   ......c^..:|..F.
|   2128: b8 30 42 36 83 35 e2 4a 78 c2 b5 b9 1e 57 f2 19   .0B6.5.Jx....W..
|   2144: 91 6d ff 4f 87 97 55 98 a3 86 a2 54 1f 2f 0c 8e   .m.O..U....T./..
|   2160: 72 d6 a0 37 f2 bf 84 a3 a5 b3 87 12 a3 ef 0a 00   r..7............
|   2176: 31 69 49 83 8c 6e 82 3a 84 62 a8 ce ee ce 91 61   1iI..n.:.b.....a
|   2192: b7 26 c1 fd bf 77 15 81 23 e6 d5 6f bb c4 ab eb   .&...w..#..o....
|   2208: 8b a7 fc b6 4e cb c1 61 ab 59 a2 dc ca ca f3 42   ....N..a.Y.....B
|   2224: 90 16 d8 d0 03 43 c1 e0 d9 25 50 b0 17 65 64 d0   .....C...%P..ed.
|   2240: 11 be 52 a8 e3 bd dd 7f 39 1e 0b 85 ae 92 c0 1c   ..R.....9.......
|   2256: 0c 3b 06 2a bb be b6 c7 94 d6 83 6b b0 17 6d 24   .;.*.......k..m$
|   2272: b1 b5 2d 22 5e 7f b9 db 47 65 e6 21 37 a2 2f d3   ..-.^...Ge.!7./.
|   2288: 03 8a 91 c0 5a de 52 27 dc 4b 9a 92 f1 fc f0 93   ....Z.R'.K......
|   2304: d1 de 9e 04 73 13 c5 ec 25 36 54 15 94 92 b9 de   ....s...%6T.....
|   2320: bd e2 39 b3 5c 88 8c e6 11 48 28 b8 0d 50 5a 6f   ..9......H(..PZo
|   2336: d9 8a a6 17 4f a0 82 ff 94 70 28 10 0c 41 80 c4   ....O....p(..A..
|   2352: d9 42 a9 fe d2 f7 1c 70 45 74 fa 65 d2 cf 49 00   .B.....pEt.e..I.
|   2368: b8 24 83 06 97 f5 1c 48 a7 dd 82 2f f0 77 f5 e6   .$.....H.../.w..
|   2384: 5c 03 11 fa 65 46 57 90 c0 6f 1f 86 58 de 34 21   ....eFW..o..X.4!
|   2400: 5f 76 d7 1e 1a 16 6a e1 ad 26 ae 6a 32 53 30 8b   _v....j..&.j2S0.
|   2416: db d9 05 93 22 87 58 e8 91 d8 26 80 85 f0 01 93   ......X...&.....
|   2432: 77 0e 88 91 bc bc ce e9 5e 6e e8 b8 aa 4e ad fa   w.......^n...N..
|   2448: a8 a2 5a 17 b8 88 56 f5 71 8a 70 fe 83 4f 5c 8c   ..Z...V.q.p..O..
|   2464: 07 1a 45 cf a9 89 05 c6 81 79 90 a5 d2 53 a4 3e   ..E......y...S.>
|   2480: ac be 52 ae aa 9d 30 66 c5 b7 1f 7a c8 8e 6a 3b   ..R...0f...z..j;
|   2496: 82 54 6a 62 aa 6e 4a c4 02 11 5b 69 12 6f 84 23   .Tjb.nJ...[i.o.#
|   2512: 17 f6 3d 81 1f 29 60 28 7c e2 95 b4 ae 39 e6 6b   ..=..)`(|....9.k
|   2528: 5e c5 df 82 66 82 57 d4 84 cd 2b 1e f2 a0 31 82   ^...f.W...+...1.
|   2544: 8b 9f 0e 0c 72 76 6b 6c 5b cb 0c 5c 2a 77 22 df   ....rvkl[...*w..
|   2560: 1e 96 44 f9 4e 22 dd 22 ff fc 14 a2 cc 36 77 02   ..D.N........6w.
|   2576: 81 8f 22 1e 46 ea 11 e1 85 41 8a ee 69 64 e6 27   ....F....A..id.'
|   2592: 8b 46 0b 4a 47 35 f4 72 71 62 a1 0c 4d 55 be a0   .F.JG5.rqb..MU..
|   2608: 1f ae ae 8b a6 2d de 54 04 24 05 98 06 43 04 57   .....-.T.$...C.W
|   2624: 09 8e ff 81 ff 9c 9a 18 02 bf c3 66 8f 65 fb e3   ...........f.e..
|   2640: 66 0c 20 bb 50 f5 0c a8 a8 e9 6f 53 65 b5 3a e4   f. .P.....oSe.:.
|   2656: 48 d2 1c 86 e2 a6 35 c0 91 d4 72 b6 67 21 49 fb   H.....5...r.g!I.
|   2672: 0c f9 91 b8 64 46 c2 75 28 df ac c0 bc 4f 61 d9   ....dF.u(....Oa.
|   2688: 92 06 6b 48 d8 29 ba 4f e6 40 a8 c8 35 8b 83 e6   ..kH.).O.@..5...
|   2704: 79 ec a1 d3 c1 73 82 64 42 13 3c 7b 73 3e 7a 14   y....s.dB.<.s>z.
|   2720: 2d db ac 00 76 00 81 ae fb c1 30 7b dc 57 39 f5   -...v.....0..W9.
|   2736: 27 6b 1a d5 ed c2 4b 21 12 3e 4d e0 8e 58 69 9b   'k....K!.>M..Xi.
|   2752: f5 cb 26 7a 62 e5 7b 3a fd 1a 8a e6 7d e6 f1 60   ..&zb..:.......`
|   2768: cc 4f 30 39 76 b7 3d 49 3f b7 59 a3 d0 a6 c8 8e   .O09v.=I?.Y.....
|   2784: 3e a8 e1 a0 1b 7d 82 39 8b c6 a5 87 3e 2c da 16   >......9....>,..
|   2800: f0 71 cc 5e 02 17 49 6d 48 24 8c 19 9e c4 d1 97   .q.^..ImH$......
|   2816: a6 cc 28 28 c9 3e c2 e3 19 6a 05 f2 bd 4c ef 44   ..((.>...j...L.D
|   2832: df 84 da 8c 3f 41 16 2f 87 b8 88 bd 6d 8b 6e dc   ....?A./....m.n.
|   2848: fa b0 44 08 ee ef 22 84 bf c0 5c a4 2f 2c 7e a2   ..D........./,~.
|   2864: 50 8b 84 cd 60 08 d8 53 4b 2d 4f 1e 3b 14 b4 62   P...`..SK-O.;..b
|   2880: 97 a1 66 49 2a 6f 3b 36 85 c2 42 58 98 5a db 3e   ..fI*o;6..BX.Z.>
|   2896: 64 fd ad 32 f2 e0 f9 5a 13 dd e1 68 6c 35 34 a5   d..2...Z...hl54.
|   2912: 3c 9a b1 8a 51 78 49 5b c6 ef 57 7f 6e de fe 2d   <...QxI[..W.n..-
|   2928: 0a 2c 1b 74 3f 19 bf 8e 6d 2f 0b 22 91 36 95 5d   .,.t?...m/...6.]
|   2944: a3 65 b6 3b 3a e4 de 70 9e 29 f4 c6 0a 23 27 d6   .e.;:..p.)...#'.
|   2960: d1 4a f6 2e 2b a0 ee 8d cd fc 42 7a c8 1a a6 36   .J..+.....Bz...6
|   2976: 17 aa f4 03 b5 cc e2 54 7a c4 fb 27 e5 90 62 20   .......Tz..'..b 
|   2992: 03 77 4d fc 35 7c 59 87 01 49 86 ae 82 6b 8b a7   .wM.5|Y..I...k..
|   3008: bc b0 b0 dd f2 ef f7 ef 0a 36 a6 25 f1 70 ba 89   .........6.%.p..
|   3024: e8 00 f4 fc c0 98 73 f2 b0 9a a2 ed d5 1e 17 d1   ......s.........
|   3040: 79 82 18 84 b0 f8 2a 5d f2 a1 03 d6 45 b0 01 26   y.....*]....E..&
|   3056: 19 01 6d b3 0e 5f 55 6c 2b 21 72 33 84 a9 ab fb   ..m.._Ul+!r3....
|   3072: 64 4d bc f0 1d 16 ae aa 09 c1 29 60 e2 63 e1 d5   dM........)`.c..
|   3088: 84 41 6e 5c 12 08 9a 04 dd 27 b8 fe 2f fb ca 83   .An......'../...
|   3104: 2a 7b eb 05 3b 77 fd 42 31 42 84 98 89 24 3c cc   *...;w.B1B...$<.
|   3120: 47 f6 bc 13 37 d7 97 98 c4 61 24 50 0b 9e e5 53   G...7....a$P...S
|   3136: 46 05 49 5e a5 51 d5 48 26 fa 31 eb 0e 76 14 16   F.I^.Q.H&.1..v..
|   3152: e9 60 f6 05 d5 bb 47 85 e2 da f6 5a 0a c0 14 38   .`....G....Z...8
|   3168: bb 70 4d be eb d8 6d 10 61 d6 9b c6 c4 f4 56 7f   .pM...m.a.....V.
|   3184: ff b8 fb 1f 92 a3 f5 74 78 7f c0 8d 9d f4 b1 a2   .......tx.......
|   3200: f4 0c 33 da 98 9e a2 61 4c c7 41 9c ea 0f 33 54   ..3....aL.A...3T
|   3216: 40 54 31 c3 04 fa d1 4b 67 80 e2 a7 6a 77 c6 ca   @T1....Kg...jw..
|   3232: 04 fc 71 ea fa 0f 92 8e d3 40 e8 0e 1c 48 a4 55   ..q......@...H.U
|   3248: 7f 74 67 ea c9 29 67 73 b9 b9 73 b1 00 1a d4 0b   .tg..)gs..s.....
|   3264: 21 95 d6 1c b4 68 2b c5 e1 18 40 7e 8e 09 6f 28   !....h+...@~..o(
|   3280: 88 2d 6f 24 d3 73 7b 89 7a a6 aa df ad ae 7b 14   .-o$.s..z.......
|   3296: d9 f0 ff 20 ba fd bf a7 d7 04 6c 35 5c 76 4e f5   ... ......l5.vN.
|   3312: d3 5b a9 2b 8f 3a 11 fa 35 26 eb 78 45 da cb 00   .[.+.:..5&.xE...
|   3328: 78 97 b1 49 82 4e c1 4d b1 aa b7 80 75 fb 20 75   x..I.N.M....u. u
|   3344: cb 3f ba 05 95 33 cd e9 b3 bd b2 84 c4 4f df af   .?...3.......O..
|   3360: 77 c2 44 24 57 01 f9 9d c1 ef b6 ce 01 6f a6 5d   w.D$W........o.]
|   3376: 3d 4b 12 e9 8f c2 a6 d5 1c 3b e4 05 83 48 aa 78   =K.......;...H.x
|   3392: 4b 3a 1c 1b ad 8e bc 49 c5 ee 91 68 28 8d 74 74   K:.....I...h(.tt
|   3408: a0 e1 20 ba 3d 62 97 0a 40 58 6b 1a c9 be 53 00   .. .=b..@Xk...S.
|   3424: 5d 9f e7 8e b6 05 7a d2 d1 89 ac fd 7f 9b ec 19   ].....z.........
|   3440: d0 95 35 e6 41 32 eb 68 85 eb 06 8c 53 f2 25 f3   ..5.A2.h....S.%.
|   3456: 19 d9 1c e7 a8 c2 c3 1c cd 78 50 4d 73 2d 5c 15   .........xPMs-..
|   3472: 7c 3e b5 f0 e8 64 f5 72 a1 4a 9d f3 87 1d 12 0b   |>...d.r.J......
|   3488: d6 50 21 18 ca 10 f9 29 32 53 14 54 08 ef 51 6d   .P!....)2S.T..Qm
|   3504: 6e 20 ae f1 3c b5 6b 8b 4c 4d 68 9f 73 99 2f d2   n ..<.k.LMh.s./.
|   3520: f2 ea ba bd 72 e4 d5 de 71 c2 15 a2 57 f7 69 c0   ....r...q...W.i.
|   3536: c4 6b cb c1 72 8e a8 fe f8 79 d2 6d 97 82 bf a1   .k..r....y.m....
|   3552: 11 35 dc 30 36 e5 32 b5 81 f7 2b 58 06 c3 28 3a   .5.06.2...+X..(:
|   3568: 43 c0 bd 16 a4 b8 f7 37 2b 1f 5f 8a 2a 09 21 4e   C......7+._.*.!N
|   3584: d7 14 35 31 e6 36 8d 6f 2b 2a e2 63 1f 59 8d 62   ..51.6.o+*.c.Y.b
|   3600: 16 cd 16 d5 5a 20 b0 4b 9c 44 4d bb 0e 8a 01 6d   ....Z .K.DM....m
|   3616: 6c 2e 09 48 6c 32 f5 96 45 0b df 3a a4 09 a4 1c   l..Hl2..E..:....
|   3632: 44 81 72 60 8a ed 10 29 c0 62 da ba 51 4f a0 7d   D.r`...).b..QO..
|   3648: e0 9b ed 31 6a 0e f8 b5 f4 69 b2 15 d4 01 ed c5   ...1j....i......
|   3664: e2 09 df cc 97 13 70 57 48 1b bd 4a ad 0b ad 8a   ......pWH..J....
|   3680: 80 3d c1 c0 c7 f2 2d d9 a8 b7 3f b8 e5 aa 0f 5c   .=....-...?.....
|   3696: e6 95 2a c6 80 83 69 ca 0e dd f9 7e 04 48 7d d3   ..*...i....~.H..
|   3712: d5 29 fd 9d 7f 59 d7 1d 9b cd c3 06 e7 51 13 bc   .)...Y.......Q..
|   3728: 60 d5 c3 d5 a9 0b 78 ab 01 3e 34 06 4f 8a 47 4a   `.....x..>4.O.GJ
|   3744: 0d a9 c1 b5 29 c4 26 c4 5d cb bd 80 f1 d4 eb b9   ....).&.].......
|   3760: 6b 7d 2f c3 95 7c 2c e3 86 c9 5d 41 ee 76 89 9f   k./..|,...]A.v..
|   3776: 3a f3 e2 c8 6e f5 37 a7 68 01 06 26 47 9c 1b aa   :...n.7.h..&G...
|   3792: 5a dc 55 89 af 53 89 9f f2 30 ee 04 90 cc 30 de   Z.U..S...0....0.
|   3808: f4 2a c9 23 59 9d cf 65 7d 2c 30 7e ae 7d 08 43   .*.#Y..e.,0~...C
|   3824: 1f a9 b8 14 3b e8 3d 1e 3e 4b 46 93 18 4b 08 ee   ....;.=.>KF..K..
|   3840: 53 f4 07 0d 4e 69 87 a4 61 9f b0 75 a7 fc 64 34   S...Ni..a..u..d4
|   3856: 86 aa a2 82 21 40 d7 7a 03 30 d0 f4 47 d2 4a ff   ....!@.z.0..G.J.
|   3872: dd 27 02 69 99 d2 c9 61 d0 fa 46 dc 07 1d f7 0b   .'.i...a..F.....
|   3888: 39 0b a3 2d 7f 9f 1b ce ca 79 69 62 bc 50 1a 07   9..-.....yib.P..
|   3904: 2c 1b 38 37 9f 93 65 dc 45 3a 1e 2b ff 3f d0 bb   ,.87..e.E:.+.?..
|   3920: 05 f2 9b 36 b5 79 9c ca 4f 7d 8a 2f 6e 62 1d 20   ...6.y..O../nb. 
|   3936: ab 6e 5f 75 19 67 e9 4a e1 c4 6a 2e 8a 06 b0 36   .n_u.g.J..j....6
|   3952: 37 47 5f a1 27 93 d4 36 80 85 f9 29 94 db 83 13   7G_.'..6...)....
|   3968: f5 16 1e 0e 6b 6c b1 c1 f2 66 0a 8e 63 ea ca 6b   ....kl...f..c..k
|   3984: f3 74 91 9e 73 62 d4 09 bd a9 64 54 e1 64 b0 e4   .t..sb....dT.d..
|   4000: b6 47 e0 ff 92 09 88 39 e1 44 f8 50 20 b2 3c 6b   .G.....9.D.P .<k
|   4016: e4 c1 a9 f8 b1 92 b1 9d f7 90 7f 96 44 0a 56 7d   ............D.V.
|   4032: 1f 50 a5 04 4a eb 4c 71 70 14 0d b1 99 65 61 7e   .P..J.Lqp....ea~
|   4048: 9d 53 e6 59 24 5c 3d 22 39 74 f7 de ec 18 93 33   .S.Y$.=.9t.....3
|   4064: 5d 1e d8 61 94 f5 5f ca cb c5 a0 ec 13 56 78 51   ]..a.._......VxQ
|   4080: f7 a6 32 d6 c0 02 d8 9c 38 9e af e3 ba 46 69 b2   ..2.....8....Fi.
| page 17 offset 65536
|      0: 0d 00 00 00 01 04 3f 00 04 3f 00 00 00 00 00 00   ......?..?......
|   1072: 00 00 00 00 00 00 00 00 00 00 00 00 00 00 00 97   ................
|   1088: 3e 09 06 00 ae 7c 00 00 67 b9 3e 40 aa 45 11 79   >....|..g.>@.E.y
|   1104: ad 46 a6 a7 42 e7 7c 05 62 a4 28 61 03 fc 1c e4   .F..B.|.b.(a....
|   1120: 48 2e f1 ef d9 09 23 04 f4 d7 c2 ad 73 c4 d8 69   H.....#.....s..i
|   1136: cf 15 ef a5 1a ba db 63 7c d8 e9 4c 70 cf 08 d8   .......c|..Lp...
|   1152: 62 d3 ec 60 a0 93 06 fe 50 87 b5 22 48 37 b8 46   b..`....P...H7.F
|   1168: 30 26 ed 8d 2c f3 ed c1 51 62 e8 ce 13 45 b4 4a   0&..,...Qb...E.J
|   1184: 9a 3c 76 c4 fd a6 e2 de 26 04 93 69 30 3c 26 4d   .<v.....&..i0<&M
|   1200: da d6 eb b8 33 b3 b3 c2 d6 13 d3 42 b4 93 1f 36   ....3......B...6
|   1216: e4 12 72 d5 81 36 3f 83 12 92 ec cd 23 c0 d6 14   ..r..6?.....#...
|   1232: 63 8d 04 d8 e1 9b 21 3e 31 a9 dc 33 9a 20 e3 01   c.....!>1..3. ..
|   1248: 2f 8f 00 d5 47 ae 22 01 bf 83 40 da c4 74 43 56   /...G.....@..tCV
|   1264: 32 35 6e c9 3a 82 44 0e 86 32 5a 8e 46 5c 16 23   25n.:.D..2Z.F..#
|   1280: e5 dc 7e 38 26 fd ba d1 d3 d0 7e 4e 88 6e 2a 85   ..~8&.....~N.n*.
|   1296: d1 25 70 b4 fc 55 2b 5a 5b 4e 01 1b 20 21 d2 2b   .%p..U+Z[N.. !.+
|   1312: c1 5b e9 3e f1 fe 3f 65 18 07 a6 10 3a 88 e5 9b   .[.>..?e....:...
|   1328: 4d 83 91 f2 1f b5 03 2a cb 57 21 e2 20 fc 35 99   M......*.W!. .5.
|   1344: b1 49 4a 0c b9 04 35 b9 b0 43 52 14 e7 2d 03 30   .IJ...5..CR..-.0
|   1360: 73 cc 40 39 c3 d6 58 1b 90 85 df 21 6b e4 03 87   s.@9..X....!k...
|   1376: e1 de 4c 36 2c f3 c1 0b 75 92 a9 11 6e 9b de ac   ..L6,...u...n...
|   1392: cb 26 b9 8d 48 47 f3 63 44 30 b0 e6 84 31 ec aa   .&..HG.cD0...1..
|   1408: f9 64 3b b2 12 b4 13 46 be 97 6f 36 37 3a ea 4b   .d;....F..o67:.K
|   1424: ef 0d d6 04 44 21 e3 25 72 6c 70 d5 58 87 7d 16   ....D!.%rlp.X...
|   1440: 37 39 d3 0a 7b fe e2 81 d1 50 6a 62 6c a8 86 ca   79.......Pjbl...
|   1456: b9 f4 4e b5 04 c3 97 1b 4e 65 49 ee f4 cd 9c e4   ..N.....NeI.....
|   1472: 89 7d 7e c8 29 9b 3e 88 82 b7 68 c4 9b ea 75 48   ..~.).>...h...uH
|   1488: 1b 5b 93 0d 12 86 df 35 44 28 95 6c f2 c4 e5 3b   .[.....5D(.l...;
|   1504: 89 a7 bf 11 ce 79 76 99 bb 0d 01 2e 58 e3 e1 0d   .....yv.....X...
|   1520: 06 19 5e 28 bc 06 32 4e 76 bd e5 01 a0 20 5c 3f   ..^(..2Nv.... .?
|   1536: 15 ad e8 4e 64 5a 67 a4 77 3f 23 c2 be 0d 96 b5   ...NdZg.w?#.....
|   1552: 28 e9 c3 60 ec 5d 09 73 e9 dd 40 a8 7d a0 ac 4f   (..`.].s..@....O
|   1568: ef 82 ac 4d 25 19 a8 1b 22 71 c2 fa 97 c3 27 da   ...M%....q....'.
|   1584: 44 14 f0 41 26 20 fd 57 4f 4e 9d f5 b3 d5 7c 72   D..A& .WON....|r
|   1600: f4 e5 56 0c 8e e8 c0 39 1c 3c 0e bb ce 8f 08 cb   ..V....9.<......
|   1616: 7f dd 0c fc 11 17 4b 41 03 b6 43 17 25 92 84 8b   ......KA..C.%...
|   1632: f8 51 57 92 93 14 25 11 83 ce da bf 04 0d ed 32   .QW...%........2
|   1648: 07 dc 6d b5 e1 c5 74 42 07 06 2a eb 2c a0 78 a7   ..m...tB..*.,.x.
|   1664: de 21 66 0b ea 49 fc e9 26 87 63 5c 8f 66 59 95   .!f..I..&.c..fY.
|   1680: c1 cd e9 00 79 05 0f 57 d0 d5 a9 1e 48 f6 7a 9d   ....y..W....H.z.
|   1696: 80 6d 5c 74 55 3d fd 67 0e ff 74 26 70 bf c3 9b   .m.tU=.g..t&p...
|   1712: 5f af 8b 43 69 e0 49 31 63 2b e4 9f 59 09 0e 5a   _..Ci.I1c+..Y..Z
|   1728: 18 84 b3 f4 19 17 18 16 5b fd ed 78 5f 68 ec 2c   ........[..x_h.,
|   1744: d7 66 05 6e 47 eb 9b a1 52 90 0f 34 99 4f a0 fd   .f.nG...R..4.O..
|   1760: 21 f7 4d da f6 ae e4 57 51 63 59 e1 ee b8 32 6a   !.M....WQcY...2j
|   1776: 03 ac c4 c4 69 73 10 32 d5 94 25 7e 6b d0 ec 62   ....is.2..%~k..b
|   1792: 0d 17 f7 16 24 b5 df 11 7b 29 01 03 d8 ff 1a 2f   ....$....)...../
|   1808: 7f 51 ab 9e 41 5b aa 0c a5 5d e9 69 ce 3b 85 4e   .Q..A[...].i.;.N
|   1824: 7d ff 5a 37 b5 74 18 78 85 95 4d 44 8a d9 8c ea   ..Z7.t.x..MD....
|   1840: 2e 10 6e e6 cb a1 3d ef 57 38 f0 9b f0 8b 0b 68   ..n...=.W8.....h
|   1856: f9 f8 9f ac 58 da f3 9c 2b 2a 90 c7 4d 00 e4 4c   ....X...+*..M..L
|   1872: 46 59 01 1c 0c 6b 08 6d 33 07 41 d0 5d 23 20 3b   FY...k.m3.A.]# ;
|   1888: 00 e0 6b 32 2e 76 3a 7e 09 3e c9 66 90 4f d5 9b   ..k2.v:~.>.f.O..
|   1904: 8a bd b1 6d f9 33 d9 5a b3 bb a1 2a 45 31 0b c6   ...m.3.Z...*E1..
|   1920: ce 44 34 5d 88 61 89 d1 cc 7c 14 86 a3 d7 6b 6b   .D4].a...|....kk
|   1936: 22 d2 98 ab 62 7c 43 2e a8 92 12 de 43 d4 0a 9d   ....b|C.....C...
|   1952: 94 f0 41 2d 14 86 69 fe 98 71 1a a2 2b db 5b ec   ..A-..i..q..+.[.
|   1968: 23 00 e3 a3 03 1d 31 97 94 e4 85 1e 5f 53 44 66   #.....1....._SDf
|   1984: 0a 21 df ec ca 6a a6 a3 f4 c8 00 40 8e 0f 19 3f   .!...j.....@...?
|   2000: 36 69 a3 7c de fc 73 16 d8 d3 f9 ff 03 ac 94 dd   6i.|..s.........
|   2016: 38 d5 d9 20 2e d8 97 2a 22 9d bb a5 cc 04 07 8f   8.. ...*........
|   2032: be 18 b4 a8 ae e5 b4 45 27 7f e2 7e 3f 91 67 98   .......E'..~?.g.
|   2048: 86 3d 3c 05 3a 1e 71 bf 40 f8 a6 ca 48 7a ca c7   .=<.:.q.@...Hz..
|   2064: b7 67 10 bd 99 79 53 32 70 b0 74 fc d9 93 60 c8   .g...yS2p.t...`.
|   2080: 3e 39 5c fa 3c 97 34 70 57 a3 0f f8 ab 4e 3f a6   >9..<.4pW....N?.
|   2096: a5 25 26 ea 0c 60 fe 32 f3 7a 68 d0 9f 50 a4 45   .%&..`.2.zh..P.E
|   2112: 13 2e f8 41 3f e9 d1 9f 78 4a d0 a7 d3 57 3c af   ...A?...xJ...W<.
|   2128: a6 69 6f 2b 4e f0 86 b5 96 2d b2 de 06 5b 68 b2   .io+N....-...[h.
|   2144: 9a b9 de e7 7d 54 0a ff b1 26 17 ea bc a7 37 ff   .....T...&....7.
|   2160: 46 7b f7 00 90 ec 71 92 cb 5a b7 c8 7f 45 60 ec   F.....q..Z...E`.
|   2176: 9e 30 ca 80 69 4c 07 4d c8 c9 53 c4 77 3c 93 15   .0..iL.M..S.w<..
|   2192: 17 63 15 c0 3a 1d a2 02 82 6d 4b ed 50 4c 5d 93   .c..:....mK.PL].
|   2208: 2d ef bf 1e 9a ff 04 26 1a f6 7b da c9 21 7b 50   -......&.....!.P
|   2224: 4d 2f 53 c4 1e b4 dc 9f 5f 33 26 80 4a 8c ef 54   M/S....._3&.J..T
|   2240: fb 58 95 55 3c ec c0 a7 c5 78 a0 91 08 b4 d6 ce   .X.U<....x......
|   2256: d8 25 27 2b 37 e9 63 72 94 c3 89 5a 58 85 f4 95   .%'+7.cr...ZX...
|   2272: 09 fe db 6c 9c 71 54 af 1a 0c eb 2d e6 a9 db a0   ...l.qT....-....
|   2288: 04 2c 29 70 12 b2 7e 66 ae 25 ce b4 b9 5c a2 12   .,)p..~f.%......
|   2304: 1c 75 10 d5 54 f8 04 c5 8d be 38 29 64 f8 29 00   .u..T.....8)d.).
|   2320: 07 35 e4 e7 6e bc 64 db 39 d8 98 ee 72 28 a8 8b   .5..n.d.9...r(..
|   2336: 0f 1b 87 26 6e d4 73 1b ef b6 d4 db 05 12 1b c7   ...&n.s.........
|   2352: c6 1e 02 b1 ab bb e2 29 81 9a 9e b6 80 22 6e b4   .......)......n.
|   2368: 3c 30 ad e7 8b a9 60 7e de 01 a3 74 0b 76 0b d6   <0....`~...t.v..
|   2384: e8 a0 91 65 ce bb 6a d7 96 cc fa 96 d0 c0 39 d0   ...e..j.......9.
|   2400: 54 80 1d 8d 79 17 11 86 c5 8f a7 7f 57 92 8d b2   T...y.......W...
|   2416: 41 5b 86 61 94 23 99 77 b0 5d 5d f9 29 86 36 c8   A[.a.#.w.]].).6.
|   2432: ea f8 2f b5 7d 42 66 fe c7 0d 19 17 e6 6f c5 79   ../..Bf......o.y
|   2448: e0 22 24 70 eb 79 23 ec 45 77 d3 44 8f 74 15 bc   ..$p.y#.Ew.D.t..
|   2464: cf 46 cc ff 5b 05 1e 03 7d ea c5 82 14 11 86 4b   .F..[..........K
|   2480: cb 23 5b e0 1d 96 ca ea 62 d8 71 56 c4 1f d6 ed   .#[.....b.qV....
|   2496: 9e 8f bd b0 4a fe 53 87 c8 16 1a 31 cb 25 ba 18   ....J.S....1.%..
|   2512: 66 c3 b2 a7 91 68 ff b9 2b bc c4 f5 50 36 79 e5   f....h..+...P6y.
|   2528: 33 c3 d4 98 e1 fd f9 3a c7 a1 ef 79 29 c1 bf 7e   3......:...y)..~
|   2544: db 7b 66 3b 95 37 02 c7 ee ca 7f 9f 50 8f 47 5d   ..f;.7......P.G]
|   2560: af 45 29 e3 f5 7e 07 93 73 a0 42 ef 05 a6 2b 74   .E)..~..s.B...+t
|   2576: 92 ab 8a 9a 19 be 2f 21 cf 6a 90 02 a3 1f f4 5c   ....../!.j......
|   2592: 72 b3 31 00 85 9b 20 d8 f3 c5 00 a7 15 30 56 6c   r.1... ......0Vl
|   2608: 0f 7c 84 be 55 5b 8b aa df d6 bd 9e d9 55 54 93   .|..U[.......UT.
|   2624: 44 7d 9a 9b b8 38 46 b7 1e 1c 75 17 bb 29 05 5f   D....8F...u..)._
|   2640: da 39 7e fe 9e 40 e3 a5 7c a2 ba 5d 7e 9d 14 57   .9~..@..|..]~..W
|   2656: 19 10 2a d1 85 d3 06 0f d4 d8 ac f0 03 8a bd 61   ..*............a
|   2672: 26 89 4e c6 92 0a 4b 0b a2 3e 1d 5e 88 8c ce 33   &.N...K..>.^...3
|   2688: 47 e7 4e 69 0c e3 09 ef 3a 9f af 19 ae 83 68 21   G.Ni....:.....h!
|   2704: 75 c3 54 7b 00 a5 f3 d2 32 41 69 ac fc 31 2e 0c   u.T.....2Ai..1..
|   2720: 91 dd 90 78 2c ab 3f 0c 37 a4 8c 69 a9 ae 41 8e   ...x,.?.7..i..A.
|   2736: 6b b5 b5 ee bf df bc 1c 61 bb c9 51 37 a5 d5 96   k.......a..Q7...
|   2752: 0c 26 aa 97 67 72 73 cc c1 92 d3 46 cd 3e d8 ad   .&..grs....F.>..
|   2768: e6 8b 51 ee 41 ed 39 57 65 2e 5c 39 2b eb a7 72   ..Q.A.9We..9+..r
|   2784: b6 4c a8 87 72 a4 16 b4 d9 90 db e9 25 11 53 4e   .L..r.......%.SN
|   2800: ef 24 1d b0 21 bc 97 52 38 53 49 c8 31 c1 c4 9f   .$..!..R8SI.1...
|   2816: 2b 13 0c 10 5b 4a 0c 6e 07 c0 ec d4 77 f0 f0 38   +...[J.n....w..8
|   2832: a6 88 d4 28 40 30 76 f4 ab 2e 94 b5 6d 47 79 84   ...(@0v.....mGy.
|   2848: f9 aa 28 32 66 c8 aa cf 17 18 3d 92 0e 66 4e fe   ..(2f.....=..fN.
|   2864: 5d 80 51 29 df 97 de a4 c6 57 23 67 84 f4 32 86   ].Q).....W#g..2.
|   2880: 51 03 b6 67 29 54 74 87 da c0 41 e9 3a 3e 07 02   Q..g)Tt...A.:>..
|   2896: d9 85 dc 55 e7 23 60 80 b0 01 48 cd 59 21 82 fe   ...U.#`...H.Y!..
|   2912: 14 65 1a 5d 9e 5e 2b 69 52 ee 64 01 4d 46 ac 94   .e.].^+iR.d.MF..
|   2928: 60 04 d9 2c 41 e3 5b 35 e7 cc 75 06 7d ff 48 ae   `..,A.[5..u...H.
|   2944: 13 e5 4f 54 f6 78 86 c5 c4 99 58 02 41 87 a9 82   ..OT.x....X.A...
|   2960: 34 95 75 b2 e5 5e 92 23 a1 7b 3c 7b 1d 94 dd 5f   4.u..^.#..<...._
|   2976: f6 56 07 06 41 12 a0 56 7a 15 01 58 1f 9f 15 1a   .V..A..Vz..X....
|   2992: bd 2e c6 ea b8 29 ae 13 19 a6 40 b0 8d ec 3a cd   .....)....@...:.
|   3008: ca 6b b4 d5 96 95 fe 8d 34 23 aa ab df c3 23 fa   .k......4#....#.
|   3024: c4 02 eb 10 8c f2 e8 e0 5f d4 e9 4a ae f4 8d 60   ........_..J...`
|   3040: a9 1f 65 40 93 26 bf 1c 49 9d b6 8f e3 f1 c7 0b   ..e@.&..I.......
|   3056: a7 bb d1 ae 56 60 5c 80 d8 e0 e4 f0 72 62 45 b7   ....V`......rbE.
|   3072: 31 33 66 a7 17 a4 34 67 f6 55 b1 09 eb 75 8f f0   13f...4g.U...u..
|   3088: cd c1 86 e3 f5 3a e7 d8 08 da 4c a7 b4 45 8b ce   .....:....L..E..
|   3104: 9c 8d 48 41 b4 3e 6b 2d fb be c3 e7 bf 80 d3 29   ..HA.>k-.......)
|   3120: 9f 8c 5d 7e 48 76 dc 95 cc 30 bf 9f e1 e0 dc c1   ..]~Hv...0......
|   3136: da 9c 73 18 3c ff 53 49 88 dc ef 90 20 5f 3f 75   ..s.<.SI.... _?u
|   3152: 85 02 0c d4 c3 f4 c1 ed f7 82 05 c4 e9 80 97 65   ...............e
|   3168: 09 2a ac 52 c5 77 6c f4 6b 35 30 c2 fd 38 48 ae   .*.R.wl.k50..8H.
|   3184: b6 f6 38 0f 87 1a 66 54 91 3a 5b a7 48 5c 9d 36   ..8...fT.:[.H..6
|   3200: e5 7f 60 4d 68 19 ff 8d 2e 6a 8a 99 37 72 11 f9   ..`Mh....j..7r..
|   3216: 5b 29 77 3e 76 cd 57 6b 07 d0 cf d6 b4 cd d0 1e   [)w>v.Wk........
|   3232: dd 6e 1c a1 bd 7f bd 9d 57 0d 14 25 9e 4a 36 8c   .n......W..%.J6.
|   3248: 9f 7b b4 f9 db 57 22 f1 0b 47 e8 2e 04 70 e2 d6   .....W...G...p..
|   3264: 29 0e bb 52 33 80 6b 12 a5 20 97 3b 60 01 a2 8c   )..R3.k.. .;`...
|   3280: 74 68 0f b1 b0 44 63 04 fe 69 2f 98 ee d9 e9 39   th...Dc..i/....9
|   3296: af 0d 7a 79 00 ca d4 3e 96 e1 27 f8 27 e6 a7 d5   ..zy...>..'.'...
|   3312: 0c 7d 0c 13 de 31 bd 75 cf 41 04 1f 03 bb df 1d   .....1.u.A......
|   3328: c7 c0 3b a8 15 d8 15 4b b5 89 ff 4c 16 31 7a 62   ..;....K...L.1zb
|   3344: bb f8 d0 f2 43 fe 03 68 b0 35 7a 33 ae 4e a9 0b   ....C..h.5z3.N..
|   3360: 6a c8 35 d3 2c bf 6c 35 7b 1d 4c 9d 62 c1 96 01   j.5.,.l5..L.b...
|   3376: cf 7f 5f f0 20 ce 16 25 32 bc b2 bb 29 7a 6c f5   .._. ..%2...)zl.
|   3392: 36 17 6e 1b 93 4f 0f f0 de eb 67 a8 be 6a ad 7a   6.n..O....g..j.z
|   3408: e6 42 1f 63 d2 de 72 1b f6 01 08 e8 72 d6 85 81   .B.c..r.....r...
|   3424: 3d ec 80 70 f3 84 5c 54 2a 2d 66 f8 e9 ba d7 7c   =..p...T*-f....|
|   3440: af df 2a 43 f4 6c 78 3e 5d e6 92 b4 9f 02 05 bb   ..*C.lx>].......
|   3456: 84 9e ed 44 71 74 21 c9 be 07 3b 98 b1 49 b7 81   ...Dqt!...;..I..
|   3472: 6a 4a c4 08 28 1c 19 0f ae 36 c2 6c a2 55 af 09   jJ..(....6.l.U..
|   3488: 47 da e4 a8 32 df 4f 68 83 b1 c8 89 a0 1a e1 72   G...2.Oh.......r
|   3504: b2 dd ab e9 fd 2f c8 79 d1 7e 69 16 e7 72 85 09   ...../.y.~i..r..
|   3520: 95 77 18 1f 2c d1 51 31 68 88 8f 0a fb a1 4f 3b   .w..,.Q1h.....O;
|   3536: 6d fb 24 cc 0a 77 34 cb 49 35 06 07 a6 cd 5e 27   m.$..w4.I5....^'
|   3552: d6 87 cc ae e1 00 cc 69 22 0e 4f 5a 59 cc 8f 30   .......i..OZY..0
|   3568: c3 65 8f 8d bc 1a 86 8f 02 9b 0a 2c 5b b5 3d fa   .e.........,[.=.
|   3584: c9 fd 1c 96 4c 59 e1 ac 43 17 e8 b1 18 57 c8 48   ....LY..C....W.H
|   3600: c7 df e9 d1 d3 11 d9 4b 44 33 d9 da 9d 86 7a cb   .......KD3....z.
|   3616: de 17 ce 40 aa b8 2d b6 26 a9 68 e8 72 f3 cb e0   ...@..-.&.h.r...
|   3632: ae ec b1 1e 76 0b 5c 49 93 f5 f1 04 56 fa ac 33   ....v..I....V..3
|   3648: 65 de d4 36 6b 3a 3c e1 a7 7b b6 66 e1 69 e7 86   e..6k:<....f.i..
|   3664: c0 42 a2 71 e5 f1 35 3b 38 1e 52 a2 bb 72 39 de   .B.q..5;8.R..r9.
|   3680: e2 78 23 3a 71 b3 0b 8d 94 e5 26 80 9d d3 67 76   .x#:q.....&...gv
|   3696: 14 aa 98 b4 f8 42 78 6c a1 8f 7a bd 5a 5f 99 1f   .....Bxl..z.Z_..
|   3712: 14 5a d4 02 bf c3 60 a7 c7 34 8f 81 4b 4a f6 c2   .Z....`..4..KJ..
|   3728: 21 0e 6e 26 55 79 10 67 13 dc da ac 80 37 ad 95   !.n&Uy.g.....7..
|   3744: 11 4a 54 b5 f9 da f6 66 26 99 51 98 1e 05 c0 5b   .JT....f&.Q....[
|   3760: 2d 23 b8 a2 5b de c3 f4 4f 2b 3a 22 10 1c 25 cc   -#..[...O+:...%.
|   3776: 57 db 91 c4 6c df 33 a1 1f d6 a3 2e 56 de 54 d1   W...l.3.....V.T.
|   3792: 02 ac 2d ff 96 d6 db ec 80 f7 79 ea 81 30 68 d0   ..-.......y..0h.
|   3808: 90 b2 d1 cc 5e ac 50 df 5e 1b 0a 78 01 70 e8 21   ....^.P.^..x.p.!
|   3824: 35 08 64 46 9a 55 91 aa 9e 41 df 4f 5b 2b 3e 1c   5.dF.U...A.O[+>.
|   3840: bc f5 90 37 d7 35 ac 34 8e 70 94 28 46 eb c8 42   ...7.5.4.p.(F..B
|   3856: 10 df 40 b6 c0 76 57 6d 79 d6 f7 b6 cf ca 88 bc   ..@..vWmy.......
|   3872: f9 f6 ce ad 69 d8 a6 a7 41 cb cb c6 bf 91 ef ff   ....i...A.......
|   3888: 72 6f d2 b0 1e bf db 33 4b cd 1b 81 2d 65 de ff   ro.....3K...-e..
|   3904: 5c 4b 45 f0 57 c3 5e 1f 77 6d 14 b7 ea e4 8c 88   .KE.W.^.wm......
|   3920: d0 b1 63 86 fc 68 26 e3 b2 7a 5f ca ec 09 00 4b   ..c..h&..z_....K
|   3936: dc f0 d4 70 fd c1 10 36 a9 cc fc 0d fd 24 12 13   ...p...6.....$..
|   3952: d9 bd f0 2f 87 99 00 d1 d4 7c c6 41 f3 59 2a db   .../.....|.A.Y*.
|   3968: e1 7c 44 99 65 e7 4b 2f 42 a6 02 ad eb 7b db 14   .|D.e.K/B.......
|   3984: e4 c7 0d bf a7 f1 3d 69 01 cc c0 2e 82 06 fe 13   ......=i........
|   4000: a3 f2 df 3f fe 65 d6 73 b3 d1 48 0c 00 5f 6c 4e   ...?.e.s..H.._lN
|   4016: 1e ff f6 d2 69 08 a0 7a ed 50 16 a5 b1 56 1c f5   ....i..z.P...V..
|   4032: 14 b0 b8 3a 38 19 a6 e7 ef 28 3d b9 9f 5e 38 39   ...:8....(=..^89
|   4048: bc 41 c2 b1 fa 0b be 8b e9 9f 2f a0 be 8a eb 7f   .A......../.....
|   4064: eb 55 5e fb 3a 36 82 02 fd 50 a6 b2 7d fb e7 5a   .U^.:6...P.....Z
|   4080: a4 b2 d9 d9 8b 93 7a 2e ed c3 0c 13 68 22 cf f9   ......z.....h...
| page 18 offset 69632
|      0: 0d 00 00 00 01 04 3f 00 04 3f 00 00 00 00 00 00   ......?..?......
|   1072: 00 00 00 00 00 00 00 00 00 00 00 00 00 00 00 97   ................
|   1088: 3e 0a 06 00 ae 7c 00 00 18 91 e3 df f3 2f 7b 53   >....|......./.S
|   1104: 6d 25 6e 2a df e7 b0 18 33 2f 73 08 d7 a8 04 75   m%n*....3/s....u
|   1120: 49 89 b0 84 41 57 fb 8f 24 85 4e 24 c6 f1 14 03   I...AW..$.N$....
|   1136: 9e 8e ef 9d f0 5c 54 69 11 78 d5 0f d6 97 22 1e   ......Ti.x......
|   1152: b5 17 73 66 0d 95 db ce c4 12 cb b0 ae a8 53 70   ..sf..........Sp
|   1168: c7 6b 02 f6 7d 56 49 eb 11 75 da b6 c2 ba a1 f2   .k...VI..u......
|   1184: 19 8d c3 fc 6f 9d 3e e8 0e 1a 51 37 d7 ff b1 19   ....o.>...Q7....
|   1200: 50 bd a1 74 26 2b 53 c6 1e 12 75 20 ed 43 51 0e   P..t&+S...u .CQ.
|   1216: 28 f7 c4 a3 b5 8c ec de 2c 58 29 8c 74 81 d7 2d   (.......,X).t..-
|   1232: a2 8d 0a d3 85 98 6b f2 3e 34 94 08 73 06 e7 06   ......k.>4..s...
|   1248: 04 e3 81 81 2a d8 5c 61 1b e9 7c ff 92 a8 c9 50   ....*..a..|....P
|   1264: 97 a0 8e f6 1f 4b 25 ae 8e fa 84 7a 6f a7 11 42   .....K%....zo..B
|   1280: c2 97 7a 93 42 39 ab 41 9f c1 7c 86 4a 66 06 cd   ..z.B9.A..|.Jf..
|   1296: e3 20 2c 3e ba f5 3c 32 fd a7 4a 73 50 74 a4 50   . ,>..<2..JsPt.P
|   1312: 89 28 57 71 bc 3d 31 77 89 ef cd cd ff b4 fb 2c   .(Wq.=1w.......,
|   1328: 5f a0 55 da b0 d9 18 d4 f7 a3 e4 f0 bf a8 86 b8   _.U.............
|   1344: 64 97 49 26 1b 4a b7 e7 6f 88 a9 a8 ab 54 1c 48   d.I&.J..o....T.H
|   1360: 0c 77 2c e3 7a 83 7d 05 c8 22 f7 b7 57 92 61 97   .w,.z.......W.a.
|   1376: 69 52 51 f7 8d 4c 2a b5 5e d5 55 f4 fc ae 35 bc   iRQ..L*.^.U...5.
|   1392: fa 44 c5 19 ec 62 5e 98 12 bf a8 e1 53 32 76 4c   .D...b^.....S2vL
|   1408: fb 4e 80 40 85 39 71 69 bd 55 90 9b 4c 46 b1 06   .N.@.9qi.U..LF..
|   1424: 84 14 80 f3 2b ba 43 15 7e 12 44 4b 38 2e 01 a8   ....+.C.~.DK8...
|   1440: 2e 58 11 e1 dd 6b 24 9e 6a fb 21 14 f5 ae be 7a   .X...k$.j.!....z
|   1456: 9b 26 0d a8 2f 29 8c 5a 63 8a cf 58 36 e1 76 fb   .&../).Zc..X6.v.
|   1472: ca 95 7a 0c 74 0d d5 57 04 a4 65 5f 2a 0d 46 ee   ..z.t..W..e_*.F.
|   1488: 0c 2e a6 a1 dd 04 b8 1d b7 72 a0 d5 ad cc 8e d3   .........r......
|   1504: bb 04 bc 39 4d 22 0f 4e 6c b1 4d b4 08 3b 7f a5   ...9M..Nl.M..;..
|   1520: f1 7d 18 c5 bf 43 86 b3 c1 3b 85 6f 30 84 1a 7b   .....C...;.o0...
|   1536: 17 d0 91 d3 6d 99 cc ff ac 64 88 53 d3 ad 1e 5f   ....m....d.S..._
|   1552: ba 4c af 64 80 ae ca c7 27 56 7e 41 02 61 f1 d2   .L.d....'V~A.a..
|   1568: e4 4b 99 7c e4 18 41 9c f7 b9 e8 5a 3f 6e a3 57   .K.|..A....Z?n.W
|   1584: ca 18 c5 8a a8 39 c6 fe 02 d0 9d 26 37 42 07 3d   .....9.....&7B.=
|   1600: 38 4e fe 9a 3b 54 39 20 23 53 8a 84 2f 4a 06 06   8N..;T9 #S../J..
|   1616: ed 56 dd d8 bf 56 ef ca a5 c0 a4 aa d5 88 41 42   .V...V........AB
|   1632: 8a c0 37 65 f3 c8 4c 87 a5 f3 3d 99 78 2b d7 4e   ..7e..L...=.x+.N
|   1648: d7 6e 51 28 3f 5c 93 cb 56 08 91 39 8e 1d fb 26   .nQ(?...V..9...&
|   1664: 5d 80 7c 44 59 c4 d4 b3 5e 0c c1 3f 85 f8 d6 d0   ].|DY...^..?....
|   1680: 25 0f a8 c4 40 a5 f7 63 ec 2b fc 78 e6 b4 7c 72   %...@..c.+.x..|r
|   1696: 87 f0 6d 2c 00 63 dc 29 4a e5 b5 6b 9e 73 33 b4   ..m,.c.)J..k.s3.
|   1712: 19 03 1a 5c de 8f 98 fa ce 4d e3 1a 62 6b 5b f5   .........M..bk[.
|   1728: 60 d6 4c 13 39 14 06 83 90 09 56 8b 71 3b b9 bc   `.L.9.....V.q;..
|   1744: e3 7e 5e ae f5 3e b7 aa bd 73 d6 f1 47 4a 84 60   .~^..>...s..GJ.`
|   1760: 20 d7 93 ce f0 f2 1a 63 b7 f0 7e 3b 4e 36 1c dd    ......c..~;N6..
|   1776: cc ef 50 7a a9 90 f7 48 05 fb 78 e8 72 71 df 3a   ..Pz...H..x.rq.:
|   1792: 41 51 2c 4c 5d 0f cd 51 0e f3 5a a1 e6 81 15 b3   AQ,L]..Q..Z.....
|   1808: bb 48 5e 13 cf 46 4c f1 26 47 4b 51 87 d7 39 a6   .H^..FL.&GKQ..9.
|   1824: 38 c5 72 52 55 97 f6 81 bc 0f a1 95 72 b8 ec 6d   8.rRU.......r..m
|   1840: dd 6d 92 03 b5 0f d6 fd 7e 29 c9 55 50 57 71 2c   .m......~).UPWq,
|   1856: 34 35 21 75 6a 4e e6 f0 6a 99 b7 51 b5 3e 0a 6c   45!ujN..j..Q.>.l
|   1872: 1b c0 ba cb 92 90 15 b8 35 b9 6b 78 f2 c6 03 48   ........5.kx...H
|   1888: 66 d6 2e 75 47 b8 eb d0 30 48 c9 4d 67 d1 c1 8a   f..uG...0H.Mg...
|   1904: b2 9c a9 c0 3d a1 77 e3 35 e4 85 01 e7 dc 74 bc   ....=.w.5.....t.
|   1920: 8d ff f6 f0 ad e1 35 63 75 6d ee 28 53 29 1c 9c   ......5cum.(S)..
|   1936: 67 dd ea 7d 1f af 87 c3 2e 8d a4 23 d2 6b db 49   g..........#.k.I
|   1952: 1a 36 10 7b e1 6c 9a 1c a2 5f 17 fb 43 e5 da f5   .6...l..._..C...
|   1968: 2c 60 86 42 1d 28 a1 5f cc 73 b2 5d 69 2b fa 18   ,`.B.(._.s.]i+..
|   1984: 85 a2 de 30 9a c7 08 42 b9 e3 b1 a1 32 1d 70 31   ...0...B....2.p1
|   2000: b4 7a cf f4 57 5d 5e 45 53 1d 79 35 7b 4f 9a 2f   .z..W]^ES.y5.O./
|   2016: 80 11 76 23 60 dc 86 e7 f0 74 2d 46 51 40 01 10   ..v#`....t-FQ@..
|   2032: 13 69 90 a9 fb cb 66 8e 3f e0 a1 4e 99 eb 61 1b   .i....f.?..N..a.
|   2048: fe c7 5e b5 f5 0f a3 46 64 19 09 11 c0 83 c7 28   ..^....Fd......(
|   2064: 41 20 81 d3 f5 9c 21 2b ed 06 1a 4a 89 4d 6a e5   A ....!+...J.Mj.
|   2080: 2d 4f 95 d7 3b 95 8c 59 6f 3e 79 51 5f ef b8 2a   -O..;..Yo>yQ_..*
|   2096: 43 ef 07 e2 d1 d1 13 38 67 54 88 e2 6f 03 fe 05   C......8gT..o...
|   2112: 10 0e e8 e9 4e 9a 75 92 ec 1f e7 56 61 3b 54 43   ....N.u....Va;TC
|   2128: 08 af e9 d5 56 bc 87 a3 25 6f e2 b8 01 62 1a 30   ....V...%o...b.0
|   2144: ba 26 8a b1 9a 7e 44 a2 f5 d4 75 2e a0 d0 b8 71   .&...~D...u....q
|   2160: 61 61 92 ff 32 0b a8 94 a5 81 80 d0 3b b5 51 4a   aa..2.......;.QJ
|   2176: 01 e2 8e 0a 38 90 19 f7 b4 38 b0 9c 32 e1 6a f0   ....8....8..2.j.
|   2192: f8 7b f0 58 0a d1 19 c0 20 d6 54 fe 28 ac 02 64   ...X.... .T.(..d
|   2208: c4 33 55 01 d2 bd 01 51 87 01 0c 66 bb 6e 1b 94   .3U....Q...f.n..
|   2224: 9c 24 50 40 5b 2f 64 f9 b5 b6 6b 15 fd f8 e7 05   .$P@[/d...k.....
|   2240: 37 92 95 d3 b4 1e be b3 09 c0 74 f8 ca 03 10 89   7.........t.....
|   2256: 2d 4d f5 56 0f 6e 20 72 a7 5e 1d 9f fd d5 43 af   -M.V.n r.^....C.
|   2272: 2e 7b f7 91 99 ed 47 ea c7 a4 76 82 ca 5f 94 20   ......G...v.._. 
|   2288: 52 01 b4 21 cb 50 d5 f2 d6 cf 1d 11 0f b2 07 ee   R..!.P..........
|   2304: f2 cf 2b 52 7b 1d e0 be 16 a1 cf 06 52 1b 33 f5   ..+R........R.3.
|   2320: c2 8e ac f1 00 2b 82 cf b4 ae d5 f0 9b 4b 11 14   .....+.......K..
|   2336: b5 c5 43 f4 08 9d 4a 59 ba a6 52 67 fe e1 bd 2d   ..C...JY..Rg...-
|   2352: c2 40 c6 3e d1 8a d1 f5 a0 b4 d0 b1 92 3f 9e 1d   .@.>.........?..
|   2368: 18 5e b4 78 30 45 57 29 30 e1 5a bb ee 7b 1e 99   .^.x0EW)0.Z.....
|   2384: 0d 10 ea 14 7b 5e 36 32 8e e1 a7 e4 76 19 48 a8   .....^62....v.H.
|   2400: c6 19 74 b9 4e 31 81 24 fe 07 e3 86 ec c4 1d 05   ..t.N1.$........
|   2416: 1f 5a 52 14 0c 08 3f d1 93 fe b1 46 27 87 58 21   .ZR...?....F'.X!
|   2432: 4b d5 ff bb 98 d8 f8 0c 96 66 02 9c 86 f9 0e 0b   K........f......
|   2448: f0 11 7a 99 39 52 38 84 22 04 58 07 f1 95 eb c7   ..z.9R8...X.....
|   2464: 44 2e a5 fe d4 68 a9 98 77 14 4f 8a 44 4c 7d c4   D....h..w.O.DL..
|   2480: 49 8a d7 89 83 8e e6 1e d0 af b7 41 3d 1a 85 14   I..........A=...
|   2496: ec 3a e5 1b 2c c5 17 77 85 82 19 57 37 94 93 7e   .:..,..w...W7..~
|   2512: 52 16 a3 dd 0a fd 57 1a 57 32 11 4d 71 e3 4b 1b   R.....W.W2.Mq.K.
|   2528: c5 02 d7 89 74 85 b0 3d 8d 7b 53 a2 d6 60 99 d4   ....t..=..S..`..
|   2544: ce f0 1c 3d a3 aa db db c4 80 38 7a cb 12 7e 66   ...=......8z..~f
|   2560: 3f 69 af fa 57 49 35 05 94 33 df fe 91 8a 25 3d   ?i..WI5..3....%=
|   2576: 9b 32 71 72 d2 bc bc 23 61 69 9c 68 a7 58 c0 f1   .2qr...#ai.h.X..
|   2592: 0e 20 a9 d3 d2 a9 11 d7 ee 52 46 70 b7 aa 6b f3   . .......RFp..k.
|   2608: 4a 51 a7 a5 26 92 35 44 f9 cc 7b c7 ec db 5d b6   JQ..&.5D......].
|   2624: 5c 88 d9 bd 14 df a0 14 35 09 2f c8 76 d4 4c 19   ........5./.v.L.
|   2640: 12 29 b9 dd 9b 21 ed b8 ee 1f f9 38 05 9e 93 aa   .)...!.....8....
|   2656: ab 82 15 69 88 81 f6 4f 1b 72 bb 84 cb 9c 33 ec   ...i...O.r....3.
|   2672: 94 4d 44 42 8e 8f 12 91 1f 32 07 09 38 8b 44 be   .MDB.....2..8.D.
|   2688: 9e 31 49 9e 76 04 d8 b7 69 ad f1 59 81 5f d7 a0   .1I.v...i..Y._..
|   2704: 2f 34 94 27 b4 c1 e9 f0 18 a7 43 7e 1e fd 27 5b   /4.'......C~..'[
|   2720: d8 e9 c3 5d be 8f 91 f2 4a cd 33 5f 6c 76 f6 f1   ...]....J.3_lv..
|   2736: 17 ae 80 87 e7 ec 22 ef 73 8e a7 3a 30 dd 27 3d   ........s..:0.'=
|   2752: 6d 95 59 eb f3 7f 97 b7 b9 8d ff 86 ed dd 5d f4   m.Y...........].
|   2768: 39 3c 6a 13 3d 7a 93 3d 37 ed 8c d6 98 0f 0b 7a   9<j.=z.=7......z
|   2784: 18 f6 78 af 91 f4 b3 2f 4a cb 19 61 c1 a9 82 9b   ..x..../J..a....
|   2800: 1e a1 c2 4e ad 14 17 09 4a 85 5a fb ed aa 51 3c   ...N....J.Z...Q<
|   2816: 21 e5 be 54 ec 0f 51 de 73 59 29 51 1d fa d6 ce   !..T..Q.sY)Q....
|   2832: c2 d1 b7 71 8e 36 a8 1f fc 07 67 fe ce 81 6b 08   ...q.6....g...k.
|   2848: 7b ea 6f 56 22 ba df 64 80 b1 47 9a 0e 04 e2 c4   ..oV...d..G.....
|   2864: ee e9 7b 8e 3c 39 bc af 24 15 38 77 80 c1 1f 56   ....<9..$.8w...V
|   2880: 3f 50 b8 69 5d f3 4c 33 86 c1 20 90 6d 44 ae 3f   ?P.i].L3.. .mD.?
|   2896: 91 f0 94 65 91 5f f8 04 d8 9d 53 a1 93 b0 30 45   ...e._....S...0E
|   2912: 1f db 30 bc 15 56 40 14 eb 0b c9 a5 02 58 09 87   ..0..V@......X..
|   2928: b8 1a 2f 3c 61 26 b1 c7 27 71 a4 36 c3 c5 22 4d   ../<a&..'q.6...M
|   2944: c9 83 78 0b bc 9b da 14 54 1d 4c 41 de e3 fa 29   ..x.....T.LA...)
|   2960: 48 08 45 62 e0 c6 fc 54 76 41 b0 a2 45 2f e6 9c   H.Eb...TvA..E/..
|   2976: 16 61 37 4a 77 b9 00 c9 46 0d 4b ae b7 ca 25 64   .a7Jw...F.K...%d
|   2992: 2e 28 1a 43 57 8a 79 97 c7 e6 41 a9 b1 0e f3 f8   .(.CW.y...A.....
|   3008: 00 57 e1 4e c9 8f 99 80 2b 13 dc fc 8f 29 60 c8   .W.N....+....)`.
|   3024: 3e 0e da ce c9 ee 70 a1 94 24 6f c4 ec 89 14 96   >.....p..$o.....
|   3040: e1 6a a9 0a d8 f6 89 09 51 98 1f 89 1b f1 34 87   .j......Q.....4.
|   3056: a5 b3 22 d0 65 53 bd ae 57 7a 8a 8f a8 a6 10 9e   ....eS..Wz......
|   3072: 72 7c 6e 37 8f 67 db d8 89 54 77 87 6d 63 6e 31   r|n7.g...Tw.mcn1
|   3088: ef ae 41 51 22 cc 24 08 89 f6 dd 2c f9 cb a4 f8   ..AQ..$....,....
|   3104: ea f9 42 33 01 fd cf b9 d6 73 aa b4 9d 45 31 eb   ..B3.....s...E1.
|   3120: 42 ca df 3a d2 3c c9 41 28 fd e4 a2 2f cf bf ca   B..:.<.A(.../...
|   3136: 63 94 a2 74 ee 6b 4c 62 bb 74 5f cc 39 68 b5 e9   c..t.kLb.t_.9h..
|   3152: 68 47 90 45 85 f0 20 4e 3a fe 4a 4f ab f2 fe c7   hG.E.. N:.JO....
|   3168: f5 23 56 6e 09 9e c6 3d 36 30 82 62 6f 5f 78 f6   .#Vn...=60.bo_x.
|   3184: f6 07 58 e8 fd 98 09 e5 a5 5b 65 27 43 e6 9e 3d   ..X......[e'C..=
|   3200: 98 d5 db 1d 09 35 48 b0 cd 5e 53 a1 d6 b2 4f 85   .....5H..^S...O.
|   3216: e5 4d 80 18 8f 78 6e a0 0e 35 08 7d 1d 5d 3e ab   .M...xn..5...]>.
|   3232: c3 5c dc ec c9 e0 22 1a 17 a3 80 40 3d e7 66 df   ...........@=.f.
|   3248: b2 38 f4 59 6d 20 e8 83 93 53 8c ac 52 26 ec 60   .8.Ym ...S..R&.`
|   3264: f8 50 85 1c 97 9c ae a3 9f bd af 75 be 73 23 b5   .P.........u.s#.
|   3280: 7f fa 1f 7f 28 16 c7 7c 5f 0a 5b 32 1a c8 45 cf   ....(..|_.[2..E.
|   3296: df 2e 8e d1 d9 59 76 d5 6c 8d b5 12 8a c5 77 32   .....Yv.l.....w2
|   3312: d4 87 02 80 09 b6 43 34 76 09 f9 b4 74 66 ce ee   ......C4v...tf..
|   3328: 26 77 62 11 b0 23 92 5c 72 38 41 e9 70 4f b5 83   &wb..#..r8A.pO..
|   3344: e4 35 7c b2 2a 38 49 12 48 18 1c 95 5c b1 18 1a   .5|.*8I.H.......
|   3360: 51 cd 4b 7b 22 94 0e c7 da c1 30 97 d1 be 42 07   Q.K.......0...B.
|   3376: 94 01 a5 fd 2f 0d 2c 53 33 c0 91 c6 bc af 2c f2   ..../.,S3.....,.
|   3392: f2 07 6e 4a d2 22 3e 3c 18 3c ca 24 bf 42 78 7a   ..nJ..><.<.$.Bxz
|   3408: 69 0e a9 12 e3 20 fa 8b ad 75 27 0c c3 82 84 8d   i.... ...u'.....
|   3424: 46 af 3e 1e 89 27 4d 7e f7 21 96 b4 6c 17 7f 19   F.>..'M~.!..l...
|   3440: 8a 78 d7 bb 40 67 35 45 2d d4 97 6a 4c e9 4a 58   .x..@g5E-..jL.JX
|   3456: 22 a3 bb 31 d5 4f 26 40 cc fe c8 cd 1d a4 0d 67   ...1.O&@.......g
|   3472: 14 13 05 4d 0e 15 40 ea 7d 62 c6 80 08 b9 f6 b2   ...M..@..b......
|   3488: 44 58 66 d5 ca b6 f4 20 b0 4a b8 37 64 3d b0 a7   DXf.... .J.7d=..
|   3504: a7 87 70 26 b2 ea f9 cf 98 03 6e 63 5a fe c4 cd   ..p&......ncZ...
|   3520: 80 cb ca f4 a6 02 11 39 4f 6c bf bf a4 8e 99 32   .......9Ol.....2
|   3536: e3 47 51 3e 85 f6 84 6b 3d 9a fe 2f 96 18 49 2a   .GQ>...k=../..I*
|   3552: dc a4 56 77 d1 3f 94 61 2b 58 e7 74 ee c9 16 7b   ..Vw.?.a+X.t....
|   3568: 6f 76 47 da b2 fb 89 75 80 78 05 69 c8 3e f0 97   ovG....u.x.i.>..
|   3584: 1b 40 f1 48 43 7f cd 0b b1 c6 cf 59 73 4f 3f 33   .@.HC......YsO?3
|   3600: 2e 32 d2 b6 69 fc 6b f2 20 0f 12 bf f0 98 2e e2   .2..i.k. .......
|   3616: 4f ed 80 27 00 e2 b1 c2 ca cd 6b de e1 b4 af 9e   O..'......k.....
|   3632: df 4f d2 da 6d 9f b4 5d 99 4a c4 59 d4 e1 98 05   .O..m..].J.Y....
|   3648: 68 00 a5 72 3f 0e 35 29 59 81 8a f9 f2 c0 5a de   h..r?.5)Y.....Z.
|   3664: 25 35 d5 60 03 f7 0f 20 3a bb a6 45 fc cc 2d e9   %5.`... :..E..-.
|   3680: fe 37 0b 6c f2 96 19 dc 39 62 6e f7 9c 17 37 8c   .7.l....9bn...7.
|   3696: 8a dd 62 a2 a3 e6 b8 a0 cd 61 f5 27 3b 29 e2 f4   ..b......a.';)..
|   3712: 0a 06 21 c3 b9 8e 70 34 59 ca d9 a1 92 db a9 74   ..!...p4Y......t
|   3728: d1 7c a1 ef 64 c2 75 51 02 b3 6a 57 6d 12 f6 eb   .|..d.uQ..jWm...
|   3744: 3b 41 ce a5 ca 69 62 3e c3 55 eb 1c 80 01 79 05   ;A...ib>.U....y.
|   3760: a4 51 7c 45 00 76 41 5e 57 1a 88 aa 15 c8 42 82   .Q|E.vA^W.....B.
|   3776: d5 83 74 97 93 b4 28 df 4d 82 7d 6f ef 6a d4 e4   ..t...(.M..o.j..
|   3792: 03 e7 20 4a e8 84 54 0c 6e 5f 8e b0 d1 0d 67 aa   .. J..T.n_....g.
|   3808: f9 20 21 ea c0 4e 5c e3 f8 65 d7 67 0a 7a e0 0b   . !..N...e.g.z..
|   3824: d8 1e 53 95 bf 24 39 12 d4 30 8c 2c b4 13 2e bd   ..S..$9..0.,....
|   3840: f8 81 d5 15 35 d7 3f f2 23 a4 2c 1b cd 29 e8 88   ....5.?.#.,..)..
|   3856: a8 f1 cc 3f 9b 72 d0 8e c0 cb 80 ca c9 68 1a ca   ...?.r.......h..
|   3872: 38 09 59 e5 a6 33 95 57 55 c9 dd c4 8a 8d 36 e5   8.Y..3.WU.....6.
|   3888: 0c 40 95 77 63 4b 82 53 98 d0 bd cd 57 b6 f7 2b   .@.wcK.S....W..+
|   3904: fe 1c 25 d4 95 3d 4c 63 b7 fb 94 37 3f 6d 96 28   ..%..=Lc...7?m.(
|   3920: 1d 13 76 d2 ab 9a 7e 8f f5 a2 e6 15 0b 1c 10 14   ..v...~.........
|   3936: c3 b5 c0 1c 52 af 2a 32 35 05 4a 0c f1 cb ed 5e   ....R.*25.J....^
|   3952: 42 6c 31 8b dc 78 4b 68 5a b7 0f e3 6c d6 da e6   Bl1..xKhZ...l...
|   3968: 59 f3 34 43 47 1c 2b f6 f4 eb 6e 12 4d 60 f4 d9   Y.4CG.+...n.M`..
|   3984: 39 2f 84 a5 8f f0 03 e7 ce b6 10 d0 a9 f9 69 76   9/............iv
|   4000: 94 29 2e 60 db fc e7 5f e6 c5 5b b9 c5 a7 1f 95   .).`..._..[.....
|   4016: 0d 66 aa 55 7b f5 ec 67 c6 f7 26 52 c4 02 60 31   .f.U...g..&R..`1
|   4032: 7d 5e de ba 06 2f 09 1d a1 db 61 83 c8 13 be 98   .^.../....a.....
|   4048: 14 9d c9 15 1e 33 04 de a5 53 ed 42 ab 45 b1 f3   .....3...S.B.E..
|   4064: 09 a7 47 54 14 bc a0 88 80 58 94 0a 78 f2 31 3d   ..GT.....X..x.1=
|   4080: bc 0d 85 bf da a0 7e d2 be e4 1c cc b4 45 a8 bd   ......~......E..
| page 19 offset 73728
|      0: 0d 0f e6 00 03 0c 8a 00 0c 8a 0f ec 0c 94 00 00   ................
|   3200: 00 00 00 00 00 00 00 00 00 00 08 01 03 00 16 2e   ................
|   3216: b1 7d 24 24 86 4a 84 80 80 80 80 01 04 00 8d 18   ..$$.J..........
|   3232: 00 00 03 2b 02 30 30 01 02 06 01 02 06 01 02 06   ...+.00.........
|   3248: 1f 02 03 01 02 03 01 02 03 01 08 32 30 31 36 30   ...........20160
|   3264: 36 30 39 01 02 07 01 02 07 01 02 07 01 01 34 00   609...........4.
|   3280: 02 05 01 02 05 01 02 05 01 01 35 01 02 04 01 02   ..........5.....
|   3296: 04 01 02 04 02 07 30 30 30 30 30 30 30 1c 02 3d   ......0000000..=
|   3312: 01 02 04 01 02 04 01 06 62 69 6e 61 72 79 03 06   ........binary..
|   3328: 01 02 02 03 06 01 02 02 03 06 01 02 02 03 06 01   ................
|   3344: 02 02 03 06 01 02 02 03 06 01 02 02 03 06 01 02   ................
|   3360: 02 03 06 01 02 02 03 06 01 02 02 03 06 01 02 02   ................
|   3376: 03 06 01 02 02 03 06 01 02 02 01 08 63 6f 6d 70   ............comp
|   3392: 69 6c 65 72 01 02 02 01 02 02 01 02 02 01 06 64   iler...........d
|   3408: 62 73 74 61 74 07 02 03 01 02 03 01 02 03 02 04   bstat...........
|   3424: 65 62 75 67 04 02 02 01 02 02 01 02 02 01 07 65   ebug...........e
|   3440: 6e 61 62 6c 65 07 02 02 01 02 02 01 d3 02 01 02   nable...........
|   3456: 02 01 02 02 02 02 02 01 02 02 01 02 02 01 02 02   ................
|   3472: 01 02 02 01 02 02 01 02 02 01 02 02 01 02 02 01   ................
|   3488: 02 02 01 02 02 01 02 02 01 02 02 01 02 02 01 02   ................
|   3504: 02 01 02 02 02 08 78 74 65 6e 73 69 6f 6e 1f 02   ......xtension..
|   3520: 04 01 02 04 01 02 04 01 04 66 74 73 34 0a 02 03   .........fts4...
|   3536: 01 02 03 01 02 03 04 01 35 0d 02 03 01 02 03 01   ........5.......
|   3552: 02 03 01 03 67 63 63 01 02 54 01 02 03 01 02 03   ....gcc..T......
|   3568: 02 06 65 6f 70 6f 6c 79 10 02 03 01 02 03 01 02   ..eopoly........
|   3584: 03 01 05 6a 73 6f 6e 31 13 02 03 01 02 03 01 02   ...json1........
|   3600: 03 01 04 6c 6f 61 64 1f 02 03 01 02 03 01 02 03   ...load.........
|   3616: 01 03 6d 61 78 1c 02 02 01 02 02 01 02 02 02 05   ..max...........
|   3632: 65 6d 6f 72 79 1c 02 03 01 02 03 01 02 03 04 04   emory...........
|   3648: 73 79 73 35 16 02 03 01 02 03 01 02 03 01 06 6e   sys5...........n
|   3664: 6f 63 61 73 65 02 06 01 02 02 03 06 01 02 02 03   ocase...........
|   3680: 06 01 02 02 13 06 01 02 02 03 06 01 02 02 03 06   ................
|   3696: 01 02 02 03 06 01 02 02 03 06 01 02 02 03 06 01   ................
|   3712: 02 02 03 06 01 02 02 03 06 01 02 02 03 06 01 02   ................
|   3728: 02 01 04 6f 6d 69 74 1f 02 02 01 02 02 01 02 02   ...omit.........
|   3744: 01 05 72 74 72 65 65 19 02 03 01 02 03 01 02 03   ..rtree.........
|   3760: 04 02 69 6d 01 06 01 02 02 03 06 01 02 02 03 06   ..im............
|   3776: 01 02 02 03 06 01 02 02 03 06 01 02 02 03 06 01   ................
|   3792: 02 01 f3 06 01 02 02 03 06 01 02 02 03 06 01 02   ................
|   3808: 02 03 06 01 02 02 03 06 01 02 02 03 06 01 02 08   ................
|   3824: 01 0a 74 68 72 65 61 64 73 61 66 65 22 02 02 01   ..threadsafe....
|   3840: 02 02 01 02 02 01 04 76 74 61 62 07 02 04 01 02   .......vtab.....
|   3856: 04 01 02 04 01 01 78 01 06 01 01 02 01 06 01 01   ......x.........
|   3872: 02 01 06 01 01 02 01 06 01 01 02 01 06 01 01 02   ................
|   3888: 01 06 01 01 02 01 06 01 01 02 01 06 01 01 02 01   ................
|   3904: 06 01 01 02 01 06 01 01 02 01 06 01 01 02 01 06   ................
|   3920: 01 01 02 01 06 01 01 02 01 06 01 01 02 01 06 01   ................
|   3936: 01 02 01 06 01 01 02 01 06 01 01 02 01 06 01 01   ................
|   3952: 02 01 06 01 01 02 01 06 01 01 02 ad 06 01 01 02   ................
|   3968: 01 06 01 01 02 01 06 01 01 02 01 06 01 01 02 01   ................
|   3984: 06 01 01 01 01 06 01 01 02 01 06 01 01 02 01 06   ................
|   4000: 01 01 02 01 06 01 01 02 01 06 01 01 02 01 06 01   ................
|   4016: 01 02 01 06 01 01 02 01 06 01 01 02 01 06 01 01   ................
|   4032: 02 01 06 01 01 02 01 06 01 01 02 04 15 13 0c 0c   ................
|   4048: 12 44 13 11 0f 47 13 0e fc 0e 11 10 0f 0e 10 0f   .D...G..........
|   4064: 44 0f 10 40 15 0f 00 00 00 06 14 24 12 0a 03 00   D..@.......$....
|   4080: 2a 00 00 00 00 01 02 08 00 02 01 01 01 02 01 07   *...............
| page 20 offset 77824
|      0: 0d 00 00 00 01 00 22 00 00 22 00 00 00 00 00 00   ................
|     32: 00 00 9f 56 88 80 80 80 80 01 04 00 bf 30 00 00   ...V.........0..
|     48: 0e 9c 02 30 30 01 0c 74 81 44 06 81 0b 01 0a 81   ...00..t.D......
|     64: 03 58 58 04 01 10 82 66 10 0f 0b 81 14 24 01 0c   .XX....f.....$..
|     80: 81 14 47 4a 20 6e 01 0e 71 81 41 05 82 0f 03 01   ..GJ n..q.A.....
|     96: 0c 53 54 4c 2c 70 7d 01 12 81 43 06 1e 37 42 37   .STL,p....C..7B7
|    112: 77 3e 01 14 81 22 07 81 30 81 5d 03 05 0d 01 08   w>......0.].....
|    128: 82 01 81 21 01 0e 81 45 54 51 81 0a 61 02 01 30   ...!...ETQ..a..0
|    144: 01 04 82 6e 02 01 36 08 04 83 7e 02 01 38 02 04   ...n..6...~..8..
|    160: 83 4f 02 01 62 06 04 81 11 03 01 36 08 04 81 5b   .O..b......6...[
|    176: 03 01 64 02 04 84 5d 02 01 63 05 04 81 02 02 01   ..d...]..c......
|    192: 64 07 04 81 67 02 01 65 0a 04 83 0c 03 02 70 77   d...g..e......pw
|    208: 04 04 83 70 02 02 66 79 08 04 82 25 02 01 68 0a   ...p..fy...%..h.
|    224: 04 81 34 02 01 6b 03 02 4d 03 04 84 32 02 01 70   ..4..k..M...2..p
|    240: 01 04 81 15 02 01 73 07 04 83 4d 02 02 37 02 01   ......s...M..7..
|    256: 74 02 02 40 03 01 68 07 04 83 45 02 02 76 69 09   t..@..h...E..vi.
|    272: 04 82 66 03 01 6c 09 04 82 34 02 01 79 01 04 84   ..f..l...4..y...
|    288: 13 02 02 c2 ba 0a 04 81 68 03 01 bc 0a 04 83 0d   ........h.......
|    304: 02 04 ca 80 69 6c 09 04 81 5a 02 02 d3 84 05 04   ....il...Z......
|    320: 83 0a 01 01 31 01 16 18 1a 30 81 4c 31 12 54 81   ....1....0.L1.T.
|    336: 00 1d 01 0e 02 25 82 4b 1d 3f 76 01 0c 43 79 4b   .....%.K.?v..CyK
|    352: 5b 0b 76 01 0e 35 1a 81 08 82 77 10 01 0c 81 24   [.v..5....w....$
|    368: 18 07 74 6f 01 08 29 81 08 69 01 10 81 0e 0d 4a   ..to..)..i.....J
|    384: 81 01 07 58 01 08 6b 51 76 7a 01 0c 20 81 18 6c   ...X..kQvz.. ..l
|    400: 2c 18 01 08 83 7c 7b 0e 02 01 32 08 02 48 03 04   ,....|....2..H..
|    416: f3 a1 97 a5 03 04 83 71 02 01 33 02 04 81 2f 03   .......q..3.../.
|    432: 01 66 09 04 83 15 02 03 61 ca b1 08 04 81 48 02   .f......a.....H.
|    448: 01 63 01 02 1c 02 03 65 c2 aa 06 02 5a 02 01 68   .c.....e....Z..h
|    464: 03 04 81 6e 02 01 69 0a 04 82 5a 03 01 69 08 04   ...n..i...Z..i..
|    480: 81 65 02 01 6a 02 02 64 06 04 84 12 02 01 6c 01   .e..j..d......l.
|    496: 02 1f 02 01 6e 03 04 83 24 02 03 6f c2 b3 07 04   ....n...$..o....
|    512: 84 52 02 03 72 c9 9b 04 04 82 6e 02 01 73 07 04   .R..r.....n..s..
|    528: 82 10 02 01 77 0a 02 31 02 01 79 07 04 81 7f 02   ....w..1..y.....
|    544: 02 7a 62 09 04 83 49 02 02 c2 b9 02 04 83 01 03   .zb...I.........
|    560: 02 bd 75 09 04 83 45 02 02 c6 aa 02 04 83 08 02   ..u...E.........
|    576: 03 d7 92 6a 08 02 04 01 01 32 01 0c 81 7d 72 81   ...j.....2....r.
|    592: 4e 36 01 0e 1a 81 10 81 10 11 2e 01 08 78 49 82   N6...........xI.
|    608: 3b 01 0e 73 81 64 05 1b 81 69 01 1a 18 06 7e 2c   ;..s.d...i....~,
|    624: 21 12 20 5a 28 69 06 1e 06 01 0c 81 48 05 31 81   !. Z(i......H.1.
|    640: 24 01 14 25 81 42 3e 81 16 81 37 13 13 01 0c 21   $..%.B>...7....!
|    656: 0d 0f 3e 82 03 01 08 6b 60 81 27 01 10 2d 81 41   ..>....k`.'..-.A
|    672: 06 69 81 08 30 02 01 32 03 04 81 01 02 01 33 08   .i..0..2......3.
|    688: 02 3c 02 01 35 0a 04 84 64 02 01 38 05 04 83 41   .<..5...d..8...A
|    704: 02 02 61 69 09 04 82 49 02 03 66 c8 ab 09 04 82   ..ai...I..f.....
|    720: 68 02 01 68 04 04 83 27 02 01 6c 04 04 84 18 03   h..h...'..l.....
|    736: 02 72 6e 06 04 82 30 02 01 6e 04 04 84 55 03 01   .rn...0..n...U..
|    752: 6d 05 04 83 30 03 03 76 c2 bd 09 02 57 02 01 71   m...0..v....W..q
|    768: 02 04 84 22 03 04 84 11 03 05 72 f0 92 bc bc 0a   ..........r.....
|    784: 04 82 40 02 01 72 04 04 83 5b 02 01 73 05 02 6f   ..@..r...[..s..o
|    800: 03 04 83 6f 02 01 75 04 02 55 02 01 78 03 04 82   ...o..u..U..x...
|    816: 56 02 01 7a 06 04 85 01 03 02 25 02 02 c2 b2 07   V..z......%.....
|    832: 04 83 7a 03 03 b3 ce bc 03 04 84 2b 03 03 bc c2   ..z........+....
|    848: b2 09 04 83 53 02 04 ce a2 38 6e 07 04 82 23 03   ....S....8n...#.
|    864: 01 bc 08 04 83 7f 02 03 d2 b7 69 0a 04 84 19 02   ..........i.....
|    880: 02 d6 84 09 04 81 0e 01 01 33 01 06 2a 83 69 01   .........3..*.i.
|    896: 18 0f 0e 25 42 81 71 81 21 17 07 03 0d 01 1a 15   ...%B.q.!.......
|    912: 13 42 03 81 40 45 21 60 4d 1a 04 0e 01 0a 83 18   .B..@E!`M.......
|    928: 81 11 0a 01 08 64 83 24 24 01 16 62 1d 0c 06 62   .....d.$$..b...b
|    944: 50 2c 73 17 15 4d 01 0e 1b 82 15 4d 31 3a 4f 01   P,s..M.....M1:O.
|    960: 0e 22 63 51 81 7f 81 22 01 0e 21 81 0a 3e 42 82   ..cQ......!..>B.
|    976: 08 01 12 05 82 0a 33 19 10 81 37 63 02 01 32 05   ......3...7c..2.
|    992: 04 82 3c 02 01 36 02 04 84 0f 02 01 38 06 04 84   ..<..6......8...
|   1008: 1f 02 01 39 06 04 82 06 02 01 61 08 04 81 00 03   ...9......a.....
|   1024: 03 33 6f 62 01 02 69 02 01 65 02 04 84 05 07 04   .3ob..i..e......
|   1040: 84 0e 02 01 67 09 04 82 44 02 01 6a 07 02 55 02   ....g...D..j..U.
|   1056: 01 6b 02 04 84 04 07 04 84 44 02 01 6c 06 04 84   .k.......D..l...
|   1072: 0d 02 01 6e 06 04 84 10 03 01 77 03 02 46 02 01   ...n......w..F..
|   1088: 74 08 04 83 33 03 01 77 03 04 81 5b 02 01 75 0a   t...3..w...[..u.
|   1104: 04 81 75 02 01 78 01 04 83 48 03 02 c2 b2 02 04   ..u..x...H......
|   1120: 81 77 02 04 c2 b3 c2 b3 09 02 1b 02 06 f2 98 9e   .w..............
|   1136: a2 61 6c 08 04 83 31 01 01 34 01 0e 81 1c 82 11   .al...1..4......
|   1152: 4e 81 06 01 10 4a 12 64 39 18 81 24 72 01 04 81   N....J.d9..$r...
|   1168: 0b 01 10 81 08 81 50 48 2a 79 15 01 14 13 72 07   ......PH*y....r.
|   1184: 2f 42 81 21 50 81 02 01 10 6d 46 3e 81 0c 81 17   /B.!P....mF>....
|   1200: 23 01 08 0a 5f 83 38 01 0a 57 81 3e 82 0f 01 10   #..._.8..W.>....
|   1216: 81 07 81 7e 0c 81 14 1d 01 08 1f 82 42 4e 02 01   ...~........BN..
|   1232: 30 01 04 81 36 04 04 81 39 03 02 c2 bd 02 04 81   0...6...9.......
|   1248: 1e 02 01 31 05 04 84 31 02 01 35 0a 04 81 2b 02   ...1...1..5...+.
|   1264: 06 37 c2 b9 eb a0 86 04 04 83 0d 02 02 61 6f 04   .7...........ao.
|   1280: 04 83 39 02 01 63 07 04 83 3c 03 01 67 0a 04 84   ..9..c...<..g...
|   1296: 6a 02 01 65 07 06 68 82 7d 02 03 66 c2 be 07 04   j..e..h....f....
|   1312: 81 3d 02 01 67 08 02 58 01 04 83 16 02 01 6c 03   .=..g..X......l.
|   1328: 04 81 73 02 01 6d 08 04 81 42 02 01 6e 04 04 83   ..s..m...B..n...
|   1344: 75 02 03 6f 65 32 06 04 84 4f 02 01 70 05 04 81   u..oe2...O..p...
|   1360: 56 03 01 77 09 04 81 47 02 02 72 32 05 02 0b 02   V..w...G..r2....
|   1376: 01 73 01 02 47 04 04 84 09 02 01 74 07 04 85 05   .s..G......t....
|   1392: 02 01 75 01 02 5b 02 04 76 e5 b9 83 07 04 82 03   ..u..[..v.......
|   1408: 02 01 78 01 04 81 11 02 02 c6 bf 02 04 81 3b 02   ..x...........;.
|   1424: 02 ce bc 06 04 84 3a 02 03 e1 83 93 03 04 81 2b   ......:........+
|   1440: 01 01 35 01 0e 81 7b 61 23 71 55 0c 01 08 82 30   ..5....a#qU....0
|   1456: 2a 7b 01 0c 81 45 81 20 72 38 01 0c 29 82 25 55   *....E. r8..).%U
|   1472: 4c 21 01 0c 81 53 38 25 3a 63 01 08 83 55 81 0f   L!...S8%:c...U..
|   1488: 01 0e 81 32 5b 81 1b 31 6f 01 16 1e 6d 17 0e 17   ...2[..1o...m...
|   1504: 1f 6b 0b 3e 3d 3a 01 12 32 81 4a 81 04 55 47 20   .k.>=:..2.J..UG 
|   1520: 09 01 10 82 4b 81 0a 17 3e 05 2a 02 01 31 08 04   ....K...>.*..1..
|   1536: 84 04 02 02 36 68 06 02 18 02 01 61 02 04 84 3d   ....6h.....a...=
|   1552: 08 04 81 38 03 01 34 01 02 71 02 03 63 75 6d 0a   ...8..4..q..cum.
|   1568: 04 81 3a 02 01 64 09 02 52 01 04 82 48 02 01 68   ..:..d..R...H..h
|   1584: 08 02 30 02 04 83 4e 02 01 6e 01 02 42 02 05 6f   ..0...N..n..B..o
|   1600: 63 6c dc ab 08 02 11 03 04 67 69 c2 be 03 04 82   cl.......gi.....
|   1616: 29 02 01 71 07 04 82 12 02 01 79 06 04 84 1b 02   )..q......y.....
|   1632: 02 7a 33 09 04 83 4c 02 02 c2 b2 05 04 84 17 03   .z3...L.........
|   1648: 01 b9 09 02 35 04 02 6b 78 0a 04 81 31 03 01 bc   ....5..kx...1...
|   1664: 0a 02 41 02 08 cb 8a f0 9c bb a1 67 68 02 04 81   ..A........gh...
|   1680: 75 01 01 36 01 10 55 77 30 36 21 31 69 60 01 0e   u..6..Uw06!1i`..
|   1696: 3b 0b 3e 4e 1c 2c 1b 01 16 44 32 54 07 2f 0e 81   ;.>N.,...D2T./..
|   1712: 11 81 03 14 01 04 81 63 01 0e 81 16 82 5c 15 20   .......c....... 
|   1728: 19 01 12 0d 1f 43 6e 39 06 18 81 54 01 0c 81 40   .....Cn9...T...@
|   1744: 2c 81 0f 4d 01 10 16 82 5e 0e 08 0d 78 51 01 12   ,..M....^...xQ..
|   1760: 1d 81 73 81 22 29 17 66 1a 01 0a 81 3f 81 3f 19   ..s..).f....?.?.
|   1776: 02 01 30 0a 04 83 47 03 01 6d 05 04 82 3e 02 01   ..0...G..m...>..
|   1792: 32 07 04 81 5e 03 04 82 19 02 04 34 71 6c 38 01   2...^......4ql8.
|   1808: 04 83 6b 02 02 37 67 08 04 84 53 02 01 64 04 02   ..k..7g...S..d..
|   1824: 7b 03 01 71 02 04 81 71 02 01 65 01 04 83 66 05   ...q...q..e...f.
|   1840: 04 84 5c 02 01 69 09 04 81 3a 02 01 6a 03 04 83   .....i...:..j...
|   1856: 35 02 01 6b 06 04 83 6d 01 04 83 5f 02 04 84 0f   5..k...m..._....
|   1872: 02 01 73 03 04 83 2d 02 01 74 06 04 84 0e 02 04   ..s...-..t......
|   1888: 82 02 02 01 75 05 04 83 73 03 01 37 03 04 84 32   ....u...s..7...2
|   1904: 02 01 76 03 04 83 0f 02 01 77 08 04 82 33 03 01   ..v......w...3..
|   1920: 6f 01 02 0b 02 01 78 02 02 36 02 02 c2 b3 03 04   o.....x..6......
|   1936: 81 07 02 04 84 29 02 02 ca a9 05 04 83 19 02 03   .....)..........
|   1952: ce bc 79 08 04 84 4b 02 02 d0 b8 05 04 81 06 02   ..y...K.........
|   1968: 06 f1 b5 87 92 35 6b 05 04 82 34 01 01 37 01 14   .....5k...4..7..
|   1984: 81 3d 4b 17 08 16 81 03 81 20 01 0e 42 81 27 32   .=K...... ..B.'2
|   2000: 20 0c 7a 01 0a 4c 83 12 40 19 01 16 06 21 6f 81    .z..L..@....!o.
|   2016: 02 70 36 0d 49 2e 2d 01 14 81 12 19 19 60 06 4c   .p6.I.-......`.L
|   2032: 44 17 4f 01 12 03 81 12 04 81 23 81 4b 0a 01 12   D.O.......#.K...
|   2048: 0b 48 50 22 10 7f 81 38 56 01 0e 27 38 81 21 82   .HP....8V..'8.!.
|   2064: 08 2a 01 08 81 6b 41 24 01 0c 81 7c 73 81 3e 05   .*...kA$...|s.>.
|   2080: 02 02 34 67 05 04 83 5d 02 01 37 05 04 81 2f 02   ..4g...]..7.../.
|   2096: 02 73 02 01 38 01 02 21 02 01 39 09 02 4a 02 01   .s..8..!..9..J..
|   2112: 62 0a 02 70 03 02 71 7a 01 04 83 26 02 01 64 0a   b..p..qz...&..d.
|   2128: 04 84 04 02 01 65 0a 02 78 02 01 68 02 04 82 26   .....e..x..h...&
|   2144: 02 02 69 35 06 04 82 02 02 01 6b 02 04 82 0a 03   ..i5......k.....
|   2160: 02 c2 bc 05 04 82 08 02 01 6d 08 02 54 02 01 6e   .........m..T..n
|   2176: 06 04 82 32 02 03 6f 74 61 02 04 81 2a 02 05 71   ...2..ota...*..q
|   2192: f2 96 8c 90 01 04 83 5a 02 01 72 09 04 83 31 02   .......Z..r...1.
|   2208: 01 74 03 02 71 04 04 83 62 02 02 79 65 04 04 83   .t..q...b..ye...
|   2224: 26 02 02 c2 aa 05 04 82 19 03 01 b3 02 02 10 02   &...............
|   2240: 04 83 48 03 01 bd 01 04 84 10 02 02 cf ad 06 04   ..H.............
|   2256: 82 04 02 04 f0 97 97 98 08 04 83 1f 02 04 f3 a5   ................
|   2272: b3 87 08 04 81 64 01 01 38 01 0a 16 82 49 81 30   .....d..8....I.0
|   2288: 01 0e 81 19 27 34 53 82 19 01 12 20 1f 5c 5f 81   ....'4S.... .._.
|   2304: 50 81 17 04 01 10 0e 81 2e 2d 51 67 81 16 01 0c   P........-Qg....
|   2320: 81 62 09 81 79 10 01 08 63 04 81 1c 01 0a 81 2e   .b..y...c.......
|   2336: 5d 81 0f 01 0a 0b 81 40 81 63 01 10 27 81 17 81   ]......@.c..'...
|   2352: 2b 48 6c 4c 01 10 81 23 4d 64 0a 7f 81 01 02 01   +HlL...#Md......
|   2368: 31 03 02 6b 02 01 36 06 04 83 79 02 01 37 08 04   1..k..6...y..7..
|   2384: 84 47 02 04 39 c2 bc 61 09 04 84 61 02 05 64 c2   .G..9..a...a..d.
|   2400: b9 da 9c 01 04 81 73 02 01 66 01 04 81 58 08 04   ......s..f...X..
|   2416: 82 39 02 02 67 74 0a 04 81 5f 02 01 68 09 04 83   .9..gt..._..h...
|   2432: 2a 02 01 69 0a 04 83 6a 03 01 78 02 04 83 11 02   *..i...j..x.....
|   2448: 01 6a 05 04 83 26 02 06 0d 82 58 03 01 70 07 04   .j...&....X..p..
|   2464: 83 2b 02 01 6b 07 08 83 58 81 12 02 01 6e 0a 02   .+..k...X....n..
|   2480: 71 02 01 77 0a 04 83 04 02 03 c2 ba 31 06 04 84   q..w........1...
|   2496: 4e 03 01 bd 07 04 83 18 02 02 d3 b5 05 02 68 01   N.............h.
|   2512: 01 39 01 0a 53 81 03 81 24 01 0e 13 82 3d 81 1e   .9..S...$....=..
|   2528: 37 2d 01 0c 6a 15 09 13 82 58 01 08 83 0f 81 3f   7-..j....X.....?
|   2544: 01 10 4f 81 60 81 29 64 15 0c 01 0e 4b 0d 62 0d   ..O.`.)d....K.b.
|   2560: 81 00 5e 01 0a 37 81 1b 59 56 01 0e 81 0c 6b 6d   ..^..7..YV....km
|   2576: 81 67 1d 01 10 38 2f 63 38 0c 37 20 6b 01 10 7e   .g...8/c8.7 k..~
|   2592: 10 18 81 4a 81 64 23 02 01 32 02 04 83 2c 02 01   ...J.d#..2...,..
|   2608: 39 04 04 81 10 01 04 82 35 02 04 62 6e c7 9c 0a   9.......5..bn...
|   2624: 04 84 2b 02 02 65 63 06 04 83 0a 03 01 6a 02 04   ..+..ec......j..
|   2640: 84 4d 02 01 66 01 04 83 4d 02 04 81 0a 02 03 68   .M..f...M......h
|   2656: ce bc 0a 04 83 41 02 01 6c 06 02 54 02 01 6d 08   .....A..l..T..m.
|   2672: 04 81 14 02 02 6f 6c 0a 04 84 0a 02 01 70 02 04   .....ol......p..
|   2688: 82 2b 05 04 81 49 02 05 71 69 c2 bd 75 0a 02 46   .+...I..qi..u..F
|   2704: 02 02 72 38 0a 04 82 26 02 01 74 04 04 81 0b 04   ..r8...&..t.....
|   2720: 04 84 6e 02 01 77 03 04 81 6a 01 04 82 6b 03 01   ..n..w...j...k..
|   2736: 65 09 04 82 58 02 01 78 06 02 6e 02 02 c2 b3 08   e...X..x..n.....
|   2752: 06 76 81 10 03 01 b9 04 02 47 03 01 bc 0a 04 83   .v.......G......
|   2768: 03 02 02 ce bc 02 06 83 3f 19 02 03 d9 be 7a 03   ........?.....z.
|   2784: 04 82 5d 01 01 61 01 1e 17 50 16 12 12 2d 32 81   ..]..a...P...-2.
|   2800: 1e 56 81 06 04 06 1b 01 16 43 5c 52 64 19 15 27   .V.......C.Rd..'
|   2816: 1d 29 0e 52 01 1c 1d 03 81 1c 13 6b 3d 64 14 32   .).R.......k=d.2
|   2832: 16 29 09 0a 01 22 32 13 07 81 08 03 22 05 17 20   .)....2........ 
|   2848: 07 0e 7a 15 71 22 22 01 1c 30 05 06 0b 22 40 11   ..z.q....0....@.
|   2864: 49 1c 0c 15 81 1f 27 01 0c 4a 14 1c 7a 36 66 01   I.....'..J..z6f.
|   2880: 1c 10 19 81 0a 81 1c 81 02 10 54 33 09 0c 07 01   ..........T3....
|   2896: 1e 38 2e 33 3a 22 1e 2e 35 3a 0f 07 77 15 0b 2f   .8.3:...5:..w../
|   2912: 01 2a 08 5a 35 13 0b 07 05 04 17 42 32 14 04 09   .*.Z5......B2...
|   2928: 1d 0b 09 06 42 72 1c 01 1e 22 0a 15 2b 03 04 6c   ....Br......+..l
|   2944: 05 81 3d 14 19 58 21 4a 02 01 32 08 04 83 64 03   ..=..X!J..2...d.
|   2960: 01 67 07 04 82 5c 02 02 34 66 03 04 83 6d 03 01   .g......4f...m..
|   2976: 73 08 04 81 18 02 05 37 6a 77 c2 b9 0a 04 83 1d   s......7jw......
|   2992: 02 02 38 7a 0a 04 82 3a 02 01 39 05 02 5c 03 02   ..8z...:..9.....
|   3008: c2 b3 06 02 70 02 01 61 01 04 83 03 02 01 66 02   ....p..a......f.
|   3024: 04 81 5b 02 04 82 37 02 01 68 04 04 82 78 01 02   ..[...7..h...x..
|   3040: 67 02 01 69 04 04 84 0e 06 04 82 41 02 01 6a 01   g..i.......A..j.
|   3056: 04 82 4c 02 02 4e 03 04 81 73 03 01 6c 02 04 81   ..L..N...s..l...
|   3072: 5f 02 01 6b 08 04 81 26 02 05 6d c2 b3 6f 76 06   _..k...&..m..ov.
|   3088: 04 82 7c 02 01 6e 08 02 1c 02 01 6f 02 04 83 24   ..|..n.....o...$
|   3104: 07 04 83 77 02 01 70 04 04 82 7e 02 01 71 0a 04   ...w..p...~..q..
|   3120: 81 19 02 06 72 f1 b6 bc b3 68 01 04 83 0e 02 01   ....r....h......
|   3136: 73 03 04 82 17 01 08 81 70 81 65 03 04 39 c2 ba   s.......p.e..9..
|   3152: 69 06 04 81 65 03 01 76 02 04 81 26 02 01 74 01   i...e..v...&..t.
|   3168: 02 4c 02 01 75 01 04 84 67 02 02 77 69 0a 02 09   .L..u...g..wi...
|   3184: 02 04 78 d2 b9 73 04 04 83 42 02 03 7a c2 b3 08   ..x..s...B..z...
|   3200: 02 43 02 02 c2 aa 01 04 82 61 06 04 84 10 02 02   .C.......a......
|   3216: c6 88 07 02 1f 02 04 c8 b8 dd bf 05 04 81 72 02   ..............r.
|   3232: 02 c9 ad 07 04 84 2f 02 02 ce bc 07 02 05 02 02   ....../.........
|   3248: cf 85 0a 04 84 36 02 02 d9 a3 02 04 81 72 02 04   .....6.......r..
|   3264: f1 a9 82 9b 0a 04 82 72 01 01 62 01 1c 81 17 06   .......r..b.....
|   3280: 4a 46 28 2a 0a 4a 10 36 05 52 20 01 1c 1f 15 5f   JF(*.J.6.R ...._
|   3296: 17 12 2b 46 03 81 2b 0f 1b 1f 4f 01 26 6d 68 10   ..+F..+...O.&mh.
|   3312: 04 08 06 20 04 10 05 20 05 07 6d 2e 09 14 05 24   ... ... ..m....$
|   3328: 01 18 21 2b 11 12 81 0f 3e 22 11 28 51 28 01 18   ..!+....>..(Q(..
|   3344: 12 11 4e 36 81 5a 23 3b 1a 16 26 2a 01 20 34 79   ..N6.Z#;..&*. 4y
|   3360: 1e 32 14 05 27 17 0c 4a 49 46 09 03 0d 2f 01 0e   .2..'..JIF.../..
|   3376: 15 35 6f 3c 24 5e 2e 01 14 15 40 49 25 2c 0a 1d   .5o<$^....@I%,..
|   3392: 67 70 2e 01 1c 06 03 0b 0e 76 81 0e 15 81 25 0b   gp.......v....%.
|   3408: 39 2d 1a 01 14 27 1e 81 01 27 81 54 76 14 3e 02   9-...'...'.Tv.>.
|   3424: 02 31 62 08 04 83 1d 02 01 33 0a 04 83 35 02 01   .1b......3...5..
|   3440: 37 02 04 82 6b 02 01 39 0a 02 29 02 01 61 03 04   7...k..9..)..a..
|   3456: 82 72 02 01 64 01 04 81 05 02 04 84 1f 02 01 65   .r..d..........e
|   3472: 01 04 81 69 02 01 66 04 04 82 50 05 04 82 10 02   ...i..f...P.....
|   3488: 01 69 01 02 0d 02 01 6b 0a 04 81 0a 02 01 6c 02   .i.....k......l.
|   3504: 04 81 79 04 04 84 6e 03 01 31 0a 04 84 66 02 01   ..y...n..1...f..
|   3520: 6f 0a 04 83 48 02 01 73 01 02 3d 03 02 10 02 01   o...H..s..=.....
|   3536: 74 02 04 82 0e 02 01 75 06 04 84 74 03 01 32 01   t......u...t..2.
|   3552: 04 82 0d 02 01 76 06 04 83 3a 02 01 78 08 04 82   .....v...:..x...
|   3568: 73 03 01 6c 09 04 84 1c 03 01 78 02 04 82 08 03   s..l......x.....
|   3584: 02 7a 69 0a 04 83 73 02 01 79 03 04 82 42 02 01   .zi...s..y...B..
|   3600: 7a 08 04 83 03 02 06 c2 b9 e3 b1 a1 32 0a 04 81   z...........2...
|   3616: 46 03 01 bc 04 04 83 36 03 01 be 04 04 84 3f 02   F......6......?.
|   3632: 02 c6 80 0a 04 84 00 02 03 d4 a3 76 07 04 84 33   ...........v...3
|   3648: 02 04 da ba 71 6f 08 04 84 11 02 02 dd a8 08 02   ....qo..........
|   3664: 51 02 06 eb 9e ac 7a 73 79 06 02 32 01 01 63 01   Q.....zsy..2..c.
|   3680: 18 04 39 12 3a 05 34 56 46 59 81 0b 43 01 22 2a   ..9.:.4VFY..C..*
|   3696: 1d 1f 53 2b 60 22 12 0d 13 1c 2e 35 05 03 0f 54   ..S+`......5...T
|   3712: 01 14 81 1e 81 1f 17 03 24 2a 81 0b 01 24 34 20   ........$*...$4 
|   3728: 06 21 0a 30 05 08 03 62 0c 26 10 6c 3b 0d 44 3a   .!.0...b.&.l;.D:
|   3744: 01 1a 15 0b 77 04 45 3f 34 37 3f 08 13 36 53 01   ....w.E?47?..6S.
|   3760: 1c 02 38 33 49 1e 2e 81 19 43 33 3e 24 15 08 01   ..83I....C3>$...
|   3776: 1a 09 81 55 40 43 09 21 27 4c 04 5b 07 07 07 07   ...U@C.!'L.[....
|   3792: 07 07 07 07 07 08 08 07 0a 07 0a 06 07 08 07 07   ................
|   3808: 08 07 0a 08 56 06 0a 07 07 09 06 08 07 07 07 0a   ....V...........
|   3824: 06 07 09 09 07 06 07 08 08 08 08 08 5e 07 06 07   ............^...
|   3840: 07 08 09 07 07 08 07 07 08 0b 0b 07 0a 06 07 0a   ................
|   3856: 08 09 09 0a 07 09 08 65 07 07 07 07 07 08 0b 07   .......e........
|   3872: 06 0b 07 07 06 07 07 07 07 08 09 0c 57 0b 08 07   ............W...
|   3888: 07 0c 08 07 07 08 09 0a 07 07 07 09 07 07 07 0a   ................
|   3904: 07 06 0a 07 08 08 09 5b 07 07 0b 06 09 0a 0a 06   .......[........
|   3920: 0a 0a 07 07 08 08 06 08 06 0e 5f 07 07 0b 0a 08   .........._.....
|   3936: 06 07 0b 07 07 0f 07 0b 07 07 07 07 06 06 0c 08   ................
|   3952: 09 08 0c 65 08 0a 06 06 06 08 07 06 07 08 07 08   ...e............
|   3968: 06 07 09 0b 07 0a 08 08 0a 07 08 0a 0a 58 06 07   .............X..
|   3984: 07 0a 0b 0b 08 07 07 07 0c 07 09 06 07 09 07 07   ................
|   4000: 58 07 0b 0a 08 07 0b 09 06 07 08 0b 0a 08 0b 0b   X...............
|   4016: 07 06 09 06 07 09 09 81 25 07 07 08 07 0b 08 06   ........%.......
|   4032: 07 07 0b 0a 0b 0e 07 07 0b 06 0b 07 07 0c 0d 0a   ................
|   4048: 07 06 07 07 0a 08 0c 07 0a 08 07 08 08 0a 81 17   ................
|   4064: 08 07 07 06 07 0b 07 0b 06 07 0b 07 07 09 07 07   ................
|   4080: 07 07 07 07 07 08 07 07 0c 07 07 08 09 0a 07 0b   ................
| page 21 offset 81920
|      0: 0d 00 00 00 01 00 21 00 00 21 00 00 00 00 00 00   ......!..!......
|     32: 00 9f 57 88 80 80 80 80 02 04 00 bf 32 00 08 0e   ..W.........2...
|     48: 8c 3a 14 04 29 08 18 17 4a 44 3a 19 4e 5f 56 16   .:..)...JD:.N_V.
|     64: 08 30 25 01 1c 0e 13 32 1b 0b 41 03 2f 81 34 3c   .0%....2..A./.4<
|     80: 14 09 21 01 14 81 01 06 10 30 1f 28 0f 51 5f 04   ..!......0.(.Q_.
|     96: 30 63 33 74 05 02 69 02 02 34 76 0a 04 83 63 02   0c3t..i..4v...c.
|    112: 04 36 e7 8e a1 03 04 84 03 02 04 61 77 c2 b9 05   .6.........aw...
|    128: 04 82 56 02 01 63 03 04 82 02 04 04 82 0a 02 02   ..V..c..........
|    144: 64 30 09 02 40 02 01 67 02 06 61 83 38 02 04 82   d0..@..g..a.8...
|    160: 70 03 04 84 62 03 01 73 02 04 84 5f 02 01 68 01   p...b..s..._..h.
|    176: 04 81 76 03 01 32 07 04 84 3f 02 01 69 09 02 7e   ..v..2...?..i..~
|    192: 02 01 6a 01 04 81 57 02 01 6b 01 04 82 33 02 01   ..j...W..k...3..
|    208: 6d 05 02 7b 02 01 6e 06 04 82 51 02 01 6f 06 02   m.....n...Q..o..
|    224: 0e 03 01 65 01 04 81 3c 02 02 70 63 06 02 1e 02   ...e...<..pc....
|    240: 01 71 02 04 84 3b 08 02 1a 02 01 72 09 06 36 81   .q...;.....r..6.
|    256: 38 02 01 75 02 04 83 3b 03 02 54 02 01 77 04 04   8..u...;..T..w..
|    272: 83 5c 06 04 83 21 02 01 78 07 04 81 21 02 01 79   .....!..x...!..y
|    288: 06 02 3a 02 02 7a 31 02 04 84 2a 02 02 c2 b2 02   ..:..z1...*.....
|    304: 04 81 01 03 01 b3 07 04 82 5e 03 02 bd 7a 06 04   .........^...z..
|    320: 82 08 02 02 c6 9e 0a 04 83 4d 02 02 ce bc 05 04   .........M......
|    336: 84 70 02 02 d3 86 06 04 82 33 02 02 d4 a7 01 02   .p.......3......
|    352: 7c 02 02 d8 b8 06 04 82 53 02 02 df a4 04 02 7c   |.......S......|
|    368: 02 03 e0 b7 ae 04 04 84 5e 02 03 e6 91 9a 03 04   ........^.......
|    384: 81 18 02 04 f0 90 ac 8e 04 04 82 39 01 01 64 01   ...........9..d.
|    400: 16 23 2f 1a 6d 81 47 65 09 1b 42 25 01 10 0d 82   .#/.m.Ge..B%....
|    416: 18 81 3c 50 06 34 01 10 60 31 5a 14 18 16 5f 18   ..<P.4..`1Z..._.
|    432: 01 24 03 0a 28 2b 7c 18 40 0f 0e 09 13 08 0c 10   .$..(+|.@.......
|    448: 64 07 0e 39 01 12 11 3e 82 02 4a 0c 5a 07 21 01   d..9...>..J.Z.!.
|    464: 18 0a 0a 67 3d 81 37 40 68 0e 30 17 18 01 12 08   ...g=.7@h.0.....
|    480: 6a 54 81 0c 49 14 4f 21 01 16 26 82 0d 3c 0c 60   jT..I.O!..&..<.`
|    496: 19 27 51 05 07 01 16 24 20 07 1a 81 1c 1f 24 43   .'Q....$ .....$C
|    512: 81 5b 01 16 42 21 05 81 07 0d 36 5b 21 81 15 02   .[..B!....6[!...
|    528: 01 30 01 04 84 4d 02 01 32 04 04 84 38 02 01 34   .0...M..2...8..4
|    544: 06 04 83 1e 02 04 84 3c 01 04 81 2c 02 01 62 08   .......<...,..b.
|    560: 04 82 51 03 01 61 05 04 84 3e 02 01 63 06 04 84   ..Q..a...>..c...
|    576: 24 03 04 83 40 02 01 64 01 08 81 18 83 2e 02 01   $...@..d........
|    592: 65 03 04 82 46 02 01 66 09 04 84 33 02 01 67 03   e...F..f...3..g.
|    608: 04 81 55 02 07 68 c2 b9 62 71 61 30 02 02 48 02   ..U..h..bqa0..H.
|    624: 01 69 04 04 82 4b 03 01 78 03 04 81 3c 02 02 6a   .i...K..x...<..j
|    640: 34 05 02 47 02 01 6b 01 04 82 29 03 01 38 0a 02   4..G..k...)..8..
|    656: 49 02 01 6c 02 04 84 1a 01 04 84 58 07 04 82 2c   I..l.......X...,
|    672: 02 01 6d 06 04 83 0b 02 04 84 0c 03 02 c2 bc 08   ..m.............
|    688: 04 83 17 02 01 6e 02 04 83 70 02 01 6f 04 04 81   .....n...p..o...
|    704: 56 03 01 61 03 02 5b 03 04 65 79 64 37 06 04 81   V..a..[..eyd7...
|    720: 38 03 03 ee a9 bf 08 02 45 02 01 71 04 04 81 75   8.......E..q...u
|    736: 03 01 74 09 04 83 66 02 01 72 06 02 4f 02 01 73   ..t...f..r..O..s
|    752: 01 04 81 26 07 02 2d 02 01 74 02 02 14 02 02 3c   ...&..-..t.....<
|    768: 04 04 84 5d 02 02 77 64 02 02 31 02 01 78 02 04   ...]..wd..1..x..
|    784: 84 59 03 04 84 65 02 01 79 02 02 58 04 04 81 49   .Y...e..y..X...I
|    800: 01 04 83 17 03 02 7f 02 02 c2 b3 04 02 05 03 01   ................
|    816: b9 01 04 84 09 03 01 be 0a 04 82 59 02 02 ce bc   ...........Y....
|    832: 06 04 81 02 02 02 d7 9d 06 04 83 31 02 04 df 84   ...........1....
|    848: da 8c 08 04 82 67 02 04 e1 b5 b6 6b 0a 04 81 7b   .....g.....k....
|    864: 02 03 e3 a1 92 03 04 83 66 02 04 f0 9b 93 a9 07   ........f.......
|    880: 04 85 0b 04 02 a8 81 06 04 82 3e 01 01 65 01 24   ..........>..e.$
|    896: 43 34 18 15 08 09 51 19 5b 17 28 26 11 06 23 38   C4....Q.[.(&..#8
|    912: 2b 2b 01 1e 1c 32 20 17 0f 2c 03 0c 1b 0c 6f 25   ++...2 ..,....o%
|    928: 73 16 40 01 1e 07 12 81 5a 44 19 06 03 24 5c 0e   s.@.....ZD...$..
|    944: 16 18 39 0d 01 26 0d 09 06 41 42 09 24 1d 25 0c   ..9..&...AB.$.%.
|    960: 06 1d 63 14 26 18 7d 0a 1d 01 14 25 56 29 0a 81   ..c.&......%V)..
|    976: 1a 1b 37 5d 3d 01 16 1c 81 26 25 7f 41 52 46 08   ..7]=....&%.ARF.
|    992: 1b 16 01 12 81 0f 6b 7b 0f 2d 03 7f 07 01 18 19   ......k..-......
|   1008: 28 81 01 50 36 41 16 81 22 17 03 01 1c 16 1a 81   (..P6A..........
|   1024: 1f 10 17 41 4c 1c 0b 66 49 10 06 01 18 54 82 38   ...AL..fI....T.8
|   1040: 13 2a 0b 14 4c 15 0f 36 0b 02 01 30 07 04 82 28   .*..L..6...0...(
|   1056: 02 01 31 09 04 81 2b 01 04 83 38 02 01 33 03 04   ..1...+...8..3..
|   1072: 81 76 02 01 61 08 04 84 6b 03 05 7a ea 86 b3 6a   .v..a...k..z...j
|   1088: 06 04 82 52 02 01 62 0a 04 83 19 02 01 63 02 04   ...R..b......c..
|   1104: 82 4d 03 02 c2 be 04 04 82 29 02 01 64 05 04 81   .M.......)..d...
|   1120: 7a 03 04 81 72 02 02 66 61 04 02 41 03 01 77 06   z...r..fa..A..w.
|   1136: 02 3e 02 04 82 10 02 01 67 05 04 84 48 02 01 69   .>......g...H..i
|   1152: 01 04 83 12 02 02 6c 62 07 04 81 1d 02 01 6d 01   ......lb......m.
|   1168: 04 83 6e 02 01 6f 05 02 09 02 04 81 16 02 01 70   ..n..o.........p
|   1184: 05 06 07 82 72 03 01 38 07 04 84 46 02 01 73 02   ....r..8...F..s.
|   1200: 04 84 2d 05 04 81 58 03 04 81 4a 03 02 c2 bd 0a   ..-...X...J.....
|   1216: 04 83 2d 02 01 74 02 04 84 55 05 04 85 02 02 01   ..-..t...U......
|   1232: 75 02 04 82 62 02 01 76 01 04 84 31 02 01 77 09   u...b..v...1..w.
|   1248: 04 82 15 02 01 78 01 02 45 05 04 82 14 03 04 83   .....x..E.......
|   1264: 01 02 01 79 06 04 81 0c 02 02 7a 78 09 04 81 6d   ...y......zx...m
|   1280: 02 04 c2 bc 61 72 04 04 83 20 04 01 6f 01 02 70   ....ar... ..o..p
|   1296: 02 02 c9 9e 01 04 82 02 02 02 ca 83 05 04 82 3f   ...............?
|   1312: 03 01 9b 05 02 52 03 01 aa 07 04 83 65 02 02 cd   .....R......e...
|   1328: bb 01 04 83 07 02 02 ce b2 06 02 5b 02 03 cf a7   ...........[....
|   1344: 78 03 04 81 3b 02 03 ef a9 89 08 04 82 20 02 04   x...;........ ..
|   1360: f5 87 b0 93 02 04 84 18 01 01 66 01 1c 2b 3d 5b   ..........f..+=[
|   1376: 23 45 2d 41 17 0e 81 1d 0f 15 1f 01 16 05 81 20   #E-A........... 
|   1392: 0d 27 81 0f 3e 28 2b 13 01 14 62 2c 44 26 17 04   .'..>(+...b,D&..
|   1408: 23 50 6d 5b 01 1c 30 5b 81 27 07 29 38 15 4d 11   #Pm[..0[.'.)8.M.
|   1424: 2e 20 17 20 01 1a 19 65 4f 14 2e 55 0e 12 39 13   . . ...eO..U..9.
|   1440: 1d 70 12 01 20 1a 0d 2f 05 81 19 2b 42 05 37 4c   .p.. ../...+B.7L
|   1456: 21 22 04 25 2b 01 14 45 3e 05 10 81 47 6c 81 11   !..%+..E>...Gl..
|   1472: 11 01 1e 78 04 12 18 0a 05 10 14 6b 05 0a 04 82   ...x.......k....
|   1488: 05 15 01 1e 05 23 4b 18 24 31 20 27 12 2e 81 0e   .....#K.$1 '....
|   1504: 31 18 18 01 10 55 7e 29 2a 06 19 65 38 02 01 30   1....U~)*..e8..0
|   1520: 09 02 14 02 01 31 02 04 84 00 02 01 36 06 04 84   .....1......6...
|   1536: 7a 02 01 61 07 04 83 71 02 01 62 05 04 83 10 03   z..a...q..b.....
|   1552: 02 34 02 02 63 6f 07 04 83 27 02 01 64 07 04 81   .4..co...'..d...
|   1568: 0c 03 04 81 55 03 01 6f 03 02 7e 02 01 69 02 04   ....U..o..~..i..
|   1584: 81 08 03 02 05 03 04 82 70 02 01 6a 05 02 41 03   ........p..j..A.
|   1600: 02 6f 30 04 02 5e 02 01 6b 02 04 82 13 02 01 6c   .o0..^..k......l
|   1616: 02 04 83 2d 08 04 81 20 02 01 6e 09 04 82 69 02   ...-... ..n...i.
|   1632: 02 6f 38 02 04 83 73 02 01 71 0a 04 81 4f 02 01   .o8...s..q...O..
|   1648: 74 09 04 83 2c 02 01 75 03 04 83 79 03 03 68 c2   t...,..u...y..h.
|   1664: b3 03 04 81 09 02 02 77 64 06 04 81 79 02 01 78   .......wd...y..x
|   1680: 03 04 83 41 03 02 19 02 01 79 02 04 82 1a 07 02   ...A.....y......
|   1696: 72 03 01 6a 06 04 83 1a 02 01 7a 05 04 84 6d 01   r..j......z...m.
|   1712: 04 81 24 02 03 c2 aa 75 0a 04 84 72 03 01 b3 04   ..$....u...r....
|   1728: 04 82 02 03 04 82 2c 03 01 ba 07 04 26 51 03 02   ......,.....&Q..
|   1744: bd 65 07 04 81 1a 03 01 be 09 02 44 02 02 ca 97   .e.........D....
|   1760: 02 04 84 30 02 03 d5 a7 6f 04 02 36 03 02 bd 72   ...0....o..6...r
|   1776: 07 04 81 03 02 05 f3 b2 a7 91 68 09 04 82 22 01   ..........h.....
|   1792: 01 67 01 16 81 41 81 1f 4c 0f 0d 0d 6f 3d 04 01   .g...A..L...o=..
|   1808: 18 12 08 5e 05 16 4f 42 61 22 45 3c 27 01 20 08   ...^..OBa.E<'. .
|   1824: 13 27 14 17 1f 08 3e 0d 41 81 1c 3e 06 1c 1e 01   .'....>.A..>....
|   1840: 16 0c 11 6b 26 54 05 14 03 81 6b 12 01 1a 36 41   ...k&T....k...6A
|   1856: 11 0b 0c 36 7c 08 0e 0c 52 4f 50 01 0c 81 0e 22   ...6|...ROP.....
|   1872: 3d 72 1f 01 22 07 0e 22 3c 4d 1c 09 03 2d 22 1e   =r......<M...-..
|   1888: 11 7e 45 2e 1e 29 01 16 44 07 06 03 81 08 75 81   .~E..)..D.....u.
|   1904: 67 16 12 01 16 22 5a 47 6f 37 0e 05 4d 1f 17 38   g.....ZGo7..M..8
|   1920: 01 14 81 3c 4c 79 07 31 0c 45 4d 2c 02 02 35 65   ...<Ly.1.EM,..5e
|   1936: 0a 04 83 79 02 02 36 75 01 04 84 6b 02 01 38 0a   ...y..6u...k..8.
|   1952: 04 81 6f 02 01 63 02 04 81 22 03 01 75 03 04 83   ..o..c......u...
|   1968: 33 02 01 64 04 04 81 6c 03 04 81 6e 02 01 65 06   3..d...l...n..e.
|   1984: 04 82 4b 02 04 81 7b 03 05 77 f7 98 85 82 02 04   ..K......w......
|   2000: 83 22 02 02 66 6d 07 04 83 5c 02 01 67 03 04 81   ....fm......g...
|   2016: 5e 02 01 69 02 04 84 1e 03 01 61 04 04 81 74 02   ^..i......a...t.
|   2032: 01 6a 01 04 84 50 07 04 84 22 02 04 81 11 02 01   .j...P..........
|   2048: 6b 03 04 83 1f 01 04 83 55 03 01 6f 02 02 49 03   k.......U..o..I.
|   2064: 01 71 0a 04 81 21 02 01 6e 07 04 81 64 02 01 71   .q...!..n...d..q
|   2080: 0a 04 84 0c 02 02 72 73 09 04 82 54 02 06 73 c2   ......rs...T..s.
|   2096: b9 c2 b9 73 08 04 83 3b 02 01 74 0a 04 84 7d 03   ...s...;..t.....
|   2112: 01 78 03 04 83 4c 02 02 75 78 03 04 83 56 04 02   .x...L..ux...V..
|   2128: c2 bd 07 04 81 72 02 01 76 03 04 83 4e 01 02 5d   .....r..v...N..]
|   2144: 05 04 84 1a 02 01 78 01 08 83 69 81 16 02 01 79   ......x...i....y
|   2160: 03 04 84 34 06 04 81 00 03 01 75 05 04 82 2f 02   ...4......u.../.
|   2176: 01 7a 05 02 35 02 02 c2 aa 0a 04 84 46 03 01 b9   .z..5.......F...
|   2192: 09 02 02 03 01 bd 06 04 82 5d 03 01 be 07 04 81   .........]......
|   2208: 7d 02 02 c6 bd 08 04 83 1e 02 03 ca a1 71 05 04   .............q..
|   2224: 81 19 02 02 d8 b9 01 02 25 02 04 ea a3 99 66 07   ........%.....f.
|   2240: 04 83 37 02 04 f0 9e a1 93 02 04 83 57 01 01 68   ..7.........W..h
|   2256: 01 1a 13 13 81 78 3b 46 08 14 38 44 21 04 13 01   .....x;F..8D!...
|   2272: 24 09 1b 2b 1a 18 17 0b 2f 0e 08 64 06 04 0b 1c   $..+..../..d....
|   2288: 2f 11 78 01 22 02 1a 46 58 18 37 0b 12 0a 18 36   /.x....FX.7....6
|   2304: 3a 23 57 18 16 09 01 14 26 3c 54 47 2b 3d 0d 81   :#W.....&<TG+=..
|   2320: 16 6e 01 16 1b 22 3a 53 15 5d 19 3c 81 1c 13 01   .n....:S.].<....
|   2336: 16 81 20 04 3c 26 74 51 5a 39 19 05 01 28 02 35   .. .<&tQZ9...(.5
|   2352: 26 0d 0c 0b 29 41 25 0e 05 81 0e 5c 14 11 1d 2a   &...)A%........*
|   2368: 22 09 01 16 05 82 02 0b 38 63 15 06 2b 37 13 01   ........8c..+7..
|   2384: 1e 09 6f 10 1b 81 2b 31 0b 31 20 3c 06 43 11 15   ..o...+1.1 <.C..
|   2400: 01 14 39 5f 0b 7e 10 1b 58 55 39 33 02 01 30 07   ..9_.~..XU93..0.
|   2416: 04 81 0a 02 03 35 73 7a 02 04 82 5d 02 02 36 36   .....5sz...]..66
|   2432: 02 04 81 2c 02 01 37 09 02 13 02 01 39 02 04 82   ...,..7.....9...
|   2448: 7c 01 04 83 17 02 01 63 07 02 6c 03 04 84 16 02   |......c..l.....
|   2464: 01 65 04 02 64 01 04 81 00 04 02 50 02 01 66 0a   .e..d......P..f.
|   2480: 04 81 32 02 01 67 09 02 3f 01 04 83 42 02 01 69   ..2..g..?...B..i
|   2496: 03 04 84 0e 02 02 6b 77 02 04 83 47 02 01 6c 03   ......kw...G..l.
|   2512: 02 22 02 04 83 3c 03 03 32 72 65 08 04 84 0e 03   .....<..2re.....
|   2528: 01 33 07 04 84 55 03 02 35 34 08 04 82 78 02 01   .3...U..54...x..
|   2544: 6e 04 04 82 57 02 01 6f 04 04 83 3c 03 03 67 c2   n...W..o...<..g.
|   2560: b3 06 04 82 41 03 01 72 02 02 35 02 01 75 02 08   ....A..r..5..u..
|   2576: 82 52 82 0e 04 04 84 3c 02 03 76 dc 95 09 04 83   .R.....<..v.....
|   2592: 1f 02 01 79 04 04 81 20 02 01 7a 04 02 6f 05 04   ...y... ..z..o..
|   2608: 81 41 02 02 c2 aa 06 04 82 57 04 02 78 6b 08 04   .A.......W..xk..
|   2624: 83 58 03 01 b2 07 04 83 4b 02 04 81 52 03 01 b3   .X......K...R...
|   2640: 01 04 81 3e 01 04 81 3f 03 01 bd 02 02 75 03 02   ...>...?.....u..
|   2656: be 6b 05 04 83 0c 02 04 c3 b8 66 70 01 04 82 2f   .k........fp.../
|   2672: 02 02 ce bc 08 04 81 04 02 03 cf a7 6b 06 04 82   ............k...
|   2688: 4d 02 03 d9 84 72 03 02 13 02 02 da 90 06 04 84   M....r..........
|   2704: 73 02 04 f0 ad 93 a0 06 02 09 01 01 69 01 20 37   s...........i. 7
|   2720: 4d 55 11 49 26 3c 17 0d 4a 26 03 05 0c 20 43 01   MU.I&<..J&... C.
|   2736: 10 59 08 37 5a 56 72 81 05 01 1a 16 33 32 0a 03   .Y.7ZVr.....32..
|   2752: 18 81 17 5f 59 27 37 08 01 24 0a 70 1f 07 40 3b   ..._Y'7..$.p..@;
|   2768: 15 20 09 15 30 0f 17 06 36 81 08 17 01 1c 32 0a   . ..0...6.....2.
|   2784: 05 1a 5f 1c 32 78 03 15 17 81 2b 1e 01 1a 04 03   .._.2x....+.....
|   2800: 2b 07 0c 38 43 6c 0f 81 77 0e 0e 01 1a 1c 3d 81   +..8Cl..w.....=.
|   2816: 0d 0d 17 1d 4c 63 44 2e 11 2b 01 18 2b 2d 49 72   ....LcD..+..+-Ir
|   2832: 1d 22 17 31 19 27 32 4c 01 1c 0b 67 27 20 81 1c   ...1.'2L...g' ..
|   2848: 47 31 29 0d 0b 12 4c 07 01 18 35 81 0b 08 0e 5f   G1)...L...5...._
|   2864: 11 18 37 81 09 09 02 01 30 09 02 19 02 02 31 63   ..7.....0.....1c
|   2880: 09 02 7f 02 01 32 04 02 2c 05 04 83 6e 02 01 35   .....2..,...n..5
|   2896: 09 04 83 7a 03 01 79 05 02 0f 02 02 36 73 05 04   ...z..y.....6s..
|   2912: 83 3d 02 03 38 6a 70 07 04 84 39 02 01 61 07 04   .=..8jp...9..a..
|   2928: 83 44 02 01 62 0a 04 84 37 02 01 64 01 04 85 00   .D..b...7..d....
|   2944: 07 04 82 36 03 02 cf a7 01 04 82 5f 02 01 66 06   ...6......._..f.
|   2960: 04 82 35 03 03 71 70 6e 04 04 82 14 02 02 67 7a   ..5..qpn......gz
|   2976: 02 04 82 00 02 01 68 01 02 14 02 01 69 05 02 48   ......h.....i..H
|   2992: 02 01 6a 01 04 83 7a 07 02 12 01 02 33 02 01 6d   ..j...z.....3..m
|   3008: 04 04 83 76 03 01 68 08 04 82 63 02 01 6f 03 06   ...v..h...c..o..
|   3024: 2c 81 52 06 04 81 4f 02 01 70 06 04 83 00 03 02   ,.R...O..p......
|   3040: c2 be 06 04 83 37 02 01 72 09 04 82 78 03 03 71   .....7..r...x..q
|   3056: 61 6c 0a 02 3e 03 02 c2 be 05 04 84 67 02 01 73   al..>.......g..s
|   3072: 09 04 81 0d 02 01 74 04 02 58 02 01 75 08 04 81   ......t..X..u...
|   3088: 17 02 01 76 04 04 83 4b 06 04 84 70 02 01 7a 02   ...v...K...p..z.
|   3104: 04 83 7e 02 02 c2 aa 03 02 61 03 01 b2 08 04 84   ..~......a......
|   3120: 13 03 04 b9 c2 b2 6a 01 02 19 03 02 bc 63 05 04   ......j......c..
|   3136: 84 12 02 02 c7 86 09 04 84 11 02 02 ce bc 02 02   ................
|   3152: 17 02 03 cf ab 6e 07 02 29 02 06 d5 b1 30 d1 bb   .....n..)....0..
|   3168: 6e 01 02 4e 02 03 eb 8b a7 08 04 81 6b 03 02 b5   n..N........k...
|   3184: bc 07 04 83 08 01 01 6a 01 14 81 07 79 0f 79 32   .......j....y.y2
|   3200: 33 13 81 16 01 16 2c 0a 81 1b 24 2f 05 81 19 19   3.....,...$/....
|   3216: 2d 01 16 81 4c 03 14 4f 81 08 2d 05 2f 21 01 18   -...L..O..-./!..
|   3232: 27 1f 0e 81 16 0c 82 4b 04 12 06 0e 01 1e 26 05   '......K......&.
|   3248: 22 14 55 05 09 81 16 21 05 19 37 74 32 01 1e 37   ..U....!..7t2..7
|   3264: 07 1e 03 10 81 2c 38 07 1a 2a 2b 81 0d 08 01 1e   .....,8..*+.....
|   3280: 2b 19 31 3c 4c 03 1a 14 04 1c 06 76 04 48 62 01   +.1<L......v.Hb.
|   3296: 1a 0d 44 38 13 31 52 52 1e 6d 57 12 03 19 01 12   ..D8.1RR.mW.....
|   3312: 17 81 24 2f 4e 32 2f 23 20 01 20 04 34 18 2a 3b   ..$/N2/# . .4.*;
|   3328: 2d 1b 73 0b 08 05 36 5d 1f 25 24 02 03 32 73 30   -.s...6].%$..2s0
|   3344: 08 04 82 16 02 01 33 02 04 82 54 02 01 34 07 04   ......3...T..4..
|   3360: 81 4b 03 01 6c 04 04 82 74 03 01 6d 03 04 82 26   .K..l...t..m...&
|   3376: 02 02 35 76 06 04 82 44 02 01 36 09 04 83 39 03   ..5v...D..6...9.
|   3392: 03 64 c2 ba 03 04 83 30 02 01 61 06 04 82 34 02   .d.....0..a...4.
|   3408: 02 62 69 03 02 23 02 01 63 03 04 82 6c 02 01 64   .bi..#..c...l..d
|   3424: 07 04 83 43 02 01 65 04 04 81 61 03 01 67 01 04   ...C..e...a..g..
|   3440: 82 03 03 01 74 0a 04 84 44 02 01 66 07 04 81 09   ....t...D..f....
|   3456: 03 02 2b 03 01 7a 03 04 82 79 02 01 67 01 04 82   ..+..z...y..g...
|   3472: 42 03 01 35 08 04 82 38 02 01 68 07 04 81 3b 02   B..5...8..h...;.
|   3488: 03 69 c2 b9 04 04 82 2b 02 01 6a 09 04 83 69 02   .i.....+..j...i.
|   3504: 03 6d 61 63 02 04 81 02 02 02 6e 74 03 04 81 32   .mac......nt...2
|   3520: 02 01 6f 0a 04 83 45 02 01 71 0a 04 82 47 02 01   ..o...E..q...G..
|   3536: 72 03 04 83 1a 03 01 78 04 04 82 44 02 01 73 04   r......x...D..s.
|   3552: 04 83 0e 03 02 70 74 0a 02 2e 03 01 78 04 04 83   .....pt.....x...
|   3568: 33 02 03 74 ce bc 09 04 84 25 02 01 75 01 02 33   3..t.....%..u..3
|   3584: 02 02 24 02 01 77 05 02 03 03 04 83 36 03 01 6b   ..$..w......6..k
|   3600: 0a 04 81 06 03 01 6f 05 02 4c 02 01 78 0a 04 83   ......o..L..x...
|   3616: 7b 03 05 72 6c c2 b9 6c 07 04 83 77 03 03 e2 b5   ...rl..l...w....
|   3632: b9 08 04 81 5d 02 01 79 06 04 84 68 03 04 32 64   ....]..y...h..2d
|   3648: c8 ab 08 02 4b 03 01 37 06 04 83 26 03 02 c2 ba   ....K..7...&....
|   3664: 0a 04 82 12 03 03 eb 81 9f 02 04 82 05 02 03 7a   ...............z
|   3680: d7 ac 02 04 81 7c 02 02 c2 b9 02 04 82 4c 01 04   .....|.......L..
|   3696: 84 13 03 05 bc 70 c2 ba 65 02 04 83 69 03 01 be   .....p..e...i...
|   3712: 02 04 82 15 02 02 ca 8b 02 02 47 01 01 6b 01 18   ..........G..k..
|   3728: 08 81 47 81 18 81 41 0d 0f 0d 14 25 01 14 68 3a   ..G...A....%..h:
|   3744: 4d 59 3e 2d 81 0a 11 16 01 1a 70 24 44 1a 14 62   MY>-......p$D..b
|   3760: 12 3b 50 15 34 03 16 01 0c 32 08 08 0a 0a 0b 07   .;P.4....2......
|   3776: 10 07 07 07 06 07 07 06 07 06 07 07 0a 08 0a 0b   ................
|   3792: 07 06 08 08 07 08 08 08 08 07 08 07 09 09 0a 81   ................
|   3808: 03 07 07 0f 07 07 0b 09 07 07 07 0c 07 07 07 07   ................
|   3824: 06 0f 0b 08 07 07 06 0a 08 07 07 06 0a 0d 07 0b   ................
|   3840: 11 07 07 07 08 08 0a 0a 09 0a 08 81 1e 07 0b 07   ................
|   3856: 07 0b 07 07 08 0b 07 0a 07 07 08 07 0a 08 07 0f   ................
|   3872: 08 0b 07 07 07 0e 07 08 0a 06 08 08 06 07 08 07   ................
|   3888: 09 09 0a 81 15 06 07 07 07 0a 08 0b 06 0e 06 07   ................
|   3904: 07 0b 07 08 07 07 07 09 08 0a 0a 07 0b 09 0b 07   ................
|   3920: 08 06 08 08 08 0b 81 0d 08 08 07 07 07 0b 0b 0b   ................
|   3936: 08 07 07 07 0f 0b 06 07 07 07 08 0c 07 07 08 08   ................
|   3952: 0e 09 0b 07 06 08 06 07 07 08 09 07 0a 0a 81 1f   ................
|   3968: 07 09 08 06 0b 0a 0d 07 0a 07 08 0a 09 07 08 07   ................
|   3984: 07 09 06 0d 09 07 0a 08 08 0b 0b 06 08 0a 08 09   ................
|   4000: 08 08 09 81 1c 06 07 0a 07 06 08 09 07 07 0b 08   ................
|   4016: 07 09 08 06 06 0d 07 07 0c 07 08 07 08 08 07 06   ................
|   4032: 07 0b 07 07 07 09 08 08 07 08 0b 09 08 81 16 09   ................
|   4048: 07 07 07 07 08 07 09 07 07 07 07 07 07 07 0a 07   ................
|   4064: 07 07 07 09 07 09 08 07 07 07 07 07 07 07 09 09   ................
|   4080: 0a 07 06 07 0b 09 07 09 07 08 09 09 0c 0b 07 07   ................
| page 22 offset 86016
|      0: 0d 00 00 00 01 00 24 00 00 24 00 00 00 00 00 00   ......$..$......
|     32: 00 00 00 00 9f 54 88 80 80 80 80 03 04 00 bf 2c   .....T.........,
|     48: 00 0a 0e 8b 61 42 11 82 12 4d 05 12 81 47 48 81   ....aB...M...GH.
|     64: 1c 3a 41 17 25 01 2a 42 21 1d 1f 07 44 65 2c 0f   .:A.%.*B!...De,.
|     80: 18 20 18 08 03 19 04 10 19 0b 17 26 01 1a 14 1f   . .........&....
|     96: 11 1f 2b 10 82 08 26 2b 76 0c 27 01 22 4c 23 06   ..+...&+v.'..L#.
|    112: 81 10 2e 2e 03 37 4b 13 14 14 1b 15 24 0d 01 18   .....7K.....$...
|    128: 3a 0e 4b 15 7b 2a 4a 13 24 81 10 0a 01 18 11 16   :.K..*J.$.......
|    144: 28 1f 57 54 15 16 6b 50 2f 04 04 30 6b 30 34 05   (.WT..kP/..0k04.
|    160: 04 83 1c 02 01 31 04 02 39 02 02 22 01 04 82 48   .....1..9......H
|    176: 02 01 32 09 04 81 25 02 01 34 01 04 81 1a 02 01   ..2...%..4......
|    192: 35 01 02 09 03 01 30 09 04 83 29 02 01 37 05 04   5.....0...)..7..
|    208: 82 70 02 01 38 06 04 83 2f 02 01 39 03 04 83 29   .p..8.../..9...)
|    224: 02 01 61 09 02 67 02 01 62 02 04 82 57 02 01 63   ..a..g..b...W..c
|    240: 01 04 82 24 02 02 64 33 09 04 84 06 02 01 65 09   ...$..d3......e.
|    256: 04 84 46 02 01 66 03 04 84 15 01 04 84 69 04 04   ..F..f.......i..
|    272: 84 36 02 01 67 06 04 84 7e 02 08 83 35 81 2c 02   .6..g...~...5.,.
|    288: 01 68 03 04 82 3a 05 08 81 2e 81 20 02 01 69 02   .h...:..... ..i.
|    304: 04 81 69 02 01 6a 06 02 46 01 08 82 1e 82 5b 02   ..i..j..F.....[.
|    320: 04 84 20 02 01 6b 09 04 81 2e 02 01 6c 08 04 84   .. ..k......l...
|    336: 56 03 01 62 0a 04 83 3f 02 02 6d 6a 01 04 82 15   V..b...?..mj....
|    352: 02 04 6f 69 72 33 01 04 82 25 02 01 72 01 02 44   ..oir3...%..r..D
|    368: 03 01 35 06 04 81 3b 02 02 74 74 04 04 81 79 02   ..5...;..tt...y.
|    384: 01 78 01 04 81 5b 02 02 7a 02 01 79 04 02 19 02   .x...[..z..y....
|    400: 03 7a 71 6b 03 04 83 37 02 02 c2 b3 01 02 31 04   .zqk...7......1.
|    416: 04 82 04 03 07 ba 6e f5 9a 8b 98 76 02 02 5b 02   ......n....v..[.
|    432: 02 cb 8f 06 04 84 28 02 02 ce bc 01 04 81 66 06   ......(.......f.
|    448: 04 81 1b 02 04 83 47 04 06 ce bc ce bf df bc 09   ......G.........
|    464: 04 82 4f 02 02 dd 9c 03 04 81 62 02 04 f2 86 b3   ..O.......b.....
|    480: bb 01 04 82 08 01 01 6c 01 12 81 34 81 00 0d 2a   .......l...4...*
|    496: 81 48 13 01 1a 0e 14 4f 81 17 14 12 10 75 68 36   .H.....O.....uh6
|    512: 0b 1d 01 16 12 22 23 51 1d 7c 25 08 20 4f 7a 01   ......#Q.|%. Oz.
|    528: 12 08 0b 81 7c 71 81 12 0b 0b 01 0e 4e 50 55 82   ....|q......NPU.
|    544: 1e 2e 23 01 1c 0f 10 24 07 33 06 81 0c 73 42 1d   ..#....$.3...sB.
|    560: 81 04 16 01 16 5e 62 6a 06 32 81 03 2f 0f 08 4e   .....^bj.2../..N
|    576: 01 06 81 2c 22 01 12 53 81 1e 6e 40 31 0b 1c 41   ...,...S..n@1..A
|    592: 01 18 79 14 11 17 13 81 0f 81 15 19 35 40 02 01   ..y.........5@..
|    608: 30 01 04 81 0d 03 04 83 6b 02 01 33 07 04 84 66   0.......k..3...f
|    624: 03 04 83 08 02 01 35 08 04 83 43 01 04 83 50 02   ......5...C...P.
|    640: 01 36 09 02 3b 02 01 37 07 04 84 38 02 01 61 0a   .6..;..7...8..a.
|    656: 04 83 17 03 04 e1 8d 93 69 01 04 81 0e 02 01 62   ........i......b
|    672: 03 04 84 16 04 04 83 0e 02 01 63 05 04 81 79 05   ..........c...y.
|    688: 04 84 5d 02 01 64 07 04 81 4a 03 02 6d 6e 08 02   ..]..d...J..mn..
|    704: 09 02 01 65 06 04 84 3e 03 02 76 7a 02 02 76 02   ...e...>..vz..v.
|    720: 01 66 0a 02 47 03 01 79 09 04 81 21 02 02 67 6f   .f..G..y...!..go
|    736: 05 02 38 02 02 68 77 03 04 82 27 02 01 69 02 02   ..8..hw...'..i..
|    752: 6f 04 02 6f 02 01 6b 07 04 82 61 02 01 6c 06 08   o..o..k...a..l..
|    768: 82 2e 81 5a 02 01 6d 01 04 84 25 03 04 83 31 02   ...Z..m...%...1.
|    784: 06 2f 82 2e 03 01 68 08 04 83 73 02 01 6e 09 04   ./....h...s..n..
|    800: 84 5a 02 01 6f 05 04 82 39 02 01 70 04 04 82 19   .Z..o...9..p....
|    816: 05 02 0f 02 01 71 07 04 83 39 03 02 63 71 06 04   .....q...9..cq..
|    832: 81 5e 03 01 67 07 04 83 73 03 01 70 08 04 84 6a   .^..g...s..p...j
|    848: 02 01 73 03 04 83 40 02 01 74 07 04 84 7c 03 06   ..s...@..t...|..
|    864: 35 69 7a 70 c2 bd 01 04 83 1a 02 01 75 01 08 82   5izp........u...
|    880: 2e 81 13 05 04 82 69 03 01 70 03 04 84 50 02 01   ......i..p...P..
|    896: 76 01 04 82 52 09 04 82 64 02 02 77 73 03 04 81   v...R...d..ws...
|    912: 27 02 01 78 08 02 1f 01 04 83 64 02 01 79 04 08   '..x......d..y..
|    928: 81 49 81 44 05 04 84 01 02 03 c2 aa 76 02 04 82   .I.D........v...
|    944: 67 03 01 b9 02 02 4f 06 02 31 03 01 bd 05 04 82   g.....O..1......
|    960: 3d 02 02 ce bc 01 02 2c 01 01 6d 01 12 0c 47 83   =......,..m...G.
|    976: 0a 07 52 16 41 05 01 18 50 05 74 25 21 81 16 16   ..R.A...P.t%!...
|    992: 05 24 16 6c 01 22 81 05 18 06 12 2a 59 09 1f 09   .$.l.......*Y...
|   1008: 3d 27 39 17 3a 1f 04 01 14 72 81 1a 24 81 38 20   ='9.:....r..$.8 
|   1024: 27 19 2b 01 18 81 2b 24 63 0b 11 5d 2d 0c 41 1a   '.+...+$c..]-.A.
|   1040: 30 01 1e 15 04 3c 3a 15 0e 28 18 06 56 81 37 20   0....<:..(..V.7 
|   1056: 0d 6b 01 1e 63 3f 42 73 0a 26 0c 6f 0f 15 13 0b   .k..c?Bs.&.o....
|   1072: 04 25 33 01 16 24 52 16 3a 21 1b 63 26 31 20 34   .%3..$R.:!.c&1 4
|   1088: 01 0e 1a 60 13 19 3d 82 1f 01 1e 5b 07 26 07 20   ...`..=....[.&. 
|   1104: 03 5a 69 6c 27 0b 22 24 20 0f 02 01 31 01 04 82   .Zil'..$ ...1...
|   1120: 6f 02 01 32 03 04 82 41 01 04 81 43 02 01 33 09   o..2...A...C..3.
|   1136: 04 81 23 03 05 7a 68 c2 bd 73 06 04 81 3a 02 01   ..#..zh..s...:..
|   1152: 35 07 04 83 6c 02 01 38 01 04 83 1c 02 02 62 6f   5...l..8......bo
|   1168: 06 04 83 16 02 01 63 07 02 5b 03 06 6e 31 cf af   ......c..[..n1..
|   1184: 61 71 0a 04 83 33 03 02 c2 be 03 04 83 2b 02 01   aq...3.......+..
|   1200: 64 09 04 81 19 01 04 83 09 03 01 62 0a 04 82 56   d..........b...V
|   1216: 03 01 6a 03 04 84 4e 02 01 65 05 04 82 3a 02 04   ..j...N..e...:..
|   1232: 82 53 02 01 66 09 04 82 7a 02 01 67 02 04 82 69   .S..f...z..g...i
|   1248: 08 04 81 35 02 01 68 09 04 83 2f 02 01 69 01 04   ...5..h.../..i..
|   1264: 81 62 02 01 6a 0a 04 81 59 02 01 6b 09 04 81 5f   .b..j...Y..k..._
|   1280: 02 01 6c 08 04 84 0d 02 01 6d 05 04 84 32 02 01   ..l......m...2..
|   1296: 6e 01 04 83 05 02 01 6f 07 04 82 6f 02 01 70 04   n......o...o..p.
|   1312: 04 83 60 03 04 82 0d 03 03 c2 b9 70 02 04 81 43   ..`........p...C
|   1328: 02 01 71 07 04 81 13 03 04 82 35 02 01 72 03 04   ..q.......5..r..
|   1344: 84 51 02 02 73 65 04 04 84 14 02 01 74 01 04 83   .Q..se......t...
|   1360: 5f 02 01 75 03 02 0b 03 02 c2 be 08 04 82 3a 02   _..u..........:.
|   1376: 01 76 06 04 84 43 02 01 77 01 04 82 18 01 04 81   .v...C..w.......
|   1392: 32 02 01 78 08 04 81 47 02 01 7a 01 04 82 44 02   2..x...G..z...D.
|   1408: 02 c2 b3 05 04 83 12 03 04 83 14 04 01 37 04 04   .............7..
|   1424: 83 6c 03 03 ba dd af 05 04 82 41 02 02 c3 9f 07   .l........A.....
|   1440: 04 82 34 02 03 c6 80 78 0a 04 83 14 02 02 ca 95   ..4....x........
|   1456: 07 04 83 0c 02 03 ce b0 67 03 02 6e 03 01 bc 05   ........g..n....
|   1472: 02 17 04 02 6c 02 03 e7 a4 94 05 04 82 51 01 01   ....l........Q..
|   1488: 6e 01 18 56 26 2f 54 29 5a 25 11 28 24 81 0f 01   n..V&/T)Z%.($...
|   1504: 1c 06 39 06 13 59 09 07 81 39 16 0c 39 27 4a 01   ..9..Y...9..9'J.
|   1520: 14 2a 03 53 23 81 0d 7d 5b 06 03 01 18 1e 03 81   .*.S#...[.......
|   1536: 02 34 37 29 15 34 81 30 36 01 1a 81 25 19 07 21   .47).4.06...%..!
|   1552: 07 33 12 82 02 45 04 05 01 12 82 0f 42 55 1d 08   .3...E......BU..
|   1568: 1a 44 3d 01 16 18 17 36 54 6e 1b 49 1f 30 09 1c   .D=....6Tn.I.0..
|   1584: 01 16 68 81 00 08 48 3a 13 50 3c 28 27 01 1c 28   ..h...H:.P<('..(
|   1600: 03 06 12 5b 06 30 38 04 65 54 1a 0b 4d 01 20 03   ...[.08.eT..M. .
|   1616: 09 3d 27 04 11 59 11 1a 0b 73 53 81 03 04 26 02   .='..Y...sS...&.
|   1632: 01 32 02 04 83 3e 02 01 36 01 02 73 09 04 81 14   .2...>..6..s....
|   1648: 02 01 37 0a 04 83 30 02 01 62 08 04 84 4d 02 02   ..7...0..b...M..
|   1664: 63 7a 0a 04 84 08 02 01 64 07 04 83 61 03 02 7a   cz......d...a..z
|   1680: 67 09 02 58 02 02 65 69 09 02 4e 02 05 67 eb 9b   g..X..ei..N..g..
|   1696: a1 72 09 04 81 06 02 01 68 01 04 82 13 02 01 69   .r......h......i
|   1712: 08 04 84 39 01 04 82 45 02 01 6a 0a 04 83 72 02   ...9...E..j...r.
|   1728: 02 6b 70 07 04 81 25 02 01 6c 0a 02 5a 02 01 6d   .kp...%..l..Z..m
|   1744: 03 08 82 58 81 11 01 04 84 2c 02 01 6e 07 02 74   ...X.....,..n..t
|   1760: 02 01 6f 05 04 82 7d 02 01 71 0a 02 7c 02 02 72   ..o......q..|..r
|   1776: 75 05 04 83 09 02 01 74 03 04 83 1d 02 01 75 07   u......t......u.
|   1792: 04 84 21 02 01 76 07 04 84 49 02 01 77 03 02 09   ..!..v...I..w...
|   1808: 02 04 81 01 02 01 78 06 04 81 0f 02 01 7a 04 04   ......x......z..
|   1824: 81 3e 02 04 c2 aa 64 6f 05 04 83 11 03 02 bc 64   .>....do.......d
|   1840: 09 04 81 7b 02 05 c6 80 39 63 64 01 04 83 62 03   ........9cd...b.
|   1856: 01 92 09 04 82 42 02 02 ce bc 09 02 4d 02 02 cf   .....B......M...
|   1872: 97 06 04 83 42 02 02 d1 8b 02 02 2d 02 05 dd b1   ....B......-....
|   1888: ca b2 70 01 02 1b 02 03 e6 b5 96 09 04 81 50 02   ..p...........P.
|   1904: 04 e8 b8 aa 6e 08 04 82 1a 02 05 f0 90 b2 b2 6c   ....n..........l
|   1920: 01 02 59 02 04 f1 8f 99 80 0a 04 83 25 01 01 6f   ..Y.........%..o
|   1936: 01 26 05 6b 0f 30 12 1f 16 5d 19 08 20 08 33 33   .&.k.0...].. .33
|   1952: 1e 12 31 31 06 01 16 04 63 33 67 24 2b 81 0a 5d   ..11....c3g$+..]
|   1968: 2c 0b 01 14 18 0f 36 82 49 0c 1c 08 27 4b 01 1a   ,.....6.I...'K..
|   1984: 4b 24 3a 13 64 07 14 0b 43 08 68 2e 3c 01 26 1a   K$:.d...C.h.<.&.
|   2000: 0b 06 58 10 3d 1b 0a 2f 3e 27 36 1b 1b 21 05 25   ..X.=../>'6..!.%
|   2016: 0d 41 01 12 81 16 4b 2e 7c 7d 32 1f 1e 01 1a 2e   .A....K.|.2.....
|   2032: 20 62 72 11 22 05 20 0a 2c 24 60 5e 01 2a 0e 5e    br... .,$`^.*.^
|   2048: 13 22 2d 1c 0c 1f 0c 10 0c 47 05 4e 03 15 06 33   ..-......G.N...3
|   2064: 1d 06 29 01 10 81 08 81 0b 81 48 53 11 01 20 14   ..).......HS.. .
|   2080: 25 81 17 10 08 08 47 2a 56 2b 2f 20 05 26 22 02   %.....G*V+/ .&..
|   2096: 01 30 0a 02 5e 03 02 39 76 08 04 82 5c 02 01 31   .0..^..9v......1
|   2112: 04 02 54 02 01 33 01 04 81 2d 02 02 36 37 09 02   ..T..3...-..67..
|   2128: 45 03 01 61 04 04 84 16 02 01 37 0a 04 84 5e 02   E..a......7...^.
|   2144: 03 39 c2 b3 01 04 83 2c 02 01 61 08 04 82 4b 02   .9.....,..a...K.
|   2160: 01 62 08 04 83 08 03 02 65 30 07 04 84 0d 02 01   .b......e0......
|   2176: 64 02 04 82 5e 02 04 81 07 02 05 65 70 6b 7a 35   d...^......epkz5
|   2192: 02 02 4e 03 03 db 8a 69 01 04 83 0b 02 01 66 05   ..N....i......f.
|   2208: 04 84 34 03 01 68 04 04 84 51 02 01 67 05 02 53   ..4..h...Q..g..S
|   2224: 02 04 82 78 02 01 68 09 04 83 6f 02 01 69 03 04   ...x..h...o..i..
|   2240: 81 42 02 01 6a 01 04 84 55 03 04 84 10 02 04 81   .B..j...U.......
|   2256: 56 03 02 72 74 06 04 83 20 02 02 6c 7a 01 04 83   V..rt... ..lz...
|   2272: 38 02 01 6e 01 02 15 02 01 6f 01 04 81 7c 01 02   8..n.....o...|..
|   2288: 27 02 01 73 01 02 36 04 02 2e 03 03 65 ce bc 08   '..s..6.....e...
|   2304: 04 82 43 02 01 74 09 04 82 7f 02 01 75 07 04 82   ..C..t......u...
|   2320: 13 03 01 66 07 04 83 21 03 02 6a 69 07 04 83 7e   ...f...!..ji...~
|   2336: 03 01 6b 01 04 84 26 02 01 76 0a 04 82 7f 03 05   ..k...&..v......
|   2352: 67 da b2 65 75 0a 04 84 13 03 06 c2 be c9 87 6b   g..eu..........k
|   2368: 61 07 04 81 5b 02 02 77 64 01 02 3c 02 01 7a 06   a...[..wd..<..z.
|   2384: 04 81 21 01 04 81 29 02 04 84 4b 03 02 79 30 09   ..!...)...K..y0.
|   2400: 04 83 7d 03 02 ce bc 02 04 81 6a 02 02 c2 aa 05   ..........j.....
|   2416: 02 50 03 01 b2 02 04 81 12 05 02 3e 04 01 63 07   .P.........>..c.
|   2432: 04 84 04 03 03 b3 62 61 01 04 84 3e 03 02 ba 6f   ......ba...>...o
|   2448: 02 04 84 51 02 02 c4 91 04 04 84 36 02 05 ce b9   ...Q.......6....
|   2464: 65 c9 97 07 04 83 76 02 04 ef 82 ac 6d 09 02 5d   e.....v.....m..]
|   2480: 02 05 f0 92 bd b3 6f 03 04 81 25 03 04 99 ba 8f   ......o...%.....
|   2496: 64 02 04 81 1f 02 05 f3 8a bd b1 6d 09 04 81 28   d..........m...(
|   2512: 01 01 70 01 18 46 7c 1f 14 0a 1b 2e 1c 2d 14 6b   ..p..F|......-.k
|   2528: 07 01 18 19 81 05 2e 28 40 11 2b 22 0b 07 18 01   .......(@.+.....
|   2544: 14 40 13 81 36 12 2d 7f 1f 1b 1a 01 12 82 76 1e   .@..6.-.......v.
|   2560: 1d 12 81 03 07 12 01 10 5a 81 38 19 36 52 26 18   ........Z.8.6R&.
|   2576: 01 12 64 5d 40 25 05 57 33 31 11 01 1e 36 36 25   ..d]@%.W31...66%
|   2592: 1b 28 07 22 42 13 0f 07 1c 5a 73 51 01 24 07 2d   .(..B....ZsQ.$.-
|   2608: 06 03 81 00 22 03 1d 19 18 26 2c 16 23 4f 76 08   .........&,.#Ov.
|   2624: 01 1c 11 1b 54 78 23 1a 81 13 75 04 0c 14 12 0c   ....Tx#...u.....
|   2640: 01 12 24 0d 81 4d 11 7f 22 35 2e 02 01 30 02 04   ..$..M...5...0..
|   2656: 83 5e 02 01 31 0a 04 81 47 03 05 e7 b2 a5 c3 9f   .^..1...G.......
|   2672: 04 04 83 16 02 01 35 08 02 35 02 02 36 79 09 04   ......5..5..6y..
|   2688: 82 24 02 01 37 01 04 81 30 03 02 6d 65 04 04 82   .$..7...0..me...
|   2704: 0e 02 02 38 63 06 02 41 03 02 c9 aa 06 04 84 5b   ...8c..A.......[
|   2720: 02 01 61 03 04 83 0b 03 04 84 4c 03 04 83 5f 03   ..a.......L..._.
|   2736: 01 6c 07 04 83 7f 02 01 63 04 04 84 7b 02 01 64   .l......c......d
|   2752: 04 04 83 5d 02 01 65 06 04 83 4c 03 01 74 08 04   ...]..e...L..t..
|   2768: 82 0b 02 01 68 03 02 06 03 04 71 e7 8e bb 08 04   ....h.....q.....
|   2784: 81 43 03 01 74 07 04 82 30 02 03 69 ce bc 07 04   .C..t...0..i....
|   2800: 81 3c 02 03 6a 62 6c 09 02 4b 02 01 6c 09 04 81   .<..jbl..K..l...
|   2816: 60 02 01 6d 05 04 82 6f 04 04 81 62 03 04 6c 74   `..m...o...b..lt
|   2832: c2 b9 07 04 85 08 03 02 c2 be 08 04 83 2b 02 02   .............+..
|   2848: 6e 73 08 04 81 1f 03 01 75 04 04 83 72 02 01 6f   ns......u...r..o
|   2864: 06 08 81 14 83 2f 03 02 ce bc 0a 04 83 67 03 03   ...../.......g..
|   2880: cf 80 66 07 02 28 02 01 70 01 04 82 2a 03 01 7a   ..f..(..p...*..z
|   2896: 08 04 81 0d 02 01 71 07 04 81 37 02 01 73 05 02   ......q...7..s..
|   2912: 59 03 01 6d 07 02 7a 02 01 74 05 04 82 62 02 02   Y..m..z..t...b..
|   2928: 75 6a 03 04 81 37 02 02 77 68 08 04 84 14 02 01   uj...7..wh......
|   2944: 78 01 04 83 6f 02 01 79 01 04 82 66 06 04 81 36   x...o..y...f...6
|   2960: 02 01 7a 0a 04 81 15 03 05 6f f0 99 8a a6 08 04   ..z......o......
|   2976: 82 06 02 02 c2 b2 04 04 83 38 03 03 b3 dd 9d 05   .........8......
|   2992: 04 83 6f 03 01 b9 06 04 83 66 03 01 ba 01 04 81   ..o......f......
|   3008: 0c 07 04 83 10 04 01 69 06 04 81 39 03 01 bd 04   .......i...9....
|   3024: 04 82 00 06 02 16 02 02 da 99 02 04 84 49 02 07   .............I..
|   3040: dd 9b 6e e6 89 a0 75 01 04 81 6e 02 09 f0 92 ab   ..n...u...n.....
|   3056: ab ec 8c 8d ca 81 01 04 81 46 01 01 71 01 1a 1a   .........F..q...
|   3072: 08 41 65 0b 22 18 69 2f 81 0e 13 05 01 18 08 2d   .Ae...i/.......-
|   3088: 07 04 81 70 23 18 20 1a 0c 74 01 16 1f 11 05 6b   ...p#. ..t.....k
|   3104: 2f 18 47 13 16 30 4c 01 22 12 05 2d 39 05 07 61   /.G..0L....-9..a
|   3120: 0b 06 0a 56 3f 56 2e 10 0d 50 01 16 1f 1f 3c 2b   ...V?V...P....<+
|   3136: 32 0c 43 4b 81 18 5a 01 18 16 0d 0e 32 40 42 1c   2.CK..Z.....2@B.
|   3152: 4a 24 12 17 13 01 20 03 6e 0e 1c 0f 04 0b 3b 05   J$.... .n.....;.
|   3168: 52 4e 0e 23 26 50 20 01 12 59 09 72 4f 47 44 15   RN.#&P ..Y.rOGD.
|   3184: 41 28 01 16 5e 36 24 0e 19 81 15 07 81 26 16 01   A(..^6$......&..
|   3200: 18 81 0e 0f 5e 81 01 04 04 1a 1a 44 50 02 02 31   ....^......DP..1
|   3216: 68 09 04 83 76 02 01 32 07 04 81 70 02 02 33 7a   h...v..2...p..3z
|   3232: 05 04 84 4a 02 01 34 08 04 81 02 03 01 69 08 04   ...J..4......i..
|   3248: 81 0b 03 01 76 02 04 81 62 02 01 37 04 04 81 78   ....v...b..7...x
|   3264: 05 04 82 51 01 02 15 02 03 38 75 77 06 04 82 1b   ...Q.....8uw....
|   3280: 02 01 39 04 02 20 03 04 84 03 03 01 74 03 04 81   ..9.. ......t...
|   3296: 60 02 01 61 04 02 24 01 04 83 63 02 01 62 09 02   `..a..$...c..b..
|   3312: 15 02 01 63 05 06 51 84 0e 03 03 c2 be 62 04 04   ...c..Q......b..
|   3328: 82 3d 02 02 64 70 03 04 83 36 02 01 66 06 04 82   .=..dp...6..f...
|   3344: 66 02 02 6a 38 02 04 84 0a 02 02 6d 61 05 04 81   f..j8......ma...
|   3360: 30 03 01 6e 08 04 83 71 02 01 6e 01 02 60 02 01   0..n...q..n..`..
|   3376: 70 02 04 82 43 02 01 71 05 06 82 48 49 02 01 73   p...C..q...HI..s
|   3392: 06 04 81 1f 02 01 74 09 04 81 70 02 01 75 05 04   ......t...p..u..
|   3408: 83 44 02 01 76 05 04 84 08 04 04 82 1d 02 01 77   .D..v..........w
|   3424: 09 02 69 02 02 78 69 08 04 82 79 02 01 7a 05 04   ..i..xi...y..z..
|   3440: 84 22 03 09 66 cf 9f 71 67 36 e2 b1 a5 02 04 81   ....f..qg6......
|   3456: 21 02 03 c2 aa 6a 01 04 81 12 03 01 b3 03 02 35   !....j.........5
|   3472: 02 04 84 1f 04 04 84 19 03 04 b9 d4 87 68 02 04   .............h..
|   3488: 81 42 03 01 ba 06 04 84 44 04 02 64 67 03 04 84   .B......D..dg...
|   3504: 4b 03 01 bc 04 04 81 42 03 01 be 01 02 48 02 02   K......B.....H..
|   3520: ce bc 0a 04 81 2e 02 02 cf a7 02 04 83 6e 02 04   .............n..
|   3536: e7 a4 ba 67 07 04 83 59 01 01 72 01 20 41 1d 3a   ...g...Y..r. A.:
|   3552: 0b 05 04 12 1f 3c 03 2f 81 05 81 2e 13 01 14 0c   .....<./........
|   3568: 81 3f 17 81 07 63 08 81 07 01 12 81 06 71 17 0b   .?...c.......q..
|   3584: 46 81 5a 13 01 18 02 81 06 0f 49 42 2d 39 2e 2c   F.Z.......IB-9.,
|   3600: 45 27 01 16 06 19 27 1d 3f 53 81 3a 45 0d 20 01   E'....'.?S.:E. .
|   3616: 14 1b 07 2a 76 37 36 09 82 4d 04 01 14 0c 30 2d   ...*v76..M....0-
|   3632: 2d 51 38 31 49 49 74 01 16 29 17 0a 2f 72 1d 4a   -Q81IIt..)../r.J
|   3648: 81 27 11 18 01 14 63 81 1c 5f 04 4d 38 19 18 0e   .'....c.._.M8...
|   3664: 01 1c 56 2f 25 5f 07 05 03 28 24 5d 2b 4d 42 13   ..V/%_...($]+MB.
|   3680: 02 02 30 71 01 04 84 03 02 01 33 08 04 83 16 01   ..0q......3.....
|   3696: 04 83 3d 02 01 35 03 02 58 02 01 37 04 04 83 0c   ..=..5..X..7....
|   3712: 03 01 64 04 04 84 46 02 02 38 61 0a 04 83 66 03   ..d...F..8a...f.
|   3728: 02 73 69 09 04 82 5f 02 01 39 09 04 84 17 02 02   .si..._..9......
|   3744: 61 6a 03 04 83 12 02 01 62 07 04 82 72 03 01 65   aj......b...r..e
|   3760: 09 04 83 14 04 01 68 07 04 82 24 6a 09 0d 07 07   ......h...$j....
|   3776: 06 07 07 07 07 06 07 07 08 07 0f 0d 0d 07 10 07   ................
|   3792: 07 07 08 0a 06 07 08 0a 06 09 0b 0c 08 10 0c 08   ................
|   3808: 0a 79 0b 0b 0b 06 07 07 0a 0b 0b 07 07 07 07 06   .y..............
|   3824: 07 07 08 09 07 09 10 07 07 07 0a 07 08 07 07 07   ................
|   3840: 07 0c 0d 07 0b 08 0a 0d 09 09 07 07 81 12 07 0b   ................
|   3856: 07 0b 07 07 08 06 0c 08 0b 07 07 0b 07 0b 07 07   ................
|   3872: 07 07 07 07 07 07 0b 09 0b 07 08 07 06 08 07 0b   ................
|   3888: 07 07 0c 07 09 08 09 08 08 09 09 81 11 07 0a 07   ................
|   3904: 07 08 07 07 07 0b 07 0b 07 08 06 0d 06 07 06 08   ................
|   3920: 07 07 07 0a 07 07 0a 08 0b 07 07 08 07 0a 09 0a   ................
|   3936: 0a 0a 81 22 06 08 06 07 07 07 07 09 07 07 08 0b   ................
|   3952: 0a 09 07 07 0a 07 07 0f 08 08 06 0a 09 09 07 07   ................
|   3968: 07 08 07 07 0b 0c 07 0f 08 08 07 0a 07 09 08 08   ................
|   3984: 0b 09 0b 0a 0b 81 0b 07 07 0b 06 08 07 08 07 08   ................
|   4000: 0f 07 07 07 07 07 06 0a 07 09 08 07 0b 0a 08 08   ................
|   4016: 07 09 08 08 07 07 07 06 06 07 08 08 07 0b 07 0b   ................
|   4032: 08 09 07 0b 07 0a 08 0d 0f 81 13 08 07 08 07 07   ................
|   4048: 07 0e 09 0a 07 0a 06 08 09 08 07 08 08 07 06 07   ................
|   4064: 08 07 07 07 0b 06 08 07 0f 09 0e 0a 07 08 07 06   ................
|   4080: 08 08 0a 81 08 08 0b 06 07 07 08 08 07 08 07 07   ................
| page 23 offset 90112
|      0: 0d 00 00 00 01 00 22 00 00 22 00 00 00 00 00 00   ................
|     32: 00 00 9f 56 88 80 80 80 80 04 04 00 bf 30 00 00   ...V.........0..
|     48: 0e 8c 03 30 72 64 04 04 81 24 02 01 66 06 04 81   ...0rd...$..f...
|     64: 05 02 04 81 0f 03 01 70 0a 04 82 45 02 01 67 01   .......p...E..g.
|     80: 04 84 1a 02 04 81 03 07 04 82 13 02 01 68 05 04   .............h..
|     96: 83 1d 02 01 6a 02 04 83 03 02 06 82 26 39 03 01   ....j.......&9..
|    112: 67 01 04 81 0a 02 02 6c 70 09 02 48 03 03 c9 be   g......lp..H....
|    128: 6e 05 04 83 58 02 01 6e 07 04 83 10 03 02 30 6d   n...X..n......0m
|    144: 07 04 84 20 02 03 6f d2 b1 09 04 84 43 02 01 70   ... ..o.....C..p
|    160: 07 02 24 01 02 7d 02 01 71 07 04 83 2f 03 04 81   ..$.....q.../...
|    176: 18 03 01 62 08 04 82 39 02 02 72 75 0a 04 81 24   ...b...9..ru...$
|    192: 02 01 75 02 04 81 4e 05 04 83 3d 02 01 76 03 02   ..u...N...=..v..
|    208: 64 03 02 6b 6c 08 04 82 2f 02 01 78 05 04 84 66   d..kl.../..x...f
|    224: 02 02 79 36 02 02 39 02 02 c2 b2 04 04 84 7c 04   ..y6..9.......|.
|    240: 02 dd ab 09 04 83 71 03 02 b3 31 09 04 82 33 03   ......q...1...3.
|    256: 01 bc 04 02 6e 03 01 bd 07 04 85 09 04 01 75 07   ....n.........u.
|    272: 02 0e 02 02 ce bc 07 02 6b 02 02 d1 9e 0a 04 84   ........k.......
|    288: 51 02 03 d5 b1 36 09 02 1e 02 04 e4 8d ac 38 01   Q....6........8.
|    304: 02 61 02 04 f0 96 85 81 09 04 83 5e 03 03 9a 87   .a.........^....
|    320: 8d 05 04 83 51 01 01 73 01 30 0f 1c 12 09 29 0d   ....Q..s.0....).
|    336: 07 2e 81 01 11 2a 22 1d 04 2e 0f 08 04 23 29 0b   .....*.......#).
|    352: 3b 15 01 16 2f 2f 81 20 81 07 13 56 26 3b 25 01   ;...//. ...V&;%.
|    368: 28 49 03 0a 61 04 08 2e 03 22 10 38 34 0c 09 29   (I..a......84..)
|    384: 0c 0c 34 28 0b 01 1e 0f 3c 5b 13 0a 34 11 5a 73   ..4(....<[..4.Zs
|    400: 1e 22 03 1a 54 03 01 22 08 06 3c 41 06 2c 2b 16   ....T.....<A.,+.
|    416: 10 58 52 08 0e 17 41 33 26 01 20 28 39 0b 0b 1e   .XR...A3&. (9...
|    432: 18 55 16 1e 73 29 0a 26 36 06 06 01 20 0f 04 30   .U..s).&6... ..0
|    448: 0e 5e 2f 21 23 78 1a 0c 25 81 1c 06 12 01 20 81   .^/!#x..%..... .
|    464: 06 32 08 19 30 23 30 04 6f 29 10 3d 0b 36 07 01   .2..0#0.o).=.6..
|    480: 10 0a 54 61 23 09 1e 22 11 01 16 06 14 0a 55 4a   ..Ta#.........UJ
|    496: 1e 63 2f 6c 7e 10 02 01 32 03 02 27 03 02 76 6c   .c/l~...2..'..vl
|    512: 0a 02 44 02 01 33 03 04 82 2d 07 08 81 07 82 6b   ..D..3...-.....k
|    528: 02 01 39 08 02 0a 02 01 61 04 02 33 02 01 62 08   ..9.....a..3..b.
|    544: 04 84 5b 02 01 63 04 04 84 22 06 02 5c 03 01 74   ..[..c.........t
|    560: 07 04 84 41 02 02 64 66 09 04 81 38 02 01 66 05   ...A..df...8..f.
|    576: 04 83 5a 03 04 83 22 02 02 0f 02 02 68 6d 06 04   ..Z.........hm..
|    592: 84 31 02 01 69 09 04 83 22 03 01 6e 04 04 81 00   .1..i......n....
|    608: 02 01 6a 05 04 83 17 01 04 84 5e 03 01 66 04 02   ..j.......^..f..
|    624: 1d 02 01 6b 08 04 82 6d 02 01 6d 09 02 2f 01 02   ...k...m..m../..
|    640: 02 02 01 6e 09 04 82 5d 02 01 6f 01 04 81 00 01   ...n...]..o.....
|    656: 04 84 46 02 01 70 04 04 82 6c 02 01 71 06 04 82   ..F..p...l..q...
|    672: 70 02 01 79 0a 04 82 79 02 02 c2 aa 07 04 82 08   p..y...y........
|    688: 03 04 83 37 03 01 b2 0a 04 81 43 03 01 b3 09 04   ...7......C.....
|    704: 84 58 03 01 ba 07 04 84 2b 03 01 bc 05 04 83 55   .X......+......U
|    720: 04 02 c2 b2 01 04 82 3b 02 03 c9 be 63 04 04 83   .......;....c...
|    736: 2a 02 02 ce bc 04 04 84 2e 02 02 d3 ad 0a 02 62   *..............b
|    752: 02 04 f2 b0 9a a2 08 04 83 11 01 01 74 01 1c 2e   ............t...
|    768: 03 12 0d 4e 81 40 06 81 00 4a 32 17 0e 01 1e 0b   ...N.@...J2.....
|    784: 15 5e 0f 71 12 46 1d 05 1c 05 35 39 36 17 01 1a   .^.q.F....596...
|    800: 05 81 19 09 6f 0f 06 1a 28 0c 4a 4c 5c 01 1a 16   ....o...(.JL....
|    816: 16 15 81 46 69 35 21 2b 05 14 81 08 01 16 0d 1d   ...Fi5!+........
|    832: 30 47 04 5d 40 10 51 81 05 01 16 31 7a 71 7d 21   0G.]@.Q....1zq.!
|    848: 29 1d 21 0b 3d 04 01 1a 39 1b 74 3f 48 23 23 0b   ).!.=...9.t?H##.
|    864: 05 34 21 19 50 01 0e 81 31 33 5b 43 76 6c 01 1a   .4!.P...13[Cvl..
|    880: 7b 4c 11 15 12 0e 06 12 1b 1a 81 1a 4f 01 1e 17   .L..........O...
|    896: 08 1d 1c 7e 27 0e 81 19 2a 04 0d 49 22 31 02 01   ...~'...*..I.1..
|    912: 31 08 04 83 34 02 01 35 03 04 83 10 02 01 39 0a   1...4..5......9.
|    928: 02 72 03 05 7a ec ab b1 66 06 04 82 62 02 02 61   .r..z...f...b..a
|    944: 70 05 04 83 28 02 01 62 09 02 6d 02 01 63 0a 04   p...(..b..m..c..
|    960: 81 64 03 04 76 32 35 6e 09 02 23 02 01 64 02 04   .d..v25n..#..d..
|    976: 84 4e 03 01 66 08 04 81 38 02 01 65 03 04 81 50   .N..f...8..e...P
|    992: 01 04 81 41 02 04 81 17 02 01 66 02 02 5d 02 04   ...A......f..]..
|   1008: 84 75 06 04 83 64 03 01 34 03 02 4b 02 01 67 06   .u...d..4..K..g.
|   1024: 04 83 56 02 04 83 3a 02 01 68 04 04 81 26 05 04   ..V...:..h...&..
|   1040: 83 3f 02 01 69 01 04 81 65 09 02 0c 02 06 6a 62   .?..i...e.....jb
|   1056: c2 aa 6e 6a 08 04 82 27 03 02 c2 bd 02 02 21 02   ..nj...'......!.
|   1072: 01 6b 07 02 17 03 01 39 02 02 30 02 03 6d 6b 79   .k.....9..0..mky
|   1088: 05 04 84 4e 02 01 6e 04 02 2e 02 03 72 c2 bd 07   ...N..n.....r...
|   1104: 02 32 02 01 74 08 04 83 5b 01 04 82 71 02 01 75   .2..t...[...q..u
|   1120: 01 02 4f 08 02 79 03 01 78 07 04 82 29 02 02 76   ..O..y..x...)..v
|   1136: 61 0a 04 83 1a 02 01 77 01 04 83 54 02 04 83 7e   a......w...T...~
|   1152: 07 04 83 32 02 01 78 05 04 83 25 03 04 83 2f 02   ...2..x...%.../.
|   1168: 01 7a 08 04 83 07 02 02 c2 b9 02 04 83 0b 04 04   .z..............
|   1184: 83 7e 04 02 6e 31 0a 04 82 1c 04 01 75 03 02 42   .~..n1......u..B
|   1200: 03 01 bc 0a 04 81 39 03 01 bd 07 04 83 20 02 03   ......9...... ..
|   1216: c6 83 67 04 04 84 19 02 02 c7 a3 06 04 82 7f 02   ..g.............
|   1232: 03 d3 86 34 07 04 81 6c 02 02 d6 84 08 02 40 02   ...4...l......@.
|   1248: 03 da 8f 39 01 04 84 51 02 04 ec a2 9b 6b 03 04   ...9...Q.....k..
|   1264: 81 2d 01 01 75 01 22 28 0f 43 09 31 1b 09 10 3f   .-..u..(.C.1...?
|   1280: 23 08 75 5d 08 48 07 11 01 1c 54 1a 11 1c 2d 0c   #.u].H....T...-.
|   1296: 30 0b 28 08 12 20 81 34 01 1a 3b 1c 10 40 81 5c   0.(.. .4..;..@..
|   1312: 04 1a 05 16 81 0d 18 01 18 3e 03 5e 62 74 47 37   .........>.^btG7
|   1328: 20 3d 07 20 0e 01 1e 10 69 42 48 08 04 08 56 08    =. ....iBH...V.
|   1344: 66 21 10 07 1a 34 01 18 1f 28 31 41 81 06 36 19   f!...4...(1A..6.
|   1360: 53 0d 0f 0c 01 1c 16 0a 0e 04 52 17 22 48 7b 43   S.........R..H.C
|   1376: 3e 04 47 44 01 1e 25 4b 0b 30 2c 0a 0c 6b 71 15   >.GD..%K.0,..kq.
|   1392: 03 4c 19 0f 16 01 22 2b 13 28 1d 24 4c 0f 46 0f   .L.....+.(.$L.F.
|   1408: 2f 0b 1c 03 0e 4a 4a 33 01 10 19 29 81 24 0a 82   /....JJ3...).$..
|   1424: 0c 46 02 01 30 05 04 82 5d 02 01 32 07 04 83 1f   .F..0...]..2....
|   1440: 02 02 33 6c 06 04 84 6f 02 01 35 08 02 33 02 06   ..3l...o..5..3..
|   1456: 37 6e 66 ef 98 bd 06 04 81 35 02 02 61 76 03 06   7nf......5..av..
|   1472: 82 12 73 02 01 63 02 02 57 02 04 83 09 03 01 69   ..s..c..W......i
|   1488: 05 02 66 02 01 64 06 04 81 01 02 01 65 06 02 3b   ..f..d......e..;
|   1504: 03 01 71 01 04 83 6c 02 01 66 01 04 84 7c 01 04   ..q...l..f...|..
|   1520: 83 5c 03 03 69 c2 b2 08 04 84 74 03 03 73 c2 bd   ....i.....t..s..
|   1536: 03 04 84 0a 02 01 67 06 08 82 1d 82 56 04 04 81   ......g.....V...
|   1552: 33 02 01 68 09 02 51 02 01 69 0a 02 08 02 01 6a   3..h..Q..i.....j
|   1568: 06 02 6c 03 01 6e 0a 04 81 2c 02 01 6c 08 04 83   ..l..n...,..l...
|   1584: 15 02 01 6d 04 04 84 24 03 01 33 01 04 81 3a 03   ...m...$..3...:.
|   1600: 03 6e c2 b9 07 04 81 6b 02 01 6f 06 04 83 28 02   .n.....k..o...(.
|   1616: 03 70 77 71 0a 04 81 2a 02 01 71 0a 04 84 34 02   .pwq...*..q...4.
|   1632: 01 73 05 04 81 7f 03 02 6a 73 01 04 83 08 02 01   .s......js......
|   1648: 74 02 04 81 60 01 04 83 5e 06 04 82 37 02 01 76   t...`...^...7..v
|   1664: 08 04 81 2d 02 01 77 01 04 82 12 01 02 46 02 03   ...-..w......F..
|   1680: 78 73 66 04 02 37 03 02 7a 62 02 04 83 1a 02 01   xsf..7..zb......
|   1696: 79 04 02 1a 03 04 84 2a 02 04 84 22 02 01 7a 05   y......*......z.
|   1712: 04 83 4d 02 02 c2 b2 09 04 83 04 03 01 b9 04 04   ..M.............
|   1728: 82 3e 03 02 bd 6c 07 04 84 06 03 02 be 73 0a 04   .>...l.......s..
|   1744: 83 5b 02 06 c9 82 71 c6 9a 61 05 02 7a 03 04 89   .[....q..a..z...
|   1760: e3 a1 be 04 04 83 05 02 04 ca aa 33 67 04 04 84   ...........3g...
|   1776: 61 02 03 d6 83 6b 08 04 81 77 02 02 da b0 0a 02   a....k...w......
|   1792: 32 03 01 b6 0a 02 13 02 03 e3 9a bb 04 04 84 42   2..............B
|   1808: 02 04 f0 b6 8e b7 06 04 83 5a 01 01 76 01 1a 7f   .........Z..v...
|   1824: 38 16 7c 3b 26 23 08 05 47 1c 19 20 01 1c 28 45   8.|;&#..G.. ..(E
|   1840: 20 0a 81 0a 45 15 44 05 03 1d 26 44 01 10 0c 3e    ...E.D...&D...>
|   1856: 26 3c 6d 82 43 04 01 1c 04 15 3a 56 62 39 16 03   &<m.C.....:Vb9..
|   1872: 30 52 24 0a 6f 14 01 16 20 81 3c 2a 53 0d 22 0f   0R$.o... .<*S...
|   1888: 29 1a 0a 01 1c 11 14 18 16 47 81 1f 54 04 0d 08   )........G..T...
|   1904: 4f 25 52 01 18 12 39 44 0f 39 3a 35 0d 81 63 39   O%R...9D.9:5..c9
|   1920: 24 01 18 1a 0b 19 5b 81 03 0a 3a 55 09 7c 41 01   $.....[...:U.|A.
|   1936: 16 18 4e 44 60 81 03 30 5a 04 21 34 01 18 50 17   ..ND`..0Z.!4..P.
|   1952: 12 0a 12 42 36 1b 34 11 2c 0b 02 01 32 01 04 84   ...B6.4.,...2...
|   1968: 0e 02 01 33 08 02 02 02 01 61 0a 08 81 63 82 5b   ...3.....a...c.[
|   1984: 02 01 62 03 02 3f 01 04 81 01 03 01 32 07 04 83   ..b..?......2...
|   2000: 02 02 02 64 38 07 04 84 72 03 01 64 07 04 81 02   ...d8...r..d....
|   2016: 02 01 65 04 04 81 0c 02 02 66 39 04 04 82 65 02   ..e......f9...e.
|   2032: 01 67 02 04 83 16 02 01 69 04 02 42 02 04 84 7d   .g......i..B....
|   2048: 04 02 12 02 01 6a 01 02 57 06 04 81 30 02 01 6b   .....j..W...0..k
|   2064: 03 04 84 22 03 02 61 6d 04 02 5b 02 01 6c 03 02   ......am..[..l..
|   2080: 04 03 04 81 45 02 01 6d 06 04 82 68 03 02 31 70   ....E..m...h..1p
|   2096: 03 04 83 7d 03 01 65 01 04 82 70 02 01 6e 05 04   ......e...p..n..
|   2112: 82 17 02 04 84 51 01 04 83 44 02 04 83 46 03 04   .....Q...D...F..
|   2128: 77 78 71 71 04 04 84 0c 03 02 d9 a0 03 04 83 54   wxqq...........T
|   2144: 02 03 6f d3 a1 08 02 06 02 02 70 72 07 04 84 71   ..o.......pr...q
|   2160: 02 02 72 69 06 04 84 55 02 01 74 03 04 82 54 02   ..ri...U..t...T.
|   2176: 03 77 6d 79 09 04 84 3e 02 04 78 71 67 32 08 04   .wmy...>..xqg2..
|   2192: 84 72 03 02 76 76 01 04 82 1f 02 03 79 75 6f 04   .r..vv......yuo.
|   2208: 04 84 77 03 04 f6 84 93 a8 05 04 83 6c 02 01 7a   ..w.........l..z
|   2224: 02 02 7c 02 04 83 21 05 04 83 07 02 02 c2 aa 01   ..|...!.........
|   2240: 04 81 2f 03 01 bc 0a 04 81 65 02 02 c3 be 01 04   ../......e......
|   2256: 82 04 02 02 df 94 07 04 82 5f 02 04 ea 80 84 6e   ........._.....n
|   2272: 04 04 84 73 03 03 84 b1 75 06 04 84 56 02 03 ef   ...s....u...V...
|   2288: 89 9e 07 04 83 7b 02 04 f0 92 ab 9a 0a 04 84 60   ...............`
|   2304: 01 01 77 01 18 49 1d 46 47 07 65 21 05 81 13 1a   ..w..I.FG.e!....
|   2320: 06 01 16 81 7e 5a 26 1b 12 05 0f 44 03 57 01 16   ....~Z&....D.W..
|   2336: 14 4d 31 81 0d 2c 2a 07 03 81 2c 01 14 23 0a 2a   .M1..,*...,..#.*
|   2352: 66 18 65 76 21 5a 5f 01 14 14 81 4c 11 10 24 81   f.ev!Z_....L..$.
|   2368: 49 48 28 01 16 7b 0a 4c 08 10 22 81 2d 03 69 38   IH(....L....-.i8
|   2384: 01 0e 3c 6e 1f 81 6a 2a 16 01 1a 3b 81 25 0d 28   ..<n..j*...;.%.(
|   2400: 0b 1a 0f 3f 24 38 04 25 01 20 31 2a 1d 5c 11 2f   ...?$8.%. 1*.../
|   2416: 05 33 28 0a 48 08 04 3d 11 45 01 18 3a 1b 1c 4c   .3(.H..=.E..:..L
|   2432: 14 63 08 05 73 81 1b 20 02 01 30 02 04 83 52 03   .c..s.. ..0...R.
|   2448: 02 c2 bd 01 04 83 73 02 02 31 6d 04 04 83 22 02   ......s..1m.....
|   2464: 01 32 05 04 82 4f 05 04 82 34 03 02 d4 87 0a 04   .2...O...4......
|   2480: 83 62 02 01 34 09 04 83 79 03 01 64 02 04 81 63   .b..4...y..d...c
|   2496: 03 02 c2 b2 03 04 82 34 02 01 37 06 04 83 19 04   .......4..7.....
|   2512: 04 82 31 02 01 38 09 04 81 1c 02 01 39 05 04 84   ..1..8......9...
|   2528: 07 03 04 82 56 02 01 61 01 04 81 1f 01 04 81 7d   ....V..a........
|   2544: 03 04 75 68 c2 be 02 04 81 2d 02 01 62 0a 04 83   ..uh.....-..b...
|   2560: 65 02 01 63 02 04 84 2c 03 01 6b 0a 04 84 58 02   e..c...,..k...X.
|   2576: 01 65 09 04 81 3e 03 01 64 03 04 83 2e 02 01 69   .e...>..d......i
|   2592: 06 04 83 60 03 01 35 0a 04 82 3d 02 01 6b 09 04   ...`..5...=..k..
|   2608: 83 34 03 01 70 05 04 81 6e 02 01 6c 09 04 83 28   .4..p...n..l...(
|   2624: 02 01 6d 04 04 82 6f 04 04 83 09 01 04 84 48 02   ..m...o.......H.
|   2640: 04 6e 79 68 31 03 04 83 4d 02 01 6f 03 02 2d 03   .nyh1...M..o..-.
|   2656: 01 6e 09 02 61 02 01 70 04 04 82 67 02 03 71 63   .n..a..p...g..qc
|   2672: 79 09 04 81 0b 03 02 c2 bc 0a 02 30 02 01 72 08   y..........0..r.
|   2688: 02 5e 02 01 73 08 04 81 07 02 01 75 05 02 6c 05   .^..s......u..l.
|   2704: 04 84 56 02 01 76 08 04 81 01 02 01 78 05 04 84   ..V..v......x...
|   2720: 61 02 04 84 6c 02 01 7a 0a 04 83 2e 02 02 c2 ba   a...l..z........
|   2736: 04 04 81 39 03 01 bc 01 04 83 23 02 02 c9 a8 03   ...9......#.....
|   2752: 04 83 38 02 04 ce bc 62 68 02 04 82 25 02 02 d4   ..8....bh...%...
|   2768: 85 08 04 82 2d 02 02 db 91 09 04 84 29 01 01 78   ....-.......)..x
|   2784: 01 0a 27 82 4d 5c 23 01 1c 11 62 38 15 17 67 05   ..'.M.#...b8..g.
|   2800: 3e 05 33 1b 29 1c 26 01 16 0d 81 33 0c 0c 09 61   >.3.).&....3...a
|   2816: 4e 1a 54 47 01 18 22 43 09 60 11 2a 08 1b 81 30   N.TG...C.`.*...0
|   2832: 27 44 01 24 2d 06 1c 19 2a 5e 22 24 04 2a 5c 0b   'D.$-...*^.$.*..
|   2848: 42 0d 0f 37 06 2d 01 1a 4c 28 2d 47 14 46 18 45   B..7.-..L(-G.F.E
|   2864: 0e 2c 04 81 1a 01 14 1d 33 75 70 62 32 75 26 2d   .,......3upb2u&-
|   2880: 08 01 18 41 0b 0a 0c 1f 17 27 61 81 37 3b 21 01   ...A.....'a.7;!.
|   2896: 1e 39 12 0e 1b 17 17 08 4c 04 81 18 0a 81 12 1a   .9......L.......
|   2912: 01 22 0d 11 30 32 1f 5d 31 08 1e 2e 23 3b 03 49   ....02.]1...#;.I
|   2928: 05 6d 03 02 01 30 01 04 81 47 04 02 22 03 02 65   .m...0...G.....e
|   2944: 77 0a 04 82 16 02 01 32 04 08 81 55 81 2e 01 06   w......2...U....
|   2960: 57 3a 73 02 01 36 0a 02 4f 03 01 7a 04 04 81 27   W:s..6..O..z...'
|   2976: 02 01 61 05 04 82 21 02 01 62 01 02 7e 02 01 63   ..a...!..b..~..c
|   2992: 05 04 81 0c 03 02 c2 b3 08 04 81 24 02 01 65 05   ...........$..e.
|   3008: 04 84 5e 01 04 81 04 01 04 82 3e 01 04 83 46 02   ..^.......>...F.
|   3024: 01 67 02 04 84 09 02 01 68 01 04 83 04 02 01 69   .g......h......i
|   3040: 04 04 82 31 04 04 82 5a 02 01 6a 01 04 81 21 02   ...1...Z..j...!.
|   3056: 01 6b 08 04 83 5e 03 02 68 7a 0a 04 84 67 03 04   .k...^..hz...g..
|   3072: 77 78 64 6f 04 04 81 4c 02 01 6d 04 04 83 03 03   wxdo...L..m.....
|   3088: 01 37 01 04 83 75 03 01 67 07 04 82 04 02 01 6e   .7...u..g......n
|   3104: 06 02 2c 04 04 83 52 02 01 6f 05 04 81 14 02 03   ..,...R..o......
|   3120: 70 6d 73 08 04 83 68 02 01 71 06 04 84 7c 02 01   pms...h..q...|..
|   3136: 72 02 04 84 20 03 04 83 33 01 04 82 13 02 04 82   r... ...3.......
|   3152: 17 03 01 69 04 04 81 1c 03 01 76 04 04 84 71 02   ...i......v...q.
|   3168: 01 73 04 04 82 53 02 01 75 01 04 81 3b 05 04 82   .s...S..u...;...
|   3184: 2a 02 01 77 03 04 82 4f 02 01 79 02 02 60 02 01   *..w...O..y..`..
|   3200: 7a 08 04 81 34 02 04 c2 aa 6b 61 04 04 82 7b 02   z...4....ka.....
|   3216: 02 c6 b4 0a 04 81 02 02 02 ca 83 03 02 5a 02 02   .............Z..
|   3232: d4 ae 04 04 81 45 02 02 d7 bb 0a 04 83 78 02 02   .....E.......x..
|   3248: dc 96 06 04 82 1f 02 02 df 95 05 04 82 11 02 03   ................
|   3264: ea b7 a6 07 04 83 6e 02 04 f0 93 a0 b9 06 04 82   ......n.........
|   3280: 6c 02 05 f5 af 82 82 73 07 02 41 01 01 79 01 1e   l......s..A..y..
|   3296: 07 21 30 08 81 04 17 25 0a 0c 81 17 27 81 25 01   .!0....%....'.%.
|   3312: 1a 03 5d 21 81 16 07 3f 27 16 3f 14 08 18 01 12   ..]!...?'.?.....
|   3328: 68 4f 0e 25 34 3a 3d 81 16 01 12 09 81 0a 3c 72   hO.%4:=.......<r
|   3344: 31 81 40 48 01 1c 5e 14 34 31 81 1b 10 51 25 3f   1.@H..^.41...Q%?
|   3360: 18 1e 0c 0e 01 12 6a 81 2f 30 7c 08 7f 09 24 01   ......j./0|...$.
|   3376: 12 5a 81 55 12 41 39 33 6c 0c 01 1c 81 30 1c 26   .Z.U.A93l....0.&
|   3392: 08 5d 11 2f 09 6b 0f 15 19 3d 01 14 04 71 81 17   .]./.k...=...q..
|   3408: 0c 04 16 50 7e 61 01 12 82 5d 0d 3c 81 01 06 16   ...P~a...].<....
|   3424: 32 02 01 31 06 04 85 00 02 01 34 01 02 06 03 04   2..1......4.....
|   3440: 81 52 02 04 84 37 02 01 35 0a 04 81 4b 02 01 62   .R...7..5...K..b
|   3456: 01 04 82 49 06 04 82 36 02 01 65 04 02 71 02 01   ...I...6..e..q..
|   3472: 66 04 04 1c 2b 02 04 82 29 02 05 69 62 c2 bc 70   f...+...)..ib..p
|   3488: 08 04 84 46 02 01 6d 02 04 81 4b 08 04 83 56 03   ...F..m...K...V.
|   3504: 01 6d 06 04 81 2c 03 02 74 67 03 04 81 5c 02 01   .m...,..tg......
|   3520: 6f 0a 04 81 5b 02 01 71 01 04 81 08 02 04 84 0c   o...[..q........
|   3536: 07 04 81 5c 03 01 7a 05 04 81 77 02 01 73 01 02   ......z...w..s..
|   3552: 12 03 02 32 70 09 04 81 44 03 01 6f 0a 04 84 17   ...2p...D..o....
|   3568: 03 03 c2 b9 76 04 04 81 50 02 01 74 01 04 82 3f   ....v...P..t...?
|   3584: 05 04 82 5a 02 01 76 09 02 54 01 04 83 5f 02 01   ...Z..v..T..._..
|   3600: 77 07 02 3d 02 01 78 03 04 83 0e 03 04 83 73 02   w..=..x.......s.
|   3616: 02 08 02 01 79 04 04 84 68 02 02 c2 ba 02 04 84   ....y...h.......
|   3632: 3e 03 01 bd 02 08 81 06 82 6e 04 01 74 04 04 84   >........n..t...
|   3648: 17 02 03 c5 a7 33 0a 04 84 55 02 02 c7 9d 04 04   .....3...U......
|   3664: 81 60 02 08 ca 81 30 68 f0 90 90 b2 09 04 84 2e   .`....0h........
|   3680: 03 01 b5 02 04 82 33 02 03 d1 9e 6c 02 04 81 1a   ......3....l....
|   3696: 02 02 d4 93 04 04 81 05 02 02 d8 ab 03 04 82 49   ...............I
|   3712: 03 02 b8 73 01 04 84 1d 02 03 e2 af 9d 07 02 4d   ...s...........M
|   3728: 02 03 ec 8f ad 03 04 84 47 01 01 7a 01 22 1d 42   ........G..z...B
|   3744: 10 5f 1b 08 63 1e 07 0a 30 07 0b 26 31 61 07 01   ._..c...0..&1a..
|   3760: 1c 0a 37 29 0a 68 40 38 0a 4a 04 08 0b 07 0f 07   ..7).h@8.J......
|   3776: 0c 07 07 09 07 08 09 09 0b 07 08 0b 06 08 07 07   ................
|   3792: 08 08 08 06 07 06 07 08 08 09 0a 09 81 31 06 07   .............1..
|   3808: 0d 06 06 07 0a 07 08 0e 08 07 07 0b 06 07 09 07   ................
|   3824: 0b 07 07 07 0c 07 07 07 07 08 09 08 07 0a 81 14   ................
|   3840: 07 07 06 0b 08 06 07 09 07 07 0f 0e 06 0b 0b 0a   ................
|   3856: 0c 07 06 06 09 06 08 0b 09 07 08 0f 0b 07 0c 08   ................
|   3872: 06 07 07 09 08 09 07 09 0a 81 20 07 07 08 06 0c   .......... .....
|   3888: 09 0a 06 07 06 07 0b 09 09 0d 06 06 06 07 07 07   ................
|   3904: 07 09 07 09 07 07 08 0f 07 0a 08 08 0e 07 08 07   ................
|   3920: 08 08 0b 0a 0a 09 07 06 09 0a 81 10 07 06 09 0a   ................
|   3936: 07 08 07 07 08 07 0d 0a 07 07 0a 07 08 07 13 0a   ................
|   3952: 08 08 08 08 07 09 0a 08 09 0a 0e 08 07 08 08 0a   ................
|   3968: 09 09 0a 81 08 07 08 08 0b 08 07 07 08 0b 07 0b   ................
|   3984: 0b 0a 07 07 07 07 07 07 07 07 07 07 0f 0a 06 06   ................
|   4000: 07 09 07 06 07 0a 07 0b 07 08 07 08 0a 08 08 81   ................
|   4016: 16 0a 08 0e 06 07 07 06 07 08 13 07 07 0b 07 07   ................
|   4032: 08 0a 07 07 07 0a 07 09 07 13 07 07 07 0b 07 06   ................
|   4048: 07 0a 08 07 08 08 08 08 09 0a 0a 81 06 07 0e 07   ................
|   4064: 0b 06 0b 0b 0b 07 08 07 0f 07 06 08 07 09 0b 0a   ................
|   4080: 06 0e 07 08 09 07 09 08 0e 07 09 08 08 08 08 09   ................
| page 24 offset 94208
|      0: 0d 00 00 00 01 00 28 00 00 28 00 00 00 00 00 00   ......(..(......
|     32: 00 00 00 00 00 00 00 00 9f 50 88 80 80 80 80 05   .........P......
|     48: 04 00 bf 24 00 09 0e 5b 14 06 1c 0d 12 03 18 37   ...$...[.......7
|     64: 1f 05 55 32 10 15 5a 81 07 4b 04 01 16 07 0e 5f   ..U2..Z..K....._
|     80: 0b 46 0b 22 81 41 24 23 01 28 2a 07 11 09 15 0b   .F...A$#.(*.....
|     96: 0f 0c 09 0a 1e 05 1f 5e 07 19 1c 1e 33 3e 01 18   .......^....3>..
|    112: 26 0c 1b 43 08 38 11 05 81 1b 5f 20 01 1e 06 1c   &..C.8...._ ....
|    128: 36 27 33 20 53 4f 06 03 1a 2f 2c 40 6d 01 18 72   6'3 SO.../,@m..r
|    144: 81 0d 20 3a 23 05 34 19 23 2b 36 01 12 2c 4d 0c   .. :#.4.#+6..,M.
|    160: 59 82 04 46 40 0f 01 1a 28 15 32 33 2e 52 0f 49   Y..F@...(.23.R.I
|    176: 04 09 81 33 26 03 30 7a 34 01 04 82 05 02 01 36   ...3&.0z4......6
|    192: 06 04 81 5a 02 04 37 ce bc 74 09 04 81 17 02 01   ...Z..7..t......
|    208: 38 01 04 83 79 03 03 dd 9a 73 02 04 84 12 02 01   8...y....s......
|    224: 61 04 04 82 1c 02 01 62 01 04 83 4e 07 04 82 5b   a......b...N...[
|    240: 02 01 63 0a 02 4e 02 01 64 04 04 84 7d 02 01 65   ..c..N..d......e
|    256: 01 04 84 2a 02 01 67 01 04 81 75 02 04 68 d0 bf   ...*..g...u..h..
|    272: 70 09 04 81 4a 02 01 69 01 04 84 34 05 04 82 48   p...J..i...4...H
|    288: 02 01 6a 02 02 1d 04 04 81 54 02 01 6b 03 04 81   ..j......T..k...
|    304: 0d 02 01 6c 09 04 83 54 02 01 6e 06 02 0b 01 04   ...l...T..n.....
|    320: 84 1c 02 01 6f 0a 02 26 03 01 6a 08 04 82 26 03   ....o..&..j...&.
|    336: 05 73 75 c2 bd 61 03 02 38 02 02 70 37 06 04 81   .su..a..8..p7...
|    352: 7e 02 01 71 01 04 83 67 03 01 65 06 04 84 08 02   ~..q...g..e.....
|    368: 01 72 0a 04 82 1e 02 01 74 01 04 82 6c 02 02 5d   .r......t...l..]
|    384: 04 04 84 17 03 04 82 77 02 01 75 04 08 82 22 82   .......w..u.....
|    400: 0b 02 02 76 6c 03 04 83 25 02 01 77 03 04 81 24   ...vl...%..w...$
|    416: 03 04 82 42 02 01 78 06 04 82 4a 03 02 c2 b2 02   ...B..x...J.....
|    432: 04 83 21 02 01 79 09 04 83 43 02 01 7a 04 02 51   ..!..y...C..z..Q
|    448: 02 02 c2 aa 02 02 51 03 01 b3 09 04 81 2a 03 01   ......Q......*..
|    464: b9 06 04 82 73 03 02 bd 73 04 02 4e 04 05 76 c2   ....s...s..N..v.
|    480: be 67 65 08 02 1d 04 03 78 de bc 02 04 83 6d 04   .ge.....x.....m.
|    496: 01 7a 09 04 84 1d 02 04 ca a2 36 32 07 04 83 2e   .z........62....
|    512: 02 02 d8 aa 04 04 84 31 02 02 df 8a 02 02 73 01   .......1......s.
|    528: 02 c2 aa 01 08 81 7f 82 01 01 06 56 83 70 02 06   ...........V.p..
|    544: 74 82 6d 01 06 81 5d 45 01 04 82 7b 01 0c 81 46   t.m...]E.......F
|    560: 13 6a 82 12 01 0c 82 24 63 15 35 74 01 12 81 14   .j.....$c.5t....
|    576: 81 24 1f 3d 7c 15 1c 01 0a 82 39 1a 81 6f 03 02   .$.=|.....9..o..
|    592: 30 65 07 04 83 3a 03 01 63 03 04 81 7d 03 01 65   0e...:..c......e
|    608: 09 02 03 03 01 66 01 02 6c 04 02 66 7a 03 04 82   .....f..l..fz...
|    624: 1c 03 01 6b 0a 04 82 46 03 01 7a 08 04 84 2d 03   ...k...F..z...-.
|    640: 03 c2 bd 73 0a 04 81 10 05 02 c2 bc 03 02 03 04   ...s............
|    656: 01 be 02 04 84 35 03 04 f0 9f ad ae 08 04 83 41   .....5.........A
|    672: 02 01 b2 01 0a 3e 77 21 82 5f 01 08 81 74 82 68   .....>w!._...t.h
|    688: 01 0e 39 81 0c 81 4b 1c 4e 01 0e 83 46 06 3b 1d   ..9...K.N...F.;.
|    704: 0e 38 01 0e 81 50 15 81 53 35 57 01 08 82 7d 26   .8...P..S5W....&
|    720: 1c 01 04 2f 0e 01 08 66 5d 83 24 01 0e 43 81 10   .../...f].$..C..
|    736: 24 82 77 04 01 0a 82 0a 81 61 1f 03 01 35 08 04   $.w......a...5..
|    752: 81 11 03 01 61 09 04 82 0b 03 01 64 07 04 81 7e   ....a......d...~
|    768: 03 01 66 05 04 82 29 03 01 67 03 04 84 17 03 04   ..f...)..g......
|    784: 69 34 d8 a1 05 04 82 42 03 01 73 04 04 84 3d 03   i4.....B..s...=.
|    800: 01 76 06 04 81 70 04 03 76 c2 ba 07 04 81 34 03   .v...p..v.....4.
|    816: 01 78 06 04 83 48 03 03 c2 b3 36 07 02 7f 03 02   .x...H....6.....
|    832: d4 85 04 04 81 2d 03 02 d9 bc 05 04 83 20 03 04   .....-....... ..
|    848: ee b5 9c 70 03 04 83 57 03 05 f6 80 80 bb 70 05   ...p...W......p.
|    864: 04 81 6a 02 01 b3 01 06 82 41 12 01 08 67 0d 82   ..j......A...g..
|    880: 69 01 0e 81 51 22 5c 7d 81 00 01 10 68 05 2f 81   i...Q.......h./.
|    896: 4e 81 78 03 01 0a 74 81 58 81 72 01 0c 4e 72 07   N.x...t.X.r..Nr.
|    912: 79 81 7d 01 10 44 3b 58 66 82 08 0c 2f 01 06 0c   y....D;Xf.../...
|    928: 65 36 01 04 81 02 01 08 5d 43 82 10 03 01 61 06   e6......]C....a.
|    944: 04 83 3c 03 01 63 07 04 82 32 03 01 68 03 04 82   ..<..c...2..h...
|    960: 76 03 03 6a 77 6d 0a 04 84 35 03 01 70 01 04 84   v..jwm...5..p...
|    976: 70 03 01 74 01 06 84 05 0a 06 02 47 04 04 6a 75   p..t.......G..ju
|    992: ce bc 07 04 82 4d 03 02 75 65 07 04 81 05 03 01   .....M..ue......
|   1008: 77 01 04 81 59 04 03 6f db 85 08 02 3d 03 04 c2   w...Y..o....=...
|   1024: be c2 b9 01 04 81 04 03 07 c4 a7 67 d5 bb 7a 68   ...........g..zh
|   1040: 06 04 84 05 03 02 c7 a5 02 04 81 10 02 01 b9 01   ................
|   1056: 0c 1e 81 43 0b 81 56 01 08 82 70 81 27 01 06 34   ...C..V...p.'..4
|   1072: 83 38 01 0c 81 0f 1d 04 81 74 01 06 82 58 65 01   .8.......t...Xe.
|   1088: 10 27 55 7a 4b 81 00 2c 29 01 0e 04 1f 24 09 83   .'UzK..,)....$..
|   1104: 44 04 01 08 65 2f 41 2b 01 0c 34 0c 81 17 83 0f   D...e/A+..4.....
|   1120: 01 04 82 69 03 02 61 73 02 02 4d 03 01 65 01 04   ...i..as..M..e..
|   1136: 81 2e 03 02 69 61 04 04 83 06 04 03 69 69 67 08   ....ia......iig.
|   1152: 02 1b 03 03 6b c2 ba 06 04 82 49 03 01 6d 04 04   ....k.....I..m..
|   1168: 84 67 03 01 6f 02 04 82 4b 03 01 70 06 04 84 34   .g..o...K..p...4
|   1184: 03 04 72 61 76 76 04 02 67 03 03 73 c2 be 07 04   ..ravv..g..s....
|   1200: 82 17 03 01 76 03 04 81 56 03 01 78 02 04 84 24   ....v...V..x...$
|   1216: 03 03 79 69 38 05 04 84 68 03 05 c2 aa 63 c2 b2   ..yi8...h....c..
|   1232: 08 02 69 04 01 b9 06 04 82 75 04 01 ba 01 04 81   ..i......u......
|   1248: 51 04 01 bc 0a 04 81 0f 03 02 c5 a7 0a 04 84 71   Q..............q
|   1264: 03 05 c9 99 ee 84 af 03 04 84 10 04 06 9f db a5   ................
|   1280: 30 71 68 07 04 82 46 03 05 ca 8b 64 78 66 0a 04   0qh...F....dxf..
|   1296: 84 01 03 02 dd 9b 0a 04 82 4e 03 02 de bd 08 04   .........N......
|   1312: 82 03 03 07 eb b1 bd f2 84 82 8d 04 04 84 23 02   ..............#.
|   1328: 01 ba 01 0c 2d 81 55 09 82 17 01 04 07 64 01 0e   ....-.U......d..
|   1344: 33 81 73 0e 36 81 63 01 0e 2f 60 82 09 5b 5f 2c   3.s.6.c../`..[_,
|   1360: 01 08 82 6d 81 69 01 0c 81 2d 3c 35 81 0b 01 10   ...m.i...-<5....
|   1376: 4f 81 08 03 82 4f 29 27 01 0c 0f 03 55 82 6d 10   O....O)'....U.m.
|   1392: 01 08 0d 82 16 1e 01 06 2c 82 56 03 01 33 05 04   ........,.V..3..
|   1408: 82 25 03 01 36 07 04 82 73 03 01 63 0a 02 48 03   .%..6...s..c..H.
|   1424: 02 66 6f 07 04 84 60 03 01 67 03 04 84 27 03 01   .fo...`..g...'..
|   1440: 6c 0a 02 63 03 01 6d 07 04 82 75 03 01 6f 08 04   l..c..m...u..o..
|   1456: 82 4d 04 04 61 74 d4 a5 02 04 83 3c 03 02 d9 a8   .M..at.....<....
|   1472: 04 04 83 4e 03 03 db 93 61 02 04 81 52 03 03 e1   ...N....a...R...
|   1488: bf a7 08 04 83 42 02 01 bc 01 06 81 6c 2f 01 06   .....B......l/..
|   1504: 81 31 32 01 06 30 81 02 01 0c 81 02 81 73 04 67   .12..0.......s.g
|   1520: 01 06 81 6c 20 01 0e 57 6d 04 81 1f 81 24 01 04   ...l ..Wm....$..
|   1536: 83 54 01 0c 70 49 81 59 81 11 01 0e 56 81 44 0d   .T..pI.Y....V.D.
|   1552: 3d 81 23 01 0a 83 15 81 6b 06 03 02 39 6d 0a 02   =.#.....k...9m..
|   1568: 59 03 03 62 c2 aa 03 04 82 2f 03 01 63 02 04 84   Y..b...../..c...
|   1584: 45 04 05 79 76 7a c2 ba 04 04 81 19 03 01 66 07   E..yvz........f.
|   1600: 04 81 74 03 01 69 08 04 83 59 03 02 6f 37 09 04   ..t..i...Y..o7..
|   1616: 84 38 03 01 72 04 04 81 3f 03 01 73 07 02 69 03   .8..r...?..s..i.
|   1632: 03 79 76 62 04 02 76 03 02 c2 b2 06 04 84 48 04   .yvb..v.......H.
|   1648: 03 b3 34 79 02 04 81 3d 04 01 bc 08 04 82 19 03   ..4y...=........
|   1664: 04 ce bc ce bc 01 04 84 4a 03 04 e7 a8 a1 79 01   ........J.....y.
|   1680: 02 03 02 01 bd 01 06 58 82 1d 01 0a 82 7b 81 02   .......X........
|   1696: 57 01 04 0a 6b 01 08 81 5f 70 13 01 12 0e 38 65   W...k..._p....8e
|   1712: 11 34 52 4c 5c 75 01 06 82 56 3e 01 02 23 01 0a   .4RL.u...V>..#..
|   1728: 81 29 08 83 2f 01 0c 81 43 81 48 2f 03 01 08 83   .)../...C.H/....
|   1744: 5a 76 3a 03 01 30 04 04 81 71 03 01 32 01 04 82   Zv:..0...q..2...
|   1760: 1d 03 01 36 02 04 84 34 03 01 61 09 04 82 41 03   ...6...4..a...A.
|   1776: 01 68 07 02 38 03 01 6a 08 04 84 15 03 01 6c 08   .h..8..j......l.
|   1792: 04 82 66 03 01 6d 08 04 82 69 03 01 6f 01 04 82   ..f..m...i..o...
|   1808: 40 02 04 84 2d 03 02 78 03 01 73 04 08 81 29 82   @...-..x..s...).
|   1824: 08 03 03 75 75 6b 06 04 84 21 03 01 78 05 04 83   ...uuk...!..x...
|   1840: 61 04 04 c2 be c2 bc 06 04 82 5c 03 01 79 01 04   a............y..
|   1856: 83 46 03 02 c2 b3 06 02 40 02 01 be 01 08 81 0f   .F......@.......
|   1872: 81 71 01 0e 81 25 60 81 39 1d 70 01 06 1b 83 53   .q...%`.9.p....S
|   1888: 01 06 83 37 52 01 10 6b 65 18 2a 81 4d 47 33 01   ...7R..ke.*.MG3.
|   1904: 06 82 79 07 01 02 46 01 08 03 13 81 64 01 0c 5a   ..y...F.....d..Z
|   1920: 65 76 82 33 04 01 08 82 61 82 19 03 02 35 64 01   ev.3....a....5d.
|   1936: 04 84 17 03 01 37 06 04 82 10 03 01 62 08 02 5b   .....7......b..[
|   1952: 03 01 66 07 04 83 04 03 01 67 06 02 36 03 01 6a   ..f......g..6..j
|   1968: 01 04 83 3e 08 04 83 59 03 01 71 01 04 82 47 03   ...>...Y..q...G.
|   1984: 01 72 08 06 81 73 32 03 01 75 09 04 82 35 03 02   .r...s2..u...5..
|   2000: 77 76 07 04 83 68 03 01 78 05 02 72 03 02 c2 b3   wv...h..x..r....
|   2016: 0a 04 81 7e 04 01 bd 05 04 84 35 03 02 cb 8a 03   ...~......5.....
|   2032: 04 84 46 03 02 ce bc 02 04 82 72 01 05 c3 9f ca   ..F.......r.....
|   2048: 83 74 03 04 81 58 02 01 a6 08 04 84 26 02 04 82   .t...X......&...
|   2064: 1d 02 01 be 06 04 81 4f 03 04 83 1d 01 02 c4 a7   .......O........
|   2080: 01 02 0e 05 04 81 7c 04 04 84 09 02 01 b3 01 04   ......|.........
|   2096: 81 43 09 04 82 70 03 02 67 72 07 04 83 06 02 01   .C...p..gr......
|   2112: b8 06 04 83 09 03 04 78 6d 77 75 07 04 82 69 01   .......xmwu...i.
|   2128: 02 c5 80 06 04 83 40 02 01 82 06 04 82 6a 03 04   ......@......j..
|   2144: 82 1a 02 01 89 07 08 81 39 81 6c 02 01 8b 06 04   ........9.l.....
|   2160: 81 1a 03 01 6a 02 02 26 02 01 93 04 04 83 49 03   ....j..&......I.
|   2176: 02 6e 70 03 02 0f 01 02 c6 83 01 04 82 5b 06 04   .np..........[..
|   2192: 83 6a 02 01 85 02 04 82 0d 03 01 31 09 02 41 03   .j.........1..A.
|   2208: 01 6b 0a 04 84 0d 02 01 88 04 06 82 16 7f 02 01   .k..............
|   2224: 95 06 04 81 50 02 04 84 18 01 04 84 3f 03 01 78   ....P.......?..x
|   2240: 06 04 84 11 02 01 99 05 04 83 38 01 04 81 4a 02   ..........8...J.
|   2256: 01 9a 04 04 81 16 02 02 9b 62 03 02 10 02 01 a3   .........b......
|   2272: 04 04 82 0d 01 04 84 64 02 01 a5 05 06 81 3d 61   .......d......=a
|   2288: 03 02 79 69 05 04 82 23 02 01 a8 09 04 83 44 02   ..yi...#......D.
|   2304: 01 ab 03 04 81 13 02 02 ad 75 06 04 82 07 02 01   .........u......
|   2320: b4 05 04 82 74 03 04 75 61 65 6c 05 04 82 68 02   ....t..uael...h.
|   2336: 01 b6 03 04 81 6b 02 01 ba 05 04 83 72 02 01 bd   .....k......r...
|   2352: 06 04 84 15 02 02 be 74 02 04 84 57 03 01 79 07   .......t...W..y.
|   2368: 04 82 5d 02 02 bf 67 09 04 81 42 03 01 72 03 04   ..]...g...B..r..
|   2384: 82 7a 03 01 77 0a 02 3c 01 02 c7 80 02 04 84 1d   .z..w..<........
|   2400: 03 01 31 04 04 83 1d 02 03 81 c9 ab 06 04 83 4d   ..1............M
|   2416: 02 01 82 09 04 83 25 02 03 86 d3 97 05 02 34 02   ......%.......4.
|   2432: 02 89 78 02 04 83 19 02 01 8c 03 02 56 02 04 81   ..x.........V...
|   2448: 3b 02 04 82 16 02 01 9c 03 04 82 55 04 04 81 08   ;..........U....
|   2464: 02 01 9d 07 04 81 1c 03 01 68 04 04 83 11 02 01   .........h......
|   2480: 9f 05 04 81 0e 02 01 a1 01 04 84 79 08 04 82 27   ...........y...'
|   2496: 02 01 a3 04 04 81 5c 06 02 33 02 02 a5 76 0a 04   .........3...v..
|   2512: 82 07 02 08 ad 7a c8 bf e0 a4 8a 64 04 04 81 03   .....z.....d....
|   2528: 02 01 af 05 04 84 25 02 01 b3 03 02 5c 02 01 bb   ......%.........
|   2544: 06 02 06 03 01 68 03 04 81 2c 03 01 71 04 04 81   .....h...,..q...
|   2560: 69 02 01 bd 03 06 81 7a 6f 02 04 84 2f 01 03 c8   i......zo.../...
|   2576: 9d 36 02 04 83 43 02 02 a1 70 01 04 82 4a 02 01   .6...C...p...J..
|   2592: a5 02 04 83 45 02 01 ad 01 04 81 10 02 01 b1 02   ....E...........
|   2608: 04 84 4c 07 04 84 03 02 01 bc 08 04 81 3b 03 01   ..L..........;..
|   2624: 31 03 04 83 45 02 01 bf 07 04 81 17 01 02 c9 80   1...E...........
|   2640: 01 02 3a 01 04 83 62 02 01 82 02 04 81 55 04 04   ..:...b......U..
|   2656: 84 6d 02 02 50 02 01 8f 02 04 84 16 06 04 83 57   .m..P..........W
|   2672: 02 01 91 04 04 83 4f 02 01 93 0a 04 81 1d 03 01   ......O.........
|   2688: 69 05 04 83 37 03 01 79 08 04 82 21 02 01 96 04   i...7..y...!....
|   2704: 04 82 13 04 02 6c 02 04 83 29 02 01 97 04 02 2d   .....l...).....-
|   2720: 02 03 99 6d 74 05 04 81 73 02 01 9f 09 04 84 63   ...mt...s......c
|   2736: 02 01 a0 05 02 6a 02 02 76 02 01 a2 02 02 2e 02   .....j..v.......
|   2752: 01 a3 01 04 82 16 02 01 a5 04 04 81 31 06 04 83   ............1...
|   2768: 0f 02 01 a8 03 04 83 47 02 01 a9 06 06 82 0d 49   .......G.......I
|   2784: 02 01 af 0a 04 83 1c 02 02 b2 34 04 04 81 3c 02   ..........4...<.
|   2800: 04 b5 74 c2 b2 03 04 81 28 02 01 ba 09 04 83 62   ..t.....(......b
|   2816: 02 01 bb 07 04 84 73 02 01 bc 06 04 81 2a 02 01   ......s......*..
|   2832: bd 04 04 81 68 02 01 be 09 04 83 67 03 01 73 08   ....h......g..s.
|   2848: 04 83 5f 01 02 ca 80 07 04 84 0b 03 01 77 02 04   .._..........w..
|   2864: 82 59 02 01 81 06 04 82 1c 02 01 83 08 04 83 1b   .Y..............
|   2880: 01 04 81 71 02 01 86 07 04 81 79 02 01 88 08 02   ...q......y.....
|   2896: 62 01 04 81 0a 02 01 89 04 04 81 62 02 01 8a 03   b..........b....
|   2912: 04 83 11 01 04 83 50 02 01 8c 06 04 84 2e 02 01   ......P.........
|   2928: 8e 03 04 82 3e 04 04 82 33 03 01 68 07 04 82 3b   ....>...3..h...;
|   2944: 02 01 8f 04 04 82 63 03 01 73 08 02 7e 02 01 90   ......c..s..~...
|   2960: 08 02 20 02 01 91 01 04 83 52 02 01 94 06 04 83   .. ......R......
|   2976: 36 02 02 95 7a 0a 02 51 02 04 99 75 73 73 03 02   6...z..Q...uss..
|   2992: 36 02 01 9c 06 04 81 27 02 01 a5 07 04 81 7b 03   6......'........
|   3008: 07 e0 a4 aa d5 b8 61 62 0a 02 77 02 02 a6 6f 07   ......ab..w...o.
|   3024: 04 81 07 03 03 ec b2 be 02 04 82 39 02 02 a7 33   ...........9...3
|   3040: 08 02 61 02 01 a9 03 04 84 07 02 01 b6 0a 04 84   ..a.............
|   3056: 02 02 01 b7 05 04 81 4a 03 03 6a 69 6a 05 04 81   .......J..jij...
|   3072: 48 02 01 b8 09 04 83 0a 03 04 c4 91 d8 bd 03 02   H...............
|   3088: 1c 02 01 b9 09 02 4c 02 04 ba c9 b1 37 07 04 81   ......L.....7...
|   3104: 4e 02 02 bb 70 01 04 84 4c 02 01 bc 01 04 83 0c   N...p...L.......
|   3120: 02 02 be 72 05 02 04 01 02 cb 80 0a 04 84 52 02   ...r..........R.
|   3136: 01 88 07 04 83 1d 02 01 8a 08 02 7c 02 01 a1 09   ...........|....
|   3152: 04 81 1b 03 01 30 06 04 81 52 03 01 6a 01 04 82   .....0...R..j...
|   3168: 34 02 01 a2 01 04 83 30 02 03 a3 71 64 04 02 7e   4......0...qd..~
|   3184: 02 01 a4 0a 04 83 34 02 01 ae 06 04 84 7f 03 01   ......4.........
|   3200: 6e 06 04 83 68 01 02 cd b1 02 04 82 55 03 01 6a   n...h.......U..j
|   3216: 01 04 83 5d 02 01 b7 08 04 81 58 03 01 75 07 04   ...]......X..u..
|   3232: 84 09 02 01 b8 01 04 82 0e 06 02 22 03 04 82 4f   ...............O
|   3248: 03 02 dd af 05 04 84 3f 02 01 bc 01 04 84 3b 02   .......?......;.
|   3264: 01 bd 09 04 81 61 01 04 83 3c 02 03 bf 64 67 02   .....a...<...dg.
|   3280: 04 82 0c 01 05 ce 81 66 da 94 01 02 10 03 01 6b   .......f.......k
|   3296: 0a 04 82 7e 02 01 8d 08 04 83 02 02 07 ad 69 f0   ...~..........i.
|   3312: 98 a6 a7 61 09 04 84 41 03 01 72 03 04 82 62 02   ...a...A..r...b.
|   3328: 01 ae 06 04 83 5d 02 04 81 44 03 01 37 06 04 81   .....]...D..7...
|   3344: 08 02 05 af 64 cf 8d 32 01 02 11 02 01 b1 05 04   ....d..2........
|   3360: 84 52 03 01 61 08 04 81 68 03 01 68 08 04 83 5a   .R..a...h..h...Z
|   3376: 02 01 b2 05 04 84 43 01 02 7e 03 04 83 23 02 04   ......C..~...#..
|   3392: b3 71 30 73 03 04 83 76 02 01 b5 02 04 82 04 02   .q0s...v........
|   3408: 01 b6 0a 04 84 6e 02 01 b7 03 04 81 36 02 01 b8   .....n......6...
|   3424: 01 04 84 60 02 02 3a 03 04 84 76 01 02 50 03 02   ...`..:...v..P..
|   3440: 32 6a 09 04 81 0c 03 01 68 03 02 11 02 01 b9 04   2j......h.......
|   3456: 04 84 0f 02 04 bb d2 b5 62 08 04 81 10 02 01 bc   ........b.......
|   3472: 01 0e 4d 81 25 3f 1b 81 54 01 0c 55 81 38 06 82   ..M.%?..T..U.8..
|   3488: 1b 01 08 21 82 66 37 01 08 65 09 83 3c 02 0a 82   ...!.f7..e..<...
|   3504: 21 08 81 52 01 08 83 4e 81 29 01 0e 47 15 81 21   !..R...N.)..G..!
|   3520: 81 0f 65 01 10 12 20 2d 38 81 00 81 73 01 10 0e   ..e... -8...s...
|   3536: 33 6c 2d 3e 81 4e 07 03 01 67 03 04 83 52 03 01   3l->.N...g...R..
|   3552: 6b 08 04 83 72 03 02 6c 32 02 04 81 51 03 03 6d   k...r..l2...Q..m
|   3568: 67 79 09 04 82 67 03 01 70 04 04 81 44 03 02 71   gy...g..p...D..q
|   3584: 6a 0a 04 81 6d 03 01 79 01 04 81 5e 03 02 c2 bd   j...m..y...^....
|   3600: 07 04 81 3a 04 01 be 08 02 18 03 02 ce bc 07 02   ...:............
|   3616: 34 02 01 bd 03 02 28 03 01 67 04 04 82 09 03 02   4.....(..g......
|   3632: 6e 6c 01 02 22 03 01 78 02 04 83 5f 02 01 bf 02   nl.....x..._....
|   3648: 02 16 03 01 7a 06 04 82 05 01 02 cf 80 03 02 69   ....z..........i
|   3664: 03 01 6e 05 04 83 40 02 02 81 6c 06 04 84 5d 03   ..n...@...l...].
|   3680: 02 ca ab 04 04 81 5d 02 01 84 03 04 81 2e 03 04   ......].........
|   3696: 82 6e 02 01 85 06 04 82 40 02 01 88 04 02 62 02   .n......@.....b.
|   3712: 03 8a 75 6a 03 04 83 50 02 01 8b 05 04 82 60 81   ..uj...P......`.
|   3728: 01 08 07 0a 07 09 07 0b 06 07 07 07 0a 0b 0a 07   ................
|   3744: 07 0a 06 07 0a 08 07 07 07 12 09 08 0b 07 08 07   ................
|   3760: 06 07 07 07 07 0a 09 07 0a 08 07 3f 08 07 06 06   ...........?....
|   3776: 08 07 07 09 07 07 0a 4b 07 07 07 07 07 0a 07 07   .......K........
|   3792: 09 07 08 08 08 0a 0b 49 07 07 07 09 07 0b 0a 08   .......I........
|   3808: 07 08 0a 0d 08 48 07 07 08 08 09 07 07 07 09 09   .....H..........
|   3824: 07 07 09 0a 07 07 07 08 0b 0c 0b 08 08 0d 4c 07   ..............L.
|   3840: 07 06 08 07 06 07 07 0a 08 09 09 44 07 09 07 0b   ...........D....
|   3856: 07 07 08 07 06 08 08 09 07 0a 09 41 07 07 07 07   ...........A....
|   3872: 06 07 07 07 0e 09 09 07 0a 07 07 42 08 07 06 07   ...........B....
|   3888: 06 0b 07 08 07 08 06 08 07 08 08 0b 0b 0b 0f 0b   ................
|   3904: 08 07 0a 08 0b 09 07 06 07 07 0c 07 06 07 08 0f   ................
|   3920: 07 0b 07 07 0b 08 08 07 07 08 07 0a 07 07 07 08   ................
|   3936: 07 08 07 06 08 07 09 07 08 08 0e 0b 07 07 07 0b   ................
|   3952: 0a 08 0e 07 06 06 07 07 0c 09 08 07 07 0b 07 07   ................
|   3968: 07 0b 0e 0b 07 07 07 07 0e 06 09 07 09 06 07 0b   ................
|   3984: 07 08 07 08 0a 07 07 07 07 07 07 08 07 07 0b 07   ................
|   4000: 0a 07 0b 07 0b 07 07 06 06 07 07 07 09 07 07 0c   ................
|   4016: 08 09 07 07 07 07 09 07 09 06 0a 08 07 07 08 07   ................
|   4032: 06 07 07 07 07 08 07 07 07 08 07 07 07 0e 08 07   ................
|   4048: 0b 09 0a 07 07 0d 07 0b 07 0a 07 07 07 0e 0a 07   ................
|   4064: 07 07 11 08 06 07 0a 4a 07 07 08 09 07 08 07 08   .......J........
|   4080: 06 07 06 07 07 07 06 07 07 07 08 08 0b 07 06 09   ................
| page 25 offset 98304
|      0: 0d 00 00 00 01 00 29 00 00 29 00 00 00 00 00 00   ......)..)......
|     32: 00 00 00 00 00 00 00 00 00 9f 4f 88 80 80 80 80   ..........O.....
|     48: 06 04 00 bf 22 00 00 0e 17 04 30 cf 8c 70 03 02   ..........0..p..
|     64: 0e 02 01 8d 05 04 82 5c 03 01 63 07 04 84 19 02   ..........c.....
|     80: 01 8e 09 02 66 02 01 93 06 04 83 30 02 01 99 06   ....f......0....
|     96: 04 84 75 04 04 84 07 03 02 c6 a3 05 04 84 01 02   ..u.............
|    112: 01 9b 08 02 42 02 01 9d 07 02 30 03 02 0b 02 01   ....B.....0.....
|    128: 9f 06 04 81 06 03 02 da a9 07 02 66 02 01 a5 09   ...........f....
|    144: 02 0c 02 01 ab 02 04 81 39 02 01 ad 01 02 6d 03   ........9.....m.
|    160: 04 82 62 02 01 b2 0a 04 83 36 02 03 b3 d6 88 07   ..b......6......
|    176: 04 84 78 02 01 b8 05 04 84 02 05 04 81 5d 01 02   ..x..........]..
|    192: d0 b1 0a 02 5f 03 01 7a 03 02 76 02 02 b5 35 08   ...._..z..v...5.
|    208: 04 83 63 03 01 75 07 04 84 35 02 04 b8 71 61 61   ..c..u...5...qaa
|    224: 0a 04 81 6b 02 01 bb 08 04 84 4a 02 01 bd 0a 06   ...k......J.....
|    240: 6f 83 6d 01 02 d1 80 06 04 83 65 02 01 84 07 04   o.m.......e.....
|    256: 82 1b 02 01 85 09 04 82 3f 02 02 86 6f 08 04 82   ........?...o...
|    272: 5f 02 01 88 03 04 81 29 02 01 89 02 04 83 14 08   _......)........
|    288: 04 84 6f 03 01 63 02 04 84 1c 02 01 8a 0a 06 82   ..o..c..........
|    304: 14 2d 03 02 6c 69 04 04 83 57 02 01 8e 07 04 84   .-..li...W......
|    320: 48 02 06 90 e1 91 8f 6a 7a 05 04 83 46 02 03 91   H......jz...F...
|    336: 64 37 03 04 82 01 02 01 93 0a 04 82 1f 02 01 98   d7..............
|    352: 05 04 84 30 02 03 9b 63 66 05 04 81 55 02 05 9f   ...0...cf...U...
|    368: 78 6a d1 87 09 04 81 4d 02 02 a3 78 06 02 07 02   xj.....M...x....
|    384: 04 a5 e1 a9 8f 06 02 10 02 02 af 76 09 04 83 13   ...........v....
|    400: 03 02 7a 33 07 04 84 1f 02 01 b1 05 04 84 0e 02   ..z3............
|    416: 02 b7 71 0a 04 82 7b 02 02 bf 62 0a 04 83 6f 01   ..q.......b...o.
|    432: 04 d2 8b 67 73 06 04 83 2b 02 04 97 e3 86 b2 07   ...gs...+.......
|    448: 04 84 12 02 01 9f 02 04 81 05 03 02 24 02 01 a7   ............$...
|    464: 04 04 84 1f 02 01 a9 04 04 81 47 06 06 23 82 23   ..........G..#.#
|    480: 02 02 b1 78 06 02 43 02 01 b9 02 04 82 44 02 01   ...x..C......D..
|    496: bd 02 04 83 3d 08 04 81 76 02 01 bf 0a 04 85 04   ....=...v.......
|    512: 01 02 d3 8e 06 04 85 02 02 02 8f 68 03 02 75 02   ...........h..u.
|    528: 01 91 08 02 28 02 01 93 05 02 16 02 01 9d 06 04   ....(...........
|    544: 82 5e 02 02 9f 33 06 04 83 78 02 03 a7 6c 78 06   .^...3...x...lx.
|    560: 04 83 33 03 09 da a9 ec 82 b2 e1 87 90 71 06 04   ..3..........q..
|    576: 84 7b 02 01 ab 06 04 83 27 02 01 ad 03 02 72 02   ........'.....r.
|    592: 01 af 03 04 82 0c 02 01 b5 0a 04 81 7d 02 01 bb   ................
|    608: 0a 02 58 03 01 6a 03 04 81 70 01 02 d4 81 04 04   ..X..j...p......
|    624: 84 0d 02 01 85 06 04 81 3d 02 02 8b 35 07 04 83   ........=...5...
|    640: 50 02 02 8d 77 03 02 79 02 01 95 0a 04 84 5c 02   P...w..y........
|    656: 03 97 6a 6c 0a 04 83 7a 02 01 99 09 04 82 26 02   ..jl...z......&.
|    672: 02 9b 71 05 04 82 01 02 02 9d 67 04 04 84 5f 02   ..q.......g..._.
|    688: 01 a7 04 04 82 4a 01 02 d5 a3 0a 04 81 00 03 01   .....J..........
|    704: 39 06 04 81 51 02 01 a5 06 02 5e 03 01 67 02 04   9...Q.....^..g..
|    720: 81 0d 02 01 a9 08 04 84 1e 01 02 75 02 01 aa 04   ...........u....
|    736: 04 81 0a 02 01 ab 03 04 83 21 02 01 ac 06 02 08   .........!......
|    752: 02 01 ad 0a 02 57 02 02 b3 74 0a 04 84 40 02 03   .....W...t...@..
|    768: b4 61 6e 08 04 83 1a 03 02 6d 76 02 04 81 0a 02   .an......mv.....
|    784: 01 ba 06 04 83 51 02 01 bb 03 04 82 61 03 01 67   .....Q......a..g
|    800: 08 04 83 28 02 01 bc 01 02 62 01 02 d6 80 01 04   ...(.....b......
|    816: 84 53 02 02 82 7a 08 02 7f 02 01 83 06 02 50 02   .S...z........P.
|    832: 04 81 32 02 01 86 09 04 82 52 02 01 87 09 04 83   ..2......R......
|    848: 7b 02 01 8c 03 04 83 19 01 03 d7 89 74 0a 04 82   ............t...
|    864: 37 02 01 92 07 04 81 23 02 01 93 0a 04 81 12 02   7......#........
|    880: 01 9a 07 02 58 02 01 9e 03 04 81 19 02 01 a0 0a   ....X...........
|    896: 04 82 5e 03 01 6c 01 02 0a 03 04 78 c2 b9 63 05   ..^..l.....x..c.
|    912: 02 02 02 01 a8 0a 02 07 02 01 ab 01 04 81 01 02   ................
|    928: 03 af c3 b0 05 04 82 4e 02 04 b7 69 c2 be 04 04   .......N...i....
|    944: 84 44 02 05 bd e4 98 a5 6c 03 04 83 51 01 03 d8   .D......l...Q...
|    960: 9c 38 08 04 84 73 02 02 9d 73 0a 04 83 0b 02 01   .8...s...s......
|    976: aa 02 04 84 56 02 02 ab 7a 03 04 82 7f 02 01 ac   ....V...z.......
|    992: 09 04 82 40 02 02 ad 61 03 04 81 14 03 03 c6 8c   ...@...a........
|   1008: 71 09 04 82 56 02 02 b7 69 0a 04 82 5c 02 03 b8   q...V...i.......
|   1024: 66 66 05 04 81 11 03 01 7a 05 04 82 7a 02 01 be   ff......z...z...
|   1040: 05 04 81 2a 02 02 bf 76 0a 02 76 01 02 d9 81 01   ...*...v..v.....
|   1056: 04 83 76 02 01 83 02 02 3c 03 01 36 05 04 81 54   ..v.....<..6...T
|   1072: 02 01 85 09 04 82 73 02 01 86 06 04 84 53 02 03   ......s......S..
|   1088: a7 6a 61 01 04 82 0f 02 01 a8 04 02 38 02 01 b1   .ja.........8...
|   1104: 01 04 83 21 03 03 dc 94 6a 02 02 2b 02 01 b2 07   ...!....j..+....
|   1120: 02 1a 02 01 b6 04 04 82 17 02 01 ba 04 04 83 7b   ................
|   1136: 03 01 71 03 04 82 77 02 01 bd 09 04 84 4f 01 04   ..q...w......O..
|   1152: 82 49 01 07 da 80 e8 b6 8a 67 68 05 04 83 04 02   .I.......gh.....
|   1168: 03 85 d1 9c 06 04 81 59 02 01 8f 05 04 81 2c 02   .......Y......,.
|   1184: 01 93 01 04 83 3d 02 04 9a ed 90 8b 01 04 83 44   .....=.........D
|   1200: 02 02 9c 73 09 04 83 21 02 01 a0 0a 04 85 03 02   ...s...!........
|   1216: 01 a6 05 02 7e 03 04 81 19 02 02 a9 77 05 04 82   ....~.......w...
|   1232: 69 02 01 ac 03 02 4f 04 04 82 76 03 03 67 c2 bc   i.....O...v..g..
|   1248: 07 04 83 38 02 01 b7 03 04 82 5b 02 01 bf 09 02   ...8......[.....
|   1264: 6a 01 02 db 83 08 04 84 55 02 02 93 70 02 04 81   j.......U...p...
|   1280: 47 02 01 a5 05 04 82 12 02 01 a6 01 02 52 01 02   G............R..
|   1296: dc 8e 01 02 6a 02 02 96 6b 06 04 84 29 02 01 9a   ....j...k...)...
|   1312: 05 04 84 05 03 04 82 3e 02 01 9f 09 04 81 64 02   .......>......d.
|   1328: 03 a4 76 77 0a 04 84 0f 02 01 a6 06 04 83 52 02   ..vw..........R.
|   1344: 01 aa 01 04 83 70 02 01 ae 01 04 83 33 01 02 dd   .....p......3...
|   1360: 8c 03 04 82 1f 02 02 90 78 09 04 82 4b 02 01 96   ........x...K...
|   1376: 05 04 81 10 03 01 6c 06 04 83 24 02 02 9c 6a 04   ......l...$...j.
|   1392: 04 82 1b 02 05 a0 79 c9 a8 75 01 02 34 02 01 a8   ......y..u..4...
|   1408: 05 02 2c 02 01 b2 06 04 84 3f 02 02 ba 67 03 02   ..,......?...g..
|   1424: 2f 02 05 bf e0 a6 ad 77 08 02 2f 01 02 de 83 05   /......w../.....
|   1440: 02 65 02 01 84 06 04 81 00 02 01 85 01 04 82 60   .e.............`
|   1456: 01 04 81 57 02 01 8f 03 04 83 3b 02 01 90 03 02   ...W......;.....
|   1472: 7b 02 01 91 07 04 83 5d 02 03 9c 78 61 07 04 81   .......]...xa...
|   1488: 00 02 01 9e 08 04 82 00 02 02 9f 6f 04 04 83 51   ...........o...Q
|   1504: 02 01 a3 04 04 81 2f 02 02 a5 73 0a 04 84 7a 02   ....../...s...z.
|   1520: 02 b1 66 08 04 81 5a 02 02 b7 78 02 02 78 02 01   ..f...Z...x..x..
|   1536: b9 05 04 83 08 02 01 ba 0a 04 84 76 02 01 bb 07   ...........v....
|   1552: 02 5c 02 01 bc 08 02 13 02 01 bf 08 02 2a 01 03   .............*..
|   1568: df 82 66 08 04 82 2c 02 01 87 01 04 83 0a 02 01   ..f...,.........
|   1584: 8d 05 04 84 0c 02 05 91 72 6b 69 61 03 02 45 02   ........rkia..E.
|   1600: 03 97 de a4 09 04 82 6b 02 02 98 62 06 04 81 18   .......k...b....
|   1616: 02 01 a0 0a 04 82 4a 02 01 bf 05 02 39 01 06 e0   ......J.....9...
|   1632: a7 9d 31 76 63 05 04 83 00 02 02 af aa 02 04 81   ..1vc...........
|   1648: 2b 02 03 b7 ae 65 01 04 84 36 02 02 bb 98 0a 04   +....e...6......
|   1664: 82 23 01 04 e1 80 88 63 06 04 83 5c 03 01 a2 04   .#.....c........
|   1680: 02 5c 02 02 85 9b 05 04 81 3e 02 04 8b b3 db 8f   .........>......
|   1696: 07 02 56 02 04 91 b8 64 66 08 04 82 49 02 02 95   ..V....df...I...
|   1712: 9d 08 04 81 4e 03 01 a2 03 04 81 77 02 02 9a a0   ....N......w....
|   1728: 01 04 82 39 02 03 9d 90 69 03 02 41 02 03 a6 9a   ...9....i..A....
|   1744: 68 04 02 4c 02 05 a7 9c c7 ad 6e 06 04 83 7b 02   h..L......n.....
|   1760: 03 a8 b2 38 04 02 5f 02 02 af 88 07 02 19 02 03   ...8.._.........
|   1776: bd 96 71 03 04 81 11 01 03 e2 83 80 05 02 5f 02   ..q..........._.
|   1792: 02 b1 a6 01 04 83 34 01 04 84 06 02 02 b3 9d 01   ......4.........
|   1808: 04 83 0f 02 03 ba 9a 64 01 04 84 4f 01 03 e3 81   .......d...O....
|   1824: 81 0a 02 21 02 02 84 8c 03 04 81 10 02 02 90 a1   ...!............
|   1840: 02 04 81 1b 02 02 9c a3 02 04 82 2e 02 02 a5 89   ................
|   1856: 04 04 82 23 02 02 a6 98 07 04 83 00 02 09 ab a8   ...#............
|   1872: 77 31 63 6a c2 aa 35 04 04 81 38 03 01 aa 01 04   w1cj..5...8.....
|   1888: 82 1e 02 02 ac a4 02 02 37 02 05 b9 8e 70 34 79   ........7....p4y
|   1904: 0a 04 84 30 02 02 bd bf 01 04 83 19 01 05 e4 80   ...0............
|   1920: 83 79 69 04 04 83 15 03 01 bb 01 02 63 02 03 8a   .yi.........c...
|   1936: 8d 36 0a 04 84 57 02 05 8c 88 d0 b1 63 09 04 84   .6...W......c...
|   1952: 49 02 02 90 8e 02 04 84 60 02 02 a1 98 03 04 84   I.......`.......
|   1968: 0f 02 02 b1 a2 08 04 83 30 01 04 e5 85 87 68 02   ........0.....h.
|   1984: 04 84 19 02 03 8a a8 39 0a 02 6e 02 03 8d be 38   .......9..n....8
|   2000: 09 04 81 78 02 04 8f 85 68 30 05 04 84 5a 03 01   ...x....h0...Z..
|   2016: a7 09 04 82 09 02 03 92 8e 7a 04 02 28 02 02 95   .........z..(...
|   2032: 89 01 02 38 03 01 be 07 04 84 4d 02 08 9e 9e f4   ...8......M.....
|   2048: 95 95 98 68 71 07 04 84 13 02 02 9f 9f 04 04 84   ...hq...........
|   2064: 35 02 02 a0 a2 02 02 24 03 05 b4 f0 90 b1 92 0a   5......$........
|   2080: 04 82 15 02 03 a3 a1 64 07 04 84 22 02 02 a6 bb   .......d........
|   2096: 04 04 84 52 02 05 a8 af 75 c2 bd 01 04 81 25 02   ...R....u.....%.
|   2112: 02 aa b3 06 04 81 66 02 03 ae be 7a 0a 02 4d 02   ......f....z..M.
|   2128: 08 af 96 66 6b f3 93 af 8f 04 04 83 02 02 03 bd   ...fk...........
|   2144: aa 6a 07 02 62 01 04 e6 80 83 69 08 04 84 19 02   .j..b.....i.....
|   2160: 02 81 bc 0a 04 81 25 02 04 86 aa 32 75 06 04 82   ......%....2u...
|   2176: 65 02 05 96 b7 69 35 30 07 02 78 02 03 9d 98 73   e....i50..x....s
|   2192: 06 02 7f 02 02 a3 97 02 04 81 7f 02 05 a5 80 e7   ................
|   2208: a0 b6 01 04 81 37 03 01 87 08 04 82 61 02 02 b3   .....7......a...
|   2224: b2 03 04 83 1e 02 02 b8 a0 0a 04 84 2e 02 02 bc   ................
|   2240: af 0a 04 83 71 02 02 bf 91 09 04 84 42 01 03 e7   ....q.......B...
|   2256: 81 b4 07 04 84 5e 02 02 86 8e 01 04 84 2c 02 02   .....^.......,..
|   2272: 8b a9 09 04 82 02 02 03 8d 9d 30 05 04 84 1a 02   ..........0.....
|   2288: 02 8e b6 08 04 83 60 02 02 91 99 0a 04 82 05 02   ......`.........
|   2304: 02 92 af 08 04 81 1c 02 02 94 b9 05 04 81 45 02   ..............E.
|   2320: 02 9c 8f 06 02 14 02 02 9e a2 07 04 83 78 02 02   .............x..
|   2336: a0 83 06 04 83 08 02 02 a1 a8 01 02 78 02 02 ae   ............x...
|   2352: ae 04 04 81 0e 02 02 b5 8c 06 04 84 6c 02 02 bf   ............l...
|   2368: 80 09 04 83 1e 01 04 e8 83 93 73 0a 04 83 57 02   ..........s...W.
|   2384: 02 88 a8 0a 04 84 50 02 02 89 a0 09 04 83 70 02   ......P.......p.
|   2400: 02 8a ad 05 04 83 18 02 02 95 84 04 02 3b 03 01   .............;..
|   2416: b5 06 04 81 26 02 08 a0 91 65 ce bb 6a d7 96 09   ....&....e..j...
|   2432: 04 82 05 02 02 a7 bf 02 04 84 47 02 02 b5 bb 05   ..........G.....
|   2448: 02 0a 02 04 bf 88 6a 6b 03 04 84 2a 01 04 e9 80   ......jk...*....
|   2464: 97 65 09 04 83 26 02 02 9a 89 04 04 83 29 02 02   .e...&.......)..
|   2480: a4 b8 05 04 82 7f 02 05 ba 83 69 76 6c 04 02 3a   ..........ivl..:
|   2496: 03 01 87 03 02 3c 02 02 be b6 06 04 84 25 01 06   .....<.......%..
|   2512: ea 81 98 64 39 79 03 04 84 12 02 02 88 bc 09 04   ...d9y..........
|   2528: 84 40 02 03 8c b5 39 01 04 83 11 02 02 91 ab 05   .@....9.........
|   2544: 04 83 01 02 03 9d 97 63 05 04 83 07 02 02 9e a3   .......c........
|   2560: 04 04 82 04 02 02 ae a3 03 04 81 20 02 02 b2 a1   ........... ....
|   2576: 04 02 66 02 04 b4 9d 65 6b 02 02 29 02 03 ba bd   ..f....ek..)....
|   2592: 72 08 04 83 75 02 03 bc a7 37 09 04 81 55 01 03   r...u....7...U..
|   2608: eb 84 9d 07 02 60 02 06 8f aa 6f 69 6b 68 03 02   .....`....oikh..
|   2624: 29 02 02 92 90 0a 04 81 30 02 04 99 ba 6e 65 02   ).......0....ne.
|   2640: 04 82 1e 02 02 b8 8f 05 04 81 52 02 02 bd 80 08   ..........R.....
|   2656: 04 84 23 02 02 be bc 08 02 2e 02 02 bf bc 01 04   ..#.............
|   2672: 82 6b 01 04 ec 85 b8 76 05 04 81 76 02 03 99 ad   .k.....v...v....
|   2688: 74 07 02 7e 02 02 a3 80 06 04 81 37 02 04 ac a9   t..~.......7....
|   2704: 79 75 01 02 6f 02 02 b9 89 06 02 66 01 03 ed 8a   yu..o......f....
|   2720: 8a 05 02 3f 02 02 96 b6 05 02 63 01 04 ee 8d 91   ...?......c.....
|   2736: 7a 02 04 82 2a 02 02 92 af 03 04 84 06 02 03 98   z...*...........
|   2752: be 78 01 04 81 50 02 03 99 82 71 06 02 13 02 04   .x...P....q.....
|   2768: 9c 8d 68 61 09 04 83 1b 02 02 a4 bd 06 04 82 24   ..ha...........$
|   2784: 02 02 ad a9 06 04 81 5d 02 02 b4 b9 09 04 81 75   .......].......u
|   2800: 02 02 bb 8d 05 04 84 39 01 03 ef af 90 03 04 82   .......9........
|   2816: 3d 03 02 a3 61 03 04 83 02 02 02 b4 ae 0a 04 82   =...a...........
|   2832: 0e 02 02 b5 b1 06 02 47 02 02 b7 a9 02 04 84 42   .......G.......B
|   2848: 01 05 f0 90 8e bf 34 03 04 81 40 03 04 ad b0 33   ......4...@....3
|   2864: 38 05 04 84 19 03 02 ae 89 07 04 81 68 03 03 af   8...........h...
|   2880: b7 61 0a 04 82 2f 02 03 91 81 a7 02 04 81 04 03   .a.../..........
|   2896: 02 89 ac 08 04 83 62 03 02 97 a6 08 04 82 64 03   ......b.......d.
|   2912: 02 af bc 07 04 83 14 03 02 b1 b3 05 04 81 34 03   ..............4.
|   2928: 02 b7 ad 07 04 82 35 03 03 bb 9f 64 07 04 84 4c   ......5....d...L
|   2944: 02 03 92 8d a5 05 04 82 7b 03 03 98 ab 62 09 04   .............b..
|   2960: 81 2f 03 02 b7 99 05 04 82 43 02 04 93 85 98 6b   ./.......C.....k
|   2976: 0a 02 1e 03 02 a9 90 01 04 84 62 03 05 b6 b0 74   ..........b....t
|   2992: c2 b3 07 04 82 55 02 03 95 8e a5 06 04 83 2a 03   .....U........*.
|   3008: 02 96 95 09 04 83 0c 03 02 97 8b 06 04 84 60 03   ..............`.
|   3024: 02 b5 bd 07 04 82 56 03 02 b7 9c 06 04 82 2d 02   ......V.......-.
|   3040: 04 96 a0 80 6e 01 04 83 7f 03 02 a5 ad 03 04 83   ....n...........
|   3056: 3c 03 02 ad ac 07 02 72 02 04 97 87 b5 35 07 02   <......r.....5..
|   3072: 5f 04 01 bc 07 02 53 03 02 8f 90 02 02 70 02 06   _.....S......p..
|   3088: 98 8f 88 73 7a 78 06 02 35 04 01 ba 02 02 23 03   ...szx..5.....#.
|   3104: 06 a2 92 ca 8a 36 6d 07 04 82 06 02 04 99 8b 93   .....6m.........
|   3120: 7a 09 04 84 6b 03 03 8c 82 72 07 04 81 7a 03 02   z...k....r...z..
|   3136: 94 ba 04 04 82 3c 03 02 a1 92 0a 04 84 31 03 02   .....<.......1..
|   3152: a8 b7 08 04 84 16 03 02 b1 ac 03 04 84 28 02 05   .............(..
|   3168: 9a 99 8d d7 b5 01 04 84 65 03 03 9d 86 7a 09 04   ........e....z..
|   3184: 84 07 03 03 ac 80 37 09 04 84 24 02 03 9b 87 93   ......7...$.....
|   3200: 04 04 82 60 03 02 91 8b 05 04 84 6c 03 02 a0 b9   ...`.......l....
|   3216: 05 04 82 13 03 03 a5 81 70 06 04 83 6e 03 02 b6   ........p...n...
|   3232: 9a 03 04 82 00 02 03 9c 8a a3 04 04 83 7e 03 02   .............~..
|   3248: 96 b7 01 04 83 5b 03 02 a8 88 02 04 83 7a 03 03   .....[.......z..
|   3264: a9 98 77 02 04 81 38 03 02 b1 b2 04 02 46 03 03   ..w...8......F..
|   3280: b6 bb 72 03 04 82 1a 03 02 be a9 04 04 83 73 02   ..r...........s.
|   3296: 04 9d 8a 9a 6a 01 02 32 03 02 96 9c 03 02 6f 03   ....j..2......o.
|   3312: 02 a6 b2 04 04 83 35 03 02 b4 a6 05 02 43 03 02   ......5......C..
|   3328: bc 98 05 02 4a 02 03 9e 8f 98 0a 04 81 08 03 03   ....J...........
|   3344: 90 8c 6d 07 04 84 64 03 03 b4 9f 6e 03 04 84 35   ..m...d....n...5
|   3360: 02 04 9f a1 a9 69 07 04 84 43 02 03 a7 85 b6 06   .....i...C......
|   3376: 02 60 02 03 ad ba b7 06 02 2b 02 03 bc b6 b6 01   .`.......+......
|   3392: 04 81 31 01 04 f1 92 a9 98 06 02 0c 03 03 b1 9d   ..1.............
|   3408: 69 08 04 84 65 02 06 9e 91 a5 ea b0 98 07 04 82   i...e...........
|   3424: 43 02 03 a1 b7 be 02 04 81 13 02 03 b4 af 9e 0a   C...............
|   3440: 04 84 1d 02 05 b5 92 84 69 6e 07 04 82 52 01 05   ........in...R..
|   3456: f2 90 9a 83 73 03 04 82 45 02 03 91 ac 81 07 04   ....s...E.......
|   3472: 82 7a 03 02 be 94 02 04 81 46 02 03 94 89 ac 04   .z.......F......
|   3488: 04 81 4a 02 04 95 b4 ae 39 08 04 82 2a 02 05 a0   ..J.....9...*...
|   3504: 90 b5 66 34 04 04 82 46 02 05 a6 91 b7 d5 bf 06   ..f4...F........
|   3520: 04 81 7b 02 03 ab a0 93 05 02 2b 02 04 b2 8c 80   ..........+.....
|   3536: 6a 07 04 84 1a 03 02 9c a9 0a 04 81 36 03 02 aa   j...........6...
|   3552: bf 04 04 84 34 01 05 f3 82 84 8d 66 0a 04 83 75   ....4......f...u
|   3568: 02 03 88 a7 b4 06 04 83 38 02 03 ab bf a6 02 04   ........8.......
|   3584: 81 65 02 05 b0 ae a8 73 70 0a 02 10 02 04 b8 a6   .e.....sp.......
|   3600: b6 75 05 04 83 4e 02 03 bd b2 84 08 04 83 50 01   .u...N........P.
|   3616: 04 f4 82 91 84 06 04 81 6a 02 03 8c b4 be 06 02   ........j.......
|   3632: 24 02 03 9b b2 83 01 04 84 4b 02 03 a0 87 b0 05   $........K......
|   3648: 04 83 2f 03 03 ae ba 61 05 04 82 1b 04 08 07 07   ../....a........
|   3664: 06 07 0b 08 06 09 07 07 06 07 0a 07 09 0b 07 06   ................
|   3680: 08 07 0a 07 08 08 07 07 08 07 0b 07 08 08 07 0c   ................
|   3696: 09 07 07 09 0b 07 09 08 08 07 08 08 0a 0a 0a 07   ................
|   3712: 0c 07 07 0b 07 08 07 06 06 07 08 09 0f 07 06 07   ................
|   3728: 07 06 07 08 07 08 07 07 09 07 08 08 07 08 07 06   ................
|   3744: 07 0a 07 07 06 06 08 09 08 07 07 07 06 08 07 0a   ................
|   3760: 07 07 07 09 07 07 06 07 07 06 09 06 07 09 0a 0b   ................
|   3776: 09 08 07 08 07 08 09 08 09 07 07 07 08 06 07 07   ................
|   3792: 07 09 06 07 08 06 07 07 07 0b 0d 09 07 07 0a 08   ................
|   3808: 07 0a 08 0a 09 07 06 08 08 07 06 07 08 0b 07 09   ................
|   3824: 07 07 07 08 08 07 07 08 0a 06 07 07 0a 07 07 0b   ................
|   3840: 07 06 07 09 07 08 07 08 08 07 07 07 06 06 06 09   ................
|   3856: 07 07 0a 09 08 07 06 0c 08 09 08 0a 06 08 09 0a   ................
|   3872: 08 07 08 08 08 0b 08 07 09 08 0c 08 09 08 08 08   ................
|   3888: 08 08 08 0f 07 07 0b 08 0b 06 09 0b 08 08 08 0a   ................
|   3904: 08 09 0a 07 08 07 07 0e 08 07 0b 09 08 0b 08 08   ................
|   3920: 0e 08 0a 08 0a 0a 08 08 0b 07 08 08 08 08 09 08   ................
|   3936: 08 09 08 08 08 08 07 08 08 07 08 08 08 0a 08 08   ................
|   3952: 08 07 07 0e 08 07 0a 0a 08 08 0a 06 08 0c 08 09   ................
|   3968: 08 09 08 08 07 09 09 09 08 0b 08 0a 08 08 07 08   ................
|   3984: 0a 08 08 09 07 08 07 0a 08 09 08 0a 08 08 08 08   ................
|   4000: 09 08 08 07 08 0b 0a 08 09 09 08 08 08 08 08 09   ................
|   4016: 09 09 08 09 08 0b 09 08 08 08 08 0a 08 07 09 06   ................
|   4032: 07 0b 06 0c 0a 09 08 08 08 08 0b 09 09 09 08 08   ................
|   4048: 09 08 09 08 08 09 07 09 08 09 07 08 07 07 09 09   ................
|   4064: 09 0a 08 08 09 09 09 0c 09 09 0b 0b 09 08 09 0a   ................
|   4080: 0b 0b 08 0a 08 08 0b 09 09 0a 0a 09 0a 08 09 09   ................
| page 26 offset 102400
|      0: 0d 00 00 00 01 0e a7 00 0e a7 00 00 00 00 00 00   ................
|   3744: 00 00 00 00 00 00 00 82 51 88 80 80 80 80 07 04   ........Q.......
|   3760: 00 85 26 00 00 01 2d 05 30 f4 a3 b5 8c 0a 02 1b   ..&...-.0.......
|   3776: 02 03 b4 91 a9 02 04 82 1b 02 04 b7 b5 89 67 06   ..............g.
|   3792: 04 84 2f 01 04 f5 86 a9 bd 01 04 81 13 02 06 91   ../.............
|   3808: be ae ca 9e 78 04 04 81 1d 02 05 99 9b b2 6f 65   ....x.........oe
|   3824: 02 04 84 07 02 03 9e 99 8b 02 02 15 02 03 a1 ab   ................
|   3840: b6 02 04 83 0f 02 03 a3 96 8c 02 04 82 20 02 03   ............. ..
|   3856: ac a3 8d 08 02 55 02 03 b0 80 82 02 04 81 18 02   .....U..........
|   3872: 03 b1 9c bb 08 02 67 02 03 b5 be 81 07 04 83 79   ......g........y
|   3888: 02 04 bf 81 9d 71 07 04 81 7c 01 04 f6 83 ab 80   .....q...|......
|   3904: 01 04 81 2a 02 04 89 8c a8 61 01 04 82 30 02 03   ...*.....a...0..
|   3920: 8e ae 81 07 04 84 05 02 04 8f bd b0 6a 09 04 82   ............j...
|   3936: 1e 02 04 92 95 9c 6c 07 04 82 64 03 02 b4 9f 09   ......l...d.....
|   3952: 04 83 65 02 04 9a a9 9f 34 06 04 83 70 02 03 a4   ..e.....4...p...
|   3968: ad af 01 02 02 02 03 b4 9a 90 07 04 83 5e 01 04   .............^..
|   3984: f7 87 a5 9d 04 04 84 62 02 03 89 83 8e 0a 04 82   .......b........
|   4000: 2e 02 03 98 bd 8e 01 04 84 06 02 03 99 a7 8e 02   ................
|   4016: 04 83 7d 02 03 a0 a1 bb 01 04 81 4e 02 04 a8 86   ...........N....
|   4032: b8 64 0a 02 34 02 03 b2 9a 9e 05 04 83 16 02 04   .d..4...........
|   4048: b4 a7 93 36 06 04 83 7d 03 02 ba 9c 02 04 83 07   ...6............
|   4064: 04 09 09 0a 0a 0c 0b 08 09 09 08 09 08 09 0a 0a   ................
|   4080: 0a 09 0a 0a 08 0a 08 09 0a 09 09 09 09 09 09 0a   ................
| end x.db
}]} {}

do_catchsql_test 74.0.5 {
  SELECT matchinfo(1,2);
} {1 {unable to use function matchinfo in the requested context}}

do_catchsql_test 74.1 {
  SELECT rowid, quote(matchinfo(t1,'pxyb<s')) FROM t1 WHERE t1 MATCH 'e*';
} {1 {unrecognized matchinfo flag: <}}

#-------------------------------------------------------------------------
reset_db
do_test 75.0 {
  sqlite3 db {}
  sqlite3_fts5_register_matchinfo db
  db deserialize [decode_hexdb {
| size 32768 pagesize 4096 filename crash-033d665d5caa8d.db
| page 1 offset 0
|      0: 53 51 4c 69 74 65 20 66 6f 72 6d 61 74 20 33 00   SQLite format 3.
|     16: 10 00 01 01 00 40 20 20 00 00 00 00 00 00 00 00   .....@  ........
|     96: 00 00 00 00 0d 0f c7 00 07 0d 92 00 0f 8d 0f 36   ...............6
|    112: 0e cb 0e 6b 0e 0e 0d b6 0d 92 00 00 00 00 00 00   ...k............
|   3472: 00 00 22 08 06 17 11 11 01 31 74 61 62 6c 65 74   .........1tablet
|   3488: 32 74 32 08 43 52 45 41 54 45 20 54 41 42 4c 45   2t2.CREATE TABLE
|   3504: 20 74 32 28 78 29 56 07 06 17 1f 1f 01 7d 74 61    t2(x)V.......ta
|   3520: 62 6c 65 74 31 5f 63 6f 6e 66 69 67 74 31 5f 63   blet1_configt1_c
|   3536: 6f 6e 66 69 67 07 43 52 45 41 54 45 20 54 41 42   onfig.CREATE TAB
|   3552: 4c 45 20 27 74 31 5f 63 6f 6e 66 69 67 27 28 6b   LE 't1_config'(k
|   3568: 20 50 52 49 4d 41 52 59 20 4b 45 59 2c 20 76 29    PRIMARY KEY, v)
|   3584: 20 57 49 54 48 4f 55 54 20 52 4f 57 49 44 5b 06    WITHOUT ROWID[.
|   3600: 07 17 21 21 01 81 01 74 61 62 6c 65 74 31 5f 64   ..!!...tablet1_d
|   3616: 6f 63 73 69 7a 65 74 31 5f 64 6f 63 73 69 7a 65   ocsizet1_docsize
|   3632: 06 43 52 45 41 54 45 20 54 41 42 4c 45 20 27 74   .CREATE TABLE 't
|   3648: 31 5f 64 6f 63 73 69 7a 65 27 28 69 64 20 49 4e   1_docsize'(id IN
|   3664: 54 45 47 45 52 20 50 52 49 4d 54 52 59 20 4b 45   TEGER PRIMTRY KE
|   3680: 59 2c 20 73 7a 20 42 4c 4f 42 29 5e 05 07 17 21   Y, sz BLOB)^...!
|   3696: 21 01 81 07 74 61 62 6c 65 74 31 5f 63 6f 6e 74   !...tablet1_cont
|   3712: 65 6e 74 74 31 5f 63 6f 6e 74 65 6e 74 05 43 52   entt1_content.CR
|   3728: 45 41 54 45 20 54 41 42 4c 45 20 27 74 31 5f 63   EATE TABLE 't1_c
|   3744: 6f 6e 74 65 6e 74 27 28 69 64 20 49 4e 54 45 47   ontent'(id INTEG
|   3760: 45 52 20 50 52 49 4d 41 52 59 20 4b 45 59 2c 20   ER PRIMARY KEY, 
|   3776: 63 30 2c 20 63 31 2c d6 63 32 29 69 04 07 17 19   c0, c1,.c2)i....
|   3792: 19 01 81 2d 74 61 62 6c 65 74 31 5f 69 64 78 74   ...-tablet1_idxt
|   3808: 31 5f 69 64 78 04 43 52 45 41 54 45 20 54 41 42   1_idx.CREATE TAB
|   3824: 4c 45 20 27 74 31 5f 69 64 78 27 28 73 65 67 69   LE 't1_idx'(segi
|   3840: 64 2c 20 74 65 72 6d 2c 20 70 67 6e 6f 2c 20 50   d, term, pgno, P
|   3856: 52 49 4d 41 52 59 20 4b 45 59 28 73 65 67 69 64   RIMARY KEY(segid
|   3872: 2c 20 74 65 72 6d 29 29 20 57 49 54 48 4f 55 54   , term)) WITHOUT
|   3888: 20 52 4f 57 49 44 55 03 07 17 1b 1b 01 81 01 74    ROWIDU........t
|   3904: 61 62 6c 65 74 31 5f 64 61 74 61 74 31 5f 64 61   ablet1_datat1_da
|   3920: 74 61 03 43 52 45 41 54 45 20 54 41 42 4c 45 20   ta.CREATE TABLE 
|   3936: 27 74 31 5f 64 61 74 61 27 28 69 64 20 49 4e 54   't1_data'(id INT
|   3952: 45 47 45 52 20 50 52 49 4d 41 52 59 20 4b 45 59   EGER PRIMARY KEY
|   3968: 2c 20 62 6c 6f 63 6b 20 42 4c 4f 42 29 38 02 06   , block BLOB)8..
|   3984: 17 11 11 08 5f 74 61 62 6c 65 74 31 74 31 43 52   ...._tablet1t1CR
|   4000: 45 41 54 45 20 56 49 52 54 55 41 4c 20 54 41 42   EATE VIRTUAL TAB
|   4016: 4c 45 20 74 31 20 55 53 49 4e 47 20 66 74 73 35   LE t1 USING fts5
|   4032: 28 61 2c 62 2c 63 29 00 00 00 00 00 00 00 00 00   (a,b,c).........
| page 3 offset 8192
|      0: 0d 00 00 00 03 0c 93 ff 0f e6 0f ef 0c 94 00 00   ................
|   3216: 00 00 00 00 86 4a 84 80 80 80 80 01 04 00 8d 18   .....J..........
|   3232: 00 00 03 2b 02 30 30 01 02 06 01 02 06 01 02 06   ...+.00.........
|   3248: 1f 02 03 01 02 03 01 02 03 01 08 32 31 31 36 30   ...........21160
|   3264: 36 30 39 01 02 07 01 02 07 01 02 07 01 01 33 f1   609...........3.
|   3280: 02 05 01 02 05 01 02 05 01 01 35 01 02 03 01 02   ..........5.....
|   3296: 04 01 02 04 02 07 30 30 30 30 30 30 30 1c 02 3d   ......0000000..=
|   3312: 01 02 04 01 02 04 01 06 62 69 6e 61 72 79 03 06   ........binary..
|   3328: 01 02 02 03 06 01 01 f2 03 06 4e 02 02 03 06 01   ..........N.....
|   3344: 02 02 03 05 01 02 02 03 06 01 02 02 03 06 01 02   ................
|   3360: 02 03 06 01 02 02 03 06 01 02 02 03 06 01 02 02   ................
|   3376: 03 06 01 02 02 03 06 01 02 02 01 08 63 6f 6d 70   ............comp
|   3392: 69 6c 65 72 01 02 02 01 02 02 01 02 02 01 06 64   iler...........d
|   3408: 62 73 74 61 74 07 02 03 01 02 13 01 02 03 02 04   bstat...........
|   3424: 65 62 75 67 04 02 02 01 02 02 01 02 02 01 07 65   ebug...........e
|   3440: 6e 61 62 6c 65 07 02 02 01 02 02 01 02 02 01 02   nable...........
|   3456: 02 01 02 02 01 02 02 01 02 02 01 02 02 01 02 02   ................
|   3472: 01 02 02 01 02 02 01 02 01 f1 02 02 01 02 02 01   ................
|   3488: 02 02 01 02 02 01 02 02 01 02 02 01 02 02 01 02   ................
|   3504: 02 01 02 02 02 08 78 74 65 6e 73 69 6f 6e 1f 02   ......xtension..
|   3520: 04 01 02 04 01 02 04 01 04 66 74 73 34 0a 02 03   .........fts4...
|   3536: 01 02 03 01 02 03 04 01 25 0d 02 03 01 02 03 01   ........%.......
|   3552: 02 03 01 03 67 63 63 01 02 03 01 02 03 01 02 03   ....gcc.........
|   3568: 02 06 65 6f 70 6f 6c 79 0f f2 03 01 02 03 01 02   ..eopoly........
|   3584: 03 01 05 6a 73 6f 6e 31 13 02 03 01 02 03 01 02   ...json1........
|   3600: 03 01 04 6c 6f 61 64 1f 02 03 01 02 03 01 02 03   ...load.........
|   3616: 00 03 6d 61 78 1c 02 02 01 02 02 01 02 02 02 05   ..max...........
|   3632: 65 6d 6f 72 79 1c 02 03 01 02 03 01 02 03 04 04   emory...........
|   3648: 73 79 73 35 16 02 03 01 02 03 01 02 03 01 06 6e   sys5...........n
|   3664: 6f 63 61 73 65 02 06 01 02 02 13 06 00 f2 02 03   ocase...........
|   3680: 06 01 02 02 13 06 01 02 02 03 06 01 02 02 03 06   ................
|   3696: 01 02 02 03 06 01 02 02 03 06 02 02 02 03 06 01   ................
|   3712: 02 02 03 06 01 02 02 03 06 01 02 02 03 06 01 02   ................
|   3728: 02 01 04 6f 6d 69 74 1f 02 02 01 02 02 01 02 b2   ...omit.........
|   3744: 01 0a 22 74 72 65 65 19 02 03 01 02 03 01 02 03   ...tree.........
|   3760: 04 02 69 6c f1 06 01 02 02 03 06 01 02 02 03 06   ..il............
|   3776: 01 02 02 03 06 01 02 02 03 06 01 02 02 03 06 01   ................
|   3792: 02 02 03 06 01 02 02 03 06 01 02 02 03 06 01 02   ................
|   3808: 02 03 06 01 02 02 03 06 01 02 02 03 06 01 02 02   ................
|   3824: 01 0a 74 68 72 65 61 64 73 61 66 65 22 02 02 01   ..threadsafe....
|   3840: 02 02 01 02 02 01 04 76 74 61 62 07 02 04 01 02   .......vtab.....
|   3856: 04 01 02 04 01 01 78 01 06 01 01 02 01 06 01 01   ......x.........
|   3872: 02 01 06 01 01 02 04 36 01 01 02 01 06 01 01 02   .......6........
|   3888: 01 06 01 11 02 01 06 01 01 02 01 06 01 01 02 01   ................
|   3904: 06 01 01 02 01 06 01 01 02 01 06 01 01 02 01 06   ................
|   3920: 01 01 02 01 06 01 01 02 01 06 01 01 02 01 06 01   ................
|   3936: 01 02 01 06 01 01 02 01 06 01 01 02 01 06 01 01   ................
|   3952: 02 01 06 01 01 01 f1 06 01 01 02 ad 06 01 01 02   ................
|   3968: 01 06 01 01 02 01 06 01 01 02 01 06 01 01 02 01   ................
|   3984: 06 01 01 01 01 06 01 01 02 01 06 01 01 02 01 06   ................
|   4000: 01 01 02 01 06 01 01 02 01 06 01 01 02 01 06 01   ................
|   4016: 01 02 01 06 01 01 02 01 06 01 01 02 01 06 01 01   ................
|   4032: 02 01 06 01 01 02 01 06 01 01 02 04 15 13 0c 0c   ................
|   4048: 12 44 13 11 0f 47 13 0e fc 0e 11 10 0f 0e 10 0f   .D...G..........
|   4064: 44 0f 10 40 15 0f 07 01 03 00 14 24 5a 24 24 0f   D..@.......$Z$$.
|   4080: 0a 03 00 24 00 00 00 00 01 01 01 00 01 01 01 01   ...$............
| page 4 offset 12288
|      0: 0a 00 00 00 00 00 00 00 00 00 00 00 00 00 00 00   ................
|   4080: 00 00 00 00 00 00 00 00 00 00 05 04 09 0c 01 02   ................
| page 5 offset 16384
|      0: 0d 00 00 00 00 00 00 00 00 00 00 00 00 00 00 00   ................
|   3072: 00 00 00 00 00 00 00 00 00 00 18 24 05 00 25 0f   ...........$..%.
|   3088: 19 54 48 52 45 41 44 53 41 46 45 3d 30 58 42 49   .THREADSAFE=0XBI
|   3104: 4e 41 52 59 18 23 05 00 25 0f 19 54 48 52 45 41   NARY.#..%..THREA
|   3120: 44 53 41 46 45 3d 30 58 4e 4f 43 41 53 45 17 8f   DSAFE=0XNOCASE..
|   3136: 05 00 25 0f 17 54 48 52 45 41 44 53 41 46 45 3d   ..%..THREADSAFE=
|   3152: 30 58 52 54 52 49 4d 1f 21 05 00 33 0f 19 45 ed   0XRTRIM.!..3..E.
|   3168: 49 54 20 4c 4f 41 44 21 45 58 54 45 4e 53 49 4f   IT LOAD!EXTENSIO
|   3184: 4e 58 42 49 4e 41 52 59 1f 20 05 00 33 0f 19 4f   NXBINARY. ..3..O
|   3200: 4d 49 54 20 4c 4f 41 44 20 45 58 54 45 4e 5a 29   MIT LOAD EXTENZ)
|   3216: 4f 4e 58 4e 4f 43 41 53 45 1e 1f 05 00 33 0f 17   ONXNOCASE....3..
|   3232: 4f 4d 59 54 20 4c 4f 41 44 20 45 58 54 45 4e 53   OMYT LOAD EXTENS
|   3248: 49 4f 4e 58 52 54 56 a9 4d 1f 1e 05 00 33 0f 19   IONXRTV.M....3..
|   3264: 4d 41 58 20 4d 45 4d 4f 52 59 3d 25 30 30 30 30   MAX MEMORY=%0000
|   3280: 30 30 30 57 42 49 4e 31 52 59 1f 1d 05 00 33 0f   000WBIN1RY....3.
|   3296: 19 4d 41 58 20 4d 45 4d 4f 52 59 3d 35 30 30 30   .MAX MEMORY=5000
|   3312: 30 30 30 30 58 4e 4f 43 41 53 45 1e 1c 05 00 32   0000XNOCASE....2
|   3328: 0e 17 4e 41 58 20 4d 45 4d 4f 52 59 2d 35 30 30   ..NAX MEMORY-500
|   3344: 30 30 30 30 30 58 52 54 52 49 4d 18 1b 05 00 25   00000XRTRIM....%
|   3360: 0f 19 45 4e 41 42 4c 45 20 52 54 52 45 45 58 42   ..ENABLE RTREEXB
|   3376: 49 4e 41 52 59 18 1a 05 00 25 0f 19 45 4e 41 42   INARY....%..ENAB
|   3392: 4c 45 20 52 54 52 45 45 59 4e 4f 43 41 53 45 17   LE RTREEYNOCASE.
|   3408: 19 66 00 25 0f 17 45 4e 41 42 4c 45 20 52 54 52   .f.%..ENABLE RTR
|   3424: 45 45 58 52 54 52 49 4d 1a 18 05 00 29 0f 19 45   EEXRTRIM....)..E
|   3440: 4e 41 42 4c 45 20 4d 45 4d 53 59 53 35 58 42 49   NABLE MEMSYS5XBI
|   3456: 4e 41 52 59 1a 17 05 00 29 0f 19 45 4e 41 42 4c   NARY....)..ENABL
|   3472: 45 20 4d 45 4d 53 59 53 35 58 4e 4f 43 41 53 45   E MEMSYS5XNOCASE
|   3488: 19 16 05 00 29 0f 17 45 4e 41 42 4c 45 20 4d 45   ....)..ENABLE ME
|   3504: 4d 53 59 76 35 58 52 54 52 49 4d 18 15 05 10 25   MSYv5XRTRIM....%
|   3520: 0f 19 45 4e 40 42 4c 45 20 4a 53 4f 4e 31 58 42   ..EN@BLE JSON1XB
|   3536: 49 4e 41 52 59 18 14 05 00 25 0f 19 45 4e 41 42   INARY....%..ENAB
|   3552: 4c 45 20 4a 53 4f 4e 32 58 4e 4f 43 41 53 45 17   LE JSON2XNOCASE.
|   3568: 13 05 00 25 0f 17 45 4e 41 42 4c 45 20 4a 53 4f   ...%..ENABLE JSO
|   3584: 4e 31 58 52 54 52 49 4d 1a 12 05 00 29 0f 19 45   N1XRTRIM....)..E
|   3600: 4e 41 42 4c 45 20 47 45 4f 50 4f 4c 59 58 42 49   NABLE GEOPOLYXBI
|   3616: 4e 41 52 59 1a 11 05 00 29 0f 19 45 5f 81 42 4c   NARY....)..E_.BL
|   3632: 45 20 47 45 4f 50 4f 4c 59 58 4e 4f 43 51 53 45   E GEOPOLYXNOCQSE
|   3648: 19 10 05 00 29 0f 17 45 4e 41 42 4c 45 20 47 45   ....)..ENABLE GE
|   3664: 4f 50 4f 4c 59 58 52 54 52 49 4d 17 0f 05 00 23   OPOLYXRTRIM....#
|   3680: 0f 1a 45 4e 41 42 4c 45 20 56 54 43 35 58 42 49   ..ENABLE VTC5XBI
|   3696: 4e 41 52 59 17 0e 05 00 23 0f 19 45 4e 41 42 4c   NARY....#..ENABL
|   3712: 45 20 46 54 53 35 48 4e 4f 43 41 53 45 16 1d 05   E FTS5HNOCASE...
|   3728: 00 23 0f a4 45 4e 41 42 4c 45 20 46 54 53 35 58   .#..ENABLE FTS5X
|   3744: 52 54 52 49 4d b7 0c 05 00 23 0f 19 45 4e 41 42   RTRIM....#..ENAB
|   3760: 4c 45 20 46 55 53 34 58 42 49 4e 41 52 59 17 0b   LE FUS4XBINARY..
|   3776: 05 00 23 0f 19 45 4e 41 42 4c 45 20 46 54 53 34   ..#..ENABLE FTS4
|   3792: 57 4e 4f 43 41 53 45 16 0a 05 00 21 7f 17 45 4e   WNOCASE....!..EN
|   3808: 41 42 4c 45 20 46 54 53 34 05 52 54 52 49 4d 1e   ABLE FTS4.RTRIM.
|   3824: 09 05 00 31 0f 19 45 4e 41 42 4c 45 20 44 42 53   ...1..ENABLE DBS
|   3840: 54 41 54 20 56 54 41 42 58 42 49 4e 41 52 59 1e   TAT VTABXBINARY.
|   3856: 08 05 00 31 0f 19 45 4e 41 42 4c 45 20 44 42 53   ...1..ENABLE DBS
|   3872: 54 41 54 20 56 54 41 42 58 4e 4f 43 41 53 45 1d   TAT VTABXNOCASE.
|   3888: 07 05 00 31 0f 17 45 4e 41 42 4c 45 20 44 42 53   ...1..ENABLE DBS
|   3904: 54 41 54 20 56 54 41 42 58 52 54 52 49 4d 11 06   TAT VTABXRTRIM..
|   3920: 05 00 17 0f 19 44 45 42 55 47 58 42 49 4e 41 52   .....DEBUGXBINAR
|   3936: 59 11 05 05 00 17 0f 19 44 45 42 55 47 58 4e 4f   Y.......DEBUGXNO
|   3952: 43 41 53 45 10 04 05 00 17 0f 17 44 45 42 55 47   CASE.......DEBUG
|   3968: 58 52 54 52 49 4d 27 03 05 00 43 0f 19 43 4f 4d   XRTRIM'...C..COM
|   3984: 50 49 4c 45 52 3d 67 63 63 2d 35 2e 34 2e 30 20   PILER=gcc-5.4.0 
|   4000: 32 30 31 36 30 36 30 39 58 42 49 4e 41 52 59 27   20160609XBINARY'
|   4016: 02 05 00 43 0f 19 43 4f 4d 50 49 4c 45 52 3f 87   ...C..COMPILER?.
|   4032: 63 63 2d 35 2e 34 2e 30 20 32 30 31 36 30 36 30   cc-5.4.0 2016060
|   4048: 39 58 4e 4f 43 41 53 45 26 01 05 00 43 0f 17 00   9XNOCASE&...C...
| page 6 offset 20480
|   3808: 06 24 03 00 12 02 01 01 06 23 03 00 12 02 01 01   .$.......#......
|   3824: 06 22 03 01 12 02 01 01 06 21 03 00 12 03 01 01   .........!......
|   3840: 06 20 03 00 12 03 01 01 06 1f 03 00 12 03 02 01   . ..............
|   3856: 06 1e 03 00 12 03 01 01 06 1d 03 00 12 03 01 01   ................
|   3872: 06 1c 03 00 12 03 01 01 06 1b 03 00 12 02 01 01   ................
|   3888: 06 1a 03 00 12 02 01 01 06 19 03 00 12 02 01 01   ................
|   3904: 06 18 03 00 12 02 01 01 06 17 03 00 12 02 01 01   ................
|   3920: 06 16 03 00 12 02 01 01 06 15 03 00 12 02 01 01   ................
|   3936: 06 14 03 00 12 02 01 01 06 13 03 00 12 02 01 01   ................
|   3952: 06 12 03 00 12 02 01 01 06 11 03 00 12 02 01 01   ................
|   3968: 06 00 03 00 12 02 01 01 06 0f 03 00 12 02 01 01   ................
|   3984: 06 0e 03 00 12 02 01 01 06 0d 03 00 12 02 01 01   ................
|   4000: 06 0c 03 00 12 02 01 01 06 0b 03 10 12 02 01 01   ................
|   4016: 06 0a 03 00 12 02 01 01 06 09 03 01 12 03 01 01   ................
|   4032: 06 08 03 00 12 03 01 01 06 07 03 00 12 03 01 01   ................
|   4048: 07 06 03 00 12 01 01 01 06 05 03 00 12 01 01 01   ................
|   4064: 06 04 03 00 12 01 01 01 06 03 03 00 12 06 01 01   ................
|   4080: 06 02 03 00 12 06 01 01 06 01 03 00 12 06 01 01   ................
| page 7 offset 24576
|      0: 0a 00 00 00 01 0f f4 00 0f f4 00 00 00 00 00 00   ................
|   4080: 00 00 00 00 0b 03 1b 01 76 65 72 73 69 6f 6e 04   ........version.
| page 8 offset 28672
|   4048: 00 00 00 00 00 00 5d 03 02 2b 69 6e 74 00 00 00   ......]..+int...
| end crash-033d665d5caa8d.db
}]} {}

do_catchsql_test 75.1 {
  SELECT rowid, quote(matchinfo(t1,'pcxybs')) FROM t1 WHERE t1 MATCH 'e*';
} {1 {database disk image is malformed}}

#-------------------------------------------------------------------------
reset_db
do_test 76.0 {
  sqlite3 db {}
  db deserialize [decode_hexdb {
| size 40960 pagesize 4096 filename crash-03b68c01d30713.db
| page 1 offset 0
|      0: 53 51 4c 69 74 65 20 66 6f 72 6d 61 74 20 33 00   SQLite format 3.
|     16: 10 00 01 01 00 40 20 20 00 00 00 00 00 00 00 0a   .....@  ........
|     32: 00 00 00 00 00 00 00 00 00 00 00 0d 00 00 00 04   ................
|     96: 00 00 00 00 0d 00 00 00 0d 0b 6e 00 0f a3 0f 4c   ..........n....L
|    112: 0e e1 0e 81 0e 24 0d cc 0d 72 0d 1b 0c b0 0c 50   .....$...r.....P
|    128: 0b f8 0b b3 0b 6e 01 00 00 00 00 00 00 00 00 00   .....n..........
|   2912: 00 00 00 00 00 00 00 00 00 00 00 00 00 00 43 0d   ..............C.
|   2928: 06 17 11 11 08 75 74 61 62 6c 65 74 34 74 34 43   .....utablet4t4C
|   2944: 52 45 41 54 45 20 56 49 52 54 55 41 4c 20 54 41   REATE VIRTUAL TA
|   2960: 42 4c 45 20 74 34 20 55 53 49 4e 47 20 66 74 73   BLE t4 USING fts
|   2976: 35 76 6f 63 61 62 28 27 74 32 27 2c 20 27 72 6f   5vocab('t2', 'ro
|   2992: 77 27 29 43 0c 06 17 11 11 08 75 74 61 62 6c 65   w')C......utable
|   3008: 74 33 74 33 43 52 45 41 54 45 20 56 49 52 54 55   t3t3CREATE VIRTU
|   3024: 41 4c 20 54 41 42 4c 45 20 74 33 20 55 53 49 4e   AL TABLE t3 USIN
|   3040: 47 20 66 74 73 35 76 6f 63 61 62 28 27 74 31 27   G fts5vocab('t1'
|   3056: 2c 20 27 72 6f 77 27 29 56 0b 06 17 1f 1f 01 7d   , 'row')V.......
|   3072: 74 61 62 6c 65 74 32 5f 63 6f 6e 66 69 67 74 32   tablet2_configt2
|   3088: 5f 63 6f 6e 66 69 67 0a 43 52 45 41 54 45 20 54   _config.CREATE T
|   3104: 41 42 4c 45 20 27 74 32 5f 63 6f 6e 66 69 67 27   ABLE 't2_config'
|   3120: 28 6b 20 50 52 49 4d 41 52 59 20 4b 45 59 2c 20   (k PRIMARY KEY, 
|   3136: 76 29 20 57 49 54 48 4f 55 54 20 52 4f 57 49 44   v) WITHOUT ROWID
|   3152: 5e 0a 07 17 21 21 01 81 07 74 61 62 6c 65 74 32   ^...!!...tablet2
|   3168: 5f 63 6f 6e 74 65 6e 74 74 32 5f 63 6f 6e 74 65   _contentt2_conte
|   3184: 6e 74 09 43 52 45 41 54 45 20 54 41 42 4c 45 20   nt.CREATE TABLE 
|   3200: 27 74 32 5f 63 6f 6e 74 65 6e 74 27 28 69 64 20   't2_content'(id 
|   3216: 49 4e 54 45 47 45 52 20 50 52 49 4d 41 52 59 20   INTEGER PRIMARY 
|   3232: 4b 45 59 2c 20 63 30 2c 20 63 31 2c 20 63 32 29   KEY, c0, c1, c2)
|   3248: 69 09 07 17 19 19 01 81 2d 74 61 62 6c 65 74 32   i.......-tablet2
|   3264: 5f 69 64 78 74 32 5f 69 64 78 08 43 52 45 41 54   _idxt2_idx.CREAT
|   3280: 45 20 54 41 42 4c 45 20 27 74 32 5f 69 64 78 27   E TABLE 't2_idx'
|   3296: 28 73 65 67 69 64 2c 20 74 65 72 6d 2c 20 70 67   (segid, term, pg
|   3312: 6e 6f 2c 20 50 52 49 4d 41 52 59 20 4b 45 59 28   no, PRIMARY KEY(
|   3328: 73 65 67 69 64 2c 20 74 65 72 6d 29 29 20 57 49   segid, term)) WI
|   3344: 54 48 4f 55 54 20 52 4f 57 49 44 55 08 07 17 1b   THOUT ROWIDU....
|   3360: 1b 01 81 01 74 61 62 6c 65 74 32 5f 64 61 74 61   ....tablet2_data
|   3376: 74 32 5f 64 61 74 61 07 43 52 45 41 54 45 20 54   t2_data.CREATE T
|   3392: 41 42 4c 45 20 27 74 32 5f 64 61 74 61 27 28 69   ABLE 't2_data'(i
|   3408: 64 20 49 4e 54 45 47 45 52 20 50 52 49 4d 41 52   d INTEGER PRIMAR
|   3424: 59 20 4b 45 59 2c 20 62 6c 6f 63 6b 20 42 4c 4f   Y KEY, block BLO
|   3440: 42 29 58 07 07 17 11 11 08 81 1d 74 61 62 6c 65   B)X........table
|   3456: 74 32 74 32 43 52 45 41 54 45 20 56 49 52 54 55   t2t2CREATE VIRTU
|   3472: 41 4c 20 54 41 42 4c 45 20 74 32 20 55 53 49 4e   AL TABLE t2 USIN
|   3488: 47 20 66 74 73 35 28 27 61 27 2c 5b 62 5d 2c 22   G fts5('a',[b],.
|   3504: 63 22 2c 64 65 74 61 69 6c 3d 6e 6f 6e 65 2c 63   c.,detail=none,c
|   3520: 6f 6c 75 6d 6e 73 69 7a 65 3d 30 29 56 06 06 17   olumnsize=0)V...
|   3536: 1f 1f 01 7d 74 61 62 6c 65 74 31 5f 63 6f 6e 66   ....tablet1_conf
|   3552: 69 67 74 31 5f 63 6f 6e 66 69 67 06 43 52 45 41   igt1_config.CREA
|   3568: 54 45 20 54 41 42 4c 45 20 27 74 31 5f 63 6f 6e   TE TABLE 't1_con
|   3584: 66 69 67 27 28 6b 20 50 52 49 4d 41 52 59 20 4b   fig'(k PRIMARY K
|   3600: 45 59 2c 20 76 29 20 57 49 54 48 4f 55 54 20 52   EY, v) WITHOUT R
|   3616: 4f 57 49 44 5b 05 07 17 21 21 01 81 01 74 61 62   OWID[...!!...tab
|   3632: 6c 65 74 31 5f 64 6f 63 73 69 7a 65 74 31 5f 64   let1_docsizet1_d
|   3648: 6f 63 73 69 7a 65 05 43 52 45 41 54 45 20 54 41   ocsize.CREATE TA
|   3664: 42 4c 45 20 27 74 31 5f 64 6f 63 73 69 7a 65 27   BLE 't1_docsize'
|   3680: 28 69 64 20 49 4e 54 45 47 45 52 20 50 52 49 4d   (id INTEGER PRIM
|   3696: 41 52 59 20 4b 45 59 2c 20 73 7a 20 42 4c 4f 42   ARY KEY, sz BLOB
|   3712: 29 5e 04 07 17 21 21 01 81 07 74 61 62 6c 65 74   )^...!!...tablet
|   3728: 31 5f 63 6f 6e 74 65 6e 74 74 31 5f 63 6f 6e 74   1_contentt1_cont
|   3744: 65 6e 74 04 43 52 45 41 54 45 20 54 41 42 4c 45   ent.CREATE TABLE
|   3760: 20 27 74 31 5f 63 6f 6e 74 65 6e 74 27 28 69 64    't1_content'(id
|   3776: 20 49 4e 54 45 47 45 52 20 50 52 49 4d 41 52 59    INTEGER PRIMARY
|   3792: 20 4b 45 59 2c 20 63 30 2c 20 63 31 2c 20 63 32    KEY, c0, c1, c2
|   3808: 29 69 03 07 17 19 19 01 81 2d 74 61 62 6c 65 74   )i.......-tablet
|   3824: 31 5f 69 64 78 74 31 5f 69 64 78 03 43 52 45 41   1_idxt1_idx.CREA
|   3840: 54 45 20 54 41 42 4c 45 20 27 74 31 5f 69 64 78   TE TABLE 't1_idx
|   3856: 27 28 73 65 67 69 64 2c 20 74 65 72 6d 2c 20 70   '(segid, term, p
|   3872: 67 6e 6f 2c 20 50 52 49 4d 41 52 59 20 4b 45 59   gno, PRIMARY KEY
|   3888: 28 73 65 67 69 64 2c 20 74 65 72 6d 29 29 20 57   (segid, term)) W
|   3904: 49 54 48 4f 55 54 20 52 4f 57 49 44 55 02 07 17   ITHOUT ROWIDU...
|   3920: 1b 1b 01 81 01 74 61 62 6c 65 74 31 5f 64 61 74   .....tablet1_dat
|   3936: 61 74 31 5f 64 61 74 61 02 43 52 45 41 54 45 20   at1_data.CREATE 
|   3952: 54 41 42 4c 45 20 27 74 31 5f 64 61 74 61 27 28   TABLE 't1_data'(
|   3968: 69 64 20 49 4e 54 45 47 45 52 20 50 52 49 4d 41   id INTEGER PRIMA
|   3984: 52 59 20 4b 45 59 2c 20 62 6c 6f 63 6b 20 42 4c   RY KEY, block BL
|   4000: 4f 42 29 5b 01 07 17 11 11 08 81 23 74 61 62 6c   OB)[.......#tabl
|   4016: 65 74 31 74 31 43 52 45 41 54 45 20 56 49 52 54   et1t1CREATE VIRT
|   4032: 55 41 4c 20 54 41 42 4c 45 20 74 31 20 55 53 49   UAL TABLE t1 USI
|   4048: 4e 47 20 66 74 73 35 28 61 2c 62 20 75 6e 69 65   NG fts5(a,b unie
|   4064: 24 65 78 65 64 2c 63 2c 74 6f 6b 65 6e 69 7a 65   $exed,c,tokenize
|   4080: 3d 22 70 6f 72 74 65 72 20 61 73 63 69 69 22 29   =.porter ascii.)
| page 2 offset 4096
|      0: 0d 0f 68 00 05 0f 13 00 0f e6 0f 13 0f a8 00 00   ..h.............
|   3856: 00 00 00 15 0a 03 00 30 00 00 00 00 01 03 03 00   .......0........
|   3872: 03 01 01 01 02 01 01 03 01 01 37 8c 80 80 80 80   ..........7.....
|   3888: 01 03 00 74 00 20 68 20 69 0d 00 00 00 03 0f e8   ...t. h i.......
| page 5 offset 16384
|   4064: 00 00 00 00 00 00 00 00 06 03 03 00 12 03 00 00   ................
|   4080: 60 20 30 d6 20 30 00 30 60 10 30 01 20 30 00 30   ` 0. 0.0`.0. 0.0
| page 6 offset 20480
|      0: a0 00 00 00 00 00 00 00 00 00 00 00 00 00 00 00   ................
|   4080: 00 00 00 00 0b 03 1b 01 76 65 72 73 69 6f 6e 04   ........version.
| page 7 offset 24576
|      0: 0d 00 00 00 03 0f 9e 00 0f e6 0f ef 0f 9e 00 00   ................
|     16: 00 00 00 01 00 00 00 00 00 00 00 00 00 00 00 00   ................
|   3984: 00 00 00 00 00 00 00 00 00 00 00 00 00 00 41 84   ..............A.
|   4000: 80 80 80 80 01 04 00 81 06 00 00 00 34 02 30 61   ............4.0a
|   4016: 01 00 ff ff ff ff ff ff ff ff ff 11 87 89 06 26   ...............&
|   4032: 01 64 01 01 01 65 01 01 01 66 01 01 01 66 01 01   .d...e...f...f..
|   4048: 01 01 01 68 01 01 01 01 01 69 01 01 01 04 01 56   ...h.....i.....V
|   4064: 06 04 44 00 06 06 07 01 03 00 14 03 09 09 09 0f   ..D.............
|   4080: 0a 03 00 24 00 00 00 00 01 01 01 00 01 01 01 01   ...$............
| page 8 offset 28672
|      0: 0a 00 00 00 01 00 00 00 00 00 00 00 00 00 00 00   ................
|   4080: 00 00 00 00 00 00 00 00 00 00 05 04 09 1c 01 02   ................
| page 9 offset 32768
|      0: 0d 00 00 00 9d 0f be 00 0f ea 0f d4 0f be 00 00   ................
|   4016: 00 00 00 00 00 00 00 00 00 00 00 00 00 00 14 03   ................
|   4032: 05 00 17 17 17 61 20 62 20 63 67 20 68 20 69 67   .....a b cg h ig
|   4048: 20 68 20 69 14 02 05 00 17 17 17 67 20 68 20 69    h i.......g h i
|   4064: 61 20 62 20 63 67 20 68 20 69 14 01 04 ff 17 17   a b cg h i......
|   4080: 17 61 20 62 20 63 64 20 65 20 66 67 20 68 20 69   .a b cd e fg h i
| page 10 offset 36864
|      0: 0a 00 00 00 01 0f f4 00 0f f4 00 00 00 00 00 01   ................
|   4080: 00 00 00 00 0b 03 1b 01 76 65 72 73 69 6f 6e 04   ........version.
| end crash-03b68c01d30713.db
}]} {}


do_catchsql_test 76.1 {
  SELECT * FROM t4;
} {1 {database disk image is malformed}}

#-------------------------------------------------------------------------
reset_db
do_test 77.0 {
  sqlite3 db {}
  db deserialize [decode_hexdb {
| size 24576 pagesize 4096 filename crash-53216796d7c3d8.db
| page 1 offset 0
|      0: 53 51 4c 69 74 65 20 66 6f 72 6d 61 74 20 33 00   SQLite format 3.
|     16: 10 00 01 01 00 40 20 20 00 00 00 06 40 00 00 06   .....@  ....@...
|     32: 00 00 00 00 00 00 00 00 00 00 00 06 00 00 00 00   ................
|     96: 00 00 00 00 0d 00 00 00 06 0e 0f 00 0f aa 0f 53   ...............S
|    112: 0e e8 0e 8b 0e 33 0e 0f 00 00 00 00 00 00 00 00   .....3..........
|   3584: 00 00 00 00 00 00 00 00 00 00 00 00 00 00 00 22   ................
|   3600: 06 06 17 11 11 01 31 74 61 62 6c 65 62 62 62 62   ......1tablebbbb
|   3616: 06 43 52 45 41 54 45 20 54 41 42 4c 45 20 62 62   .CREATE TABLE bb
|   3632: 28 61 29 56 05 06 17 1f 1f 01 7d 74 61 62 6c 65   (a)V.......table
|   3648: 74 31 5f 63 6f 6e 66 69 67 74 31 5f 63 6f 6e 66   t1_configt1_conf
|   3664: 69 67 05 43 52 45 41 54 45 20 54 41 42 4c 45 20   ig.CREATE TABLE 
|   3680: 27 74 31 5f 63 6f 6e 66 69 67 27 28 6b 20 50 52   't1_config'(k PR
|   3696: 49 4d 41 52 59 20 4b 45 59 2c 20 76 29 20 57 49   IMARY KEY, v) WI
|   3712: 54 48 4f 55 54 20 52 4f 57 49 44 5b 04 07 17 21   THOUT ROWID[...!
|   3728: 21 01 81 01 74 61 62 6c 65 74 31 5f 64 6f 63 73   !...tablet1_docs
|   3744: 69 7a 65 74 31 5f 64 6f 63 73 69 7a 65 04 43 52   izet1_docsize.CR
|   3760: 45 41 54 45 20 54 41 42 4c 45 20 27 74 31 5f 64   EATE TABLE 't1_d
|   3776: 6f 63 73 69 7a 65 27 28 69 64 20 49 4e 54 45 47   ocsize'(id INTEG
|   3792: 45 52 20 50 52 49 4d 41 52 59 20 4b 45 59 2c 20   ER PRIMARY KEY, 
|   3808: 73 7a 20 42 4c 4f 42 29 69 03 07 17 19 19 01 81   sz BLOB)i.......
|   3824: 2d 74 61 62 6c 65 74 31 5f 69 64 78 74 31 5f 69   -tablet1_idxt1_i
|   3840: 64 78 03 43 52 45 41 54 45 20 54 41 42 4c 45 20   dx.CREATE TABLE 
|   3856: 27 74 31 5f 69 64 78 27 28 73 65 67 69 64 2c 20   't1_idx'(segid, 
|   3872: 74 65 72 6d 2c 20 70 67 6e 6f 2c 20 50 52 49 4d   term, pgno, PRIM
|   3888: 41 52 59 20 4b 45 59 28 73 65 67 69 64 2c 20 74   ARY KEY(segid, t
|   3904: 65 72 6d 29 29 20 57 49 54 48 4f 55 54 20 52 4f   erm)) WITHOUT RO
|   3920: 57 49 44 55 35 07 17 1b 1b 01 81 01 74 61 62 6c   WIDU5.......tabl
|   3936: 65 74 31 5f 64 61 74 61 74 31 5f 64 61 74 61 02   et1_datat1_data.
|   3952: 43 52 45 41 54 45 20 54 41 42 4c 45 20 27 74 31   CREATE TABLE 't1
|   3968: 5f 64 61 74 61 27 28 69 64 20 49 4e 54 45 47 45   _data'(id INTEGE
|   3984: 52 20 50 52 49 4d 41 52 59 20 4b 45 59 2c 20 62   R PRIMARY KEY, b
|   4000: 6c 6f 63 6b 20 42 4c 4f 42 29 54 01 07 17 11 11   lock BLOB)T.....
|   4016: 08 81 15 74 61 62 6c 65 74 31 74 31 43 52 45 41   ...tablet1t1CREA
|   4032: 54 45 20 56 49 52 54 55 41 4c 20 54 41 42 4c 45   TE VIRTUAL TABLE
|   4048: 20 74 31 20 55 53 49 4e 47 20 66 74 73 35 28 61    t1 USING fts5(a
|   4064: 2c 62 2c 70 72 65 66 69 78 3d 22 31 2c 32 2c 33   ,b,prefix=.1,2,3
|   4080: 2c 34 22 2c 20 63 6f 6e 74 65 6e 74 3d 22 22 29   ,4., content=..)
| page 2 offset 4096
|      0: 0d 0b 6a 00 37 09 4c 02 0f e7 09 4c 0f c6 0f a4   ..j.7.L....L....
|     16: 0f 88 0f 6d 0f 4b 0f 2c 0f 0e 0e ec 0e cd 0e ad   ...m.K.,........
|     32: 0e 8e 0e 6c 0e 4b 0e 29 0e 08 0d e6 0d c4 0d b5   ...l.K.)........
|     48: 0d 97 0d 76 0d 54 0d 31 0d 15 0c f3 0c d3 0c b5   ...v.T.1........
|     64: 0c 95 0c 73 0c 54 0c 32 0c 10 0b ee 0b cc 0b b0   ...s.T.2........
|     80: 0b 8d 0b 7e 0b 48 0b 2e 0b 0b 0a ef 0a cc 0a ad   ...~.H..........
|     96: 0a 8c 0a 6d 00 00 00 00 00 00 00 00 00 00 00 00   ...m............
|   2368: 00 00 00 00 00 00 00 00 00 00 00 00 15 0a 03 00   ................
|   2384: 30 00 00 00 01 01 03 35 00 03 01 01 12 02 01 12   0......5........
|   2400: 03 01 11 1c 8c 80 80 80 80 10 03 00 3e 00 00 00   ............>...
|   2416: 17 01 05 05 34 74 61 62 6c 03 02 03 01 04 77 68   ....4tabl.....wh
|   2432: 65 72 03 02 06 09 1b 8c 80 80 80 80 0f 03 00 3c   er.............<
|   2448: 00 00 00 16 05 34 66 74 73 34 03 02 02 01 04 6e   .....4fts4.....n
|   2464: 75 6d 62 03 06 01 04 09 1b 8c 80 80 80 80 0e 03   umb.............
|   2480: 00 3c 00 00 00 16 04 33 74 68 65 03 06 01 01 04   .<.....3the.....
|   2496: 01 03 77 68 65 03 02 04 04 0a 1b 8c 80 80 80 80   ..whe...........
|   2512: 0d 03 00 3c 00 00 00 16 04 33 6e 75 6d 03 06 01   ...<.....3num...
|   2528: 01 05 01 03 74 61 62 03 02 03 04 0a 19 8c 80 80   ....tab.........
|   2544: 80 80 0c 03 00 38 00 00 00 14 03 32 77 68 03 02   .....8.....2wh..
|   2560: 04 00 04 33 66 74 73 03 02 02 04 07 18 8c 80 80   ...3fts.........
|   2576: 80 80 0b 03 00 36 00 00 00 13 03 32 74 61 03 02   .....6.....2ta..
|   2592: 03 02 01 68 03 06 01 01 04 04 07 1b 8c 80 80 80   ...h............
|   2608: 80 0a 03 00 3c 00 00 00 16 03 32 6e 75 03 06 01   ....<.....2nu...
|   2624: 01 05 01 02 6f 66 03 06 01 01 06 04 09 19 8c 80   ....of..........
|   2640: 82 d0 80 09 03 00 38 00 00 00 14 03 32 66 74 03   ......8.....2ft.
|   2656: 02 02 01 02 69 73 03 06 01 01 03 04 07 18 8c 80   ....is..........
|   2672: 80 80 80 08 03 00 36 00 00 00 13 02 31 74 03 08   ......6.....1t..
|   2688: 03 01 01 04 01 01 77 03 02 04 04 09 1a 8c 80 80   ......w.........
|   2704: 80 80 07 03 00 3a 00 00 00 15 02 31 6e 03 08 01   .....:.....1n...
|   2720: 01 02 05 01 01 6f 03 06 01 01 06 04 09 18 8c 80   .....o..........
|   2736: 81 80 80 06 03 00 36 00 00 00 13 04 02 31 66 03   ......6......1f.
|   2752: 02 02 01 01 69 03 06 01 01 03 05 06 1c 8c 80 80   ....i...........
|   2768: 80 80 05 03 00 3e 00 00 00 17 04 30 74 68 65 03   .....>.....0the.
|   2784: 06 01 01 04 01 05 77 68 65 72 65 03 02 04 0a 15   ......where.....
|   2800: 8c 80 80 80 80 04 03 00 30 00 00 00 11 01 01 06   ........0.......
|   2816: 06 30 74 61 62 6c 65 03 02 03 07 1c 8c 80 80 80   .0table.........
|   2832: 80 03 03 00 3e 00 00 00 17 07 30 6e 75 6d 62 65   ....>.....0numbe
|   2848: 72 03 06 01 01 05 01 02 6f 66 03 06 04 0d 13 8c   r.......of......
|   2864: 80 80 80 80 02 03 00 2c 00 00 00 0f fc 01 03 02   .......,........
|   2880: 30 6e 03 06 01 00 f2 07 1b 8c 80 80 80 80 01 03   0n..............
|   2896: 00 3c 00 00 00 16 08 30 66 74 73 34 61 75 78 03   .<.....0fts4aux.
|   2912: 02 02 01 02 69 73 03 06 04 0c 00 00 00 18 ea 00   ....is..........
|   2928: 00 00 01 01 02 24 00 02 01 01 12 02 01 12 08 88   .....$..........
|   2944: 80 80 80 80 12 03 00 12 10 00 00 05 02 1c 88 80   ................
|   2960: 80 80 80 11 03 00 3e 00 00 00 17 05 34 72 6f 77   ......>.....4row
|   2976: 73 02 06 01 01 05 01 04 74 68 65 72 02 02 04 0b   s.......ther....
|   2992: 15 88 80 80 80 80 10 03 00 2f ff ff f0 11 02 01   ........./......
|   3008: 01 07 05 34 62 65 74 77 02 02 04 08 1b 88 80 80   ...4betw........
|   3024: 80 80 0f 03 00 3c 00 00 00 16 04 04 33 72 6f 77   .....<......3row
|   3040: 02 06 01 01 05 01 03 74 68 65 02 08 05 0a 1b 88   .......the......
|   3056: 80 80 80 80 0d 03 00 3c 00 00 00 16 01 01 02 04   .......<........
|   3072: 33 61 72 65 02 02 03 01 03 62 65 74 02 02 07 08   3are.....bet....
|   3088: 1b 88 80 80 80 80 0d 03 00 3c 00 00 00 16 03 32   .........<.....2
|   3104: 74 68 02 08 02 01 01 07 00 04 33 61 6e 64 02 06   th........3and..
|   3120: 04 0a 1b 88 80 80 80 80 0c 03 00 3c 00 00 00 16   ...........<....
|   3136: 03 32 69 6e 02 06 01 01 06 01 02 72 6f 02 06 01   .2in.......ro...
|   3152: 01 05 04 09 18 88 80 80 80 80 0b 03 00 36 00 00   .............6..
|   3168: 00 13 02 03 32 61 72 02 02 03 01 02 62 65 02 02   ....2ar.....be..
|   3184: 04 05 07 1b 88 80 80 80 80 0a 03 00 3c 00 00 00   ............<...
|   3200: 16 02 31 74 02 08 02 01 01 07 00 03 32 61 6e 02   ..1t........2an.
|   3216: 06 01 01 04 09 19 88 80 80 80 80 09 03 00 38 00   ..............8.
|   3232: 00 00 14 02 31 6e 02 06 01 01 03 01 01 72 02 06   ....1n.......r..
|   3248: 01 01 05 04 08 17 88 80 80 80 80 08 03 00 34 00   ..............4.
|   3264: 01 00 12 02 31 62 02 02 04 01 01 69 02 06 01 01   ....1b.....i....
|   3280: 06 04 06 19 88 80 80 80 80 07 03 00 38 00 00 00   ............8...
|   3296: 14 04 02 31 32 02 02 05 01 01 61 02 08 03 01 01   ...12.....a.....
|   3312: 02 05 06 1b 88 80 80 80 80 06 03 00 3c 00 00 00   ............<...
|   3328: 16 06 30 74 68 65 72 65 e7 02 02 00 02 31 31 02   ..0there.....11.
|   3344: 06 01 01 04 0a 15 88 80 80 80 80 05 03 00 30 00   ..............0.
|   3360: 00 00 11 01 01 05 04 30 74 68 65 02 06 01 01 07   .......0the.....
|   3376: 07 1c 88 80 80 80 80 04 03 00 3e 00 00 00 17 01   ..........>.....
|   3392: 01 06 02 30 6e 02 06 01 01 03 01 04 72 6f 77 73   ...0n.......rows
|   3408: 02 06 07 08 1b 88 80 80 80 80 03 03 00 3c 00 00   .............<..
|   3424: 00 16 08 30 62 65 74 77 65 65 6e 02 02 04 01 02   ...0between.....
|   3440: 69 6e 02 06 04 0c 1a 88 80 80 80 80 02 03 00 3a   in.............:
|   3456: 00 00 00 15 04 30 61 6e 64 02 06 01 01 02 02 02   .....0and.......
|   3472: 72 65 02 02 03 04 0a 17 88 80 80 80 80 01 03 00   re..............
|   3488: 34 01 00 00 12 02 30 31 02 06 01 01 04 01 01 32   4.....01.......2
|   3504: 02 02 05 04 08 08 84 80 80 80 80 12 03 00 16 00   ................
|   3520: 00 00 05 04 1b 84 80 80 80 80 11 03 00 3c 00 00   .............<..
|   3536: 00 16 05 34 74 61 62 6c 01 06 01 01 05 02 03 65   ...4tabl.......e
|   3552: 72 6d 01 02 04 0b 1b 84 80 80 80 80 10 03 00 3c   rm.............<
|   3568: 00 00 00 16 05 34 65 61 63 68 01 02 02 01 04 70   .....4each.....p
|   3584: 72 65 73 01 02 05 04 09 1a 84 80 80 80 80 0f 03   res.............
|   3600: 00 3a 00 00 00 15 04 33 74 65 72 01 02 04 02 02   .:.....3ter.....
|   3616: 68 65 01 06 01 01 03 04 08 1b 84 80 80 80 80 0e   he..............
|   3632: 03 00 3c 00 00 00 16 04 33 70 72 65 01 02 05 01   ..<.....3pre....
|   3648: 03 74 61 62 01 06 01 01 05 04 08 1a 84 80 80 80   .tab............
|   3664: 80 0d 03 00 3a 00 00 00 15 04 33 66 6f 72 01 02   ....:.....3for..
|   3680: 02 02 02 74 73 01 06 01 01 04 04 08 1b 84 80 80   ...ts...........
|   3696: 80 80 0c 03 00 3c 00 00 00 16 03 32 74 68 01 06   .....<.....2th..
|   3712: 01 01 03 00 04 33 65 61 63 01 02 03 04 09 18 84   .....3eac.......
|   3728: 80 80 80 80 0b 03 00 36 00 00 00 13 03 32 74 61   .......6.....2ta
|   3744: 01 06 01 01 05 02 01 65 01 02 04 04 09 19 84 80   .......e........
|   3760: 80 80 80 0a 03 00 38 00 00 00 14 03 32 69 6e 01   ......8.....2in.
|   3776: 06 01 01 02 01 02 70 72 01 02 05 04 09 18 84 80   ......pr........
|   3792: 80 80 80 09 03 00 36 00 00 00 13 03 32 66 6f 01   ......6.....2fo.
|   3808: 02 02 02 01 74 01 06 01 01 04 04 07 1b 84 80 80   ....t...........
|   3824: 80 80 08 03 00 3c 00 00 00 16 02 31 74 01 0a 04   .....<.....1t...
|   3840: 01 01 03 04 00 03 32 65 61 01 02 03 04 0a 17 84   ......2ea.......
|   3856: 80 80 80 80 07 03 00 34 00 00 00 12 02 31 69 01   .......4.....1i.
|   3872: 06 01 01 02 01 01 70 01 02 05 04 08 18 84 80 80   ......p.........
|   3888: 80 80 06 03 00 36 00 00 00 13 02 31 65 01 02 03   .....6.....1e...
|   3904: 01 01 66 01 08 02 01 01 04 04 06 1b 84 80 80 80   ..f.............
|   3920: 80 05 03 00 3c 00 00 00 16 05 30 74 65 72 6d 01   ....<.....0term.
|   3936: 02 04 02 02 68 65 01 06 01 01 03 04 09 14 84 80   ....he..........
|   3952: 80 80 80 04 03 00 2e 00 00 00 10 06 30 74 61 62   ............0tab
|   3968: 6c 65 01 06 01 01 05 04 15 84 7f 80 80 80 03 03   le..............
|   3984: 00 30 00 00 00 11 02 08 30 70 72 65 73 65 6e 74   .0......0present
|   4000: 01 02 05 05 1b 84 80 80 80 80 02 03 00 3c 00 00   .............<..
|   4016: 00 16 04 30 66 74 73 01 06 01 01 04 01 02 69 6e   ...0fts.......in
|   4032: 01 06 01 01 04 0a 1a 84 80 80 80 80 01 03 00 3a   ...............:
|   4048: 00 00 00 15 05 30 65 61 63 68 01 02 03 01 03 66   .....0each.....f
|   4064: 6f 72 01 02 02 04 09 06 01 03 00 12 03 0b 0f 00   or..............
|   4080: 00 08 8c 80 80 80 80 11 03 00 16 00 00 00 05 04   ................
| page 3 offset 8192
|      0: 0a 00 00 00 32 0e 4f 00 0f fa 0f f1 0f e9 0f e1   ....2.O.........
|     16: 0f d8 0f d1 0f c9 0f c1 0f b9 0f b1 0f a9 0f a0   ................
|     32: 0f 98 0f 90 0f 87 0f 80 0f 78 0f 71 0f 68 0f 5f   .........x.q.h._
|     48: 0f 56 0f 4d 0f 41 0f 38 0f 2f 0f 26 0f 1d 0f 03   .V.M.A.8./.&....
|     64: 0f 0a 0f 00 9e f7 0e ee 0e e6 0e dd 0e d6 0e cd   ................
|     80: 0e c3 00 00 00 00 00 00 00 00 00 00 00 00 00 00   ................
|   3648: 00 00 00 00 00 00 00 00 00 00 00 00 00 00 00 08   ................
|   3664: 04 01 10 01 03 34 74 20 07 04 01 0e 01 03 34 1e   .....4t ......4.
|   3680: 09 04 01 12 01 03 33 74 68 1c 08 04 01 10 01 03   ......3th.......
|   3696: 33 6e 1a 08 04 01 10 01 03 32 77 18 08 04 01 10   3n.......2w.....
|   3712: 01 03 32 74 16 08 04 01 10 01 03 32 6e 14 07 04   ..2t.......2n...
|   3728: 01 0e 01 03 32 12 08 04 01 10 01 03 31 74 10 08   ....2.......1t..
|   3744: 04 01 10 01 03 31 6e 0e 07 04 01 0e 01 03 31 0c   .....1n.......1.
|   3760: 09 04 01 12 01 03 30 74 68 0a 08 04 01 10 01 03   ......0th.......
|   3776: 30 74 08 09 04 01 12 01 03 30 6e 75 06 08 04 01   0t.......0nu....
|   3792: 10 01 03 30 6e 04 06 04 01 0c 01 03 02 08 04 01   ...0n...........
|   3808: 10 01 02 34 72 22 07 04 01 0e 01 02 34 20 08 04   ...4r.......4 ..
|   3824: 01 10 01 02 33 72 1e 09 04 01 12 01 02 33 61 72   ....3r.......3ar
|   3840: 1c 18 04 01 10 01 02 32 74 1a 08 04 01 10 01 02   .......2t.......
|   3856: 32 69 18 09 04 01 12 01 02 32 61 72 16 08 04 01   2i.......2ar....
|   3872: 10 01 02 31 74 14 08 04 01 0f 01 02 31 6e 12 0a   ...1t.......1n..
|   3888: d4 01 10 01 02 31 62 10 08 04 01 10 01 02 31 32   .....1b.......12
|   3904: 0e 0b 04 01 16 01 02 30 74 68 65 72 0c 08 04 01   .......0ther....
|   3920: 10 01 02 30 74 0a 08 04 01 10 01 02 30 6e 08 08   ...0t.......0n..
|   3936: 04 01 10 01 02 30 62 06 08 04 01 10 01 02 30 61   .....0b.......0a
|   3952: 04 06 04 01 0c 01 02 02 07 04 09 10 01 34 74 22   .............4t.
|   3968: 06 04 09 0e 01 34 20 08 04 09 12 01 33 74 65 1e   .....4 .....3te.
|   3984: 07 04 09 10 01 33 70 1c 07 04 09 10 01 33 66 1a   .....3p......3f.
|   4000: 08 04 09 12 01 32 74 68 18 07 04 09 10 01 32 74   .....2th......2t
|   4016: 16 07 04 09 10 01 32 69 14 07 04 09 10 01 32 66   ......2i......2f
|   4032: 12 07 04 09 10 01 31 74 10 07 04 09 10 01 31 69   ......1t......1i
|   4048: 0e 06 04 09 0e 01 31 0c 08 04 09 12 01 30 74 65   ......1......0te
|   4064: 0a 07 04 09 10 01 30 74 08 07 04 09 10 01 30 70   ......0t......0p
|   4080: 06 08 04 09 1e 61 30 66 74 04 05 04 09 0c 01 02   .....a0ft.......
| page 4 offset 12288
|      0: 0d 00 00 00 00 00 00 00 00 00 00 00 00 00 00 00   ................
|   4064: 00 00 00 00 00 00 00 00 00 00 00 05 03 03 00 10   ................
|   4080: 03 05 05 02 03 00 10 04 06 05 01 03 00 10 04 04   ................
| page 5 offset 16384
|      0: 0a 00 00 00 02 0f eb 00 0f eb 0f f4 00 00 00 00   ................
|   4064: 00 00 00 00 00 00 00 00 00 00 00 08 03 15 01 70   ...............p
|   4080: 67 73 7a 18 0b 03 1b 01 76 65 72 73 69 6f 6e 04   gsz.....version.
| page 6 offset 20480
|      0: 0d 00 00 00 00 00 00 00 00 00 00 00 00 00 00 00   ................
|   4080: 00 00 03 03 02 01 da 03 02 02 01 02 00 00 00 00   ................
| end crash-53216796d7c3d8.db
}]} {}

do_catchsql_test 77.1 {
  UPDATE t1 SET B =quote(zeroblob(200)) WHERE b MATCH 'threa*thrad*tlrad*the�d';
} {1 {database disk image is malformed}}

#-------------------------------------------------------------------------
reset_db
do_execsql_test 78.0 {
  CREATE VIRTUAL TABLE t1 USING fts5(a,b,c);
  DELETE FROM t1_data;
  INSERT INTO t1_data VALUES(1,X'245a2424');
  INSERT INTO t1_data VALUES(10,X'000000000101010001010101');
  INSERT INTO t1_data VALUES(137438953473,X'0000032b0230300102060102060102061f0203010203010203010832303136303630390102070102070102070101340102050102050102050101350102040102040102040207303030303030301c0204010204010204010662696e6172790306010202030601020203060102020306010202030601020203060102020306010202030601020203060102020306010202030601020203060102020108636f6d70696c657201200102020201020201066462737ccccccccccccccccccccccccccccccccccccccccccccbccccccccccccccccccccccccccccccccccccccccccccccca2cccccccccc461740702030102030102030204656275670402020102020102020106656e61626c6507020201020201020201020201020201020201020201020201020201020201020201020201020201020201020201020201020201020523d6763632d352e342e30203230313630363039584e4f4341534526010500430f17434f4d50494c45523d6763632d352e342e3020323031363036303958525452494d0d000000240ee00004a810000fe80fe00fd80fd00fc80fc00fb80fb00fa80fa00f980f900f880f800f780f700f680f60945736502060102020306010202030601020203060102020306010202030601020203060102020306010202030601020203060102020306010202030601020201046f6d59741f0202010202010202010572747265651945030102030102030402696d010601020203060102020306010202030601120203060102020306010202030601020203060102020306010202030601020203060102020306010202010a7468726561647361666522020201020201020201047674616207020401020401020401407801060cb102010601010201060101020106010102010601010201060101020106010102010601010201060e0102010601010201060101020106010102010601010201060101020106010102010601010201060101020106010102010601010201060101021106010102010601010201060101020106010102010601010201060101020106010102010601010201060101020106010102010601011201060101020106010102010601010201060101020106010102041513020c124413110f47130f0c0e11100f0e100f440f1040150f');
}

do_execsql_test 78.1 {
  CREATE VIRTUAL TABLE t3 USING fts5vocab('t1','col');
}

do_execsql_test 78.2 {
  SELECT count(rowid) FROM t3 WHERE term>='nsocse';
} 2

#-------------------------------------------------------------------------
reset_db
do_test 79.0 {
  sqlite3 db {}
  db deserialize [decode_hexdb {
.open --hexdb
| size 28672 pagesize 4096 filename sql053282.txt.db
| page 1 offset 0
|      0: 53 51 4c 69 74 65 20 66 6f 72 6d 61 74 20 33 00   SQLite format 3.
|     16: 10 00 01 01 00 40 20 20 00 00 00 00 00 00 00 07   .....@  ........
|     32: 00 00 00 02 00 00 00 01 00 00 00 00 00 00 00 00   ................
|     96: 00 00 00 00 0d 0f c7 00 06 0d b6 00 0f 8d 0f 36   ...............6
|    112: 0e cb 0e 6b 0e 0e 0d b6 0d b5 00 00 00 00 00 00   ...k............
|   3504: 00 00 00 00 00 00 56 07 06 17 1f 1f 01 7d 74 61   ......V.......ta
|   3520: 62 6c 65 74 31 5f 63 6f 6e 66 69 67 74 31 5f 63   blet1_configt1_c
|   3536: 6f 6e 66 69 67 07 43 52 45 41 54 45 20 54 41 42   onfig.CREATE TAB
|   3552: 4c 45 20 27 74 31 5f 63 6f 6e 66 69 67 27 28 6b   LE 't1_config'(k
|   3568: 20 50 52 49 4d 41 52 59 20 4b 45 59 2c 20 76 29    PRIMARY KEY, v)
|   3584: 20 57 49 54 48 4f 55 54 20 52 4f 57 49 44 5b 06    WITHOUT ROWID[.
|   3600: 07 17 21 21 01 81 01 74 61 62 6c 65 74 31 5f 64   ..!!...tablet1_d
|   3616: 6f 63 73 69 7a 65 74 31 5f 64 6f 63 73 69 7a 65   ocsizet1_docsize
|   3632: 06 43 52 45 41 54 45 20 54 41 42 4c 45 20 27 74   .CREATE TABLE 't
|   3648: 31 5f 64 6f 63 73 69 7a 65 27 28 69 64 20 49 4e   1_docsize'(id IN
|   3664: 54 45 47 45 52 20 50 52 49 4d 41 52 59 20 4b 45   TEGER PRIMARY KE
|   3680: 59 2c 20 73 7a 20 42 4c 4f 42 29 5e 05 07 17 21   Y, sz BLOB)^...!
|   3696: 21 01 81 07 74 61 62 6c 65 74 31 5f 63 6f 6e 74   !...tablet1_cont
|   3712: 65 6e 74 74 31 5f 63 6f 6e 74 65 6e 74 05 43 52   entt1_content.CR
|   3728: 45 41 54 45 20 54 41 42 4c 45 20 27 74 31 5f 63   EATE TABLE 't1_c
|   3744: 6f 6e 74 65 6e 74 27 28 69 64 20 49 4e 54 45 47   ontent'(id INTEG
|   3760: 45 52 20 50 52 49 4d 41 52 59 20 4b 45 59 2c 20   ER PRIMARY KEY, 
|   3776: 63 30 2c 20 63 31 2c 20 63 32 29 69 04 07 17 19   c0, c1, c2)i....
|   3792: 19 01 81 2d 74 61 62 6c 65 74 31 5f 69 64 78 74   ...-tablet1_idxt
|   3808: 31 5f 69 64 78 04 43 52 45 41 54 45 20 54 41 42   1_idx.CREATE TAB
|   3824: 4c 45 20 27 74 31 5f 69 64 78 27 28 73 65 67 69   LE 't1_idx'(segi
|   3840: 64 2c 20 74 65 72 6d 2c 20 70 67 6e 6f 2c 20 50   d, term, pgno, P
|   3856: 52 49 4d 41 52 59 20 4b 45 59 28 73 65 67 69 64   RIMARY KEY(segid
|   3872: 2c 20 74 65 72 6d 29 29 20 57 49 54 48 4f 55 54   , term)) WITHOUT
|   3888: 20 52 4f 57 49 44 55 03 07 17 1b 1b 01 81 01 74    ROWIDU........t
|   3904: 61 62 6c 65 74 31 5f 64 61 74 61 74 31 5f 64 61   ablet1_datat1_da
|   3920: 74 61 03 43 52 45 41 54 45 20 54 41 42 4c 45 20   ta.CREATE TABLE 
|   3936: 27 74 31 5f 64 61 74 61 27 28 69 64 20 49 4e 54   't1_data'(id INT
|   3952: 45 47 45 52 20 50 52 49 4d 41 52 59 20 4b 45 59   EGER PRIMARY KEY
|   3968: 2c 20 62 6c 6f 63 6b 20 42 4c 4f 42 29 38 02 06   , block BLOB)8..
|   3984: 17 11 11 08 5f 74 61 62 6c 65 74 31 74 31 43 52   ...._tablet1t1CR
|   4000: 45 41 54 45 20 56 49 52 54 55 41 4c 20 54 41 42   EATE VIRTUAL TAB
|   4016: 4c 45 20 74 31 20 55 53 49 4e 47 20 66 74 73 35   LE t1 USING fts5
|   4032: 28 61 2c 62 2c 63 29 00 00 00 00 00 00 00 00 00   (a,b,c).........
| page 3 offset 8192
|      0: 0d 00 00 00 03 0c 94 00 0f e6 0f ef 0c 94 00 01   ................
|   3216: 00 00 00 00 86 4a 84 80 80 80 80 01 04 00 8d 18   .....J..........
|   3232: 00 00 03 2b 02 30 30 01 02 06 01 02 06 01 02 06   ...+.00.........
|   3248: 1f 02 03 01 02 03 01 02 03 01 08 32 30 31 36 30   ...........20160
|   3264: 36 30 39 01 02 07 01 02 07 01 02 07 01 01 34 01   609...........4.
|   3280: 02 05 01 02 05 01 02 05 01 01 35 01 02 04 01 02   ..........5.....
|   3296: 04 01 02 04 02 07 30 30 30 30 30 30 30 1c 02 04   ......0000000...
|   3312: 01 02 04 01 02 04 01 06 62 69 6e 61 72 79 03 06   ........binary..
|   3328: 01 02 02 03 06 01 02 02 03 06 01 02 02 03 06 01   ................
|   3344: 02 02 03 06 01 02 02 03 06 01 02 02 03 06 01 02   ................
|   3360: 02 03 06 01 02 02 03 06 01 02 02 03 06 01 02 02   ................
|   3376: 03 06 01 02 02 03 06 01 02 02 01 08 63 6f 6d 70   ............comp
|   3392: 69 6c 65 72 01 02 02 01 02 02 01 02 02 01 06 64   iler...........d
|   3408: 62 73 74 61 74 07 02 03 01 02 03 01 02 03 02 04   bstat...........
|   3424: 65 62 75 67 04 02 02 01 02 02 01 02 02 01 06 65   ebug...........e
|   3440: 6e 61 62 6c 65 07 02 02 01 02 02 01 02 02 01 02   nable...........
|   3456: 02 01 02 02 01 02 02 01 02 02 01 02 02 01 02 02   ................
|   3472: 01 02 02 01 02 02 01 02 02 01 02 02 01 02 02 01   ................
|   3488: 02 02 01 02 02 01 02 02 01 02 12 01 02 02 01 02   ................
|   3504: 02 01 02 02 02 08 78 74 65 6e 73 69 6f 6e 1f 02   ......xtension..
|   3520: 04 01 02 04 01 02 04 01 04 66 74 73 34 0a 02 03   .........fts4...
|   3536: 01 02 03 01 02 03 04 01 35 0d 02 03 01 02 03 01   ........5.......
|   3552: 02 03 01 03 67 63 63 01 02 03 01 02 03 01 02 03   ....gcc.........
|   3568: 02 06 65 6f 70 6f 6c 79 10 02 03 01 02 03 01 02   ..eopoly........
|   3584: 03 01 05 6a 73 6f 6e 31 13 02 03 01 02 03 01 02   ...json1........
|   3600: 03 01 04 6c 6f 61 64 1f 02 03 01 02 03 01 02 03   ...load.........
|   3616: 01 03 6d 61 78 1c 02 02 01 02 02 01 02 02 02 05   ..max...........
|   3632: 65 6d 6f 72 79 1c 02 03 01 02 03 01 02 03 04 04   emory...........
|   3648: 73 79 73 35 16 02 03 01 02 03 01 02 03 01 06 6e   sys5...........n
|   3664: 6f 63 61 73 65 02 06 01 02 02 03 06 01 02 02 03   ocase...........
|   3680: 06 01 02 02 03 06 01 02 02 03 06 01 02 02 03 06   ................
|   3696: 01 02 02 03 06 01 02 02 03 06 01 02 02 03 06 01   ................
|   3712: 02 02 03 06 01 02 02 03 06 01 02 02 03 06 01 02   ................
|   3728: 02 01 04 6f 6d 69 74 1f 02 02 01 02 02 01 02 02   ...omit.........
|   3744: 01 05 72 74 72 65 65 19 02 03 01 02 03 01 02 03   ..rtree.........
|   3760: 04 02 69 6d 01 06 01 02 02 03 06 01 02 02 03 06   ..im............
|   3776: 01 02 02 03 06 01 01 02 03 06 01 02 02 03 06 01   ................
|   3792: 02 02 03 06 01 02 02 03 06 01 02 02 03 06 01 02   ................
|   3808: 02 03 06 01 02 02 03 06 01 02 02 03 06 01 02 02   ................
|   3824: 01 0a 74 68 72 65 61 64 73 61 66 65 22 02 02 01   ..threadsafe....
|   3840: 02 02 01 02 02 01 04 76 74 61 62 07 02 04 01 02   .......vtab.....
|   3856: 04 01 02 04 01 01 78 01 05 f1 01 02 01 06 01 01   ......x.........
|   3872: 02 01 06 01 01 02 01 06 01 01 02 01 06 01 01 02   ................
|   3888: 01 06 01 01 02 01 06 01 01 02 01 06 01 01 02 01   ................
|   3904: 06 01 01 02 01 06 01 01 02 01 06 01 01 02 01 06   ................
|   3920: 01 01 02 01 06 01 01 02 01 06 01 01 02 01 06 01   ................
|   3936: 01 02 01 06 01 01 02 01 06 01 01 02 01 06 01 01   ................
|   3952: 01 01 06 01 01 02 01 06 01 01 02 01 06 01 01 02   ................
|   3968: 01 06 01 01 02 01 06 01 01 02 01 06 01 01 02 01   ................
|   3984: 06 01 01 02 01 06 01 01 02 01 06 01 01 02 01 06   ................
|   4000: 01 01 02 01 06 01 01 02 01 06 01 01 02 01 06 01   ................
|   4016: 01 02 01 06 01 01 02 01 06 01 01 02 01 06 01 01   ................
|   4032: 02 01 06 01 01 02 01 06 01 01 02 04 15 13 0c 0c   ................
|   4048: 12 44 13 11 0f 47 13 0f 0c 0e 11 10 0f 0e 10 0f   .D...G..........
|   4064: 44 0f 10 40 15 0f 07 01 03 00 14 24 5a 24 24 0f   D..@.......$Z$$.
|   4080: 0a 03 00 24 00 00 00 00 01 01 01 00 01 01 01 01   ...$............
| page 4 offset 12288
|      0: 0a 00 00 00 00 00 00 00 00 00 00 00 00 00 00 00   ................
|   4080: 00 00 00 00 00 00 00 00 00 00 05 04 09 0c 01 02   ................
| page 5 offset 16384
|      0: 0d 00 00 00 24 0c 0a 00 0f d8 0f af 0f 86 0f 74   ....$..........t
|     16: 0f 61 0f 4e 0f 2f 0f 0f 0e ef 0e d7 0e be 0e a5   .a.N./..........
|     32: 0e 8d 0e 74 0e 5b 0e 40 0e 24 0e 08 0d ef 0d d5   ...t.[.@.$......
|     48: 0d bb 0d a0 0d 84 0d 68 0d 4f 0d 00 00 00 00 00   .......h.O......
|   3072: 00 00 00 00 00 00 00 00 00 00 18 24 05 00 25 0f   ...........$..%.
|   3088: 19 54 48 52 45 41 44 53 41 46 45 3d 30 58 42 49   .THREADSAFE=0XBI
|   3104: 4e 41 52 59 18 23 05 00 25 0f 19 54 48 52 45 41   NARY.#..%..THREA
|   3120: 44 53 41 46 45 3d 30 58 4e 4f 43 41 53 45 17 22   DSAFE=0XNOCASE..
|   3136: 05 00 25 0f 17 54 48 52 45 41 44 53 41 46 45 3d   ..%..THREADSAFE=
|   3152: 30 58 52 54 52 49 4d 1f 21 05 00 33 0f 19 4f 4d   0XRTRIM.!..3..OM
|   3168: 49 54 20 4c 4f 41 44 20 45 58 54 45 4e 53 49 4f   IT LOAD EXTENSIO
|   3184: 4e 58 42 49 4e 41 52 59 1f 20 05 00 33 0f 19 4f   NXBINARY. ..3..O
|   3200: 4d 49 54 20 4c 4f 41 44 20 45 58 54 45 4e 53 49   MIT LOAD EXTENSI
|   3216: 4f 4e 58 4e 4f 43 41 53 45 1e 1f 05 00 33 0f 17   ONXNOCASE....3..
|   3232: 4f 4d 49 54 20 4c 4f 41 44 20 45 58 54 45 4e 53   OMIT LOAD EXTENS
|   3248: 49 4f 4e 58 52 54 52 49 4d 1f 1e 05 00 33 0f 19   IONXRTRIM....3..
|   3264: 4d 41 58 20 4d 45 4d 4f 52 59 3d 35 30 30 30 30   MAX MEMORY=50000
|   3280: 30 30 30 58 42 49 4e 41 52 59 1f 1d 05 00 33 0f   000XBINARY....3.
|   3296: 19 4d 41 58 20 4d 45 4d 4f 52 59 3d 35 30 30 30   .MAX MEMORY=5000
|   3312: 30 30 30 30 58 4e 4f 43 41 53 45 1e 1c 05 00 33   0000XNOCASE....3
|   3328: 0f 17 4d 41 58 20 4d 45 4d 4f 52 59 3d 35 30 30   ..MAX MEMORY=500
|   3344: 30 30 30 30 30 58 52 54 52 49 4d 18 1b 05 00 2c   00000XRTRIM....,
|   3360: 0f 19 45 4e 41 42 4c 45 20 52 54 52 45 45 58 42   ..ENABLE RTREEXB
|   3376: 49 4e 41 52 59 18 1a 05 00 25 0f 19 45 4e 41 42   INARY....%..ENAB
|   3392: 4c 45 20 52 54 52 45 45 58 4e 4f 43 41 53 45 17   LE RTREEXNOCASE.
|   3408: 19 05 00 25 0f 17 45 4e 41 42 4c 45 20 52 54 52   ...%..ENABLE RTR
|   3424: 45 45 58 52 54 52 49 4d 1a 18 05 00 29 0f 19 45   EEXRTRIM....)..E
|   3440: 4e 41 42 4c 45 20 4d 45 4d 5a 69 53 35 58 42 49   NABLE MEMZiS5XBI
|   3456: 4e 41 52 59 1a 17 05 00 29 0f 19 45 4e 41 42 4c   NARY....)..ENABL
|   3472: 45 20 4d 45 4d 53 59 53 35 58 4e 4f 43 41 53 45   E MEMSYS5XNOCASE
|   3488: 19 16 05 00 29 0f 17 45 4e 41 42 4c 45 20 4d 45   ....)..ENABLE ME
|   3504: 4d 53 59 53 35 58 52 54 52 49 4d 18 15 05 00 25   MSYS5XRTRIM....%
|   3520: 0f 19 45 4e 41 42 4c 45 20 4a 53 4f 4e 31 58 42   ..ENABLE JSON1XB
|   3536: 49 4e 41 52 59 18 14 05 00 25 0f 19 45 4e 41 42   INARY....%..ENAB
|   3552: 4c 45 20 4a 53 4f 4e 31 58 4e 4f 43 41 53 45 17   LE JSON1XNOCASE.
|   3568: 13 05 00 25 0f 17 45 4e 41 42 4c 45 20 4a 53 4f   ...%..ENABLE JSO
|   3584: 4e 31 58 52 54 52 49 4d 1a 12 05 00 29 0f 19 45   N1XRTRIM....)..E
|   3600: 4e 41 42 4c 45 20 47 45 4f 50 4f 4c 59 58 42 49   NABLE GEOPOLYXBI
|   3616: 4e 41 52 59 1a 11 05 00 29 0f 19 45 4e 41 42 4c   NARY....)..ENABL
|   3632: 45 20 47 45 4f 50 4f 4c 59 58 4e 4f 43 41 53 45   E GEOPOLYXNOCASE
|   3648: 19 10 05 00 29 0f 17 45 4e 41 42 4c 45 20 47 45   ....)..ENABLE GE
|   3664: 4f 50 4f 4c 59 58 52 54 52 49 4d 17 0f 05 00 23   OPOLYXRTRIM....#
|   3680: 0f 19 45 4e 41 42 4c 45 20 46 54 53 35 58 42 49   ..ENABLE FTS5XBI
|   3696: 4e 41 52 59 17 0e 05 00 23 0f 19 45 4e 41 42 4c   NARY....#..ENABL
|   3712: 45 20 46 54 53 35 58 4e 4f 43 41 53 45 16 0d 05   E FTS5XNOCASE...
|   3728: 00 23 0f 17 45 4e 41 42 4c 45 20 46 54 53 3f d8   .#..ENABLE FTS?.
|   3744: 52 54 52 49 4d 17 0c 05 00 23 0f 19 45 4e 41 42   RTRIM....#..ENAB
|   3760: 4c 45 20 46 54 53 34 58 42 49 4e 41 52 59 17 0b   LE FTS4XBINARY..
|   3776: 05 00 23 0f 19 45 4e 41 42 4c 45 20 46 54 53 34   ..#..ENABLE FTS4
|   3792: 58 4e 4f 43 41 53 45 16 0a 05 00 23 0f 17 45 4e   XNOCASE....#..EN
|   3808: 41 42 4c 45 20 46 54 53 34 58 52 54 52 49 4d 1e   ABLE FTS4XRTRIM.
|   3824: 09 05 00 31 0f 19 45 4e 41 42 4c 45 20 44 42 53   ...1..ENABLE DBS
|   3840: 55 41 54 20 56 54 41 42 58 42 49 4e 41 52 59 1e   UAT VTABXBINARY.
|   3856: 08 05 00 31 0f 19 45 4e 41 42 4c 45 20 44 42 53   ...1..ENABLE DBS
|   3872: 54 41 54 20 56 54 41 42 58 4e 4f 43 41 53 45 1d   TAT VTABXNOCASE.
|   3888: 07 05 00 31 0f 17 45 4e 41 42 4c 45 20 44 42 53   ...1..ENABLE DBS
|   3904: 54 41 54 20 56 54 41 42 58 52 54 52 49 4d 11 06   TAT VTABXRTRIM..
|   3920: 05 00 17 0f 19 44 45 42 55 47 58 42 49 4e 41 52   .....DEBUGXBINAR
|   3936: 59 11 05 05 00 17 0f 19 44 45 42 55 47 58 4e 4f   Y.......DEBUGXNO
|   3952: 43 41 53 45 10 04 05 00 17 0f 17 44 45 42 55 46   CASE.......DEBUF
|   3968: e8 52 54 52 49 4d 27 03 05 00 43 0f 19 43 4f 4d   .RTRIM'...C..COM
|   3984: 50 49 4c 45 52 3d 67 63 63 2d 35 2e 34 2e 30 20   PILER=gcc-5.4.0 
|   4000: 32 30 31 36 30 36 30 39 58 42 49 4e 41 52 59 27   20160609XBINARY'
|   4016: 02 05 00 43 0f 19 43 4f 4d 50 49 4c 45 52 3d 67   ...C..COMPILER=g
|   4032: 63 63 2d 35 2e 34 2e 30 20 32 30 31 36 30 36 30   cc-5.4.0 2016060
|   4048: 39 58 4e 4f 43 41 53 45 26 01 05 00 43 0f 17 43   9XNOCASE&...C..C
|   4064: 4f 4d 50 49 4c 45 52 3d 67 62 63 2d 35 2e 34 2e   OMPILER=gbc-5.4.
|   4080: 30 20 32 30 31 36 30 36 30 39 58 52 54 52 49 4d   0 20160609XRTRIM
| page 6 offset 20480
|      0: 0d 00 00 00 24 0e e0 00 0f f8 0f f0 0f e8 0f e0   ....$...........
|     16: 0f d8 0f d0 0f c8 0f c0 0f b8 0f bb 1f a8 0f a0   ................
|     32: 0f 98 0f 90 0f 88 0f 80 0f 78 0f 70 0f 68 0f 60   .........x.p.h.`
|     48: 0f 58 0f 50 0f 48 0f 40 0f 38 0f 30 00 00 00 00   .X.P.H.@.8.0....
|   3808: 06 24 03 00 12 02 01 01 06 23 03 00 12 02 01 01   .$.......#......
|   3824: 06 22 03 00 12 02 01 01 06 21 03 00 12 03 01 01   .........!......
|   3840: 06 20 03 00 12 03 01 01 06 1f 03 00 12 03 01 01   . ..............
|   3856: 06 1e 03 00 12 03 01 01 06 1d 03 00 12 03 01 01   ................
|   3872: 06 1c 03 00 12 03 01 01 06 1b 03 00 12 02 01 01   ................
|   3888: 06 1a 03 00 12 02 01 01 06 19 03 00 12 02 01 01   ................
|   3904: 06 18 03 00 12 02 01 01 06 17 03 00 12 02 01 01   ................
|   3920: 06 16 03 00 12 02 01 01 06 15 03 00 12 02 01 01   ................
|   3936: 06 14 03 00 12 02 01 01 06 13 03 00 12 02 01 01   ................
|   3952: 06 12 03 00 12 02 01 01 06 11 03 00 12 02 01 01   ................
|   3968: 06 10 03 00 12 02 01 01 06 0f 03 00 12 02 01 01   ................
|   3984: 06 0e 03 00 12 02 01 01 06 0d 03 00 12 02 01 01   ................
|   4000: 06 0c 03 00 12 02 01 01 06 0b 03 00 12 02 01 01   ................
|   4016: 06 0a 03 00 12 02 01 01 06 09 03 00 12 03 01 01   ................
|   4032: 06 08 03 00 12 03 01 01 06 07 03 00 12 03 01 01   ................
|   4048: 06 06 03 00 12 01 01 01 06 05 03 00 12 01 01 01   ................
|   4064: 06 04 03 00 12 01 01 01 06 03 03 00 12 06 01 01   ................
|   4080: 06 0a 83 00 12 06 01 01 06 01 03 00 12 06 01 01   ................
| page 7 offset 24576
|      0: 0a 00 00 00 01 0f f4 00 0f f4 00 00 00 00 00 00   ................
|   4080: 00 00 00 00 0b 03 1b 01 76 65 72 73 69 6f 6e 04   ........version.
| end sql053282.txt.db 
}]} {}

do_execsql_test 79.1 {
  CREATE VIRTUAL TABLE t2 USING fts5vocab('t1','row');
}

do_catchsql_test 79.2 {
  INSERT INTO t1(t1) SELECT 'merge' FROM t2;
} {1 {query aborted}}

#-------------------------------------------------------------------------
reset_db
do_test 80.0 {
  sqlite3 db {}
  db deserialize [decode_hexdb {
.open --hexdb
| size 40960 pagesize 4096 filename crash-f928a9c1ec68dd.db
| page 1 offset 0
|      0: 53 51 4c 69 74 65 20 66 6f 72 6d 61 74 20 33 00   SQLite format 3.
|     16: 10 00 01 01 00 40 20 20 00 00 00 00 00 00 00 0a   .....@  ........
|     32: 00 00 00 00 00 00 00 00 00 00 00 0d 00 00 00 04   ................
|     96: 00 00 00 00 0d 00 00 00 0d 0b 6e 00 0f a3 0f 4c   ..........n....L
|    112: 0e e1 0e 81 0e 24 0d cc 0d 72 0d 1b 0c b0 0c 50   .....$...r.....P
|    128: 0b f8 0b b3 0b 6e 00 00 00 00 00 00 00 00 00 00   .....n..........
|   2912: 00 00 00 00 00 00 00 00 00 00 00 00 00 00 43 0d   ..............C.
|   2928: 06 17 11 11 08 75 74 61 62 6c 65 74 34 74 34 43   .....utablet4t4C
|   2944: 52 45 41 54 45 20 56 49 52 54 55 41 4c 20 54 41   REATE VIRTUAL TA
|   2960: 42 4c 45 20 74 34 20 55 53 49 4e 47 20 66 74 73   BLE t4 USING fts
|   2976: 35 76 6f 63 61 62 28 27 74 32 27 2c 20 27 72 6f   5vocab('t2', 'ro
|   2992: 77 27 29 43 0c 06 17 11 11 08 75 74 61 62 6c 65   w')C......utable
|   3008: 74 33 74 33 43 52 45 41 54 45 20 56 49 52 54 55   t3t3CREATE VIRTU
|   3024: 41 4c 20 54 41 42 4c 45 20 74 33 20 55 53 49 4e   AL TABLE t3 USIN
|   3040: 47 20 66 74 73 35 76 6f 63 61 62 28 27 74 31 27   G fts5vocab('t1'
|   3056: 2c 20 27 72 6f 77 27 29 56 0b 06 17 1f 1f 01 7d   , 'row')V.......
|   3072: 74 61 62 6c 65 74 32 5f 63 6f 6e 66 69 67 74 32   tablet2_configt2
|   3088: 5f 63 6f 6e 66 69 67 0a 43 52 45 41 54 45 20 54   _config.CREATE T
|   3104: 41 42 4c 45 20 27 74 32 5f 63 6f 6e 66 69 67 27   ABLE 't2_config'
|   3120: 28 6b 20 50 52 49 4d 41 52 59 20 4b 45 59 2c 20   (k PRIMARY KEY, 
|   3136: 76 29 20 57 49 54 48 4f 55 54 20 52 4f 57 49 44   v) WITHOUT ROWID
|   3152: 5e 0a 07 17 21 21 01 81 07 74 61 62 6c 65 74 32   ^...!!...tablet2
|   3168: 5f 63 6f 6e 74 65 6e 74 74 32 5f 63 6f 6e 74 65   _contentt2_conte
|   3184: 6e 74 09 43 52 45 41 54 45 20 54 41 42 4c 45 20   nt.CREATE TABLE 
|   3200: 27 74 32 5f 63 6f 6e 74 65 6e 74 27 28 69 64 20   't2_content'(id 
|   3216: 49 4e 54 45 47 45 52 20 50 52 49 4d 41 52 59 20   INTEGER PRIMARY 
|   3232: 4b 45 59 2c 20 63 30 2c 20 63 31 2c 20 63 32 29   KEY, c0, c1, c2)
|   3248: 69 09 07 17 19 19 01 81 2d 74 61 62 6c 65 74 32   i.......-tablet2
|   3264: 5f 69 64 78 74 32 5f 69 64 78 08 43 52 45 41 54   _idxt2_idx.CREAT
|   3280: 45 20 54 41 42 4c 45 20 27 74 32 5f 69 64 78 27   E TABLE 't2_idx'
|   3296: 28 73 65 67 69 64 2c 20 74 65 72 6d 2c 20 70 67   (segid, term, pg
|   3312: 6e 6f 2c 20 50 52 49 4d 41 52 59 20 4b 45 59 28   no, PRIMARY KEY(
|   3328: 73 65 67 69 64 2c 20 74 65 72 6d 29 29 20 57 49   segid, term)) WI
|   3344: 54 48 4f 55 54 20 52 4f 57 49 44 55 08 07 17 1b   THOUT ROWIDU....
|   3360: 1b 01 81 01 74 61 62 6c 65 74 32 5f 64 61 74 61   ....tablet2_data
|   3376: 74 32 5f 64 61 74 61 07 43 52 45 41 54 45 20 54   t2_data.CREATE T
|   3392: 41 42 4c 45 20 27 74 32 5f 64 61 74 61 27 28 69   ABLE 't2_data'(i
|   3408: 64 20 49 4e 54 45 47 45 52 20 50 52 49 4d 41 52   d INTEGER PRIMAR
|   3424: 59 20 4b 45 59 2c 20 62 6c 6f 63 6b 20 42 4c 4f   Y KEY, block BLO
|   3440: 42 29 58 07 07 17 11 11 08 81 1d 74 61 62 6c 65   B)X........table
|   3456: 74 32 74 32 43 52 45 41 54 45 20 56 49 52 54 55   t2t2CREATE VIRTU
|   3472: 41 4c 20 54 41 42 4c 45 20 74 32 20 55 53 49 4e   AL TABLE t2 USIN
|   3488: 47 20 66 74 73 35 28 27 61 27 2c 5b 62 5d 2c 22   G fts5('a',[b],.
|   3504: 63 22 2c 64 65 74 61 69 6c 3d 6e 6f 6e 65 2c 63   c.,detail=none,c
|   3520: 6f 6c 75 6d 6e 73 69 7a 65 3d 30 29 56 06 06 17   olumnsize=0)V...
|   3536: 1f 1f 01 7d 74 61 62 6c 65 74 31 5f 63 6f 6e 66   ....tablet1_conf
|   3552: 69 67 74 31 5f 63 6f 6e 66 69 67 06 43 52 45 41   igt1_config.CREA
|   3568: 54 45 20 54 41 42 4c 45 20 27 74 31 5f 63 6f 6e   TE TABLE 't1_con
|   3584: 66 69 67 27 28 6b 20 50 52 49 4d 41 52 59 20 4b   fig'(k PRIMARY K
|   3600: 45 59 2c 20 76 29 20 57 49 54 48 4f 55 54 20 52   EY, v) WITHOUT R
|   3616: 4f 57 49 44 5b 05 07 17 21 21 01 81 01 74 61 62   OWID[...!!...tab
|   3632: 6c 65 74 31 5f 64 6f 63 73 69 7a 65 74 31 5f 64   let1_docsizet1_d
|   3648: 6f 63 73 69 7a 65 05 43 52 45 41 54 45 20 54 41   ocsize.CREATE TA
|   3664: 42 4c 45 20 27 74 31 5f 64 6f 63 73 69 7a 65 27   BLE 't1_docsize'
|   3680: 28 69 64 20 49 4e 54 45 47 45 52 20 50 52 49 4d   (id INTEGER PRIM
|   3696: 41 52 59 20 4b 45 59 2c 20 73 7a 20 42 4c 4f 42   ARY KEY, sz BLOB
|   3712: 29 5e 04 07 17 21 21 01 81 07 74 61 62 6c 65 74   )^...!!...tablet
|   3728: 31 5f 63 6f 6e 74 65 6e 74 74 31 5f 63 6f 6e 74   1_contentt1_cont
|   3744: 65 6e 74 04 43 52 45 41 54 45 20 54 41 42 4c 45   ent.CREATE TABLE
|   3760: 20 27 74 31 5f 63 6f 6e 74 65 6e 74 27 28 69 64    't1_content'(id
|   3776: 20 49 4e 54 45 47 45 52 20 50 52 49 4d 41 52 59    INTEGER PRIMARY
|   3792: 20 4b 45 59 2c 20 63 30 2c 20 63 31 2c 20 63 32    KEY, c0, c1, c2
|   3808: 29 69 03 07 17 19 19 01 81 2d 74 61 62 6c 65 74   )i.......-tablet
|   3824: 31 5f 69 64 78 74 31 5f 69 64 78 03 43 52 45 41   1_idxt1_idx.CREA
|   3840: 54 45 20 54 41 42 4c 45 20 27 74 31 5f 69 64 78   TE TABLE 't1_idx
|   3856: 27 28 73 65 67 69 64 2c 20 74 65 72 6d 2c 20 70   '(segid, term, p
|   3872: 67 6e 6f 2c 20 50 52 49 4d 41 52 59 20 4b 45 59   gno, PRIMARY KEY
|   3888: 28 73 65 67 69 64 2c 20 74 65 72 6d 29 29 20 57   (segid, term)) W
|   3904: 49 54 48 4f 55 54 20 52 4f 57 49 44 55 02 07 17   ITHOUT ROWIDU...
|   3920: 1b 1b 01 81 01 74 61 62 6c 65 74 31 5f 64 61 74   .....tablet1_dat
|   3936: 61 74 31 5f 64 61 74 61 02 43 52 45 41 54 45 20   at1_data.CREATE 
|   3952: 54 41 42 4c 45 20 27 74 31 5f 64 61 74 61 27 28   TABLE 't1_data'(
|   3968: 69 64 20 49 4e 54 45 47 45 52 20 50 52 49 4d 41   id INTEGER PRIMA
|   3984: 52 59 20 4b 45 59 2c 20 62 6c 6f 63 6b 20 42 4c   RY KEY, block BL
|   4000: 4f 42 29 5b 01 07 17 11 11 08 81 23 74 61 62 6c   OB)[.......#tabl
|   4016: 65 74 31 74 31 43 52 45 41 54 45 20 56 49 52 54   et1t1CREATE VIRT
|   4032: 55 41 4c 20 54 41 42 4c 45 20 74 31 20 55 53 49   UAL TABLE t1 USI
|   4048: 4e 47 20 66 74 73 35 28 61 2c 62 20 75 6e 69 6e   NG fts5(a,b unin
|   4064: 64 65 78 65 64 2c 63 2c 74 6f 6b 65 6e 69 7a 65   dexed,c,tokenize
|   4080: 3d 22 70 6f 72 74 65 72 20 61 73 63 69 69 22 29   =.porter ascii.)
| page 2 offset 4096
|      0: 0d 0f 68 00 05 0f 13 00 0f e6 0f 13 0f a8 0f 7c   ..h............|
|     16: 0f 2a 00 00 00 00 00 00 00 00 00 00 00 00 00 00   .*..............
|   3856: 00 00 00 15 0a 03 00 30 00 00 00 00 01 03 03 00   .......0........
|   3872: 03 01 01 01 02 01 01 03 01 01 37 8c 80 80 80 80   ..........7.....
|   3888: 01 03 00 74 00 00 00 2e 02 30 61 03 02 02 01 01   ...t.....0a.....
|   3904: 62 03 02 03 01 01 63 03 02 04 01 01 67 03 06 01   b.....c.....g...
|   3920: 02 02 01 01 68 03 06 01 02 03 01 01 69 03 06 01   ....h.......i...
|   3936: 02 04 04 06 06 06 08 08 0f ef 00 14 2a 00 00 00   ............*...
|   3952: 00 01 02 02 00 02 01 01 01 02 01 01 25 88 80 80   ............%...
|   3968: 80 80 01 03 00 50 00 00 00 1f 02 30 67 02 08 02   .....P.....0g...
|   3984: 01 02 02 01 01 68 02 08 03 01 02 03 01 01 69 02   .....h........i.
|   4000: 08 04 01 02 04 04 09 09 37 84 80 80 80 80 01 03   ........7.......
|   4016: 00 74 00 00 00 2e 02 30 61 01 02 02 01 01 62 01   .t.....0a.....b.
|   4032: 02 03 01 01 63 01 02 04 01 01 67 01 06 01 02 02   ....c.....g.....
|   4048: 01 01 68 01 06 01 02 03 01 01 69 01 06 01 02 04   ..h.......i.....
|   4064: 04 06 06 06 08 08 07 01 03 00 14 03 09 00 09 00   ................
|   4080: 00 00 11 24 00 00 00 00 01 01 01 00 01 01 01 01   ...$............
| page 3 offset 8192
|      0: 0a 00 00 00 03 00 00 00 00 00 00 00 00 00 00 00   ................
|   4064: 00 00 00 00 00 00 00 00 00 00 00 00 06 04 01 0c   ................
|   4080: 01 03 02 06 04 01 0c 01 02 02 05 04 09 0c 01 02   ................
| page 4 offset 12288
|      0: 0d 00 00 00 03 0f be 00 0f ea 0f d4 0f be 00 00   ................
|   4016: 00 00 00 00 00 00 00 00 00 00 00 00 00 00 14 03   ................
|   4032: 05 00 17 17 17 61 20 62 20 63 67 20 68 20 69 67   .....a b cg h ig
|   4048: 20 68 20 69 14 02 05 00 17 17 17 67 20 68 20 69    h i.......g h i
|   4064: 61 20 62 20 63 67 20 68 20 69 14 01 05 00 17 17   a b cg h i......
|   4080: 17 61 20 62 20 63 64 20 65 20 66 67 20 68 20 69   .a b cd e fg h i
| page 5 offset 16384
|      0: 0d 00 00 00 03 0f e8 00 0f f8 0f f0 0f e8 00 00   ................
|   4064: 00 00 00 00 00 00 00 00 06 03 03 00 12 03 00 03   ................
|   4080: 06 02 03 00 12 03 00 03 06 01 03 00 12 03 00 03   ................
| page 6 offset 20480
|      0: 0a 00 00 00 01 0f f4 00 0f f4 00 00 01 00 00 00   ................
|   4080: 00 00 00 00 0b 03 1b 01 76 65 72 73 69 6f 6e 04   ........version.
| page 7 offset 24576
|      0: 0d 00 00 00 03 0f 9e 00 0f e6 0f ef 00 00 00 00   ................
|   3984: 00 00 00 00 00 00 00 00 00 00 00 00 00 00 41 84   ..............A.
|   4000: 80 80 80 80 01 04 00 81 06 00 00 00 34 02 30 61   ............4.0a
|   4016: 01 01 01 01 01 62 01 01 01 01 01 63 01 01 01 01   .....b.....c....
|   4032: 01 64 01 01 01 65 01 01 01 66 01 01 01 67 01 01   .d...e...f...g..
|   4048: 01 01 01 68 01 01 01 01 01 69 01 01 01 04 06 06   ...h.....i......
|   4064: 06 04 04 04 06 06 07 01 03 00 14 03 09 09 09 0f   ................
|   4080: 0a 03 00 24 00 00 00 00 01 01 01 00 01 01 01 01   ...$............
| page 8 offset 28672
|      0: 0a 00 00 00 01 0f fa 00 00 00 00 00 00 00 00 00   ................
|   4080: 00 00 00 00 00 00 00 00 00 00 05 04 09 0c 01 12   ................
| page 9 offset 32768
|      0: 0d 00 00 00 03 0f be 00 0f ea 0f d4 0f be 00 00   ................
|   4016: 00 00 00 00 00 00 00 00 00 00 00 00 00 00 14 03   ................
|   4032: 05 00 17 17 17 61 20 62 20 63 67 20 68 20 69 67   .....a b cg h ig
|   4048: 20 68 20 69 14 02 05 00 17 17 17 67 20 68 20 69    h i.......g h i
|   4064: 61 20 62 20 63 67 20 68 20 69 14 01 05 00 17 17   a b cg h i......
|   4080: 17 61 20 62 20 63 64 20 65 20 66 67 20 68 20 69   .a b cd e fg h i
| page 10 offset 36864
|      0: 0a 00 00 00 01 00 00 00 00 00 00 00 00 00 00 00   ................
|   4080: 00 00 00 00 0b 03 1b 01 76 65 72 73 00 00 00 00   ........vers....
| end crash-f928a9c1ec68dd.db
}]} {}

do_catchsql_test 80.1 {
SELECT snippet(rowid, -1, '.', '..', '[', '(]'),snippet(rowid, -1, '.', '.', '', '(]'), highlight(t1, 29, 1 , '') FROM t1('g+ h') WHERE rank MATCH 'bm25(1.0, 10)' ORDER BY NOT (SELECT 1 FROM t1('g+ æ') WHERE rank MATCH 'bm25(1.0, 10)' ORDER BY rank);
} {1 {database disk image is malformed}}

#-------------------------------------------------------------------------
reset_db
do_test 81.0 {
  sqlite3 db {}
  db deserialize [decode_hexdb {
.open --hexdb
| size 40960 pagesize 4096 filename crash-44e8035a976422.db
| page 1 offset 0
|      0: 53 51 4c 69 74 65 20 66 6f 72 6d 61 74 20 33 00   SQLite format 3.
|     16: 10 00 01 01 00 40 20 20 00 00 00 00 00 00 00 0a   .....@  ........
|     32: 00 00 00 00 00 00 00 00 00 00 00 0d 00 00 00 04   ................
|     48: 00 00 00 00 00 00 00 00 00 00 00 01 00 00 00 00   ................
|     96: 00 00 00 00 0d 00 00 00 0d 0b 6e 00 0f a3 0f 4c   ..........n....L
|    112: 0e e1 0e 81 0e 24 0d cc 0d 72 0d 1b 0c b0 0c 50   .....$...r.....P
|    128: 0b f8 0b b3 0b 6e 00 00 00 00 00 00 00 00 00 00   .....n..........
|   2912: 00 00 00 00 00 00 00 00 00 00 00 00 00 00 43 0d   ..............C.
|   2928: 06 17 11 11 08 75 74 61 62 6c 65 74 34 74 34 43   .....utablet4t4C
|   2944: 52 45 41 54 45 20 56 49 52 54 55 41 4c 20 54 41   REATE VIRTUAL TA
|   2960: 42 4c 45 20 74 34 20 55 53 49 4e 47 20 66 74 73   BLE t4 USING fts
|   2976: 35 76 6f 63 61 62 28 27 74 32 27 2c 20 27 72 6f   5vocab('t2', 'ro
|   2992: 77 27 29 43 0c 06 17 11 11 08 75 74 61 62 6c 65   w')C......utable
|   3008: 74 33 74 33 43 52 45 41 54 45 20 56 49 52 54 55   t3t3CREATE VIRTU
|   3024: 41 4c 20 54 41 42 4c 45 20 74 33 20 55 53 49 4e   AL TABLE t3 USIN
|   3040: 47 20 66 74 73 35 76 6f 63 61 62 28 27 74 31 27   G fts5vocab('t1'
|   3056: 2c 20 27 72 6f 77 27 29 56 0b 06 17 1f 1f 01 7d   , 'row')V.......
|   3072: 74 61 62 6c 65 74 32 5f 63 6f 6e 66 69 67 74 32   tablet2_configt2
|   3088: 5f 63 6f 6e 66 69 67 0a 43 52 45 41 54 45 20 54   _config.CREATE T
|   3104: 41 42 4c 45 20 27 74 32 5f 63 6f 6e 66 69 67 27   ABLE 't2_config'
|   3120: 28 6b 20 50 52 49 4d 41 52 59 20 4b 45 59 2c 20   (k PRIMARY KEY, 
|   3136: 76 29 20 57 49 54 48 4f 55 54 20 52 4f 57 49 44   v) WITHOUT ROWID
|   3152: 5e 0a 07 17 21 21 01 81 07 74 61 62 6c 65 74 32   ^...!!...tablet2
|   3168: 5f 63 6f 6e 74 65 6e 74 74 32 5f 63 6f 6e 74 65   _contentt2_conte
|   3184: 6e 74 09 43 52 45 41 54 45 20 54 41 42 4c 45 20   nt.CREATE TABLE 
|   3200: 27 74 32 5f 63 6f 6e 74 65 6e 74 27 28 69 64 20   't2_content'(id 
|   3216: 49 4e 54 45 47 45 52 20 50 52 49 4d 41 52 59 20   INTEGER PRIMARY 
|   3232: 4b 45 59 2c 20 63 30 2c 20 63 31 2c 20 63 32 29   KEY, c0, c1, c2)
|   3248: 69 09 07 17 19 19 01 81 2d 74 61 62 6c 65 74 32   i.......-tablet2
|   3264: 5f 69 64 78 74 32 5f 69 64 78 08 43 52 45 41 54   _idxt2_idx.CREAT
|   3280: 45 20 54 41 42 4c 45 20 27 74 32 5f 69 64 78 27   E TABLE 't2_idx'
|   3296: 28 73 65 67 69 64 2c 20 74 65 72 6d 2c 20 70 67   (segid, term, pg
|   3312: 6e 6f 2c 20 50 52 49 4d 41 52 59 20 4b 45 59 28   no, PRIMARY KEY(
|   3328: 73 65 67 69 64 2c 20 74 65 72 6d 29 29 20 57 49   segid, term)) WI
|   3344: 54 48 4f 55 54 20 52 4f 57 49 44 55 08 07 17 1b   THOUT ROWIDU....
|   3360: 1b 01 81 01 74 61 62 6c 65 74 32 5f 64 61 74 61   ....tablet2_data
|   3376: 74 32 5f 64 61 74 61 07 43 52 45 41 54 45 20 54   t2_data.CREATE T
|   3392: 41 42 4c 45 20 27 74 32 5f 64 61 74 61 27 28 69   ABLE 't2_data'(i
|   3408: 64 20 49 4e 54 45 47 45 52 20 50 52 49 4d 41 52   d INTEGER PRIMAR
|   3424: 59 20 4b 45 59 2c 20 62 6c 6f 63 6b 20 42 4c 4f   Y KEY, block BLO
|   3440: 42 29 58 07 07 17 11 11 08 81 1d 74 61 62 6c 65   B)X........table
|   3456: 74 32 74 32 43 52 45 41 54 45 20 56 49 52 54 55   t2t2CREATE VIRTU
|   3472: 41 4c 20 54 41 42 4c 45 20 74 32 20 55 53 49 4e   AL TABLE t2 USIN
|   3488: 47 20 66 74 73 35 28 27 61 27 2c 5b 62 5d 2c 22   G fts5('a',[b],.
|   3504: 63 22 2c 64 65 74 61 69 6c 3d 6e 6f 6e 65 2c 63   c.,detail=none,c
|   3520: 6f 6c 75 6d 6e 73 69 7a 65 3d 30 29 56 06 06 17   olumnsize=0)V...
|   3536: 1f 1f 01 7d 74 61 62 6c 65 74 31 5f 63 6f 6e 66   ....tablet1_conf
|   3552: 69 67 74 31 5f 63 6f 6e 66 69 67 06 43 52 45 41   igt1_config.CREA
|   3568: 54 45 20 54 41 42 4c 45 20 27 74 31 5f 63 6f 6e   TE TABLE 't1_con
|   3584: 66 69 67 27 28 6b 20 50 52 49 4d 41 52 59 20 4b   fig'(k PRIMARY K
|   3600: 45 59 2c 20 76 29 20 57 49 54 48 4f 55 54 20 52   EY, v) WITHOUT R
|   3616: 4f 57 49 44 5b 05 07 17 21 21 01 81 01 74 61 62   OWID[...!!...tab
|   3632: 6c 65 74 31 5f 64 6f 63 73 69 7a 65 74 31 5f 64   let1_docsizet1_d
|   3648: 6f 63 73 69 7a 65 05 43 52 45 41 54 45 20 54 41   ocsize.CREATE TA
|   3664: 42 4c 45 20 27 74 31 5f 64 6f 63 73 69 7a 65 27   BLE 't1_docsize'
|   3680: 28 69 64 20 49 4e 54 45 47 45 52 20 50 52 49 4d   (id INTEGER PRIM
|   3696: 41 52 59 20 4b 45 59 2c 20 73 7a 20 42 4c 4f 42   ARY KEY, sz BLOB
|   3712: 29 5e 04 07 17 21 21 01 81 07 74 61 62 6c 65 74   )^...!!...tablet
|   3728: 31 5f 63 6f 6e 74 65 6e 74 74 31 5f 63 6f 6e 74   1_contentt1_cont
|   3744: 65 6e 74 04 43 52 45 41 54 45 20 54 41 42 4c 45   ent.CREATE TABLE
|   3760: 20 27 74 31 5f 63 6f 6e 74 65 6e 74 27 28 69 64    't1_content'(id
|   3776: 20 49 4e 54 45 47 45 52 20 50 52 49 4d 41 52 59    INTEGER PRIMARY
|   3792: 20 4b 45 59 2c 20 63 30 2c 20 63 31 2c 20 63 32    KEY, c0, c1, c2
|   3808: 29 69 03 07 17 19 19 01 81 2d 74 61 62 6c 65 74   )i.......-tablet
|   3824: 31 5f 69 64 78 74 31 5f 69 64 78 03 43 52 45 41   1_idxt1_idx.CREA
|   3840: 54 45 20 54 41 42 4c 45 20 27 74 31 5f 69 64 78   TE TABLE 't1_idx
|   3856: 27 28 73 65 67 69 64 2c 20 74 65 72 6d 2c 20 70   '(segid, term, p
|   3872: 67 6e 6f 2c 20 50 52 49 4d 41 52 59 20 4b 45 59   gno, PRIMARY KEY
|   3888: 28 73 65 67 69 64 2c 20 74 65 72 6d 29 29 20 57   (segid, term)) W
|   3904: 49 54 48 4f 55 54 20 52 4f 57 49 44 55 02 07 17   ITHOUT ROWIDU...
|   3920: 1b 1b 01 81 01 74 61 62 6c 65 74 31 5f 64 61 74   .....tablet1_dat
|   3936: 61 74 31 5f 64 61 74 61 02 43 52 45 41 54 45 20   at1_data.CREATE 
|   3952: 54 41 42 4c 45 20 27 74 31 5f 64 61 74 61 27 28   TABLE 't1_data'(
|   3968: 69 64 20 49 4e 54 45 47 45 52 20 50 52 49 4d 41   id INTEGER PRIMA
|   3984: 52 59 20 4b 45 59 2c 20 62 6c 6f 63 6b 20 42 4c   RY KEY, block BL
|   4000: 4f 42 29 5b 01 07 17 11 11 08 81 23 74 61 62 6c   OB)[.......#tabl
|   4016: 65 74 31 74 31 43 52 45 41 54 45 20 56 49 52 54   et1t1CREATE VIRT
|   4032: 55 41 4c 20 54 41 42 4c 45 20 74 31 20 55 53 49   UAL TABLE t1 USI
|   4048: 4e 47 20 66 74 73 35 28 61 2c 62 20 75 6e 69 6e   NG fts5(a,b unin
|   4064: 64 65 78 65 64 2c 63 2c 74 6f 6b 65 6e 69 7a 65   dexed,c,tokenize
|   4080: 3d 22 70 6f 72 74 65 72 20 61 73 63 69 69 22 29   =.porter ascii.)
| page 2 offset 4096
|      0: 0d 0f 68 00 05 0f 13 00 0f e6 0f 13 0f a8 0f 7c   ..h............|
|     16: 0f 2a 00 00 00 00 00 00 00 00 00 00 00 00 00 00   .*..............
|   3856: 00 00 00 15 0a 03 00 30 00 00 00 00 01 03 03 00   .......0........
|   3872: 03 01 01 01 02 01 01 03 01 01 37 8c 80 80 80 80   ..........7.....
|   3888: 01 03 00 74 00 00 00 2e 02 30 61 03 02 02 01 01   ...t.....0a.....
|   3904: 62 03 02 03 01 01 63 03 02 04 01 01 67 03 06 01   b.....c.....g...
|   3920: 02 02 01 01 68 03 06 01 02 03 01 01 69 03 06 01   ....h.......i...
|   3936: 02 04 04 06 06 06 08 08 0f ef 00 14 2a 00 00 00   ............*...
|   3952: 00 01 02 02 00 02 01 01 01 02 01 01 25 88 80 80   ............%...
|   3968: 80 80 01 03 00 50 00 00 00 1f 02 30 67 02 08 02   .....P.....0g...
|   3984: 01 02 02 01 01 68 02 08 03 8d 02 03 01 01 6a 42   .....h........jB
|   4000: 08 04 01 02 04 04 09 09 37 84 80 80 80 80 01 03   ........7.......
|   4016: 00 74 00 00 00 2e 02 30 61 01 12 02 01 01 62 01   .t.....0a.....b.
|   4032: 02 03 01 01 63 01 02 04 01 01 67 01 06 01 02 02   ....c.....g.....
|   4048: 01 01 68 01 05 01 02 03 01 01 69 01 06 01 02 04   ..h.......i.....
|   4064: 04 06 06 06 08 08 07 01 03 00 14 03 09 00 09 00   ................
|   4080: 00 00 11 24 00 00 00 00 01 01 01 00 01 01 01 01   ...$............
| page 3 offset 8192
|      0: 0a 00 00 00 03 0f ec 00 0f fa 0f f3 0f ec 00 00   ................
|   4064: 00 00 00 00 00 00 00 00 00 00 00 00 06 04 01 0c   ................
|   4080: 01 03 02 06 04 01 0c 01 02 02 05 04 09 0c 01 02   ................
| page 4 offset 12288
|      0: 0d 00 00 00 03 0f be 00 0f ea 00 00 00 00 00 00   ................
|   4016: 00 00 00 00 00 00 00 00 00 00 00 00 00 00 14 03   ................
|   4032: 05 00 17 17 17 61 20 62 20 63 67 20 68 20 69 67   .....a b cg h ig
|   4048: 20 68 20 69 14 02 05 00 17 17 17 67 20 68 20 69    h i.......g h i
|   4064: 61 20 62 20 63 67 20 68 20 69 14 01 05 00 17 17   a b cg h i......
|   4080: 17 61 20 62 20 63 64 20 65 20 66 67 20 68 20 69   .a b cd e fg h i
| page 5 offset 16384
|      0: 0d 00 00 00 03 0f e8 00 0f f8 0f f0 0f e8 00 00   ................
|   4064: 00 00 00 00 00 00 00 00 06 03 03 00 12 03 00 03   ................
|   4080: 06 02 03 00 12 03 00 03 06 01 03 00 12 03 00 03   ................
| page 6 offset 20480
|      0: 0a 00 00 00 01 0f f4 00 0f f4 00 00 00 00 00 00   ................
|   4080: 00 00 00 00 0b 03 1b 01 76 65 72 73 69 6f 6e 04   ........version.
| page 7 offset 24576
|      0: 0d 00 00 00 03 0f 9e 00 0f e6 0f ef 0f 9e 00 00   ................
|   3984: 00 00 00 00 00 00 00 00 00 00 00 00 00 00 41 84   ..............A.
|   4000: 80 80 80 80 01 04 00 81 06 00 00 00 34 02 30 61   ............4.0a
|   4016: 01 01 01 01 01 62 01 01 01 01 01 63 01 01 01 01   .....b.....c....
|   4032: e6 64 01 01 01 65 01 01 01 66 01 01 01 67 01 01   .d...e...f...g..
|   4048: 01 01 01 68 01 01 01 01 01 69 01 01 01 04 06 06   ...h.....i......
|   4064: 06 04 04 04 06 06 07 01 03 00 14 03 09 09 09 0f   ................
|   4080: 0a 03 00 24 00 00 00 00 01 01 01 00 01 01 01 01   ...$............
| page 8 offset 28672
|      0: 0a 00 00 00 01 0f fa 00 0f fa 00 00 00 00 00 00   ................
|   4080: 00 00 00 00 00 00 00 00 00 00 05 04 09 0c 01 02   ................
| page 9 offset 32768
|      0: 0d 00 00 00 03 0f be 00 0f ea 0f d4 0f be 00 00   ................
|   4016: 00 00 00 00 00 00 00 00 00 00 00 00 00 00 14 03   ................
|   4032: 05 00 17 17 17 61 20 62 20 63 67 20 68 20 69 67   .....a b cg h ig
|   4048: 20 68 21 69 14 02 05 00 17 17 17 67 20 68 20 69    h!i.......g h i
|   4064: 61 20 62 20 63 67 20 68 20 69 14 01 05 00 17 17   a b cg h i......
|   4080: 17 61 20 62 20 63 64 20 65 20 66 67 20 68 20 69   .a b cd e fg h i
| page 10 offset 36864
|      0: 0a 00 00 00 01 0f f4 00 0f f4 00 00 00 00 00 00   ................
|   4080: 00 00 00 00 0b 03 1b 01 76 65 72 73 69 6f 6e 04   ........version.
| end crash-44e8035a976422.db
}]} {}

do_catchsql_test 81.2 {
  UPDATE t1 SET b=zeroblob(299);
} {1 {database disk image is malformed}}

#-------------------------------------------------------------------------
reset_db
do_test 82.0 {
  sqlite3 db {}
  db deserialize [decode_hexdb {
.open --hexdb
| size 32768 pagesize 4096 filename c0.txt.db
| page 1 offset 0
|      0: 53 51 4c 69 74 65 20 66 6f 72 6d 61 74 20 33 00   SQLite format 3.
|     16: 10 00 01 01 00 40 20 20 00 00 00 00 00 00 00 08   .....@  ........
|     32: 00 00 00 02 00 00 00 01 00 00 00 09 00 00 00 04   ................
|     96: 00 00 00 00 0d 0f c7 00 07 0d 92 00 0f 8d 0f 36   ...............6
|    112: 0e cb 0e 6b 0e 0e 0d b6 0d 92 0d 92 00 00 00 00   ...k............
|   3472: 00 00 22 08 06 17 11 11 01 31 74 61 62 6c 65 74   .........1tablet
|   3488: 32 74 32 08 43 52 45 41 54 45 20 54 41 42 4c 45   2t2.CREATE TABLE
|   3504: 20 74 32 28 78 29 56 07 06 17 1f 1f 01 7d 74 61    t2(x)V.......ta
|   3520: 62 6c 65 74 31 5f 63 6f 6e 66 69 67 74 31 5f 63   blet1_configt1_c
|   3536: 6f 6e 66 69 67 07 43 52 45 41 54 45 20 54 41 42   onfig.CREATE TAB
|   3552: 4c 45 20 27 74 31 5f 63 6f 6e 66 69 67 27 28 6b   LE 't1_config'(k
|   3568: 20 50 52 49 4d 41 52 59 20 4b 45 59 2c 20 76 29    PRIMARY KEY, v)
|   3584: 20 57 49 54 48 4f 55 54 20 52 4f 57 49 44 5b 06    WITHOUT ROWID[.
|   3600: 07 17 21 21 01 81 01 74 61 62 6c 65 74 31 5f 64   ..!!...tablet1_d
|   3616: 6f 63 73 69 7a 65 74 31 5f 64 6f 63 73 69 7a 65   ocsizet1_docsize
|   3632: 06 43 52 45 41 54 45 20 54 41 42 4c 45 20 27 74   .CREATE TABLE 't
|   3648: 31 5f 64 6f 63 73 69 7a 65 27 28 69 64 20 49 4e   1_docsize'(id IN
|   3664: 54 45 47 45 52 20 50 52 49 4d 41 52 59 20 4b 45   TEGER PRIMARY KE
|   3680: 59 2c 20 73 7a 20 42 4c 4f 42 29 5e 05 07 17 21   Y, sz BLOB)^...!
|   3696: 21 01 81 07 74 61 62 6c 65 74 31 5f 63 6f 6e 74   !...tablet1_cont
|   3712: 65 6e 74 74 31 5f 63 6f 6e 74 65 6e 74 05 43 52   entt1_content.CR
|   3728: 45 41 54 45 20 54 41 42 4c 45 20 27 74 31 5f 63   EATE TABLE 't1_c
|   3744: 6f 6e 74 65 6e 74 27 28 69 64 20 49 4e 54 45 47   ontent'(id INTEG
|   3760: 45 52 20 50 52 49 4d 41 52 59 20 4b 45 59 2c 20   ER PRIMARY KEY, 
|   3776: 63 30 2c 20 63 31 2c 20 63 32 29 69 04 07 17 19   c0, c1, c2)i....
|   3792: 19 01 81 2d 74 61 62 6c 65 74 31 5f 69 64 78 74   ...-tablet1_idxt
|   3808: 31 5f 69 64 78 04 43 52 45 41 54 45 20 54 41 42   1_idx.CREATE TAB
|   3824: 4c 45 20 27 74 31 5f 69 64 78 27 28 73 65 67 69   LE 't1_idx'(segi
|   3840: 64 2c 20 74 65 72 6d 2c 20 70 67 6e 6f 2c 20 50   d, term, pgno, P
|   3856: 52 49 4d 41 52 59 20 4b 45 59 28 73 65 67 69 64   RIMARY KEY(segid
|   3872: 2c 20 74 65 72 6d 29 29 20 57 49 54 48 4f 55 54   , term)) WITHOUT
|   3888: 20 52 4f 57 49 44 55 03 07 17 1b 1b 01 81 01 74    ROWIDU........t
|   3904: 61 62 6c 65 74 31 5f 64 61 74 61 74 31 5f 64 61   ablet1_datat1_da
|   3920: 74 61 03 43 52 45 41 54 45 20 54 41 42 4c 45 20   ta.CREATE TABLE 
|   3936: 27 74 31 5f 64 61 74 61 27 28 69 64 20 49 4e 54   't1_data'(id INT
|   3952: 45 47 45 52 20 50 52 49 4d 41 52 59 20 4b 45 59   EGER PRIMARY KEY
|   3968: 2c 20 62 6c 6f 63 6b 20 42 4c 4f 42 29 38 02 06   , block BLOB)8..
|   3984: 17 11 11 08 5f 74 61 62 6c 65 74 31 74 31 43 52   ...._tablet1t1CR
|   4000: 45 41 54 45 20 56 49 52 54 55 41 4c 20 54 41 42   EATE VIRTUAL TAB
|   4016: 4c 45 20 74 31 20 55 53 49 4e 47 20 66 74 73 35   LE t1 USING fts5
|   4032: 28 61 2c 62 2c 63 29 00 00 00 00 00 00 00 00 00   (a,b,c).........
| page 3 offset 8192
|      0: 0d 00 00 00 03 0c 94 00 0f e6 0f ef 0c 94 00 00   ................
|   3216: 00 00 00 00 86 4a 84 80 80 80 80 01 04 00 8d 18   .....J..........
|   3232: 00 00 03 2b 02 30 30 01 02 06 01 02 06 01 02 06   ...+.00.........
|   3248: 1f 02 03 01 02 03 01 02 03 01 08 32 30 31 36 30   ...........20160
|   3264: 36 30 39 01 02 07 01 02 07 01 02 07 01 01 34 01   609...........4.
|   3280: 02 05 01 02 05 01 02 05 01 01 35 01 02 04 01 02   ..........5.....
|   3296: 04 01 02 04 02 07 30 30 30 30 30 30 30 1c 02 04   ......0000000...
|   3312: 01 02 04 01 02 04 01 06 62 69 6e 61 72 79 03 06   ........binary..
|   3328: 01 02 02 03 06 01 02 02 03 06 01 02 02 03 06 01   ................
|   3344: 02 02 03 06 01 02 02 03 06 01 02 02 03 06 01 02   ................
|   3360: 02 03 06 01 02 02 03 06 01 02 02 03 06 01 02 02   ................
|   3376: 03 06 01 02 02 03 06 01 02 02 01 08 63 6f 6d 70   ............comp
|   3392: 69 6c 65 72 01 02 02 01 02 02 01 02 02 01 06 64   iler...........d
|   3408: 62 73 74 61 74 07 02 03 01 02 03 01 02 03 02 04   bstat...........
|   3424: 65 62 75 67 04 02 02 01 02 02 01 02 02 01 06 65   ebug...........e
|   3440: 6e 61 62 6c 65 07 02 02 01 02 02 01 02 02 01 02   nable...........
|   3456: 02 01 02 02 01 02 02 01 02 02 01 02 02 01 02 02   ................
|   3472: 01 02 02 01 02 02 01 02 02 01 02 02 01 02 02 01   ................
|   3488: 02 02 01 02 02 01 02 02 01 02 02 01 02 02 01 02   ................
|   3504: 02 01 02 02 02 08 78 74 65 6e 73 69 6f 6e 1f 02   ......xtension..
|   3520: 04 01 02 04 01 02 04 01 04 66 74 73 34 0a 02 03   .........fts4...
|   3536: 01 02 03 01 02 03 04 01 35 0d 02 03 01 02 03 01   ........5.......
|   3552: 02 03 01 03 67 63 63 01 02 03 01 02 03 01 02 03   ....gcc.........
|   3568: 02 06 65 6f 70 6f 6c 79 10 02 03 01 02 03 01 02   ..eopoly........
|   3584: 03 01 05 6a 73 6f 6e 31 13 02 03 01 02 03 01 02   ...json1........
|   3600: 03 01 04 6c 6f 61 64 1f 02 03 01 02 03 01 02 03   ...load.........
|   3616: 01 03 6d 61 78 1c 02 02 01 02 02 01 02 02 02 05   ..max...........
|   3632: 65 6d 6f 72 79 1c 02 03 01 02 03 01 02 03 04 04   emory...........
|   3648: 73 79 73 35 16 02 03 01 02 02 03 01 03 01 06 6e   sys5...........n
|   3664: 6f 63 61 73 65 02 06 01 02 02 03 06 01 02 02 03   ocase...........
|   3680: 06 01 02 02 03 06 01 02 02 03 06 01 02 02 03 06   ................
|   3696: 01 02 02 03 06 01 02 02 03 06 01 02 02 03 06 01   ................
|   3712: 02 02 03 06 01 02 02 03 06 01 02 02 03 06 01 02   ................
|   3728: 02 01 04 6f 6d 69 74 1f 02 02 01 02 02 01 02 02   ...omit.........
|   3744: 01 05 72 74 72 65 65 19 02 03 01 02 03 01 02 03   ..rtree.........
|   3760: 04 02 69 6d 01 06 01 02 02 03 06 01 02 02 03 06   ..im............
|   3776: 01 02 02 03 06 01 02 02 03 06 01 02 02 03 06 01   ................
|   3792: 02 02 03 06 01 02 02 03 06 01 02 02 03 06 01 02   ................
|   3808: 02 03 06 01 02 02 03 06 01 02 02 03 06 01 02 02   ................
|   3824: 01 0a 74 68 72 65 61 64 73 61 66 65 03 57 34 56   ..threadsafe.W4V
|   3840: 94 64 91 46 85 84 04 76 74 61 62 07 02 04 01 02   .d.F...vtab.....
|   3856: 04 01 02 04 01 01 78 01 06 01 01 02 01 06 01 01   ......x.........
|   3872: 02 01 06 01 01 02 01 06 01 01 02 01 06 01 10 02   ................
|   3888: 01 06 01 01 02 01 06 01 01 02 01 06 01 01 02 01   ................
|   3904: 06 01 01 02 01 06 01 01 02 01 06 01 01 02 01 06   ................
|   3920: 01 01 02 01 06 01 01 02 01 06 01 01 02 01 06 01   ................
|   3936: 01 02 01 06 01 01 10 01 06 01 01 02 01 06 01 01   ................
|   3952: 02 01 06 01 01 02 01 06 01 01 02 01 06 01 01 02   ................
|   3968: 01 06 01 01 02 01 06 01 01 02 01 06 01 01 02 01   ................
|   3984: 06 01 01 02 01 06 01 01 02 01 06 01 01 02 01 06   ................
|   4000: 01 01 02 01 06 01 01 02 01 06 01 01 02 01 06 01   ................
|   4016: 01 02 01 06 01 01 02 01 06 01 01 02 01 06 01 01   ................
|   4032: 02 01 06 01 01 02 01 06 01 01 02 04 15 13 0c 0c   ................
|   4048: 12 44 13 11 0f 47 13 0f 0c 0e 11 10 0f 0e 10 0f   .D...G..........
|   4064: 44 0f 10 40 15 0f 07 01 03 00 14 24 5a 24 24 0f   D..@.......$Z$$.
|   4080: 0a 03 00 24 00 00 00 00 01 01 01 00 01 01 01 01   ...$............
| page 4 offset 12288
|      0: 0a 00 00 00 01 0f fa 00 00 00 00 00 00 00 00 00   ................
|   4080: 00 00 00 00 00 00 00 00 00 00 05 04 09 0c 01 02   ................
| page 5 offset 16384
|      0: 0d 00 00 00 24 0c 0a 00 0f d8 0f af 0f 86 0f 74   ....$..........t
|     16: 0f 61 0f 4e 0f 2f 0f 0f 0e ef 0e d7 0e be 0e a5   .a.N./..........
|     32: 0e 8d 0e 74 0e 5b 0e 40 0e 24 0e 08 0d ef 0d d5   ...t.[.@.$......
|     48: 0d bb 0d a0 0d 84 0d 68 0d 4f 0d 35 0d 1b 0c fb   .......h.O.5....
|     64: 0c da 0c b9 0c 99 0c 78 0c 57 00 00 00 00 00 00   .......x.W......
|   3072: 00 00 00 00 00 00 00 00 00 00 18 24 05 00 25 0f   ...........$..%.
|   3088: 19 54 48 52 45 41 44 53 41 46 45 3d 30 58 42 49   .THREADSAFE=0XBI
|   3104: 4e 41 52 59 18 23 05 00 25 0f 19 54 48 52 45 41   NARY.#..%..THREA
|   3120: 44 53 41 46 45 3d 30 58 4e 4f 43 41 53 45 17 22   DSAFE=0XNOCASE..
|   3136: 05 00 25 0f 17 54 48 52 45 41 44 53 31 46 45 3d   ..%..THREADS1FE=
|   3152: 30 58 52 64 52 49 4d 1f 21 05 00 33 0f 19 4f 4d   0XRdRIM.!..3..OM
|   3168: 49 54 20 4c 4f 41 44 20 45 58 54 45 4e 53 49 4f   IT LOAD EXTENSIO
|   3184: 4e 58 42 49 4e 41 52 59 1f 20 05 00 33 0f 19 4f   NXBINARY. ..3..O
|   3200: 4d 49 54 20 4c 4f 41 44 20 45 58 54 45 4e 53 49   MIT LOAD EXTENSI
|   3216: 4f 4e 58 4e 4f 43 41 53 45 1e 1f 05 00 33 0f 17   ONXNOCASE....3..
|   3232: 4f 4d 49 54 20 4c 4f 41 44 20 45 58 54 45 4e 53   OMIT LOAD EXTENS
|   3248: 49 4f 4e 58 52 54 52 49 4d 1f 1e 05 00 33 0f 19   IONXRTRIM....3..
|   3264: 4d 41 58 20 4d 45 4d 4f 52 59 3d 35 30 30 30 30   MAX MEMORY=50000
|   3280: 30 30 30 58 42 49 4e 41 52 59 1f 1d 05 00 33 0f   000XBINARY....3.
|   3296: 19 4d 41 58 20 4d 45 4d 4f 52 59 3d 35 30 30 30   .MAX MEMORY=5000
|   3312: 30 30 30 30 58 4e 4f 43 41 53 45 1e 1c 05 00 33   0000XNOCASE....3
|   3328: 0f 17 4d 41 58 20 4d 45 4d 4f 52 59 3d 35 30 30   ..MAX MEMORY=500
|   3344: 30 30 30 30 30 58 52 54 52 49 4d 18 1b 05 00 25   00000XRTRIM....%
|   3360: 0f 19 45 4e 41 42 4c 45 20 52 54 52 45 45 58 42   ..ENABLE RTREEXB
|   3376: 49 4e 41 52 59 18 1a 05 00 25 0f 19 45 4e 41 42   INARY....%..ENAB
|   3392: 4c 45 20 52 54 52 45 45 58 4e 4f 43 41 53 45 17   LE RTREEXNOCASE.
|   3408: 19 05 00 25 0f 17 45 4e 41 42 4c 45 20 52 54 52   ...%..ENABLE RTR
|   3424: 45 45 58 52 54 52 49 4d 1a 18 05 00 29 0f 19 45   EEXRTRIM....)..E
|   3440: 4e 41 42 4b 45 20 4d 45 4d 53 59 53 35 58 42 49   NABKE MEMSYS5XBI
|   3456: 4e 41 52 59 1a 17 05 00 29 0f 19 45 4e 41 42 4c   NARY....)..ENABL
|   3472: 42 60 2d 45 4d 53 59 53 35 58 4e 4f 43 41 53 45   B`-EMSYS5XNOCASE
|   3488: 19 16 05 00 29 0f 17 45 4e 41 42 4c 45 20 4d 45   ....)..ENABLE ME
|   3504: 4d 53 59 53 35 58 52 54 52 49 4d 18 15 05 00 25   MSYS5XRTRIM....%
|   3520: 0f 19 45 4e 41 42 4c 45 20 4a 53 4f 4e 31 58 42   ..ENABLE JSON1XB
|   3536: 49 4e 41 52 59 18 14 05 00 25 0f 19 45 4e 41 42   INARY....%..ENAB
|   3552: 4c 45 20 4a 53 4f 4e 31 58 4e 4f 43 41 53 45 17   LE JSON1XNOCASE.
|   3568: 13 05 00 25 0f 17 45 4e 41 42 4c 45 20 4a 53 4f   ...%..ENABLE JSO
|   3584: 4e 31 58 52 54 52 49 4d 1a 12 05 00 29 0f 19 45   N1XRTRIM....)..E
|   3600: 42 4c 45 20 47 45 4f 50 4f 4c 59 58 42 49 4e 41   BLE GEOPOLYXBINA
|   3616: 52 59 1a 11 05 00 39 0f 19 45 4e 41 42 4c 45 2e   RY....9..ENABLE.
|   3632: 41 40 47 45 4f 50 4f 4c 59 58 4e 4f 43 41 53 40   A@GEOPOLYXNOCAS@
|   3648: 4f 4c 59 58 55 19 10 05 00 29 0f 17 45 4e 41 42   OLYXU....)..ENAB
|   3664: 4c 45 20 47 45 4f 52 54 52 49 4d 17 0f 05 00 23   LE GEORTRIM....#
|   3680: 0f 19 45 4e 41 42 4c 45 20 46 54 53 35 58 42 49   ..ENABLE FTS5XBI
|   3696: 4e 41 52 59 17 0e 05 00 23 0f 19 45 4e 41 42 4c   NARY....#..ENABL
|   3712: 45 20 46 54 53 35 58 4e 4f 43 41 53 45 16 0d 05   E FTS5XNOCASE...
|   3728: 00 23 0f 17 45 4e 41 42 4c 45 20 46 54 53 35 58   .#..ENABLE FTS5X
|   3744: 52 54 52 49 4d 17 0c 05 00 23 0f 19 45 4e 41 42   RTRIM....#..ENAB
|   3760: 4c 45 20 46 54 53 34 58 42 49 4e 41 52 59 17 0b   LE FTS4XBINARY..
|   3776: 05 00 23 0f 19 45 4e 41 42 4c 45 20 46 54 53 34   ..#..ENABLE FTS4
|   3792: 58 4e 4f 43 41 53 45 16 0a 05 00 23 0f 17 45 4e   XNOCASE....#..EN
|   3808: 41 42 4c 45 20 46 54 53 34 58 52 54 52 49 4d 1e   ABLE FTS4XRTRIM.
|   3824: 09 05 00 31 0f 19 45 4e 41 42 4c 45 20 44 42 53   ...1..ENABLE DBS
|   3840: 54 41 54 20 56 54 41 42 58 42 49 4e 41 52 59 1e   TAT VTABXBINARY.
|   3856: 08 05 00 31 0f 19 45 4e 41 42 4c 45 20 44 42 53   ...1..ENABLE DBS
|   3872: 54 41 54 20 56 54 24 15 48 4e 4f 43 41 53 45 1d   TAT VT$.HNOCASE.
|   3888: 07 05 00 31 0f 17 45 4e 41 42 4c 45 20 44 42 53   ...1..ENABLE DBS
|   3904: 54 41 54 20 56 54 41 42 58 52 54 52 49 4d 11 06   TAT VTABXRTRIM..
|   3920: 05 00 17 0f 19 44 45 42 55 47 58 42 49 4e 41 52   .....DEBUGXBINAR
|   3936: 59 11 05 05 00 17 0f 19 44 45 42 55 47 58 4e 4f   Y.......DEBUGXNO
|   3952: 43 41 53 45 10 04 05 00 17 0f 17 44 45 42 55 47   CASE.......DEBUG
|   3968: 58 52 54 52 49 4d 27 03 05 00 43 0f 19 43 4f 4d   XRTRIM'...C..COM
|   3984: 50 49 4c 45 52 3d 67 63 63 2d 35 2e 34 2e 30 20   PILER=gcc-5.4.0 
|   4000: 32 30 31 36 30 36 30 39 58 42 49 4e 41 52 59 27   20160609XBINARY'
|   4016: 02 05 00 43 0f 19 43 4f 4d 50 49 4c 45 52 3d 67   ...C..COMPILER=g
|   4032: 63 63 2d 35 2e 34 2e 30 20 32 30 31 36 30 36 30   cc-5.4.0 2016060
|   4048: 39 58 4e 4f 43 41 53 45 26 01 05 00 43 0f 17 43   9XNOCASE&...C..C
|   4064: 4f 4d 50 49 4c 45 52 3d 67 63 63 2d 35 2e 34 2e   OMPILER=gcc-5.4.
|   4080: 30 20 32 30 31 36 30 36 30 39 58 52 54 52 49 4d   0 20160609XRTRIM
| page 6 offset 20480
|      0: 0d 00 00 00 24 0e e0 00 0f f8 0f f0 0f e8 0f e0   ....$...........
|     16: 0f d8 0f d0 0f c8 0f c0 0f b8 0f b0 0f a8 0f a0   ................
|     32: 1f 98 0f 90 0f 88 0f 80 0f 78 0f 70 0f 68 0f 60   .........x.p.h.`
|     48: 0f 58 0f 50 0f 48 0f 40 0f 38 0f 30 0f 28 0f 20   .X.P.H.@.8.0.(. 
|     64: 0f 18 0f 10 0f 08 0f 00 0e f8 0e f0 0e e8 00 00   ................
|   3808: 06 24 03 00 12 02 01 01 06 23 03 00 12 02 01 01   .$.......#......
|   3824: 06 22 03 00 12 02 01 01 06 21 03 00 12 03 01 01   .........!......
|   3840: 06 20 03 00 12 03 01 01 06 1f 03 00 12 03 01 01   . ..............
|   3856: 06 1e 03 00 12 03 01 01 06 1d 03 00 12 03 01 01   ................
|   3872: 06 1c 03 00 12 03 01 01 06 1b 03 00 12 02 01 01   ................
|   3888: 06 1a 03 00 12 02 01 01 06 19 03 00 12 02 01 01   ................
|   3904: 06 18 03 00 12 02 01 01 06 17 03 00 12 02 01 01   ................
|   3920: 06 15 f3 00 12 02 01 01 06 15 03 00 12 02 01 01   ................
|   3936: 06 14 03 00 12 02 01 01 06 13 03 00 12 02 01 01   ................
|   3952: 06 12 03 00 12 02 01 01 06 11 03 00 12 02 01 01   ................
|   3968: 06 10 03 00 12 02 01 01 06 0f 03 00 12 02 01 01   ................
|   3984: 06 0e 03 00 12 02 01 01 06 0d 03 00 12 02 01 01   ................
|   4000: 06 0c 03 00 12 02 01 01 06 0b 03 00 12 02 01 01   ................
|   4016: 06 0a 03 00 12 02 01 01 06 09 03 00 12 03 01 01   ................
|   4032: 06 08 03 00 12 03 01 01 06 07 03 00 12 03 01 01   ................
|   4048: 06 06 03 00 12 01 01 01 06 05 03 00 12 01 01 01   ................
|   4064: 06 04 03 00 12 01 01 01 06 03 03 00 12 06 01 01   ................
|   4080: 06 02 03 00 12 06 01 01 06 01 03 00 12 06 01 01   ................
| page 7 offset 24576
|      0: 0a 00 00 00 01 0f f4 00 0f f4 00 00 00 00 00 00   ................
|   4080: 00 00 00 00 0b 03 1b 01 76 65 72 73 69 6f 6e 04   ........version.
| page 8 offset 28672
|      0: 0d 00 00 00 03 0f d6 00 0f f4 0f e9 0f d6 00 00   ................
|   4048: 00 00 00 00 00 00 11 03 02 2b 69 6e 74 65 67 72   .........+integr
|   4064: 69 74 79 2d 63 68 65 63 6b 09 02 02 1b 72 65 62   ity-check....reb
|   4080: 75 69 6c 64 0a 01 02 1d 6f 70 74 69 00 00 00 00   uild....opti....
| end c0.txt.db
}]} {}

do_execsql_test 82.2 {
  UPDATE t1 SET b=quote(zeroblob(current_date)) WHERE t1 MATCH 't*';
  PRAGMA writable_schema=ON;

  UPDATE sqlite_schema SET sql='SELECT * FROM t1' WHERE rowid=6;
  INSERT INTO t1(t1,rank) VALUES('secure-delete',1);
}

do_catchsql_test 82.3 {
  CREATE VIRTUAL TABLE IF NOT EXISTS t USING rtree(x,c);
} {1 {Too few columns for an rtree table}}

do_catchsql_test 82.4 {
  BEGIN;
  REPLACE INTO t1(rowid,b,a,rowid) VALUES(x'44023b9eb002d28b0ee90c',1,2,3);
  SAVEPOINT b;
} {1 {database disk image is malformed}}

#-------------------------------------------------------------------------
reset_db
do_test 83.0 {
  sqlite3 db {}
  db deserialize [decode_hexdb {
.open --hexdb
| size 24576 pagesize 4096 filename crash-c4a4c5492615bd.db
| page 1 offset 0
|      0: 53 51 4c 69 74 65 20 66 6f 72 6d 61 74 20 33 00   SQLite format 3.
|     16: 10 00 01 01 00 40 20 20 00 00 00 00 00 00 00 06   .....@  ........
|     32: 00 00 00 00 00 00 00 00 00 00 00 06 00 00 00 00   ................
|     96: 00 00 00 00 0d 00 00 00 06 0e 0f 00 0f aa 0f 53   ...............S
|    112: 0e e8 0e 8b 0e 33 0e 0f 00 01 00 00 00 00 00 00   .....3..........
|   3584: 00 00 00 00 00 00 00 00 00 00 00 00 00 00 00 22   ................
|   3600: 06 06 17 11 11 01 31 74 61 62 6c 65 62 62 62 62   ......1tablebbbb
|   3616: 06 43 52 45 41 54 45 20 54 41 42 4c 45 20 62 62   .CREATE TABLE bb
|   3632: 28 61 29 56 05 06 17 1f 1f 01 7d 74 61 62 6c 65   (a)V.......table
|   3648: 74 31 5f 63 6f 6e 66 69 67 74 31 5f 63 6f 6e 66   t1_configt1_conf
|   3664: 69 67 05 43 52 45 41 54 45 20 54 41 42 4c 45 20   ig.CREATE TABLE 
|   3680: 27 74 31 5f 63 6f 6e 66 69 67 27 28 6b 20 50 52   't1_config'(k PR
|   3696: 49 4d 41 52 59 20 4b 45 59 2c 20 76 29 20 57 49   IMARY KEY, v) WI
|   3712: 54 48 4f 55 54 20 52 4f 57 49 44 5b 04 07 17 21   THOUT ROWID[...!
|   3728: 21 01 81 01 74 61 62 6c 65 74 31 5f 64 6f 63 73   !...tablet1_docs
|   3744: 69 7a 65 74 31 5f 64 6f 63 73 69 7a 65 04 43 52   izet1_docsize.CR
|   3760: 45 41 54 45 20 54 41 42 4c 45 20 27 74 31 5f 64   EATE TABLE 't1_d
|   3776: 6f 63 73 69 7a 65 27 28 69 64 20 49 4e 54 45 47   ocsize'(id INTEG
|   3792: 45 52 20 50 52 49 4d 41 52 59 20 4b 45 59 2c 20   ER PRIMARY KEY, 
|   3808: 73 7a 20 42 4c 4f 42 29 69 03 07 17 19 19 01 81   sz BLOB)i.......
|   3824: 2d 74 61 62 6c 65 74 31 5f 69 64 78 74 31 5f 69   -tablet1_idxt1_i
|   3840: 64 78 03 43 52 45 41 54 45 20 54 41 42 4c 45 20   dx.CREATE TABLE 
|   3856: 27 74 31 5f 69 64 78 27 28 73 65 67 69 64 2c 20   't1_idx'(segid, 
|   3872: 74 65 72 6d 2c 20 70 67 6e 6f 2c 20 50 52 49 4d   term, pgno, PRIM
|   3888: 41 52 59 20 4b 45 59 28 73 65 67 69 64 2c 20 74   ARY KEY(segid, t
|   3904: 65 72 6d 29 29 20 57 49 54 48 4f 55 54 20 52 4f   erm)) WITHOUT RO
|   3920: 57 49 44 55 02 07 17 1b 1b 01 81 01 74 61 62 6c   WIDU........tabl
|   3936: 65 74 31 5f 64 61 74 61 74 31 5f 64 61 74 61 02   et1_datat1_data.
|   3952: 43 52 45 41 54 45 20 54 41 42 4c 45 20 27 74 31   CREATE TABLE 't1
|   3968: 5f 64 61 74 61 27 28 69 64 20 49 4e 54 45 47 45   _data'(id INTEGE
|   3984: 52 20 50 52 49 4d 41 52 59 20 4b 45 59 2c 20 62   R PRIMARY KEY, b
|   4000: 6c 6f 63 6b 20 42 4c 4f 42 29 54 01 07 17 11 11   lock BLOB)T.....
|   4016: 08 81 15 74 61 62 6c 65 74 31 74 31 43 52 45 41   ...tablet1t1CREA
|   4032: 54 45 20 56 49 52 54 55 41 4c 20 54 41 42 4c 45   TE VIRTUAL TABLE
|   4048: 20 74 31 20 55 53 49 4e 47 20 66 74 73 35 28 61    t1 USING fts5(a
|   4064: 2c 62 2c 70 72 65 66 69 78 3d 22 31 2c 32 2c 33   ,b,prefix=.1,2,3
|   4080: 2c 34 22 2c 20 63 6f 6e 74 65 6e 74 3d 22 22 29   ,4., content=..)
| page 2 offset 4096
|      0: 0d 0b 6a 00 37 09 4c 02 0f e7 09 4c 0f c6 0f a4   ..j.7.L....L....
|     16: 0f 88 0f 6d 0f 4b 0f 2c 0f 0e 0e ec 0e cd 0e ad   ...m.K.,........
|     32: 0e 8e 0e 6c 0e 4b 0e 29 0e 08 0d e6 0d c4 0d b5   ...l.K.)........
|     48: 0d 97 0d 76 0d 54 0d 31 0d 15 0c f3 0c d3 0c b5   ...v.T.1........
|     64: 0c 95 0c 73 0c 54 0c 32 0c 10 0b ee 0b cc 0b b0   ...s.T.2........
|     80: 0b 8d 0b 7e 0b 48 0b 2e 0b 00 4a ef fa cc 0a ad   ...~.H....J.....
|     96: 0a 8c 0a 6d 0a 4d 0a 2b 0a 0c 09 00 00 00 00 00   ...m.M.+........
|   2368: 00 00 00 00 00 00 00 00 00 00 00 00 15 0a 03 00   ................
|   2384: 30 00 00 00 01 01 03 35 00 03 01 01 12 02 01 12   0......5........
|   2400: 03 01 11 1c 8c 80 80 80 80 10 03 00 3e 00 00 00   ............>...
|   2416: 17 01 05 05 34 74 61 62 6c 03 02 03 01 04 77 68   ....4tabl.....wh
|   2432: 65 72 03 02 06 09 1b 8c 80 80 80 80 0f 03 00 3c   er.............<
|   2448: 00 00 00 16 05 34 66 74 73 34 03 02 02 01 04 6e   .....4fts4.....n
|   2464: 75 6d 62 03 07 01 04 09 1b 8c 80 80 80 80 0e 03   umb.............
|   2480: 00 3c 00 00 00 16 04 33 74 68 65 03 06 01 01 04   .<.....3the.....
|   2496: 01 03 77 68 65 03 02 04 04 0a 1b 8c 80 80 80 80   ..whe...........
|   2512: 0d 03 00 3c 00 00 00 16 04 33 6e 75 6d 03 06 01   ...<.....3num...
|   2528: 01 05 01 03 74 61 62 03 02 03 04 0a 19 8c 80 80   ....tab.........
|   2544: 80 80 0c 03 00 38 00 00 00 14 03 32 77 68 03 02   .....8.....2wh..
|   2560: 04 00 04 33 66 74 73 03 02 02 04 07 18 8c 80 80   ...3fts.........
|   2576: 80 80 0b 03 00 36 00 00 00 13 03 32 74 61 03 02   .....6.....2ta..
|   2592: 03 02 01 68 03 06 01 01 04 04 07 1b 8c 80 80 80   ...h............
|   2608: 80 0a 03 00 3c 00 00 00 16 03 32 6e 75 03 06 01   ....<.....2nu...
|   2624: 01 05 01 02 6f 66 03 06 01 01 06 04 09 19 8c 80   ....of..........
|   2640: 80 80 80 09 03 00 38 00 00 00 14 03 32 66 74 03   ......8.....2ft.
|   2656: 02 02 01 02 69 73 02 06 01 01 03 04 07 18 8c 80   ....is..........
|   2672: 80 80 22 08 03 00 36 00 00 00 13 02 31 74 03 08   ......6.....1t..
|   2688: 03 01 01 04 01 01 77 03 02 04 04 09 1a 8c 80 80   ......w.........
|   2704: 80 80 07 03 00 3a 00 00 00 15 02 31 6e 03 08 01   .....:.....1n...
|   2720: 01 02 05 01 01 6f 03 06 01 01 06 04 09 18 8c 80   .....o..........
|   2736: 80 80 80 06 03 00 36 00 00 00 13 04 02 31 66 03   ......6......1f.
|   2752: 02 02 01 01 69 03 06 01 01 03 05 06 1c 8c 80 80   ....i...........
|   2768: 80 80 05 03 00 3e 00 00 00 17 04 30 74 68 65 03   .....>.....0the.
|   2784: 06 01 01 04 01 05 77 68 65 72 65 03 02 04 0a 15   ......where.....
|   2800: 8c 80 80 80 80 04 03 00 30 00 00 00 11 01 01 06   ........0.......
|   2816: 06 30 74 61 62 6c 65 03 01 f3 07 1c 8c 80 80 80   .0table.........
|   2832: 80 03 03 00 3e 00 00 00 17 07 30 6e 75 6d 62 65   ....>.....0numbe
|   2848: 72 03 06 01 01 05 01 02 6f 66 03 06 04 0d 13 8c   r.......of......
|   2864: 80 80 80 80 02 03 00 2c 00 00 00 0f 01 01 03 02   .......,........
|   2880: 30 6e 03 06 01 01 02 07 1b 8c 80 80 80 80 01 03   0n..............
|   2896: 00 3c 00 00 00 16 08 30 66 74 73 34 61 75 78 03   .<.....0fts4aux.
|   2912: 02 02 01 02 69 73 03 06 04 0c 00 00 00 14 2a 00   ....is........*.
|   2928: 00 00 01 01 02 24 00 02 01 01 12 02 01 12 08 88   .....$..........
|   2944: 80 80 80 80 12 03 00 16 00 00 00 05 02 1c 88 80   ................
|   2960: 80 80 80 11 03 00 3e 00 00 00 17 05 34 72 6f 77   ......>.....4row
|   2976: 73 02 06 01 01 05 01 04 74 68 65 72 02 02 04 0b   s.......ther....
|   2992: 15 88 80 80 80 80 10 03 00 30 00 00 00 11 02 01   .........0......
|   3008: 01 07 05 34 62 65 74 77 02 02 04 08 1b 88 80 80   ...4betw........
|   3024: 80 80 0f 03 00 3c 00 00 00 16 04 04 33 72 6f 77   .....<......3row
|   3040: 02 06 01 01 05 01 03 74 68 65 02 08 05 0a 1b 88   .......the......
|   3056: 80 80 80 80 0e 03 00 3c 00 00 00 16 01 01 02 04   .......<........
|   3072: 33 61 72 65 02 02 b3 01 03 62 65 74 02 02 07 08   3are.....bet....
|   3088: 1b 88 80 80 80 80 0d 03 00 3c 00 00 00 16 03 32   .........<.....2
|   3104: 74 68 02 08 02 01 01 07 00 04 33 61 6e 64 02 06   th........3and..
|   3120: 04 0a 1b 88 80 80 80 80 0c 03 00 3c 00 00 00 16   ...........<....
|   3136: 03 32 69 6e 02 06 01 01 06 01 02 72 6f 02 06 01   .2in.......ro...
|   3152: 01 05 04 09 18 88 80 80 80 80 0b 03 00 36 00 0f   .............6..
|   3168: f0 13 02 03 32 61 72 02 02 03 01 02 62 65 02 02   ....2ar.....be..
|   3184: 03 05 07 1b 88 80 80 80 80 0a 03 00 3c dd 00 00   ............<...
|   3200: 18 c2 31 74 02 08 02 01 01 07 00 03 32 61 6e 02   ..1t........2an.
|   3216: 06 01 01 04 09 19 88 80 80 80 80 09 03 00 38 00   ..............8.
|   3232: 00 00 14 02 31 6e 02 06 01 01 03 01 01 72 02 06   ....1n.......r..
|   3248: 01 01 05 04 08 17 88 80 80 80 80 08 03 00 34 00   ..............4.
|   3264: 00 00 12 02 31 62 02 02 04 01 01 69 02 06 01 01   ....1b.....i....
|   3280: 06 04 06 19 88 80 90 80 80 07 03 00 38 00 00 00   ............8...
|   3296: 14 04 02 31 32 02 02 05 01 01 61 02 08 03 01 01   ...12.....a.....
|   3312: 02 05 06 1b 88 80 80 80 80 06 03 00 3c 00 00 00   ............<...
|   3328: 16 06 30 74 68 65 72 65 02 02 02 00 02 31 31 02   ..0there.....11.
|   3344: 06 01 01 04 0a 15 88 80 80 80 80 05 03 00 30 00   ..............0.
|   3360: 00 00 11 01 01 05 04 30 74 68 65 02 06 01 01 07   .......0the.....
|   3376: 07 1c 88 80 80 80 80 04 03 00 3e 00 00 00 17 01   ..........>.....
|   3392: 01 06 02 30 6e 02 06 01 01 03 01 04 72 6f 77 73   ...0n.......rows
|   3408: 02 06 07 08 1b 88 80 80 80 80 03 03 00 3c 00 00   .............<..
|   3424: 00 16 08 30 62 65 74 77 65 65 6e 02 02 04 01 02   ...0between.....
|   3440: 69 6e 02 06 04 0c 1a 88 80 80 80 80 02 03 00 3a   in.............:
|   3456: 00 00 00 15 04 30 61 6e 64 02 06 01 01 02 02 02   .....0and.......
|   3472: 72 65 02 02 03 04 0a 17 88 80 80 80 80 01 03 00   re..............
|   3488: 34 00 00 0c 52 02 30 31 02 06 01 01 04 01 01 32   4...R.01.......2
|   3504: 02 02 05 04 08 08 84 80 80 80 80 12 03 00 16 00   ................
|   3520: 00 00 05 04 1b 84 80 80 80 80 11 03 00 3c 00 00   .............<..
|   3536: 00 16 05 34 74 61 62 6c 01 06 00 f1 05 02 03 65   ...4tabl.......e
|   3552: 72 6d 01 02 04 0b 1b 84 80 80 80 80 10 03 00 3c   rm.............<
|   3568: 00 00 00 16 05 34 65 61 63 68 01 02 03 01 04 70   .....4each.....p
|   3584: 72 65 73 01 02 05 04 09 1a 84 80 80 80 80 0f 03   res.............
|   3600: 00 3a 00 00 00 15 04 33 74 65 72 01 02 04 02 02   .:.....3ter.....
|   3616: 68 65 01 06 01 01 03 04 08 1b 84 80 80 80 80 0e   he..............
|   3632: 03 00 3c 00 00 00 16 04 33 70 72 65 01 02 05 01   ..<.....3pre....
|   3648: 03 74 61 62 01 06 01 01 05 04 08 1a 84 80 80 80   .tab............
|   3664: 80 0d 03 00 3a 00 00 00 15 04 33 66 6f 72 01 02   ....:.....3for..
|   3680: 02 02 02 74 73 01 06 01 01 04 04 08 1b 84 80 80   ...ts...........
|   3696: 80 80 0c 03 00 3c 00 00 00 16 03 32 74 68 01 06   .....<.....2th..
|   3712: 01 01 03 00 04 33 65 61 63 01 02 03 04 09 18 74   .....3eac......t
|   3728: 80 80 80 80 0b 03 00 36 00 00 00 13 03 32 74 61   .......6.....2ta
|   3744: 01 06 01 01 05 02 01 65 01 02 04 04 09 19 84 80   .......e........
|   3760: 80 80 80 0a 03 00 38 00 00 00 14 03 32 69 6e 01   ......8.....2in.
|   3776: 06 01 01 02 11 02 70 62 01 02 05 04 09 18 84 80   ......pb........
|   3792: 80 80 80 09 03 00 36 00 00 00 13 03 32 66 6f 01   ......6.....2fo.
|   3808: 02 02 02 01 74 01 06 01 01 04 04 07 1b 84 80 80   ....t...........
|   3824: 80 80 08 03 00 3c 0d c0 00 16 12 31 74 01 0a 04   .....<.....1t...
|   3840: 01 01 03 04 00 03 32 65 61 01 02 03 04 0a 17 84   ......2ea.......
|   3856: 80 80 80 80 07 03 00 34 00 00 00 12 02 31 69 01   .......4.....1i.
|   3872: 06 01 01 02 01 01 70 01 02 05 04 08 18 84 80 80   ......p.........
|   3888: 80 80 06 03 00 36 00 00 00 13 02 31 65 01 02 03   .....6.....1e...
|   3904: 01 01 66 01 08 02 5b 01 04 04 06 1b 84 80 80 80   ..f...[.........
|   3920: 80 05 03 00 3c 00 00 00 16 05 30 74 65 72 6d 01   ....<.....0term.
|   3936: 02 04 02 02 68 65 01 06 01 01 03 04 09 14 84 80   ....he..........
|   3952: 80 80 80 04 03 00 2e 00 00 00 10 06 30 74 61 62   ............0tab
|   3968: 6c 65 01 06 01 01 05 04 15 84 80 80 80 80 03 03   le..............
|   3984: 00 30 00 00 00 11 01 f8 30 70 72 65 73 65 6e 74   .0......0present
|   4000: 01 02 05 05 1b 84 80 80 80 80 02 03 00 3c 00 00   .............<..
|   4016: 00 16 04 30 66 74 73 01 06 01 01 04 01 02 69 6e   ...0fts.......in
|   4032: 01 06 01 01 04 0a 1a 84 80 80 80 80 01 03 00 3a   ...............:
|   4048: 00 00 00 15 05 30 65 61 63 68 01 02 03 01 03 66   .....0each.....f
|   4064: 6f 72 01 02 02 04 09 06 01 03 00 12 03 0b 0f 00   or..............
|   4080: 00 08 8c 80 80 80 80 11 03 00 16 00 00 00 05 04   ................
| page 3 offset 8192
|      0: 0a 00 00 00 32 0e 4f 00 0f fa 0f f1 0f e9 0f e1   ....2.O.........
|     16: 0f d8 0f d1 0f c9 0f c1 0f b9 0f b1 0f a9 0f a0   ................
|     32: 0f 98 0f 90 0f 87 0f 80 0f 78 0f 71 0f 68 0f 5f   .........x.q.h._
|     48: 0f 56 0f 4d 0f 41 0f 38 0f 2f 0f 26 0f 1d 0f 13   .V.M.A.8./.&....
|     64: 0f 0a 0f 01 0e f7 0e ee 0e e6 0e dd 0e d6 0e cd   ................
|     80: 0e c3 0e ba 0e b0 0e a8 0e 9f 0e 96 0e 00 00 00   ................
|   3648: 00 00 00 00 00 00 00 00 00 00 00 00 00 00 00 08   ................
|   3664: 04 01 10 01 03 34 74 20 07 04 02 4e 01 03 34 1e   .....4t ...N..4.
|   3680: 09 04 01 12 01 03 33 74 68 1c 08 04 01 10 01 03   ......3th.......
|   3696: 33 6e 1a 08 04 01 10 01 03 32 77 18 08 04 01 10   3n.......2w.....
|   3712: 01 03 32 74 16 08 04 01 10 01 03 32 6e 14 07 04   ..2t.......2n...
|   3728: 01 0e 01 03 32 12 08 04 01 10 01 03 31 74 10 08   ....2.......1t..
|   3744: 04 01 10 01 03 31 6e 0e 07 04 01 0e 01 03 31 0c   .....1n.......1.
|   3760: 09 04 01 12 01 03 30 74 68 0a 08 04 01 10 01 03   ......0th.......
|   3776: 30 74 08 19 04 01 12 01 03 30 6e 75 06 08 04 01   0t.......0nu....
|   3792: 10 01 03 30 6e 04 06 04 01 0c 01 03 02 08 04 01   ...0n...........
|   3808: 10 01 02 34 72 22 07 04 01 0e 01 02 34 20 08 04   ...4r.......4 ..
|   3824: 01 10 01 02 33 72 1e 09 04 01 12 01 02 33 61 72   ....3r.......3ar
|   3840: 1c 08 04 01 10 01 02 32 74 1a 08 04 01 10 01 02   .......2t.......
|   3856: 32 69 18 09 04 01 12 01 02 32 60 82 16 08 04 01   2i.......2`.....
|   3872: 10 01 02 31 74 14 08 04 01 10 01 02 31 6e 12 08   ...1t.......1n..
|   3888: 04 01 10 01 02 31 62 10 08 04 01 10 01 02 31 32   .....1b.......12
|   3904: 0e 0b 04 01 16 01 02 30 74 68 65 72 0c 08 04 01   .......0ther....
|   3920: 10 01 02 30 74 0a 08 04 01 10 01 02 30 6e 08 08   ...0t.......0n..
|   3936: 04 01 10 01 02 30 62 06 08 04 01 10 01 02 30 61   .....0b.......0a
|   3952: 04 06 04 01 0c 01 02 02 07 04 09 10 01 34 74 22   .............4t.
|   3968: 06 04 09 0e 01 34 20 08 04 09 12 01 33 74 65 1e   .....4 .....3te.
|   3984: 07 04 09 10 01 33 70 1c 07 04 09 10 01 33 66 1a   .....3p......3f.
|   4000: 08 04 09 12 01 32 74 68 18 07 04 09 10 01 32 74   .....2th......2t
|   4016: 16 07 04 09 10 01 32 69 14 07 04 09 10 01 32 66   ......2i......2f
|   4032: 12 07 04 09 10 01 31 74 10 07 04 09 10 01 31 69   ......1t......1i
|   4048: 0e 06 04 09 0e 01 31 0c 08 04 09 12 01 30 74 65   ......1......0te
|   4064: 0a 07 04 09 10 01 30 74 08 07 04 09 10 01 30 70   ......0t......0p
|   4080: 06 08 04 09 12 01 30 66 74 04 05 04 09 0c 01 02   ......0ft.......
| page 4 offset 12288
|      0: 0d 00 00 00 00 00 00 00 00 00 00 00 00 00 00 00   ................
|   4064: 00 00 00 00 00 00 00 00 00 00 00 05 03 03 00 10   ................
|   4080: 03 05 05 02 03 00 10 04 06 05 01 03 00 10 04 04   ................
| page 5 offset 16384
|      0: 0a 00 00 00 02 0f eb 00 0f eb 0f f4 00 00 00 00   ................
|   4064: 00 00 00 00 00 00 00 00 00 00 00 08 03 15 01 70   ...............p
|   4080: 67 83 7a 18 0b 03 1b 01 76 65 72 73 69 6f 6e 04   g.z.....version.
| page 6 offset 20480
|      0: 0d 00 00 00 03 0f f2 00 0f fc 0f 00 00 00 00 00   ................
|   4080: 00 00 03 03 02 01 03 03 02 02 01 02 02 01 02 09   ................
| end crash-c4a4c5492615bd.db
}]} {}


do_catchsql_test 83.1 {
  SELECT * FROM t1('R*R*R*R*R*R*R*R*') WHERE (a,b)<=(current_date,0 BETWEEN 'a'<>11 AND '') ORDER BY rowid DESC;
} {/.*fts5: corruption found/}

#-------------------------------------------------------------------------
reset_db
do_test 84.0 {
  sqlite3 db {}
  db deserialize [decode_hexdb {
.open --hexdb
| size 53248 pagesize 4096 filename c1a.txt.db
| page 1 offset 0
|      0: 53 51 4c 69 74 65 20 66 6f 72 6d 61 74 20 33 00   SQLite format 3.
|     16: 10 00 01 01 00 40 20 20 00 00 00 00 00 00 00 0d   .....@  ........
|     32: 00 00 00 02 00 00 00 01 00 00 00 09 00 00 00 04   ................
|     48: 00 00 00 00 00 00 00 00 00 00 00 01 00 00 00 00   ................
|     96: 00 00 00 00 0d 0f c7 00 07 0d 92 00 0f 8d 0f 36   ...............6
|    112: 0e cb 0e 6b 0e 0e 0d b6 0d 92 0d 92 00 00 00 00   ...k............
|   3472: 00 00 22 08 06 17 11 11 01 31 74 61 62 6c 65 74   .........1tablet
|   3488: 32 74 32 0d 43 52 45 41 54 45 20 54 41 42 4c 45   2t2.CREATE TABLE
|   3504: 20 74 32 28 78 29 56 07 06 17 1f 1f 01 7d 74 61    t2(x)V.......ta
|   3520: 62 6c 65 74 31 5f 63 6f 6e 66 69 67 74 31 5f 63   blet1_configt1_c
|   3536: 6f 6e 66 69 67 07 43 52 45 41 54 45 20 54 41 42   onfig.CREATE TAB
|   3552: 4c 45 20 27 74 31 5f 63 6f 6e 66 69 67 27 28 6b   LE 't1_config'(k
|   3568: 20 50 52 49 4d 41 52 59 20 4b 45 59 2c 20 76 29    PRIMARY KEY, v)
|   3584: 20 57 49 54 48 4f 55 54 20 52 4f 57 49 44 5b 06    WITHOUT ROWID[.
|   3600: 07 17 21 21 01 81 01 74 61 62 6c 65 74 31 5f 64   ..!!...tablet1_d
|   3616: 6f 63 73 69 7a 65 74 31 5f 64 6f 63 73 69 7a 65   ocsizet1_docsize
|   3632: 06 43 52 45 41 54 45 20 54 41 42 4c 45 20 27 74   .CREATE TABLE 't
|   3648: 31 5f 64 6f 63 73 69 7a 65 27 28 69 64 20 49 4e   1_docsize'(id IN
|   3664: 54 45 47 45 52 20 50 52 49 4d 41 52 59 20 4b 45   TEGER PRIMARY KE
|   3680: 59 2c 20 73 7a 20 42 4c 4f 42 29 5e 05 07 17 21   Y, sz BLOB)^...!
|   3696: 21 01 81 07 74 61 62 6c 65 74 31 5f 63 6f 6e 74   !...tablet1_cont
|   3712: 65 6e 74 74 31 5f 63 6f 6e 74 65 6e 74 05 43 52   entt1_content.CR
|   3728: 45 41 54 45 20 54 41 42 4c 45 20 27 74 31 5f 63   EATE TABLE 't1_c
|   3744: 6f 6e 74 65 6e 74 27 28 69 64 20 49 4e 54 45 47   ontent'(id INTEG
|   3760: 45 52 20 50 52 49 4d 41 52 59 20 4b 45 59 2c 20   ER PRIMARY KEY, 
|   3776: 63 30 2c 20 63 31 2c 20 63 32 29 69 04 07 17 19   c0, c1, c2)i....
|   3792: 19 01 81 2d 74 61 62 6c 65 74 31 5f 69 64 78 74   ...-tablet1_idxt
|   3808: 31 5f 69 64 78 04 43 52 45 41 54 45 20 54 41 42   1_idx.CREATE TAB
|   3824: 4c 45 20 27 74 31 5f 69 64 78 27 28 73 65 67 69   LE 't1_idx'(segi
|   3840: 64 2c 20 74 65 72 6d 2c 20 70 67 6e 6f 2c 20 50   d, term, pgno, P
|   3856: 52 49 4d 41 52 59 20 4b 45 59 28 73 65 67 69 64   RIMARY KEY(segid
|   3872: 2c 20 74 65 72 6d 29 29 20 57 49 54 48 4f 55 54   , term)) WITHOUT
|   3888: 20 52 4f 57 49 44 55 03 07 17 1b 1b 01 81 01 74    ROWIDU........t
|   3904: 61 62 6c 65 74 31 5f 64 61 74 61 74 31 5f 64 61   ablet1_datat1_da
|   3920: 74 61 03 43 52 45 41 54 45 20 54 41 42 4c 45 20   ta.CREATE TABLE 
|   3936: 27 74 31 5f 64 61 74 61 27 28 69 64 20 49 4e 54   't1_data'(id INT
|   3952: 45 47 45 52 20 50 52 49 4d 41 52 59 20 4b 45 59   EGER PRIMARY KEY
|   3968: 2c 20 62 6c 6f 63 6b 20 42 4c 4f 42 29 38 02 06   , block BLOB)8..
|   3984: 17 11 11 08 5f 74 61 62 6c 65 74 31 74 31 43 52   ...._tablet1t1CR
|   4000: 45 41 54 45 20 56 49 52 54 55 41 4c 20 54 41 42   EATE VIRTUAL TAB
|   4016: 4c 45 20 74 31 20 55 53 49 4e 47 20 66 74 73 35   LE t1 USING fts5
|   4032: 28 61 2c 62 2c 63 29 00 00 00 39 00 00 00 00 00   (a,b,c)...9.....
| page 3 offset 8192
|      0: 05 00 00 00 02 0f f1 00 00 00 00 0c 0f fb 0f f1   ................
|   4064: 00 00 0b 01 03 00 1c 81 3a 84 5e 81 3a 81 3a 0a   ........:.^.:.:.
|   4080: 0a 00 00 00 0b 84 80 80 80 80 01 00 00 00 0a 0a   ................
| page 4 offset 12288
|      0: 0a 00 00 00 01 0f fa 00 0f fa 00 00 00 00 00 00   ................
|   4080: 00 00 00 00 00 00 00 00 00 00 05 04 09 0c 01 02   ................
| page 7 offset 24576
|      0: 0a 00 00 00 01 0f f4 00 0f f4 00 00 00 00 00 00   ................
|   4080: 00 00 00 00 0b 03 1b 01 76 65 72 73 69 6f 6e 04   ........version.
| page 10 offset 36864
|      0: 0d 00 00 00 02 0f e2 00 0f e2 0f ef 00 00 00 00   ................
|   4064: 00 00 0b 01 03 00 1c 81 3a 84 5e 81 3a 81 3a 0f   ........:.^.:.:.
|   4080: 0a 03 00 24 00 00 00 00 01 01 02 00 01 01 01 09   ...$............
| page 11 offset 40960
|      0: 0d 00 00 00 01 00 22 00 00 22 00 00 00 00 00 00   ................
|     32: 00 00 9f 56 84 80 80 80 80 01 04 00 bf 30 00 00   ...V.........0..
|     48: 0f 58 02 30 30 19 02 05 01 02 05 01 02 05 16 02   .X.00...........
|     64: 05 01 02 05 01 02 05 61 02 05 01 02 05 01 02 05   .......a........
|     80: 13 02 05 01 02 05 01 02 05 0d 02 03 01 02 03 01   ................
|     96: 02 03 02 09 78 66 66 66 66 66 66 66 65 81 17 02   ....xfffffffe...
|    112: 05 01 02 05 01 02 05 01 01 31 04 02 04 01 02 04   .........1......
|    128: 01 02 04 01 02 05 01 02 05 01 02 05 0d 02 06 01   ................
|    144: 02 06 01 02 06 02 01 30 79 02 04 01 02 04 01 02   .......0y.......
|    160: 04 03 02 30 30 2b 02 05 01 02 05 01 02 05 58 02   ...00+........X.
|    176: 05 01 02 05 01 02 05 01 02 05 01 02 05 01 02 05   ................
|    192: 16 02 05 01 02 05 01 02 05 05 06 30 30 30 30 30   ...........00000
|    208: 30 81 0b 02 04 01 02 04 01 02 04 10 02 05 01 02   0...............
|    224: 05 01 02 05 03 02 32 34 76 02 05 01 02 05 01 02   ......24v.......
|    240: 05 02 01 38 07 02 04 01 02 04 01 02 04 01 01 32   ...8...........2
|    256: 28 02 04 01 02 04 01 02 04 04 02 05 01 02 05 01   (...............
|    272: 02 05 02 01 30 1f 02 05 01 02 05 01 02 05 03 02   ....0...........
|    288: 30 30 10 02 05 01 02 05 01 02 05 6a 02 04 01 02   00.........j....
|    304: 04 01 02 04 02 08 35 30 30 30 30 30 30 30 81 26   ......50000000.&
|    320: 02 05 01 02 05 01 02 05 01 01 33 07 02 06 01 02   ..........3.....
|    336: 06 01 02 06 81 2c 02 04 01 02 04 01 02 04 02 04   .....,..........
|    352: 32 37 36 36 81 23 02 05 01 02 05 01 02 05 01 01   2766.#..........
|    368: 34 13 02 05 01 02 05 01 02 05 02 03 30 39 36 1c   4...........096.
|    384: 02 05 01 02 05 01 02 05 07 02 05 01 02 05 01 02   ................
|    400: 05 01 03 35 30 30 7f 02 05 01 02 05 01 02 05 04   ...500..........
|    416: 02 30 30 81 0e 02 06 01 02 06 01 02 06 06 03 30   .00............0
|    432: 30 30 81 11 02 04 01 02 04 01 02 04 01 05 36 35   00............65
|    448: 35 33 36 81 1a 02 05 01 02 05 01 02 05 01 04 38   536............8
|    464: 31 39 32 81 02 02 06 01 02 06 01 02 06 01 05 61   192............a
|    480: 6c 6c 6f 77 01 02 02 01 02 02 01 02 02 02 02 72   llow...........r
|    496: 67 81 08 02 04 01 02 04 01 02 04 02 05 74 6f 6d   g............tom
|    512: 69 63 04 02 02 01 02 02 01 02 02 03 06 74 61 63   ic...........tac
|    528: 68 65 64 79 02 03 01 02 03 01 02 03 02 0d 75 74   hedy..........ut
|    544: 6f 63 68 65 63 6b 70 6f 69 6e 74 2b 02 04 01 02   ocheckpoint+....
|    560: 04 01 02 04 05 06 76 61 63 75 75 6d 0d 02 03 01   ......vacuum....
|    576: 02 03 01 02 03 01 06 62 69 6e 61 72 79 03 06 01   .......binary...
|    592: 02 02 03 06 01 02 02 03 06 01 02 02 03 06 01 02   ................
|    608: 02 03 06 01 02 02 03 06 01 02 02 03 06 01 02 02   ................
|    624: 03 06 01 02 02 03 06 01 02 02 03 06 01 02 02 03   ................
|    640: 06 01 02 02 03 06 01 02 02 03 06 01 02 02 03 06   ................
|    656: 01 02 02 03 06 01 02 02 03 06 01 02 02 03 06 01   ................
|    672: 02 02 03 06 01 02 02 03 06 01 02 02 03 06 01 02   ................
|    688: 02 03 06 01 02 02 03 06 01 02 02 03 06 01 02 02   ................
|    704: 03 06 01 02 02 03 06 01 02 02 03 06 01 02 02 03   ................
|    720: 06 01 02 02 03 06 01 02 02 03 06 01 02 02 03 06   ................
|    736: 01 02 02 03 06 01 02 02 03 06 01 02 02 03 06 01   ................
|    752: 02 02 03 06 01 02 02 03 06 01 02 02 03 06 01 02   ................
|    768: 02 03 06 01 02 02 03 06 01 02 02 03 06 01 02 02   ................
|    784: 03 06 01 02 02 03 06 01 02 02 03 06 01 02 02 03   ................
|    800: 06 01 02 02 03 06 01 02 02 03 06 01 02 02 03 06   ................
|    816: 01 02 02 03 06 01 02 02 03 06 01 02 02 03 06 01   ................
|    832: 02 02 03 06 01 02 02 03 06 01 02 02 03 06 01 02   ................
|    848: 02 03 06 01 02 02 03 06 01 02 02 03 06 01 02 02   ................
|    864: 03 06 01 02 02 03 06 01 02 02 03 06 01 02 02 03   ................
|    880: 06 01 02 02 03 06 01 02 02 03 06 01 02 02 03 06   ................
|    896: 01 02 02 02 07 79 74 65 63 6f 64 65 37 02 03 01   .....ytecode7...
|    912: 02 03 01 02 03 01 05 63 61 63 68 65 10 02 03 01   .......cache....
|    928: 02 03 01 01 03 02 04 6c 61 6e 67 07 02 03 01 02   .......lang.....
|    944: 03 01 02 03 02 05 6f 6c 75 6d 6e 7c 02 03 01 02   ......olumn|....
|    960: 03 01 02 03 03 06 6d 6d 65 6e 74 73 43 02 04 01   ......mmentsC...
|    976: 02 04 01 02 04 04 05 70 69 6c 65 72 07 02 02 01   .......piler....
|    992: 02 02 01 02 02 05 04 6f 75 6e 64 7f 02 03 01 02   .......ound.....
|   1008: 03 01 02 03 03 03 75 6e 74 81 17 02 04 01 02 04   ......unt.......
|   1024: 01 02 04 02 05 75 72 73 6f 72 3a 02 03 01 02 03   .....ursor:.....
|   1040: 01 02 03 01 06 64 62 70 61 67 65 3d 02 03 01 02   .....dbpage=....
|   1056: 03 01 02 03 03 04 73 74 61 74 40 02 03 01 02 03   ......stat@.....
|   1072: 01 02 03 02 04 65 62 75 67 0a 02 02 01 02 02 01   .....ebug.......
|   1088: 02 02 03 05 66 61 75 6c 74 0d 02 02 01 02 02 01   ....fault.......
|   1104: 02 02 01 02 02 01 02 02 01 02 02 01 02 02 01 02   ................
|   1120: 02 01 02 02 01 02 02 01 02 02 01 02 02 01 02 02   ................
|   1136: 01 02 02 01 02 02 01 02 02 01 02 02 01 02 02 01   ................
|   1152: 02 02 01 02 02 01 02 02 01 02 02 01 02 02 01 02   ................
|   1168: 02 01 02 02 01 02 02 01 02 02 01 02 02 01 02 02   ................
|   1184: 01 02 02 01 02 02 01 02 02 01 02 02 01 02 02 01   ................
|   1200: 02 02 01 02 02 01 02 02 01 02 02 01 02 02 4f 02   ..............O.
|   1216: 03 01 02 03 01 02 03 03 03 70 74 68 81 05 02 04   .........pth....
|   1232: 01 02 04 01 02 04 19 02 04 01 02 04 01 02 04 02   ................
|   1248: 05 69 72 65 63 74 34 02 02 01 02 02 01 02 02 01   .irect4.........
|   1264: 06 65 6e 61 62 6c 65 37 02 02 01 02 02 01 02 02   .enable7........
|   1280: 01 02 02 01 02 02 01 02 02 01 02 02 01 02 02 01   ................
|   1296: 02 02 01 02 02 01 02 02 01 02 02 01 02 02 01 02   ................
|   1312: 02 01 02 02 01 02 02 01 02 02 01 02 02 01 02 02   ................
|   1328: 01 02 02 01 02 02 01 02 02 01 02 02 01 02 02 01   ................
|   1344: 02 02 01 02 02 01 02 02 01 02 02 01 02 02 01 02   ................
|   1360: 02 01 02 02 01 02 02 01 02 02 01 02 02 01 02 02   ................
|   1376: 01 02 02 01 02 02 01 02 02 01 02 02 01 02 02 01   ................
|   1392: 02 02 01 02 02 01 02 02 01 02 02 01 02 02 01 02   ................
|   1408: 02 01 02 02 01 02 02 01 02 02 01 02 02 01 02 02   ................
|   1424: 01 02 02 01 02 02 01 02 02 01 02 02 01 02 02 01   ................
|   1440: 02 02 01 02 02 01 02 02 01 02 02 01 02 02 01 02   ................
|   1456: 02 01 02 02 02 06 78 70 6c 61 69 6e 43 02 03 01   ......xplainC...
|   1472: 02 03 01 02 03 04 01 72 81 05 02 03 01 02 03 01   .......r........
|   1488: 02 03 03 07 74 65 6e 73 69 6f 6e 81 2f 02 04 01   ....tension./...
|   1504: 02 04 01 02 04 01 04 66 69 6c 65 13 02 03 01 02   .......file.....
|   1520: 03 01 02 03 02 05 6f 72 6d 61 74 13 02 04 01 02   ......ormat.....
|   1536: 04 01 02 04 02 03 74 73 33 46 02 03 01 02 03 01   ......ts3F......
|   1552: 02 03 01 02 03 01 02 03 01 02 03 04 01 34 4c 02   .............4L.
|   1568: 03 01 02 03 01 02 03 04 01 35 4f 02 03 01 02 03   .........5O.....
|   1584: 01 02 03 02 03 75 6e 63 5e 02 05 01 02 05 01 02   .....unc^.......
|   1600: 05 05 04 74 69 6f 6e 73 02 05 01 02 05 01 02 05   ...tions........
|   1616: 13 02 03 01 02 03 01 02 03 09 01 73 55 02 04 01   ...........sU...
|   1632: 02 04 01 02 04 01 07 67 65 6f 70 6f 6c 79 52 02   .......geopolyR.
|   1648: 03 01 02 03 01 02 03 01 05 68 69 6e 74 73 3a 02   .........hints:.
|   1664: 04 01 02 04 01 02 04 02 03 6f 6f 6b 61 02 04 01   .........ooka...
|   1680: 02 04 01 02 04 01 02 69 6e 01 02 04 01 02 04 01   .......in.......
|   1696: 02 04 03 04 69 74 73 7a 1f 02 04 01 02 04 01 02   ....itsz........
|   1712: 04 03 08 74 72 69 6e 73 69 63 73 04 02 03 01 02   ...trinsics.....
|   1728: 03 01 02 03 01 07 6a 6f 75 72 6e 61 6c 16 02 03   ......journal...
|   1744: 01 02 03 01 02 03 01 06 6c 65 6e 67 74 68 81 0b   ........length..
|   1760: 02 03 01 02 03 01 02 03 01 02 05 01 02 05 01 02   ................
|   1776: 05 0d 02 04 01 02 04 01 02 04 02 03 69 6b 65 81   ............ike.
|   1792: 0e 02 03 01 02 03 01 02 03 03 03 6d 69 74 16 02   ...........mit..
|   1808: 05 01 02 05 01 02 05 5e 02 04 01 02 04 01 02 04   .......^........
|   1824: 02 03 6f 61 64 81 2f 02 03 01 02 03 01 02 03 01   ..oad./.........
|   1840: 06 6d 61 6c 6c 6f 63 76 02 02 01 02 02 01 02 02   .mallocv........
|   1856: 3a 02 03 01 02 03 01 02 03 03 02 74 68 55 02 03   :..........thU..
|   1872: 01 02 03 01 02 03 03 01 78 79 02 02 01 02 02 01   ........xy......
|   1888: 02 02 01 02 02 01 02 02 01 02 02 01 02 02 01 02   ................
|   1904: 02 01 02 02 01 02 02 01 02 02 01 02 02 01 02 02   ................
|   1920: 01 02 02 01 02 02 01 02 02 01 02 02 01 02 02 01   ................
|   1936: 02 02 01 02 02 01 02 02 01 02 02 01 02 02 01 02   ................
|   1952: 02 01 02 02 01 02 02 01 02 02 01 02 02 01 02 02   ................
|   1968: 01 02 02 01 02 02 01 02 02 01 02 02 01 02 02 01   ................
|   1984: 02 02 01 02 02 01 02 02 01 02 02 01 02 02 01 02   ................
|   2000: 02 01 02 02 01 02 02 01 02 02 01 02 02 01 02 02   ................
|   2016: 01 02 02 01 02 02 01 02 02 01 02 02 01 02 02 01   ................
|   2032: 02 02 02 05 65 6d 6f 72 79 81 11 02 03 01 02 03   ....emory.......
|   2048: 01 02 03 04 04 73 79 73 35 58 02 03 01 02 03 01   .....sys5X......
|   2064: 02 03 02 03 6d 61 70 19 02 03 01 02 03 01 02 03   ....map.........
|   2080: 79 02 03 01 02 03 01 02 03 02 04 75 74 65 78 81   y..........utex.
|   2096: 2c 02 02 01 02 02 01 02 02 01 06 6e 6f 63 61 73   ,..........nocas
|   2112: 65 02 06 01 02 02 03 06 01 02 02 03 06 01 02 02   e...............
|   2128: 03 06 01 02 02 03 06 01 02 02 03 06 01 02 02 03   ................
|   2144: 06 01 02 02 03 06 01 02 02 03 06 01 02 02 03 06   ................
|   2160: 01 02 02 03 06 01 02 02 03 06 01 02 02 03 06 01   ................
|   2176: 02 02 03 06 01 02 02 03 06 01 02 02 03 06 01 02   ................
|   2192: 02 03 06 01 02 02 03 06 01 02 02 03 06 01 02 02   ................
|   2208: 03 06 01 02 02 03 06 01 02 02 03 06 01 02 02 03   ................
|   2224: 06 01 02 02 03 06 01 02 02 03 06 01 02 02 03 06   ................
|   2240: 01 02 02 03 06 01 02 02 03 06 01 02 02 03 06 01   ................
|   2256: 02 02 03 06 01 02 02 03 06 01 02 02 03 06 01 02   ................
|   2272: 02 03 06 01 02 02 03 06 01 02 02 03 06 01 02 02   ................
|   2288: 03 06 01 02 02 03 06 01 02 02 03 06 01 02 02 03   ................
|   2304: 06 01 02 02 03 06 01 02 02 03 06 01 02 02 03 06   ................
|   2320: 01 02 02 03 06 01 02 02 03 06 01 02 02 03 06 01   ................
|   2336: 02 02 03 06 01 02 02 03 06 01 02 02 03 06 01 02   ................
|   2352: 02 03 06 01 02 02 03 06 01 02 02 03 06 01 02 02   ................
|   2368: 03 06 01 02 02 03 06 01 02 02 03 06 01 02 02 03   ................
|   2384: 06 01 02 02 03 06 01 02 02 03 06 01 02 02 03 06   ................
|   2400: 01 02 02 03 06 01 02 02 03 06 01 02 02 03 06 01   ................
|   2416: 02 02 03 06 01 02 02 03 07 72 6d 61 6c 69 7a 65   .........rmalize
|   2432: 5b 02 03 01 02 03 01 02 03 02 05 75 6d 62 65 72   [..........umber
|   2448: 81 23 02 04 01 02 04 01 02 04 01 06 6f 66 66 73   .#..........offs
|   2464: 65 74 5e 02 03 01 02 03 01 02 03 02 03 6d 69 74   et^..........mit
|   2480: 81 2c 02 03 01 02 03 01 02 03 01 02 02 01 02 02   .,..............
|   2496: 01 02 02 02 01 70 81 26 02 04 01 02 04 01 02 04   .....p.&........
|   2512: 02 07 76 65 72 66 6c 6f 77 34 02 03 01 02 03 01   ..verflow4......
|   2528: 02 03 01 04 70 61 67 65 1c 02 03 01 02 03 01 02   ....page........
|   2544: 03 64 02 04 01 02 04 01 02 04 13 02 03 01 02 03   .d..............
|   2560: 01 02 03 01 02 03 01 02 03 01 02 03 03 09 72 65   ..............re
|   2576: 6e 74 68 65 73 69 73 49 02 04 01 02 04 01 02 04   nthesisI........
|   2592: 03 05 74 74 65 72 6e 81 0e 02 04 01 02 04 01 02   ..ttern.........
|   2608: 04 02 05 63 61 63 68 65 1f 02 03 01 02 03 01 02   ...cache........
|   2624: 03 02 08 72 65 75 70 64 61 74 65 61 02 03 01 02   ...reupdatea....
|   2640: 03 01 02 03 01 04 72 65 61 64 34 02 04 01 02 04   ......read4.....
|   2656: 01 02 04 03 07 63 75 72 73 69 76 65 22 02 03 01   .....cursive....
|   2672: 02 03 01 02 03 02 04 6f 77 69 64 01 02 03 01 02   .......owid.....
|   2688: 03 01 02 03 02 04 74 72 65 65 64 02 03 01 02 03   ......treed.....
|   2704: 01 02 03 04 02 69 6d 01 06 01 02 02 03 06 01 02   .....im.........
|   2720: 02 03 06 01 02 02 03 06 01 02 02 03 06 01 02 02   ................
|   2736: 03 06 01 02 02 03 06 01 02 02 03 06 01 02 02 03   ................
|   2752: 06 01 02 02 03 06 01 02 02 03 06 01 02 02 03 06   ................
|   2768: 01 02 02 03 06 01 02 02 03 06 01 02 02 03 06 01   ................
|   2784: 02 02 03 06 01 02 02 03 06 01 02 02 03 06 01 02   ................
|   2800: 02 03 06 01 02 02 03 06 01 02 02 03 06 01 02 02   ................
|   2816: 03 06 01 02 02 03 06 01 02 02 03 06 01 02 02 03   ................
|   2832: 06 01 02 02 03 06 01 02 02 03 06 01 02 02 03 06   ................
|   2848: 01 02 02 03 06 01 02 02 03 06 01 02 02 03 06 01   ................
|   2864: 02 02 03 06 01 02 02 03 06 01 02 02 03 06 01 02   ................
|   2880: 02 03 06 01 02 02 03 06 01 02 02 03 06 01 02 02   ................
|   2896: 03 06 01 02 02 03 06 01 02 02 03 06 01 02 02 03   ................
|   2912: 06 01 02 02 03 06 01 02 02 03 06 01 02 02 03 06   ................
|   2928: 01 02 02 03 06 01 02 02 03 06 01 02 02 03 06 01   ................
|   2944: 02 02 03 06 01 02 02 03 06 01 02 02 03 06 01 02   ................
|   2960: 02 03 06 01 02 02 03 06 01 02 02 03 06 01 02 02   ................
|   2976: 03 06 01 02 02 03 06 01 02 02 03 06 01 02 02 03   ................
|   2992: 06 01 02 02 03 06 01 02 02 03 06 01 02 02 03 06   ................
|   3008: 01 02 02 03 06 01 02 02 03 06 01 02 02 01 0a 73   ...............s
|   3024: 63 61 6e 73 74 61 74 75 73 70 02 04 01 02 04 01   canstatusp......
|   3040: 02 04 02 05 65 63 74 6f 72 25 02 03 01 02 03 01   ....ector%......
|   3056: 02 03 03 04 6c 65 63 74 7f 02 04 01 02 04 01 02   ....lect........
|   3072: 04 03 05 73 73 69 6f 6e 67 02 03 01 02 03 01 02   ...ssiong.......
|   3088: 03 02 03 69 7a 65 10 02 04 01 02 04 01 02 04 04   ...ize..........
|   3104: 02 04 01 02 04 01 02 04 01 02 04 01 02 04 01 02   ................
|   3120: 04 01 02 04 01 02 04 01 02 04 07 02 04 01 02 04   ................
|   3136: 01 02 04 5b 02 05 01 02 05 01 02 05 10 02 04 01   ...[............
|   3152: 02 04 01 02 04 04 02 04 01 02 04 01 02 04 02 03   ................
|   3168: 6f 66 74 76 02 03 01 02 03 01 02 03 02 02 71 6c   oftv..........ql
|   3184: 5e 02 04 01 02 04 01 02 04 13 02 04 01 02 04 01   ^...............
|   3200: 02 04 28 02 03 01 02 03 01 02 03 02 04 74 61 74   ..(..........tat
|   3216: 34 6a 02 03 01 02 03 01 02 03 03 02 6d 74 70 02   4j..........mtp.
|   3232: 03 01 02 03 01 02 03 05 04 76 74 61 62 6d 02 03   .........vtabm..
|   3248: 01 02 03 01 02 03 03 03 6f 72 65 81 35 02 03 01   ........ore.5...
|   3264: 02 03 01 02 03 02 0a 79 6e 63 68 72 6f 6e 6f 75   .......ynchronou
|   3280: 73 28 02 03 01 02 03 01 02 03 04 02 04 01 02 04   s(..............
|   3296: 01 02 04 03 04 73 74 65 6d 81 32 02 02 01 02 02   .....stem.2.....
|   3312: 01 02 02 01 04 74 65 6d 70 81 35 02 02 01 02 02   .....temp.5.....
|   3328: 01 02 02 02 06 68 72 65 61 64 73 31 02 04 01 02   .....hreads1....
|   3344: 04 01 02 04 76 02 04 01 02 04 01 02 04 08 03 61   ....v..........a
|   3360: 66 65 81 38 02 02 01 02 02 01 02 02 02 06 72 69   fe.8..........ri
|   3376: 67 67 65 72 81 20 02 03 01 02 03 01 02 03 08 01   gger. ..........
|   3392: 73 22 02 04 01 02 04 01 02 04 01 07 75 6e 6b 6e   s...........unkn
|   3408: 6f 77 6e 73 02 03 01 02 03 01 02 03 01 08 76 61   owns..........va
|   3424: 72 69 61 62 6c 65 81 23 02 03 01 02 03 01 02 03   riable.#........
|   3440: 02 03 64 62 65 81 26 02 03 01 02 03 01 02 03 02   ..dbe.&.........
|   3456: 03 69 65 77 01 02 05 01 02 05 01 02 05 02 03 74   .iew...........t
|   3472: 61 62 37 02 04 01 02 04 01 02 04 04 02 04 01 02   ab7.............
|   3488: 04 01 02 04 01 02 04 01 02 04 01 02 04 01 03 77   ...............w
|   3504: 61 6c 2b 02 03 01 02 03 01 02 03 01 02 03 01 02   al+.............
|   3520: 03 01 02 03 02 05 6f 72 6b 65 72 31 02 03 01 02   ......orker1....
|   3536: 03 01 02 03 76 02 03 01 02 03 01 02 03 01 01 78   ....v..........x
|   3552: 01 06 01 01 02 01 06 01 01 02 01 06 01 01 02 01   ................
|   3568: 06 01 01 02 01 06 01 01 02 01 06 01 01 02 01 06   ................
|   3584: 01 01 02 01 06 01 01 02 01 06 01 01 02 01 06 01   ................
|   3600: 01 02 01 06 01 01 02 01 06 01 01 02 01 06 01 01   ................
|   3616: 02 01 06 01 01 02 01 06 01 01 02 01 06 01 01 02   ................
|   3632: 01 06 01 01 02 01 06 01 01 02 01 06 01 01 02 01   ................
|   3648: 06 01 01 02 01 06 01 01 02 01 06 01 01 02 01 06   ................
|   3664: 01 01 02 01 06 01 01 02 01 06 01 01 02 01 06 01   ................
|   3680: 01 02 01 06 01 01 02 01 06 01 01 02 01 06 01 01   ................
|   3696: 02 01 06 01 01 02 01 06 01 01 02 01 06 01 01 02   ................
|   3712: 01 06 01 01 02 01 06 01 01 02 01 06 01 01 02 01   ................
|   3728: 06 01 01 02 01 06 01 01 02 01 06 01 01 02 01 06   ................
|   3744: 01 01 02 01 06 01 01 02 01 06 01 01 02 01 06 01   ................
|   3760: 01 02 01 06 01 01 02 01 06 01 01 02 01 06 01 01   ................
|   3776: 02 01 06 01 01 02 01 06 01 01 02 01 06 01 01 02   ................
|   3792: 01 06 01 01 02 01 06 01 01 02 01 06 01 01 02 01   ................
|   3808: 06 01 01 02 01 06 01 01 02 01 06 01 01 02 01 06   ................
|   3824: 01 01 02 01 06 01 01 02 01 06 01 01 02 01 06 01   ................
|   3840: 01 02 01 06 01 01 02 01 06 01 01 02 01 06 01 01   ................
|   3856: 02 01 06 01 01 02 01 06 01 01 02 01 06 01 01 02   ................
|   3872: 01 06 01 01 02 01 06 01 01 02 01 06 01 01 02 01   ................
|   3888: 06 01 01 02 01 06 01 01 02 01 06 01 01 02 01 06   ................
|   3904: 01 01 02 01 06 01 01 02 01 06 01 01 02 01 06 01   ................
|   3920: 01 02 01 06 01 01 02 01 06 01 01 02 01 06 01 01   ................
|   3936: 02 01 06 01 01 02 01 06 01 01 02 01 06 01 01 02   ................
|   3952: 01 06 01 01 02 01 06 01 01 02 01 06 01 01 02 01   ................
|   3968: 06 01 01 02 01 06 04 30 15 1e 0c 28 1b 0d 0c 15   .......0...(....
|   3984: 0c 16 14 16 10 0c 17 0e 0e 0f 11 10 10 0e 10 11   ................
|   4000: 18 11 82 3e 12 10 0f 10 11 10 0f 0f 10 11 0f 0f   ...>............
|   4016: 81 05 18 10 81 45 11 0d 13 0f 10 17 0c 0c 0e 18   .....E..........
|   4032: 0c 12 10 0e 0d 0f 13 12 24 0f 17 0f 1a 0d 81 1c   ........$.......
|   4048: 11 0f 17 10 82 3e 12 11 11 18 0d 12 2a 14 11 10   .....>......*...
|   4064: 13 0f 12 0f 0f 82 3a 15 10 0f 10 4d 0e 1f 0f 0d   ......:....M....
|   4080: 0f 0f 1e 10 10 1a 0f 12 0c 12 14 0f 0e 20 17 19   ............. ..
| page 12 offset 45056
|      0: 0d 00 00 00 01 0d f4 00 0d f4 00 00 00 00 00 00   ................
|   3568: 00 00 00 00 84 04 84 80 80 80 80 02 04 00 88 0c   ................
|   3584: 00 07 02 00 01 01 02 56 06 01 01 02 01 06 01 01   .......V........
|   3600: 02 01 06 01 01 02 01 06 01 01 02 01 06 01 01 02   ................
|   3616: 01 06 01 01 02 01 06 01 01 02 01 06 01 01 02 01   ................
|   3632: 06 01 01 02 01 06 01 01 02 01 06 01 01 02 01 06   ................
|   3648: 01 01 02 01 06 01 01 02 01 06 01 01 02 01 06 01   ................
|   3664: 01 02 01 06 01 01 02 01 06 01 01 02 01 06 01 01   ................
|   3680: 02 01 06 01 01 02 01 06 01 01 02 01 06 01 01 02   ................
|   3696: 01 06 01 01 02 01 06 01 01 02 01 06 01 01 02 01   ................
|   3712: 06 01 01 02 01 06 01 01 02 01 06 01 01 02 01 06   ................
|   3728: 01 01 02 01 06 01 01 02 01 06 01 01 02 01 06 01   ................
|   3744: 01 02 01 06 01 01 02 01 06 01 01 02 01 06 01 01   ................
|   3760: 02 01 06 01 01 02 01 06 01 01 02 01 06 01 01 02   ................
|   3776: 01 06 01 01 02 01 06 01 01 02 01 06 01 01 02 01   ................
|   3792: 06 01 01 02 01 06 01 01 02 01 06 01 01 02 01 06   ................
|   3808: 01 01 02 01 06 01 01 02 01 06 01 01 02 01 06 01   ................
|   3824: 01 02 01 06 01 01 02 01 06 01 01 02 01 06 01 01   ................
|   3840: 02 01 06 01 01 02 01 06 01 01 02 01 06 01 01 02   ................
|   3856: 01 06 01 01 02 01 06 01 01 02 01 06 01 01 02 01   ................
|   3872: 06 01 01 02 01 06 01 01 02 01 06 01 01 02 01 06   ................
|   3888: 01 01 02 01 06 01 01 02 01 06 01 01 02 01 06 01   ................
|   3904: 01 02 01 06 01 01 02 01 06 01 01 02 01 06 01 01   ................
|   3920: 02 01 06 01 01 02 01 06 01 01 02 01 06 01 01 02   ................
|   3936: 01 06 01 01 02 01 06 01 01 02 01 06 01 01 02 01   ................
|   3952: 06 01 01 02 01 06 01 01 02 01 06 01 01 02 01 06   ................
|   3968: 01 01 02 01 06 01 01 02 01 06 01 01 02 01 06 01   ................
|   3984: 01 02 01 06 01 01 02 01 06 01 01 02 01 06 01 01   ................
|   4000: 02 01 06 01 01 02 01 06 01 01 02 01 06 01 01 02   ................
|   4016: 01 06 01 01 02 01 06 01 01 02 01 06 01 01 02 01   ................
|   4032: 06 01 01 02 01 06 01 01 02 01 06 01 01 02 01 06   ................
|   4048: 52 01 02 01 06 01 01 02 01 06 01 01 02 01 06 01   R...............
|   4064: 01 02 01 06 01 01 02 01 06 01 01 02 01 06 01 01   ................
|   4080: 02 01 06 01 01 02 01 06 01 01 02 01 06 01 01 02   ................
| end c1a.txt.db
}]} {}

do_catchsql_test 84.1 {
  SELECT * FROM t1('R*R*x') ORDER BY rowid DESC;
} {1 {fts5: corruption found reading blob 137438953475 from table "t1"}}

sqlite3_fts5_may_be_corrupt 0
finish_test
